---
triple:          'x86_64-apple-darwin'
binary-path:     b
relocations:
  - { offset: 0x5C, size: 0x8, addend: 0x0, symName: __ZNSt3__119piecewise_constructE, symObjAddr: 0x43AF, symBinAddr: 0x100004E50, symSize: 0x0 }
  - { offset: 0x8225, size: 0x8, addend: 0x0, symName: __ZNSt3__13minB8ne180100IiEERKT_S3_S3_, symObjAddr: 0x360, symBinAddr: 0x100000D40, symSize: 0x30 }
  - { offset: 0x8268, size: 0x8, addend: 0x0, symName: __ZNSt3__1eqB8ne180100ERKNS_19__hash_map_iteratorINS_15__hash_iteratorIPNS_11__hash_nodeINS_17__hash_value_typeIiiEEPvEEEEEESB_, symObjAddr: 0x4B0, symBinAddr: 0x100000E90, symSize: 0x30 }
  - { offset: 0x8F03, size: 0x8, addend: 0x0, symName: __ZNSt3__14endlB8ne180100IcNS_11char_traitsIcEEEERNS_13basic_ostreamIT_T0_EES7_, symObjAddr: 0x560, symBinAddr: 0x100000F40, symSize: 0x50 }
  - { offset: 0x8F43, size: 0x8, addend: 0x0, symName: __ZNSt3__122__make_exception_guardB8ne180100INS_6vectorIiNS_9allocatorIiEEE16__destroy_vectorEEENS_28__exception_guard_exceptionsIT_EES7_, symObjAddr: 0x720, symBinAddr: 0x100001100, symSize: 0x40 }
  - { offset: 0x8F78, size: 0x8, addend: 0x0, symName: __ZNSt3__119__allocate_at_leastB8ne180100INS_9allocatorIiEEEENS_19__allocation_resultINS_16allocator_traitsIT_E7pointerEEERS5_m, symObjAddr: 0xAD0, symBinAddr: 0x1000014B0, symSize: 0x40 }
  - { offset: 0x8FBB, size: 0x8, addend: 0x0, symName: __ZNSt3__13minB8ne180100ImEERKT_S3_S3_, symObjAddr: 0xB60, symBinAddr: 0x100001540, symSize: 0x30 }
  - { offset: 0x91E8, size: 0x8, addend: 0x0, symName: __ZNSt3__13minB8ne180100ImNS_6__lessIvvEEEERKT_S5_S5_T0_, symObjAddr: 0xBF0, symBinAddr: 0x1000015D0, symSize: 0x50 }
  - { offset: 0x92B8, size: 0x8, addend: 0x0, symName: __ZNSt3__120__throw_length_errorB8ne180100EPKc, symObjAddr: 0xCD0, symBinAddr: 0x1000016B0, symSize: 0x70 }
  - { offset: 0x92E0, size: 0x8, addend: 0x0, symName: __ZNSt3__117__libcpp_allocateB8ne180100Emm, symObjAddr: 0xE40, symBinAddr: 0x100001820, symSize: 0x60 }
  - { offset: 0x933A, size: 0x8, addend: 0x0, symName: __ZNSt3__124__is_overaligned_for_newB8ne180100Em, symObjAddr: 0xEA0, symBinAddr: 0x100001880, symSize: 0x20 }
  - { offset: 0x9368, size: 0x8, addend: 0x0, symName: __ZNSt3__121__libcpp_operator_newB8ne180100IJmSt11align_val_tEEEPvDpT_, symObjAddr: 0xEC0, symBinAddr: 0x1000018A0, symSize: 0x30 }
  - { offset: 0x93B5, size: 0x8, addend: 0x0, symName: __ZNSt3__121__libcpp_operator_newB8ne180100IJmEEEPvDpT_, symObjAddr: 0xEF0, symBinAddr: 0x1000018D0, symSize: 0x20 }
  - { offset: 0x93EE, size: 0x8, addend: 0x0, symName: __ZNSt3__112__to_addressB8ne180100IiEEPT_S2_, symObjAddr: 0xFC0, symBinAddr: 0x1000019A0, symSize: 0x10 }
  - { offset: 0x9423, size: 0x8, addend: 0x0, symName: __ZNSt3__114__construct_atB8ne180100IiJEPiEEPT_S3_DpOT0_, symObjAddr: 0x1030, symBinAddr: 0x100001A10, symSize: 0x20 }
  - { offset: 0x9462, size: 0x8, addend: 0x0, symName: __ZNSt3__112construct_atB8ne180100IiJEPiEEPT_S3_DpOT0_, symObjAddr: 0x1050, symBinAddr: 0x100001A30, symSize: 0x20 }
  - { offset: 0x94A1, size: 0x8, addend: 0x0, symName: __ZNSt3__112__destroy_atB8ne180100IiLi0EEEvPT_, symObjAddr: 0x1280, symBinAddr: 0x100001C60, symSize: 0x10 }
  - { offset: 0x94D8, size: 0x8, addend: 0x0, symName: __ZNSt3__119__libcpp_deallocateB8ne180100EPvmm, symObjAddr: 0x12D0, symBinAddr: 0x100001CB0, symSize: 0x60 }
  - { offset: 0x953D, size: 0x8, addend: 0x0, symName: __ZNSt3__127__do_deallocate_handle_sizeB8ne180100IJSt11align_val_tEEEvPvmDpT_, symObjAddr: 0x1330, symBinAddr: 0x100001D10, symSize: 0x30 }
  - { offset: 0x9590, size: 0x8, addend: 0x0, symName: __ZNSt3__127__do_deallocate_handle_sizeB8ne180100IJEEEvPvmDpT_, symObjAddr: 0x1360, symBinAddr: 0x100001D40, symSize: 0x20 }
  - { offset: 0x95CE, size: 0x8, addend: 0x0, symName: __ZNSt3__124__libcpp_operator_deleteB8ne180100IJPvSt11align_val_tEEEvDpT_, symObjAddr: 0x1380, symBinAddr: 0x100001D60, symSize: 0x30 }
  - { offset: 0x9617, size: 0x8, addend: 0x0, symName: __ZNSt3__124__libcpp_operator_deleteB8ne180100IJPvEEEvDpT_, symObjAddr: 0x13B0, symBinAddr: 0x100001D90, symSize: 0x20 }
  - { offset: 0x964C, size: 0x8, addend: 0x0, symName: __ZNSt3__13minB8ne180100IiNS_6__lessIvvEEEERKT_S5_S5_T0_, symObjAddr: 0x1420, symBinAddr: 0x100001E00, symSize: 0x50 }
  - { offset: 0x96A6, size: 0x8, addend: 0x0, symName: __ZNSt3__112__destroy_atB8ne180100INS_11__hash_nodeINS_17__hash_value_typeIiiEEPvEELi0EEEvPT_, symObjAddr: 0x1C60, symBinAddr: 0x100002640, symSize: 0x20 }
  - { offset: 0x9710, size: 0x8, addend: 0x0, symName: __ZNSt3__112__destroy_atB8ne180100INS_4pairIKiiEELi0EEEvPT_, symObjAddr: 0x1CF0, symBinAddr: 0x1000026D0, symSize: 0x10 }
  - { offset: 0x9747, size: 0x8, addend: 0x0, symName: __ZNSt3__17launderB8ne180100INS_4pairIKiiEEEEPT_S5_, symObjAddr: 0x1D20, symBinAddr: 0x100002700, symSize: 0x20 }
  - { offset: 0x977E, size: 0x8, addend: 0x0, symName: __ZNSt3__19__launderB8ne180100INS_4pairIKiiEEEEPT_S5_, symObjAddr: 0x1D40, symBinAddr: 0x100002720, symSize: 0x10 }
  - { offset: 0x97EC, size: 0x8, addend: 0x0, symName: __ZNSt3__116forward_as_tupleB8ne180100IJiEEENS_5tupleIJDpOT_EEES4_, symObjAddr: 0x2680, symBinAddr: 0x100003060, symSize: 0x30 }
  - { offset: 0x9825, size: 0x8, addend: 0x0, symName: __ZNSt3__116forward_as_tupleB8ne180100IJEEENS_5tupleIJDpOT_EEES4_, symObjAddr: 0x26B0, symBinAddr: 0x100003090, symSize: 0x10 }
  - { offset: 0x9849, size: 0x8, addend: 0x0, symName: __ZNSt3__116__constrain_hashB8ne180100Emm, symObjAddr: 0x2770, symBinAddr: 0x100003150, symSize: 0x80 }
  - { offset: 0x9883, size: 0x8, addend: 0x0, symName: __ZNSt3__13maxB8ne180100ImEERKT_S3_S3_, symObjAddr: 0x2A70, symBinAddr: 0x100003450, symSize: 0x30 }
  - { offset: 0x98C6, size: 0x8, addend: 0x0, symName: __ZNSt3__116__is_hash_power2B8ne180100Em, symObjAddr: 0x2AA0, symBinAddr: 0x100003480, symSize: 0x40 }
  - { offset: 0x98F7, size: 0x8, addend: 0x0, symName: __ZNSt3__16__math4ceilB8ne180100Ef, symObjAddr: 0x2AE0, symBinAddr: 0x1000034C0, symSize: 0x20 }
  - { offset: 0x9968, size: 0x8, addend: 0x0, symName: __ZNSt3__17launderB8ne180100IKNS_4pairIKiiEEEEPT_S6_, symObjAddr: 0x2DC0, symBinAddr: 0x1000037A0, symSize: 0x20 }
  - { offset: 0x999F, size: 0x8, addend: 0x0, symName: __ZNSt3__19__launderB8ne180100IKNS_4pairIKiiEEEEPT_S6_, symObjAddr: 0x2DE0, symBinAddr: 0x1000037C0, symSize: 0x10 }
  - { offset: 0x99F4, size: 0x8, addend: 0x0, symName: __ZNSt3__114__construct_atB8ne180100INS_11__hash_nodeINS_17__hash_value_typeIiiEEPvEEJDnRmEPS5_EEPT_S9_DpOT0_, symObjAddr: 0x2E90, symBinAddr: 0x100003870, symSize: 0x30 }
  - { offset: 0x9A5A, size: 0x8, addend: 0x0, symName: __ZNSt3__112construct_atB8ne180100INS_11__hash_nodeINS_17__hash_value_typeIiiEEPvEEJDnRmEPS5_EEPT_S9_DpOT0_, symObjAddr: 0x30F0, symBinAddr: 0x100003AD0, symSize: 0x40 }
  - { offset: 0x9AC0, size: 0x8, addend: 0x0, symName: __ZNSt3__114__construct_atB8ne180100INS_4pairIKiiEEJRKNS_21piecewise_construct_tENS_5tupleIJOiEEENS7_IJEEEEPS3_EEPT_SD_DpOT0_, symObjAddr: 0x31F0, symBinAddr: 0x100003BD0, symSize: 0x40 }
  - { offset: 0x9B39, size: 0x8, addend: 0x0, symName: __ZNSt3__112construct_atB8ne180100INS_4pairIKiiEEJRKNS_21piecewise_construct_tENS_5tupleIJOiEEENS7_IJEEEEPS3_EEPT_SD_DpOT0_, symObjAddr: 0x3230, symBinAddr: 0x100003C10, symSize: 0x40 }
  - { offset: 0x9BBD, size: 0x8, addend: 0x0, symName: __ZNSt3__13getB8ne180100ILm0EJOiEEERNS_13tuple_elementIXT_ENS_5tupleIJDpT0_EEEE4typeERS6_, symObjAddr: 0x3320, symBinAddr: 0x100003D00, symSize: 0x20 }
  - { offset: 0x9C00, size: 0x8, addend: 0x0, symName: __ZNSt3__116__next_hash_pow2B8ne180100Em, symObjAddr: 0x3860, symBinAddr: 0x100004240, symSize: 0x60 }
  - { offset: 0x9C2C, size: 0x8, addend: 0x0, symName: __ZNSt3__112__libcpp_clzB8ne180100Em, symObjAddr: 0x39F0, symBinAddr: 0x1000043D0, symSize: 0x20 }
  - { offset: 0x9C58, size: 0x8, addend: 0x0, symName: __ZNSt3__13maxB8ne180100ImNS_6__lessIvvEEEERKT_S5_S5_T0_, symObjAddr: 0x3A10, symBinAddr: 0x1000043F0, symSize: 0x50 }
  - { offset: 0x9D09, size: 0x8, addend: 0x0, symName: __ZNSt3__1neB8ne180100ERKNS_21__hash_const_iteratorIPNS_11__hash_nodeINS_17__hash_value_typeIiiEEPvEEEES9_, symObjAddr: 0x3D40, symBinAddr: 0x100004720, symSize: 0x30 }
  - { offset: 0x9D46, size: 0x8, addend: 0x0, symName: __ZNSt3__1eqB8ne180100ERKNS_21__hash_const_iteratorIPNS_11__hash_nodeINS_17__hash_value_typeIiiEEPvEEEES9_, symObjAddr: 0x3F30, symBinAddr: 0x100004910, symSize: 0x30 }
  - { offset: 0x9D83, size: 0x8, addend: 0x0, symName: __ZNSt3__1eqB8ne180100ERKNS_15__hash_iteratorIPNS_11__hash_nodeINS_17__hash_value_typeIiiEEPvEEEES9_, symObjAddr: 0x4100, symBinAddr: 0x100004AE0, symSize: 0x30 }
  - { offset: 0x9DC0, size: 0x8, addend: 0x0, symName: __ZNSt3__19use_facetB8ne180100INS_5ctypeIcEEEERKT_RKNS_6localeE, symObjAddr: 0x41D0, symBinAddr: 0x100004BB0, symSize: 0x30 }
  - { offset: 0xB0D4, size: 0x8, addend: 0x0, symName: __ZSt28__throw_bad_array_new_lengthB8ne180100v, symObjAddr: 0xE00, symBinAddr: 0x1000017E0, symSize: 0x40 }
  - { offset: 0xBA59, size: 0x8, addend: 0x0, symName: __Z5solvev, symObjAddr: 0x0, symBinAddr: 0x1000009E0, symSize: 0x2F0 }
  - { offset: 0xBBEA, size: 0x8, addend: 0x0, symName: __ZNSt3__113unordered_mapIiiNS_4hashIiEENS_8equal_toIiEENS_9allocatorINS_4pairIKiiEEEEEC1B8ne180100Ev, symObjAddr: 0x2F0, symBinAddr: 0x100000CD0, symSize: 0x20 }
  - { offset: 0xBC14, size: 0x8, addend: 0x0, symName: __ZNSt3__16vectorIiNS_9allocatorIiEEEC1Em, symObjAddr: 0x310, symBinAddr: 0x100000CF0, symSize: 0x30 }
  - { offset: 0xBC4F, size: 0x8, addend: 0x0, symName: __ZNSt3__16vectorIiNS_9allocatorIiEEEixB8ne180100Em, symObjAddr: 0x340, symBinAddr: 0x100000D20, symSize: 0x20 }
  - { offset: 0xBC86, size: 0x8, addend: 0x0, symName: __ZNKSt3__113unordered_mapIiiNS_4hashIiEENS_8equal_toIiEENS_9allocatorINS_4pairIKiiEEEEE5countB8ne180100ERS7_, symObjAddr: 0x390, symBinAddr: 0x100000D70, symSize: 0x30 }
  - { offset: 0xBCBB, size: 0x8, addend: 0x0, symName: __ZNSt3__113unordered_mapIiiNS_4hashIiEENS_8equal_toIiEENS_9allocatorINS_4pairIKiiEEEEEixEOi, symObjAddr: 0x3C0, symBinAddr: 0x100000DA0, symSize: 0x70 }
  - { offset: 0xBCF2, size: 0x8, addend: 0x0, symName: __ZNSt3__16vectorIiNS_9allocatorIiEEED1B8ne180100Ev, symObjAddr: 0x430, symBinAddr: 0x100000E10, symSize: 0x20 }
  - { offset: 0xBD1C, size: 0x8, addend: 0x0, symName: __ZNSt3__113unordered_mapIiiNS_4hashIiEENS_8equal_toIiEENS_9allocatorINS_4pairIKiiEEEEE5beginB8ne180100Ev, symObjAddr: 0x450, symBinAddr: 0x100000E30, symSize: 0x30 }
  - { offset: 0xBD42, size: 0x8, addend: 0x0, symName: __ZNSt3__113unordered_mapIiiNS_4hashIiEENS_8equal_toIiEENS_9allocatorINS_4pairIKiiEEEEE3endB8ne180100Ev, symObjAddr: 0x480, symBinAddr: 0x100000E60, symSize: 0x30 }
  - { offset: 0xBD68, size: 0x8, addend: 0x0, symName: __ZNKSt3__119__hash_map_iteratorINS_15__hash_iteratorIPNS_11__hash_nodeINS_17__hash_value_typeIiiEEPvEEEEEdeB8ne180100Ev, symObjAddr: 0x4E0, symBinAddr: 0x100000EC0, symSize: 0x30 }
  - { offset: 0xBD8E, size: 0x8, addend: 0x0, symName: __ZNSt3__119__hash_map_iteratorINS_15__hash_iteratorIPNS_11__hash_nodeINS_17__hash_value_typeIiiEEPvEEEEEppB8ne180100Ev, symObjAddr: 0x510, symBinAddr: 0x100000EF0, symSize: 0x30 }
  - { offset: 0xBE8E, size: 0x8, addend: 0x0, symName: __ZNSt3__113basic_ostreamIcNS_11char_traitsIcEEElsB8ne180100EPFRS3_S4_E, symObjAddr: 0x540, symBinAddr: 0x100000F20, symSize: 0x20 }
  - { offset: 0xBEC2, size: 0x8, addend: 0x0, symName: __ZNSt3__113unordered_mapIiiNS_4hashIiEENS_8equal_toIiEENS_9allocatorINS_4pairIKiiEEEEED1B8ne180100Ev, symObjAddr: 0x5B0, symBinAddr: 0x100000F90, symSize: 0x20 }
  - { offset: 0xBEEC, size: 0x8, addend: 0x0, symName: _main, symObjAddr: 0x5D0, symBinAddr: 0x100000FB0, symSize: 0x50 }
  - { offset: 0xBF31, size: 0x8, addend: 0x0, symName: __ZNSt3__16vectorIiNS_9allocatorIiEEEC2Em, symObjAddr: 0x620, symBinAddr: 0x100001000, symSize: 0xD0 }
  - { offset: 0xBF8B, size: 0x8, addend: 0x0, symName: __ZNSt3__117__compressed_pairIPiNS_9allocatorIiEEEC1B8ne180100IDnNS_18__default_init_tagEEEOT_OT0_, symObjAddr: 0x6F0, symBinAddr: 0x1000010D0, symSize: 0x30 }
  - { offset: 0xBFE3, size: 0x8, addend: 0x0, symName: __ZNSt3__16vectorIiNS_9allocatorIiEEE16__destroy_vectorC1B8ne180100ERS3_, symObjAddr: 0x760, symBinAddr: 0x100001140, symSize: 0x30 }
  - { offset: 0xC01C, size: 0x8, addend: 0x0, symName: __ZNSt3__16vectorIiNS_9allocatorIiEEE11__vallocateB8ne180100Em, symObjAddr: 0x790, symBinAddr: 0x100001170, symSize: 0xA0 }
  - { offset: 0xC060, size: 0x8, addend: 0x0, symName: __ZNSt3__16vectorIiNS_9allocatorIiEEE18__construct_at_endEm, symObjAddr: 0x830, symBinAddr: 0x100001210, symSize: 0xC0 }
  - { offset: 0xC0D2, size: 0x8, addend: 0x0, symName: __ZNSt3__128__exception_guard_exceptionsINS_6vectorIiNS_9allocatorIiEEE16__destroy_vectorEE10__completeB8ne180100Ev, symObjAddr: 0x8F0, symBinAddr: 0x1000012D0, symSize: 0x20 }
  - { offset: 0xC0F8, size: 0x8, addend: 0x0, symName: __ZNSt3__128__exception_guard_exceptionsINS_6vectorIiNS_9allocatorIiEEE16__destroy_vectorEED1B8ne180100Ev, symObjAddr: 0x910, symBinAddr: 0x1000012F0, symSize: 0x20 }
  - { offset: 0xC122, size: 0x8, addend: 0x0, symName: __ZNSt3__117__compressed_pairIPiNS_9allocatorIiEEEC2B8ne180100IDnNS_18__default_init_tagEEEOT_OT0_, symObjAddr: 0x930, symBinAddr: 0x100001310, symSize: 0x40 }
  - { offset: 0xC17A, size: 0x8, addend: 0x0, symName: __ZNSt3__122__compressed_pair_elemIPiLi0ELb0EEC2B8ne180100IDnvEEOT_, symObjAddr: 0x970, symBinAddr: 0x100001350, symSize: 0x20 }
  - { offset: 0xC1BC, size: 0x8, addend: 0x0, symName: __ZNSt3__122__compressed_pair_elemINS_9allocatorIiEELi1ELb1EEC2B8ne180100ENS_18__default_init_tagE, symObjAddr: 0x990, symBinAddr: 0x100001370, symSize: 0x20 }
  - { offset: 0xC1F1, size: 0x8, addend: 0x0, symName: __ZNSt3__19allocatorIiEC2B8ne180100Ev, symObjAddr: 0x9B0, symBinAddr: 0x100001390, symSize: 0x20 }
  - { offset: 0xC21B, size: 0x8, addend: 0x0, symName: __ZNSt3__116__non_trivial_ifILb1ENS_9allocatorIiEEEC2B8ne180100Ev, symObjAddr: 0x9D0, symBinAddr: 0x1000013B0, symSize: 0x10 }
  - { offset: 0xC245, size: 0x8, addend: 0x0, symName: __ZNSt3__128__exception_guard_exceptionsINS_6vectorIiNS_9allocatorIiEEE16__destroy_vectorEEC1B8ne180100ES5_, symObjAddr: 0x9E0, symBinAddr: 0x1000013C0, symSize: 0x30 }
  - { offset: 0xC27D, size: 0x8, addend: 0x0, symName: __ZNSt3__128__exception_guard_exceptionsINS_6vectorIiNS_9allocatorIiEEE16__destroy_vectorEEC2B8ne180100ES5_, symObjAddr: 0xA10, symBinAddr: 0x1000013F0, symSize: 0x20 }
  - { offset: 0xC2B5, size: 0x8, addend: 0x0, symName: __ZNSt3__16vectorIiNS_9allocatorIiEEE16__destroy_vectorC2B8ne180100ERS3_, symObjAddr: 0xA30, symBinAddr: 0x100001410, symSize: 0x20 }
  - { offset: 0xC2EE, size: 0x8, addend: 0x0, symName: __ZNKSt3__16vectorIiNS_9allocatorIiEEE8max_sizeEv, symObjAddr: 0xA50, symBinAddr: 0x100001430, symSize: 0x60 }
  - { offset: 0xC316, size: 0x8, addend: 0x0, symName: __ZNKSt3__16vectorIiNS_9allocatorIiEEE20__throw_length_errorB8ne180100Ev, symObjAddr: 0xAB0, symBinAddr: 0x100001490, symSize: 0x20 }
  - { offset: 0xC33C, size: 0x8, addend: 0x0, symName: __ZNSt3__16vectorIiNS_9allocatorIiEEE7__allocB8ne180100Ev, symObjAddr: 0xB10, symBinAddr: 0x1000014F0, symSize: 0x20 }
  - { offset: 0xC362, size: 0x8, addend: 0x0, symName: __ZNSt3__16vectorIiNS_9allocatorIiEEE9__end_capB8ne180100Ev, symObjAddr: 0xB30, symBinAddr: 0x100001510, symSize: 0x20 }
  - { offset: 0xC388, size: 0x8, addend: 0x0, symName: __ZNKSt3__16vectorIiNS_9allocatorIiEEE14__annotate_newB8ne180100Em, symObjAddr: 0xB50, symBinAddr: 0x100001530, symSize: 0x10 }
  - { offset: 0xC3C7, size: 0x8, addend: 0x0, symName: __ZNSt3__116allocator_traitsINS_9allocatorIiEEE8max_sizeB8ne180100IS2_vvEEmRKS2_, symObjAddr: 0xB90, symBinAddr: 0x100001570, symSize: 0x20 }
  - { offset: 0xC3F3, size: 0x8, addend: 0x0, symName: __ZNKSt3__16vectorIiNS_9allocatorIiEEE7__allocB8ne180100Ev, symObjAddr: 0xBB0, symBinAddr: 0x100001590, symSize: 0x20 }
  - { offset: 0xC419, size: 0x8, addend: 0x0, symName: __ZNSt3__114numeric_limitsIlE3maxB8ne180100Ev, symObjAddr: 0xBD0, symBinAddr: 0x1000015B0, symSize: 0x10 }
  - { offset: 0xC437, size: 0x8, addend: 0x0, symName: __ZNKSt3__16__lessIvvEclB8ne180100ImmEEbRKT_RKT0_, symObjAddr: 0xC40, symBinAddr: 0x100001620, symSize: 0x30 }
  - { offset: 0xC48B, size: 0x8, addend: 0x0, symName: __ZNSt3__114numeric_limitsImE3maxB8ne180100Ev, symObjAddr: 0xC70, symBinAddr: 0x100001650, symSize: 0x10 }
  - { offset: 0xC49F, size: 0x8, addend: 0x0, symName: __ZNSt3__123__libcpp_numeric_limitsImLb1EE3maxB8ne180100Ev, symObjAddr: 0xC80, symBinAddr: 0x100001660, symSize: 0x10 }
  - { offset: 0xC4B3, size: 0x8, addend: 0x0, symName: __ZNKSt3__117__compressed_pairIPiNS_9allocatorIiEEE6secondB8ne180100Ev, symObjAddr: 0xC90, symBinAddr: 0x100001670, symSize: 0x20 }
  - { offset: 0xC4D9, size: 0x8, addend: 0x0, symName: __ZNKSt3__122__compressed_pair_elemINS_9allocatorIiEELi1ELb1EE5__getB8ne180100Ev, symObjAddr: 0xCB0, symBinAddr: 0x100001690, symSize: 0x10 }
  - { offset: 0xC4FF, size: 0x8, addend: 0x0, symName: __ZNSt3__123__libcpp_numeric_limitsIlLb1EE3maxB8ne180100Ev, symObjAddr: 0xCC0, symBinAddr: 0x1000016A0, symSize: 0x10 }
  - { offset: 0xC513, size: 0x8, addend: 0x0, symName: __ZNSt12length_errorC1B8ne180100EPKc, symObjAddr: 0xD40, symBinAddr: 0x100001720, symSize: 0x30 }
  - { offset: 0xC54B, size: 0x8, addend: 0x0, symName: __ZNSt12length_errorC2B8ne180100EPKc, symObjAddr: 0xD70, symBinAddr: 0x100001750, symSize: 0x40 }
  - { offset: 0xC583, size: 0x8, addend: 0x0, symName: __ZNSt3__19allocatorIiE8allocateB8ne180100Em, symObjAddr: 0xDB0, symBinAddr: 0x100001790, symSize: 0x50 }
  - { offset: 0xC5B7, size: 0x8, addend: 0x0, symName: __ZNSt3__117__compressed_pairIPiNS_9allocatorIiEEE6secondB8ne180100Ev, symObjAddr: 0xF10, symBinAddr: 0x1000018F0, symSize: 0x20 }
  - { offset: 0xC5DD, size: 0x8, addend: 0x0, symName: __ZNSt3__122__compressed_pair_elemINS_9allocatorIiEELi1ELb1EE5__getB8ne180100Ev, symObjAddr: 0xF30, symBinAddr: 0x100001910, symSize: 0x10 }
  - { offset: 0xC603, size: 0x8, addend: 0x0, symName: __ZNSt3__117__compressed_pairIPiNS_9allocatorIiEEE5firstB8ne180100Ev, symObjAddr: 0xF40, symBinAddr: 0x100001920, symSize: 0x20 }
  - { offset: 0xC629, size: 0x8, addend: 0x0, symName: __ZNSt3__122__compressed_pair_elemIPiLi0ELb0EE5__getB8ne180100Ev, symObjAddr: 0xF60, symBinAddr: 0x100001940, symSize: 0x10 }
  - { offset: 0xC668, size: 0x8, addend: 0x0, symName: __ZNSt3__16vectorIiNS_9allocatorIiEEE21_ConstructTransactionC1B8ne180100ERS3_m, symObjAddr: 0xF70, symBinAddr: 0x100001950, symSize: 0x30 }
  - { offset: 0xC6B0, size: 0x8, addend: 0x0, symName: __ZNSt3__116allocator_traitsINS_9allocatorIiEEE9constructB8ne180100IiJEvvEEvRS2_PT_DpOT0_, symObjAddr: 0xFA0, symBinAddr: 0x100001980, symSize: 0x20 }
  - { offset: 0xC6F0, size: 0x8, addend: 0x0, symName: __ZNSt3__16vectorIiNS_9allocatorIiEEE21_ConstructTransactionD1B8ne180100Ev, symObjAddr: 0xFD0, symBinAddr: 0x1000019B0, symSize: 0x20 }
  - { offset: 0xC71A, size: 0x8, addend: 0x0, symName: __ZNSt3__16vectorIiNS_9allocatorIiEEE21_ConstructTransactionC2B8ne180100ERS3_m, symObjAddr: 0xFF0, symBinAddr: 0x1000019D0, symSize: 0x40 }
  - { offset: 0xC762, size: 0x8, addend: 0x0, symName: __ZNSt3__16vectorIiNS_9allocatorIiEEE21_ConstructTransactionD2B8ne180100Ev, symObjAddr: 0x1070, symBinAddr: 0x100001A50, symSize: 0x20 }
  - { offset: 0xC78C, size: 0x8, addend: 0x0, symName: __ZNSt3__128__exception_guard_exceptionsINS_6vectorIiNS_9allocatorIiEEE16__destroy_vectorEED2B8ne180100Ev, symObjAddr: 0x1090, symBinAddr: 0x100001A70, symSize: 0x40 }
  - { offset: 0xC7B6, size: 0x8, addend: 0x0, symName: __ZNSt3__16vectorIiNS_9allocatorIiEEE16__destroy_vectorclB8ne180100Ev, symObjAddr: 0x10D0, symBinAddr: 0x100001AB0, symSize: 0x80 }
  - { offset: 0xC7DC, size: 0x8, addend: 0x0, symName: __ZNSt3__16vectorIiNS_9allocatorIiEEE7__clearB8ne180100Ev, symObjAddr: 0x1150, symBinAddr: 0x100001B30, symSize: 0x20 }
  - { offset: 0xC802, size: 0x8, addend: 0x0, symName: __ZNKSt3__16vectorIiNS_9allocatorIiEEE17__annotate_deleteB8ne180100Ev, symObjAddr: 0x1170, symBinAddr: 0x100001B50, symSize: 0x10 }
  - { offset: 0xC828, size: 0x8, addend: 0x0, symName: __ZNSt3__116allocator_traitsINS_9allocatorIiEEE10deallocateB8ne180100ERS2_Pim, symObjAddr: 0x1180, symBinAddr: 0x100001B60, symSize: 0x30 }
  - { offset: 0xC86A, size: 0x8, addend: 0x0, symName: __ZNKSt3__16vectorIiNS_9allocatorIiEEE8capacityB8ne180100Ev, symObjAddr: 0x11B0, symBinAddr: 0x100001B90, symSize: 0x30 }
  - { offset: 0xC890, size: 0x8, addend: 0x0, symName: __ZNSt3__16vectorIiNS_9allocatorIiEEE22__base_destruct_at_endB8ne180100EPi, symObjAddr: 0x11E0, symBinAddr: 0x100001BC0, symSize: 0x80 }
  - { offset: 0xC8D4, size: 0x8, addend: 0x0, symName: __ZNSt3__116allocator_traitsINS_9allocatorIiEEE7destroyB8ne180100IivvEEvRS2_PT_, symObjAddr: 0x1260, symBinAddr: 0x100001C40, symSize: 0x20 }
  - { offset: 0xC90F, size: 0x8, addend: 0x0, symName: __ZNSt3__19allocatorIiE10deallocateB8ne180100EPim, symObjAddr: 0x1290, symBinAddr: 0x100001C70, symSize: 0x40 }
  - { offset: 0xC951, size: 0x8, addend: 0x0, symName: __ZNKSt3__16vectorIiNS_9allocatorIiEEE9__end_capB8ne180100Ev, symObjAddr: 0x13D0, symBinAddr: 0x100001DB0, symSize: 0x20 }
  - { offset: 0xC977, size: 0x8, addend: 0x0, symName: __ZNKSt3__117__compressed_pairIPiNS_9allocatorIiEEE5firstB8ne180100Ev, symObjAddr: 0x13F0, symBinAddr: 0x100001DD0, symSize: 0x20 }
  - { offset: 0xC99D, size: 0x8, addend: 0x0, symName: __ZNKSt3__122__compressed_pair_elemIPiLi0ELb0EE5__getB8ne180100Ev, symObjAddr: 0x1410, symBinAddr: 0x100001DF0, symSize: 0x10 }
  - { offset: 0xC9C3, size: 0x8, addend: 0x0, symName: __ZNKSt3__16__lessIvvEclB8ne180100IiiEEbRKT_RKT0_, symObjAddr: 0x1470, symBinAddr: 0x100001E50, symSize: 0x30 }
  - { offset: 0xCA17, size: 0x8, addend: 0x0, symName: __ZNSt3__16vectorIiNS_9allocatorIiEEED2B8ne180100Ev, symObjAddr: 0x14A0, symBinAddr: 0x100001E80, symSize: 0x40 }
  - { offset: 0xCA41, size: 0x8, addend: 0x0, symName: __ZNSt3__113unordered_mapIiiNS_4hashIiEENS_8equal_toIiEENS_9allocatorINS_4pairIKiiEEEEEC2B8ne180100Ev, symObjAddr: 0x14E0, symBinAddr: 0x100001EC0, symSize: 0x20 }
  - { offset: 0xCA6B, size: 0x8, addend: 0x0, symName: __ZNSt3__112__hash_tableINS_17__hash_value_typeIiiEENS_22__unordered_map_hasherIiS2_NS_4hashIiEENS_8equal_toIiEELb1EEENS_21__unordered_map_equalIiS2_S7_S5_Lb1EEENS_9allocatorIS2_EEEC1Ev, symObjAddr: 0x1500, symBinAddr: 0x100001EE0, symSize: 0x20 }
  - { offset: 0xCA97, size: 0x8, addend: 0x0, symName: __ZNSt3__112__hash_tableINS_17__hash_value_typeIiiEENS_22__unordered_map_hasherIiS2_NS_4hashIiEENS_8equal_toIiEELb1EEENS_21__unordered_map_equalIiS2_S7_S5_Lb1EEENS_9allocatorIS2_EEEC2Ev, symObjAddr: 0x1520, symBinAddr: 0x100001F00, symSize: 0x80 }
  - { offset: 0xCAC3, size: 0x8, addend: 0x0, symName: __ZNSt3__110unique_ptrIA_PNS_16__hash_node_baseIPNS_11__hash_nodeINS_17__hash_value_typeIiiEEPvEEEENS_25__bucket_list_deallocatorINS_9allocatorIS9_EEEEEC1B8ne180100ILb1EvEEv, symObjAddr: 0x15A0, symBinAddr: 0x100001F80, symSize: 0x20 }
  - { offset: 0xCAF8, size: 0x8, addend: 0x0, symName: __ZNSt3__117__compressed_pairINS_16__hash_node_baseIPNS_11__hash_nodeINS_17__hash_value_typeIiiEEPvEEEENS_9allocatorIS6_EEEC1B8ne180100ILb1EvEEv, symObjAddr: 0x15C0, symBinAddr: 0x100001FA0, symSize: 0x20 }
  - { offset: 0xCB2D, size: 0x8, addend: 0x0, symName: __ZNSt3__117__compressed_pairImNS_22__unordered_map_hasherIiNS_17__hash_value_typeIiiEENS_4hashIiEENS_8equal_toIiEELb1EEEEC1B8ne180100IiNS_18__default_init_tagEEEOT_OT0_, symObjAddr: 0x15E0, symBinAddr: 0x100001FC0, symSize: 0x30 }
  - { offset: 0xCB8A, size: 0x8, addend: 0x0, symName: __ZNSt3__117__compressed_pairIfNS_21__unordered_map_equalIiNS_17__hash_value_typeIiiEENS_8equal_toIiEENS_4hashIiEELb1EEEEC1B8ne180100IfNS_18__default_init_tagEEEOT_OT0_, symObjAddr: 0x1610, symBinAddr: 0x100001FF0, symSize: 0x30 }
  - { offset: 0xCBE2, size: 0x8, addend: 0x0, symName: __ZNSt3__110unique_ptrIA_PNS_16__hash_node_baseIPNS_11__hash_nodeINS_17__hash_value_typeIiiEEPvEEEENS_25__bucket_list_deallocatorINS_9allocatorIS9_EEEEEC2B8ne180100ILb1EvEEv, symObjAddr: 0x1640, symBinAddr: 0x100002020, symSize: 0x30 }
  - { offset: 0xCC1C, size: 0x8, addend: 0x0, symName: __ZNSt3__117__compressed_pairIPPNS_16__hash_node_baseIPNS_11__hash_nodeINS_17__hash_value_typeIiiEEPvEEEENS_25__bucket_list_deallocatorINS_9allocatorIS9_EEEEEC1B8ne180100INS_16__value_init_tagESH_EEOT_OT0_, symObjAddr: 0x1670, symBinAddr: 0x100002050, symSize: 0x30 }
  - { offset: 0xCC74, size: 0x8, addend: 0x0, symName: __ZNSt3__117__compressed_pairIPPNS_16__hash_node_baseIPNS_11__hash_nodeINS_17__hash_value_typeIiiEEPvEEEENS_25__bucket_list_deallocatorINS_9allocatorIS9_EEEEEC2B8ne180100INS_16__value_init_tagESH_EEOT_OT0_, symObjAddr: 0x16A0, symBinAddr: 0x100002080, symSize: 0x40 }
  - { offset: 0xCCCC, size: 0x8, addend: 0x0, symName: __ZNSt3__122__compressed_pair_elemIPPNS_16__hash_node_baseIPNS_11__hash_nodeINS_17__hash_value_typeIiiEEPvEEEELi0ELb0EEC2B8ne180100ENS_16__value_init_tagE, symObjAddr: 0x16E0, symBinAddr: 0x1000020C0, symSize: 0x20 }
  - { offset: 0xCD01, size: 0x8, addend: 0x0, symName: __ZNSt3__122__compressed_pair_elemINS_25__bucket_list_deallocatorINS_9allocatorIPNS_16__hash_node_baseIPNS_11__hash_nodeINS_17__hash_value_typeIiiEEPvEEEEEEEELi1ELb0EEC2B8ne180100ENS_16__value_init_tagE, symObjAddr: 0x1700, symBinAddr: 0x1000020E0, symSize: 0x20 }
  - { offset: 0xCD36, size: 0x8, addend: 0x0, symName: __ZNSt3__125__bucket_list_deallocatorINS_9allocatorIPNS_16__hash_node_baseIPNS_11__hash_nodeINS_17__hash_value_typeIiiEEPvEEEEEEEC1B8ne180100Ev, symObjAddr: 0x1720, symBinAddr: 0x100002100, symSize: 0x20 }
  - { offset: 0xCD60, size: 0x8, addend: 0x0, symName: __ZNSt3__125__bucket_list_deallocatorINS_9allocatorIPNS_16__hash_node_baseIPNS_11__hash_nodeINS_17__hash_value_typeIiiEEPvEEEEEEEC2B8ne180100Ev, symObjAddr: 0x1740, symBinAddr: 0x100002120, symSize: 0x40 }
  - { offset: 0xCD8A, size: 0x8, addend: 0x0, symName: __ZNSt3__117__compressed_pairImNS_9allocatorIPNS_16__hash_node_baseIPNS_11__hash_nodeINS_17__hash_value_typeIiiEEPvEEEEEEEC1B8ne180100IiNS_18__default_init_tagEEEOT_OT0_, symObjAddr: 0x1780, symBinAddr: 0x100002160, symSize: 0x30 }
  - { offset: 0xCDE2, size: 0x8, addend: 0x0, symName: __ZNSt3__117__compressed_pairImNS_9allocatorIPNS_16__hash_node_baseIPNS_11__hash_nodeINS_17__hash_value_typeIiiEEPvEEEEEEEC2B8ne180100IiNS_18__default_init_tagEEEOT_OT0_, symObjAddr: 0x17B0, symBinAddr: 0x100002190, symSize: 0x40 }
  - { offset: 0xCE3A, size: 0x8, addend: 0x0, symName: __ZNSt3__122__compressed_pair_elemImLi0ELb0EEC2B8ne180100IivEEOT_, symObjAddr: 0x17F0, symBinAddr: 0x1000021D0, symSize: 0x20 }
  - { offset: 0xCE7C, size: 0x8, addend: 0x0, symName: __ZNSt3__122__compressed_pair_elemINS_9allocatorIPNS_16__hash_node_baseIPNS_11__hash_nodeINS_17__hash_value_typeIiiEEPvEEEEEELi1ELb1EEC2B8ne180100ENS_18__default_init_tagE, symObjAddr: 0x1810, symBinAddr: 0x1000021F0, symSize: 0x20 }
  - { offset: 0xCEB1, size: 0x8, addend: 0x0, symName: __ZNSt3__19allocatorIPNS_16__hash_node_baseIPNS_11__hash_nodeINS_17__hash_value_typeIiiEEPvEEEEEC2B8ne180100Ev, symObjAddr: 0x1830, symBinAddr: 0x100002210, symSize: 0x20 }
  - { offset: 0xCEDB, size: 0x8, addend: 0x0, symName: __ZNSt3__116__non_trivial_ifILb1ENS_9allocatorIPNS_16__hash_node_baseIPNS_11__hash_nodeINS_17__hash_value_typeIiiEEPvEEEEEEEC2B8ne180100Ev, symObjAddr: 0x1850, symBinAddr: 0x100002230, symSize: 0x10 }
  - { offset: 0xCF05, size: 0x8, addend: 0x0, symName: __ZNSt3__117__compressed_pairINS_16__hash_node_baseIPNS_11__hash_nodeINS_17__hash_value_typeIiiEEPvEEEENS_9allocatorIS6_EEEC2B8ne180100ILb1EvEEv, symObjAddr: 0x1860, symBinAddr: 0x100002240, symSize: 0x30 }
  - { offset: 0xCF3A, size: 0x8, addend: 0x0, symName: __ZNSt3__122__compressed_pair_elemINS_16__hash_node_baseIPNS_11__hash_nodeINS_17__hash_value_typeIiiEEPvEEEELi0ELb0EEC2B8ne180100ENS_16__value_init_tagE, symObjAddr: 0x1890, symBinAddr: 0x100002270, symSize: 0x20 }
  - { offset: 0xCF6F, size: 0x8, addend: 0x0, symName: __ZNSt3__122__compressed_pair_elemINS_9allocatorINS_11__hash_nodeINS_17__hash_value_typeIiiEEPvEEEELi1ELb1EEC2B8ne180100ENS_16__value_init_tagE, symObjAddr: 0x18B0, symBinAddr: 0x100002290, symSize: 0x20 }
  - { offset: 0xCFA4, size: 0x8, addend: 0x0, symName: __ZNSt3__116__hash_node_baseIPNS_11__hash_nodeINS_17__hash_value_typeIiiEEPvEEEC1B8ne180100Ev, symObjAddr: 0x18D0, symBinAddr: 0x1000022B0, symSize: 0x20 }
  - { offset: 0xCFCE, size: 0x8, addend: 0x0, symName: __ZNSt3__116__hash_node_baseIPNS_11__hash_nodeINS_17__hash_value_typeIiiEEPvEEEC2B8ne180100Ev, symObjAddr: 0x18F0, symBinAddr: 0x1000022D0, symSize: 0x20 }
  - { offset: 0xCFF8, size: 0x8, addend: 0x0, symName: __ZNSt3__19allocatorINS_11__hash_nodeINS_17__hash_value_typeIiiEEPvEEEC2B8ne180100Ev, symObjAddr: 0x1910, symBinAddr: 0x1000022F0, symSize: 0x20 }
  - { offset: 0xD022, size: 0x8, addend: 0x0, symName: __ZNSt3__116__non_trivial_ifILb1ENS_9allocatorINS_11__hash_nodeINS_17__hash_value_typeIiiEEPvEEEEEC2B8ne180100Ev, symObjAddr: 0x1930, symBinAddr: 0x100002310, symSize: 0x10 }
  - { offset: 0xD04C, size: 0x8, addend: 0x0, symName: __ZNSt3__117__compressed_pairImNS_22__unordered_map_hasherIiNS_17__hash_value_typeIiiEENS_4hashIiEENS_8equal_toIiEELb1EEEEC2B8ne180100IiNS_18__default_init_tagEEEOT_OT0_, symObjAddr: 0x1940, symBinAddr: 0x100002320, symSize: 0x40 }
  - { offset: 0xD0A4, size: 0x8, addend: 0x0, symName: __ZNSt3__122__compressed_pair_elemINS_22__unordered_map_hasherIiNS_17__hash_value_typeIiiEENS_4hashIiEENS_8equal_toIiEELb1EEELi1ELb1EEC2B8ne180100ENS_18__default_init_tagE, symObjAddr: 0x1980, symBinAddr: 0x100002360, symSize: 0x20 }
  - { offset: 0xD0D9, size: 0x8, addend: 0x0, symName: __ZNSt3__122__unordered_map_hasherIiNS_17__hash_value_typeIiiEENS_4hashIiEENS_8equal_toIiEELb1EEC2B8ne180100Ev, symObjAddr: 0x19A0, symBinAddr: 0x100002380, symSize: 0x10 }
  - { offset: 0xD103, size: 0x8, addend: 0x0, symName: __ZNSt3__117__compressed_pairIfNS_21__unordered_map_equalIiNS_17__hash_value_typeIiiEENS_8equal_toIiEENS_4hashIiEELb1EEEEC2B8ne180100IfNS_18__default_init_tagEEEOT_OT0_, symObjAddr: 0x19B0, symBinAddr: 0x100002390, symSize: 0x40 }
  - { offset: 0xD15B, size: 0x8, addend: 0x0, symName: __ZNSt3__122__compressed_pair_elemIfLi0ELb0EEC2B8ne180100IfvEEOT_, symObjAddr: 0x19F0, symBinAddr: 0x1000023D0, symSize: 0x20 }
  - { offset: 0xD19D, size: 0x8, addend: 0x0, symName: __ZNSt3__122__compressed_pair_elemINS_21__unordered_map_equalIiNS_17__hash_value_typeIiiEENS_8equal_toIiEENS_4hashIiEELb1EEELi1ELb1EEC2B8ne180100ENS_18__default_init_tagE, symObjAddr: 0x1A10, symBinAddr: 0x1000023F0, symSize: 0x20 }
  - { offset: 0xD1D2, size: 0x8, addend: 0x0, symName: __ZNSt3__121__unordered_map_equalIiNS_17__hash_value_typeIiiEENS_8equal_toIiEENS_4hashIiEELb1EEC2B8ne180100Ev, symObjAddr: 0x1A30, symBinAddr: 0x100002410, symSize: 0x10 }
  - { offset: 0xD1FC, size: 0x8, addend: 0x0, symName: __ZNSt3__113unordered_mapIiiNS_4hashIiEENS_8equal_toIiEENS_9allocatorINS_4pairIKiiEEEEED2B8ne180100Ev, symObjAddr: 0x1A40, symBinAddr: 0x100002420, symSize: 0x20 }
  - { offset: 0xD226, size: 0x8, addend: 0x0, symName: __ZNSt3__112__hash_tableINS_17__hash_value_typeIiiEENS_22__unordered_map_hasherIiS2_NS_4hashIiEENS_8equal_toIiEELb1EEENS_21__unordered_map_equalIiS2_S7_S5_Lb1EEENS_9allocatorIS2_EEED1Ev, symObjAddr: 0x1A60, symBinAddr: 0x100002440, symSize: 0x20 }
  - { offset: 0xD252, size: 0x8, addend: 0x0, symName: __ZNSt3__112__hash_tableINS_17__hash_value_typeIiiEENS_22__unordered_map_hasherIiS2_NS_4hashIiEENS_8equal_toIiEELb1EEENS_21__unordered_map_equalIiS2_S7_S5_Lb1EEENS_9allocatorIS2_EEED2Ev, symObjAddr: 0x1A80, symBinAddr: 0x100002460, symSize: 0x40 }
  - { offset: 0xD27E, size: 0x8, addend: 0x0, symName: __ZNSt3__112__hash_tableINS_17__hash_value_typeIiiEENS_22__unordered_map_hasherIiS2_NS_4hashIiEENS_8equal_toIiEELb1EEENS_21__unordered_map_equalIiS2_S7_S5_Lb1EEENS_9allocatorIS2_EEE17__deallocate_nodeEPNS_16__hash_node_baseIPNS_11__hash_nodeIS2_PvEEEE, symObjAddr: 0x1AC0, symBinAddr: 0x1000024A0, symSize: 0xC0 }
  - { offset: 0xD2E8, size: 0x8, addend: 0x0, symName: __ZNSt3__117__compressed_pairINS_16__hash_node_baseIPNS_11__hash_nodeINS_17__hash_value_typeIiiEEPvEEEENS_9allocatorIS6_EEE5firstB8ne180100Ev, symObjAddr: 0x1B80, symBinAddr: 0x100002560, symSize: 0x20 }
  - { offset: 0xD30E, size: 0x8, addend: 0x0, symName: __ZNSt3__110unique_ptrIA_PNS_16__hash_node_baseIPNS_11__hash_nodeINS_17__hash_value_typeIiiEEPvEEEENS_25__bucket_list_deallocatorINS_9allocatorIS9_EEEEED1B8ne180100Ev, symObjAddr: 0x1BA0, symBinAddr: 0x100002580, symSize: 0x20 }
  - { offset: 0xD338, size: 0x8, addend: 0x0, symName: __ZNSt3__112__hash_tableINS_17__hash_value_typeIiiEENS_22__unordered_map_hasherIiS2_NS_4hashIiEENS_8equal_toIiEELb1EEENS_21__unordered_map_equalIiS2_S7_S5_Lb1EEENS_9allocatorIS2_EEE12__node_allocB8ne180100Ev, symObjAddr: 0x1BC0, symBinAddr: 0x1000025A0, symSize: 0x20 }
  - { offset: 0xD35E, size: 0x8, addend: 0x0, symName: __ZNSt3__116__hash_node_baseIPNS_11__hash_nodeINS_17__hash_value_typeIiiEEPvEEE8__upcastB8ne180100Ev, symObjAddr: 0x1BE0, symBinAddr: 0x1000025C0, symSize: 0x20 }
  - { offset: 0xD384, size: 0x8, addend: 0x0, symName: __ZNSt3__116allocator_traitsINS_9allocatorINS_11__hash_nodeINS_17__hash_value_typeIiiEEPvEEEEE7destroyB8ne180100INS_4pairIKiiEEvvEEvRS7_PT_, symObjAddr: 0x1C00, symBinAddr: 0x1000025E0, symSize: 0x20 }
  - { offset: 0xD3BF, size: 0x8, addend: 0x0, symName: __ZNSt3__122__hash_key_value_typesINS_17__hash_value_typeIiiEEE9__get_ptrB8ne180100ERS2_, symObjAddr: 0x1C20, symBinAddr: 0x100002600, symSize: 0x20 }
  - { offset: 0xD3E2, size: 0x8, addend: 0x0, symName: __ZNSt3__111__hash_nodeINS_17__hash_value_typeIiiEEPvE11__get_valueB8ne180100Ev, symObjAddr: 0x1C40, symBinAddr: 0x100002620, symSize: 0x20 }
  - { offset: 0xD408, size: 0x8, addend: 0x0, symName: __ZNSt3__116allocator_traitsINS_9allocatorINS_11__hash_nodeINS_17__hash_value_typeIiiEEPvEEEEE10deallocateB8ne180100ERS7_PS6_m, symObjAddr: 0x1C80, symBinAddr: 0x100002660, symSize: 0x30 }
  - { offset: 0xD44A, size: 0x8, addend: 0x0, symName: __ZNSt3__117__compressed_pairINS_16__hash_node_baseIPNS_11__hash_nodeINS_17__hash_value_typeIiiEEPvEEEENS_9allocatorIS6_EEE6secondB8ne180100Ev, symObjAddr: 0x1CB0, symBinAddr: 0x100002690, symSize: 0x20 }
  - { offset: 0xD470, size: 0x8, addend: 0x0, symName: __ZNSt3__122__compressed_pair_elemINS_9allocatorINS_11__hash_nodeINS_17__hash_value_typeIiiEEPvEEEELi1ELb1EE5__getB8ne180100Ev, symObjAddr: 0x1CD0, symBinAddr: 0x1000026B0, symSize: 0x10 }
  - { offset: 0xD496, size: 0x8, addend: 0x0, symName: __ZNSt3__114pointer_traitsIPNS_16__hash_node_baseIPNS_11__hash_nodeINS_17__hash_value_typeIiiEEPvEEEEE10pointer_toB8ne180100ERS8_, symObjAddr: 0x1CE0, symBinAddr: 0x1000026C0, symSize: 0x10 }
  - { offset: 0xD4B9, size: 0x8, addend: 0x0, symName: __ZNSt3__117__hash_value_typeIiiE11__get_valueB8ne180100Ev, symObjAddr: 0x1D00, symBinAddr: 0x1000026E0, symSize: 0x20 }
  - { offset: 0xD4DF, size: 0x8, addend: 0x0, symName: __ZNSt3__111__hash_nodeINS_17__hash_value_typeIiiEEPvED1B8ne180100Ev, symObjAddr: 0x1D50, symBinAddr: 0x100002730, symSize: 0x20 }
  - { offset: 0xD509, size: 0x8, addend: 0x0, symName: __ZNSt3__111__hash_nodeINS_17__hash_value_typeIiiEEPvED2B8ne180100Ev, symObjAddr: 0x1D70, symBinAddr: 0x100002750, symSize: 0x10 }
  - { offset: 0xD533, size: 0x8, addend: 0x0, symName: __ZNSt3__19allocatorINS_11__hash_nodeINS_17__hash_value_typeIiiEEPvEEE10deallocateB8ne180100EPS5_m, symObjAddr: 0x1D80, symBinAddr: 0x100002760, symSize: 0x50 }
  - { offset: 0xD575, size: 0x8, addend: 0x0, symName: __ZNSt3__122__compressed_pair_elemINS_16__hash_node_baseIPNS_11__hash_nodeINS_17__hash_value_typeIiiEEPvEEEELi0ELb0EE5__getB8ne180100Ev, symObjAddr: 0x1DD0, symBinAddr: 0x1000027B0, symSize: 0x10 }
  - { offset: 0xD59B, size: 0x8, addend: 0x0, symName: __ZNSt3__110unique_ptrIA_PNS_16__hash_node_baseIPNS_11__hash_nodeINS_17__hash_value_typeIiiEEPvEEEENS_25__bucket_list_deallocatorINS_9allocatorIS9_EEEEED2B8ne180100Ev, symObjAddr: 0x1DE0, symBinAddr: 0x1000027C0, symSize: 0x20 }
  - { offset: 0xD5C5, size: 0x8, addend: 0x0, symName: __ZNSt3__110unique_ptrIA_PNS_16__hash_node_baseIPNS_11__hash_nodeINS_17__hash_value_typeIiiEEPvEEEENS_25__bucket_list_deallocatorINS_9allocatorIS9_EEEEE5resetB8ne180100EDn, symObjAddr: 0x1E00, symBinAddr: 0x1000027E0, symSize: 0x60 }
  - { offset: 0xD606, size: 0x8, addend: 0x0, symName: __ZNSt3__117__compressed_pairIPPNS_16__hash_node_baseIPNS_11__hash_nodeINS_17__hash_value_typeIiiEEPvEEEENS_25__bucket_list_deallocatorINS_9allocatorIS9_EEEEE5firstB8ne180100Ev, symObjAddr: 0x1E60, symBinAddr: 0x100002840, symSize: 0x20 }
  - { offset: 0xD62C, size: 0x8, addend: 0x0, symName: __ZNSt3__117__compressed_pairIPPNS_16__hash_node_baseIPNS_11__hash_nodeINS_17__hash_value_typeIiiEEPvEEEENS_25__bucket_list_deallocatorINS_9allocatorIS9_EEEEE6secondB8ne180100Ev, symObjAddr: 0x1E80, symBinAddr: 0x100002860, symSize: 0x20 }
  - { offset: 0xD652, size: 0x8, addend: 0x0, symName: __ZNSt3__125__bucket_list_deallocatorINS_9allocatorIPNS_16__hash_node_baseIPNS_11__hash_nodeINS_17__hash_value_typeIiiEEPvEEEEEEEclB8ne180100EPSA_, symObjAddr: 0x1EA0, symBinAddr: 0x100002880, symSize: 0x50 }
  - { offset: 0xD687, size: 0x8, addend: 0x0, symName: __ZNSt3__122__compressed_pair_elemIPPNS_16__hash_node_baseIPNS_11__hash_nodeINS_17__hash_value_typeIiiEEPvEEEELi0ELb0EE5__getB8ne180100Ev, symObjAddr: 0x1EF0, symBinAddr: 0x1000028D0, symSize: 0x10 }
  - { offset: 0xD6AD, size: 0x8, addend: 0x0, symName: __ZNSt3__122__compressed_pair_elemINS_25__bucket_list_deallocatorINS_9allocatorIPNS_16__hash_node_baseIPNS_11__hash_nodeINS_17__hash_value_typeIiiEEPvEEEEEEEELi1ELb0EE5__getB8ne180100Ev, symObjAddr: 0x1F00, symBinAddr: 0x1000028E0, symSize: 0x10 }
  - { offset: 0xD6D3, size: 0x8, addend: 0x0, symName: __ZNSt3__116allocator_traitsINS_9allocatorIPNS_16__hash_node_baseIPNS_11__hash_nodeINS_17__hash_value_typeIiiEEPvEEEEEEE10deallocateB8ne180100ERSB_PSA_m, symObjAddr: 0x1F10, symBinAddr: 0x1000028F0, symSize: 0x30 }
  - { offset: 0xD715, size: 0x8, addend: 0x0, symName: __ZNSt3__125__bucket_list_deallocatorINS_9allocatorIPNS_16__hash_node_baseIPNS_11__hash_nodeINS_17__hash_value_typeIiiEEPvEEEEEEE7__allocB8ne180100Ev, symObjAddr: 0x1F40, symBinAddr: 0x100002920, symSize: 0x20 }
  - { offset: 0xD73B, size: 0x8, addend: 0x0, symName: __ZNSt3__125__bucket_list_deallocatorINS_9allocatorIPNS_16__hash_node_baseIPNS_11__hash_nodeINS_17__hash_value_typeIiiEEPvEEEEEEE4sizeB8ne180100Ev, symObjAddr: 0x1F60, symBinAddr: 0x100002940, symSize: 0x20 }
  - { offset: 0xD761, size: 0x8, addend: 0x0, symName: __ZNSt3__19allocatorIPNS_16__hash_node_baseIPNS_11__hash_nodeINS_17__hash_value_typeIiiEEPvEEEEE10deallocateB8ne180100EPS9_m, symObjAddr: 0x1F80, symBinAddr: 0x100002960, symSize: 0x40 }
  - { offset: 0xD7A3, size: 0x8, addend: 0x0, symName: __ZNSt3__117__compressed_pairImNS_9allocatorIPNS_16__hash_node_baseIPNS_11__hash_nodeINS_17__hash_value_typeIiiEEPvEEEEEEE6secondB8ne180100Ev, symObjAddr: 0x1FC0, symBinAddr: 0x1000029A0, symSize: 0x20 }
  - { offset: 0xD7C9, size: 0x8, addend: 0x0, symName: __ZNSt3__122__compressed_pair_elemINS_9allocatorIPNS_16__hash_node_baseIPNS_11__hash_nodeINS_17__hash_value_typeIiiEEPvEEEEEELi1ELb1EE5__getB8ne180100Ev, symObjAddr: 0x1FE0, symBinAddr: 0x1000029C0, symSize: 0x10 }
  - { offset: 0xD7EF, size: 0x8, addend: 0x0, symName: __ZNSt3__117__compressed_pairImNS_9allocatorIPNS_16__hash_node_baseIPNS_11__hash_nodeINS_17__hash_value_typeIiiEEPvEEEEEEE5firstB8ne180100Ev, symObjAddr: 0x1FF0, symBinAddr: 0x1000029D0, symSize: 0x20 }
  - { offset: 0xD815, size: 0x8, addend: 0x0, symName: __ZNSt3__122__compressed_pair_elemImLi0ELb0EE5__getB8ne180100Ev, symObjAddr: 0x2010, symBinAddr: 0x1000029F0, symSize: 0x10 }
  - { offset: 0xD84F, size: 0x8, addend: 0x0, symName: __ZNSt3__112__hash_tableINS_17__hash_value_typeIiiEENS_22__unordered_map_hasherIiS2_NS_4hashIiEENS_8equal_toIiEELb1EEENS_21__unordered_map_equalIiS2_S7_S5_Lb1EEENS_9allocatorIS2_EEE25__emplace_unique_key_argsIiJRKNS_21piecewise_construct_tENS_5tupleIJOiEEENSI_IJEEEEEENS_4pairINS_15__hash_iteratorIPNS_11__hash_nodeIS2_PvEEEEbEERKT_DpOT0_, symObjAddr: 0x2020, symBinAddr: 0x100002A00, symSize: 0x660 }
  - { offset: 0xD957, size: 0x8, addend: 0x0, symName: __ZNKSt3__115__hash_iteratorIPNS_11__hash_nodeINS_17__hash_value_typeIiiEEPvEEEptB8ne180100Ev, symObjAddr: 0x26C0, symBinAddr: 0x1000030A0, symSize: 0x30 }
  - { offset: 0xD97D, size: 0x8, addend: 0x0, symName: __ZNSt3__112__hash_tableINS_17__hash_value_typeIiiEENS_22__unordered_map_hasherIiS2_NS_4hashIiEENS_8equal_toIiEELb1EEENS_21__unordered_map_equalIiS2_S7_S5_Lb1EEENS_9allocatorIS2_EEE13hash_functionB8ne180100Ev, symObjAddr: 0x26F0, symBinAddr: 0x1000030D0, symSize: 0x20 }
  - { offset: 0xD9A3, size: 0x8, addend: 0x0, symName: __ZNKSt3__122__unordered_map_hasherIiNS_17__hash_value_typeIiiEENS_4hashIiEENS_8equal_toIiEELb1EEclB8ne180100ERKi, symObjAddr: 0x2710, symBinAddr: 0x1000030F0, symSize: 0x30 }
  - { offset: 0xD9D8, size: 0x8, addend: 0x0, symName: __ZNKSt3__112__hash_tableINS_17__hash_value_typeIiiEENS_22__unordered_map_hasherIiS2_NS_4hashIiEENS_8equal_toIiEELb1EEENS_21__unordered_map_equalIiS2_S7_S5_Lb1EEENS_9allocatorIS2_EEE12bucket_countB8ne180100Ev, symObjAddr: 0x2740, symBinAddr: 0x100003120, symSize: 0x30 }
  - { offset: 0xD9FE, size: 0x8, addend: 0x0, symName: __ZNKSt3__110unique_ptrIA_PNS_16__hash_node_baseIPNS_11__hash_nodeINS_17__hash_value_typeIiiEEPvEEEENS_25__bucket_list_deallocatorINS_9allocatorIS9_EEEEEixB8ne180100Em, symObjAddr: 0x27F0, symBinAddr: 0x1000031D0, symSize: 0x30 }
  - { offset: 0xDA33, size: 0x8, addend: 0x0, symName: __ZNKSt3__116__hash_node_baseIPNS_11__hash_nodeINS_17__hash_value_typeIiiEEPvEEE6__hashB8ne180100Ev, symObjAddr: 0x2820, symBinAddr: 0x100003200, symSize: 0x20 }
  - { offset: 0xDA59, size: 0x8, addend: 0x0, symName: __ZNSt3__112__hash_tableINS_17__hash_value_typeIiiEENS_22__unordered_map_hasherIiS2_NS_4hashIiEENS_8equal_toIiEELb1EEENS_21__unordered_map_equalIiS2_S7_S5_Lb1EEENS_9allocatorIS2_EEE6key_eqB8ne180100Ev, symObjAddr: 0x2840, symBinAddr: 0x100003220, symSize: 0x20 }
  - { offset: 0xDA7F, size: 0x8, addend: 0x0, symName: __ZNKSt3__121__unordered_map_equalIiNS_17__hash_value_typeIiiEENS_8equal_toIiEENS_4hashIiEELb1EEclB8ne180100ERKS2_RKi, symObjAddr: 0x2860, symBinAddr: 0x100003240, symSize: 0x40 }
  - { offset: 0xDAC3, size: 0x8, addend: 0x0, symName: __ZNSt3__112__hash_tableINS_17__hash_value_typeIiiEENS_22__unordered_map_hasherIiS2_NS_4hashIiEENS_8equal_toIiEELb1EEENS_21__unordered_map_equalIiS2_S7_S5_Lb1EEENS_9allocatorIS2_EEE21__construct_node_hashIRKNS_21piecewise_construct_tEJNS_5tupleIJOiEEENSI_IJEEEEEENS_10unique_ptrINS_11__hash_nodeIS2_PvEENS_22__hash_node_destructorINSB_ISP_EEEEEEmOT_DpOT0_, symObjAddr: 0x28A0, symBinAddr: 0x100003280, symSize: 0x160 }
  - { offset: 0xDB5F, size: 0x8, addend: 0x0, symName: __ZNSt3__112__hash_tableINS_17__hash_value_typeIiiEENS_22__unordered_map_hasherIiS2_NS_4hashIiEENS_8equal_toIiEELb1EEENS_21__unordered_map_equalIiS2_S7_S5_Lb1EEENS_9allocatorIS2_EEE4sizeB8ne180100Ev, symObjAddr: 0x2A00, symBinAddr: 0x1000033E0, symSize: 0x20 }
  - { offset: 0xDB85, size: 0x8, addend: 0x0, symName: __ZNSt3__112__hash_tableINS_17__hash_value_typeIiiEENS_22__unordered_map_hasherIiS2_NS_4hashIiEENS_8equal_toIiEELb1EEENS_21__unordered_map_equalIiS2_S7_S5_Lb1EEENS_9allocatorIS2_EEE15max_load_factorB8ne180100Ev, symObjAddr: 0x2A20, symBinAddr: 0x100003400, symSize: 0x20 }
  - { offset: 0xDBAB, size: 0x8, addend: 0x0, symName: __ZNSt3__112__hash_tableINS_17__hash_value_typeIiiEENS_22__unordered_map_hasherIiS2_NS_4hashIiEENS_8equal_toIiEELb1EEENS_21__unordered_map_equalIiS2_S7_S5_Lb1EEENS_9allocatorIS2_EEE15__rehash_uniqueB8ne180100Em, symObjAddr: 0x2A40, symBinAddr: 0x100003420, symSize: 0x30 }
  - { offset: 0xDBE0, size: 0x8, addend: 0x0, symName: __ZNSt3__116__hash_node_baseIPNS_11__hash_nodeINS_17__hash_value_typeIiiEEPvEEE5__ptrB8ne180100Ev, symObjAddr: 0x2B00, symBinAddr: 0x1000034E0, symSize: 0x20 }
  - { offset: 0xDC06, size: 0x8, addend: 0x0, symName: __ZNKSt3__110unique_ptrINS_11__hash_nodeINS_17__hash_value_typeIiiEEPvEENS_22__hash_node_destructorINS_9allocatorIS5_EEEEEptB8ne180100Ev, symObjAddr: 0x2B20, symBinAddr: 0x100003500, symSize: 0x20 }
  - { offset: 0xDC2C, size: 0x8, addend: 0x0, symName: __ZNKSt3__110unique_ptrINS_11__hash_nodeINS_17__hash_value_typeIiiEEPvEENS_22__hash_node_destructorINS_9allocatorIS5_EEEEE3getB8ne180100Ev, symObjAddr: 0x2B40, symBinAddr: 0x100003520, symSize: 0x20 }
  - { offset: 0xDC52, size: 0x8, addend: 0x0, symName: __ZNSt3__110unique_ptrINS_11__hash_nodeINS_17__hash_value_typeIiiEEPvEENS_22__hash_node_destructorINS_9allocatorIS5_EEEEE7releaseB8ne180100Ev, symObjAddr: 0x2B60, symBinAddr: 0x100003540, symSize: 0x40 }
  - { offset: 0xDC87, size: 0x8, addend: 0x0, symName: __ZNSt3__110unique_ptrINS_11__hash_nodeINS_17__hash_value_typeIiiEEPvEENS_22__hash_node_destructorINS_9allocatorIS5_EEEEED1B8ne180100Ev, symObjAddr: 0x2BA0, symBinAddr: 0x100003580, symSize: 0x20 }
  - { offset: 0xDCB1, size: 0x8, addend: 0x0, symName: __ZNSt3__115__hash_iteratorIPNS_11__hash_nodeINS_17__hash_value_typeIiiEEPvEEEC1B8ne180100EPNS_16__hash_node_baseIS6_EE, symObjAddr: 0x2BC0, symBinAddr: 0x1000035A0, symSize: 0x30 }
  - { offset: 0xDCF4, size: 0x8, addend: 0x0, symName: __ZNSt3__14pairINS_15__hash_iteratorIPNS_11__hash_nodeINS_17__hash_value_typeIiiEEPvEEEEbEC1B8ne180100IS8_RbLi0EEEOT_OT0_, symObjAddr: 0x2BF0, symBinAddr: 0x1000035D0, symSize: 0x30 }
  - { offset: 0xDD52, size: 0x8, addend: 0x0, symName: __ZNSt3__117__compressed_pairImNS_22__unordered_map_hasherIiNS_17__hash_value_typeIiiEENS_4hashIiEENS_8equal_toIiEELb1EEEE6secondB8ne180100Ev, symObjAddr: 0x2C20, symBinAddr: 0x100003600, symSize: 0x20 }
  - { offset: 0xDD78, size: 0x8, addend: 0x0, symName: __ZNSt3__122__compressed_pair_elemINS_22__unordered_map_hasherIiNS_17__hash_value_typeIiiEENS_4hashIiEENS_8equal_toIiEELb1EEELi1ELb1EE5__getB8ne180100Ev, symObjAddr: 0x2C40, symBinAddr: 0x100003620, symSize: 0x10 }
  - { offset: 0xDD9E, size: 0x8, addend: 0x0, symName: __ZNKSt3__14hashIiEclB8ne180100Ei, symObjAddr: 0x2C50, symBinAddr: 0x100003630, symSize: 0x20 }
  - { offset: 0xDDD3, size: 0x8, addend: 0x0, symName: __ZNKSt3__110unique_ptrIA_PNS_16__hash_node_baseIPNS_11__hash_nodeINS_17__hash_value_typeIiiEEPvEEEENS_25__bucket_list_deallocatorINS_9allocatorIS9_EEEEE11get_deleterB8ne180100Ev, symObjAddr: 0x2C70, symBinAddr: 0x100003650, symSize: 0x20 }
  - { offset: 0xDDF9, size: 0x8, addend: 0x0, symName: __ZNKSt3__125__bucket_list_deallocatorINS_9allocatorIPNS_16__hash_node_baseIPNS_11__hash_nodeINS_17__hash_value_typeIiiEEPvEEEEEEE4sizeB8ne180100Ev, symObjAddr: 0x2C90, symBinAddr: 0x100003670, symSize: 0x20 }
  - { offset: 0xDE1F, size: 0x8, addend: 0x0, symName: __ZNKSt3__117__compressed_pairIPPNS_16__hash_node_baseIPNS_11__hash_nodeINS_17__hash_value_typeIiiEEPvEEEENS_25__bucket_list_deallocatorINS_9allocatorIS9_EEEEE6secondB8ne180100Ev, symObjAddr: 0x2CB0, symBinAddr: 0x100003690, symSize: 0x20 }
  - { offset: 0xDE45, size: 0x8, addend: 0x0, symName: __ZNKSt3__122__compressed_pair_elemINS_25__bucket_list_deallocatorINS_9allocatorIPNS_16__hash_node_baseIPNS_11__hash_nodeINS_17__hash_value_typeIiiEEPvEEEEEEEELi1ELb0EE5__getB8ne180100Ev, symObjAddr: 0x2CD0, symBinAddr: 0x1000036B0, symSize: 0x10 }
  - { offset: 0xDE6B, size: 0x8, addend: 0x0, symName: __ZNKSt3__117__compressed_pairImNS_9allocatorIPNS_16__hash_node_baseIPNS_11__hash_nodeINS_17__hash_value_typeIiiEEPvEEEEEEE5firstB8ne180100Ev, symObjAddr: 0x2CE0, symBinAddr: 0x1000036C0, symSize: 0x20 }
  - { offset: 0xDE91, size: 0x8, addend: 0x0, symName: __ZNKSt3__122__compressed_pair_elemImLi0ELb0EE5__getB8ne180100Ev, symObjAddr: 0x2D00, symBinAddr: 0x1000036E0, symSize: 0x10 }
  - { offset: 0xDEB7, size: 0x8, addend: 0x0, symName: __ZNKSt3__117__compressed_pairIPPNS_16__hash_node_baseIPNS_11__hash_nodeINS_17__hash_value_typeIiiEEPvEEEENS_25__bucket_list_deallocatorINS_9allocatorIS9_EEEEE5firstB8ne180100Ev, symObjAddr: 0x2D10, symBinAddr: 0x1000036F0, symSize: 0x20 }
  - { offset: 0xDEDD, size: 0x8, addend: 0x0, symName: __ZNKSt3__122__compressed_pair_elemIPPNS_16__hash_node_baseIPNS_11__hash_nodeINS_17__hash_value_typeIiiEEPvEEEELi0ELb0EE5__getB8ne180100Ev, symObjAddr: 0x2D30, symBinAddr: 0x100003710, symSize: 0x10 }
  - { offset: 0xDF03, size: 0x8, addend: 0x0, symName: __ZNSt3__117__compressed_pairIfNS_21__unordered_map_equalIiNS_17__hash_value_typeIiiEENS_8equal_toIiEENS_4hashIiEELb1EEEE6secondB8ne180100Ev, symObjAddr: 0x2D40, symBinAddr: 0x100003720, symSize: 0x20 }
  - { offset: 0xDF29, size: 0x8, addend: 0x0, symName: __ZNSt3__122__compressed_pair_elemINS_21__unordered_map_equalIiNS_17__hash_value_typeIiiEENS_8equal_toIiEENS_4hashIiEELb1EEELi1ELb1EE5__getB8ne180100Ev, symObjAddr: 0x2D60, symBinAddr: 0x100003740, symSize: 0x10 }
  - { offset: 0xDF4F, size: 0x8, addend: 0x0, symName: __ZNKSt3__18equal_toIiEclB8ne180100ERKiS3_, symObjAddr: 0x2D70, symBinAddr: 0x100003750, symSize: 0x30 }
  - { offset: 0xDF93, size: 0x8, addend: 0x0, symName: __ZNKSt3__117__hash_value_typeIiiE11__get_valueB8ne180100Ev, symObjAddr: 0x2DA0, symBinAddr: 0x100003780, symSize: 0x20 }
  - { offset: 0xDFB9, size: 0x8, addend: 0x0, symName: __ZNSt3__116allocator_traitsINS_9allocatorINS_11__hash_nodeINS_17__hash_value_typeIiiEEPvEEEEE8allocateB8ne180100ERS7_m, symObjAddr: 0x2DF0, symBinAddr: 0x1000037D0, symSize: 0x30 }
  - { offset: 0xDFEC, size: 0x8, addend: 0x0, symName: __ZNSt3__122__hash_node_destructorINS_9allocatorINS_11__hash_nodeINS_17__hash_value_typeIiiEEPvEEEEEC1B8ne180100ERS7_b, symObjAddr: 0x2E20, symBinAddr: 0x100003800, symSize: 0x40 }
  - { offset: 0xE039, size: 0x8, addend: 0x0, symName: __ZNSt3__110unique_ptrINS_11__hash_nodeINS_17__hash_value_typeIiiEEPvEENS_22__hash_node_destructorINS_9allocatorIS5_EEEEEC1B8ne180100ILb1EvEEPS5_NS_16__dependent_typeINS_27__unique_ptr_deleter_sfinaeIS9_EEXT_EE20__good_rval_ref_typeE, symObjAddr: 0x2E60, symBinAddr: 0x100003840, symSize: 0x30 }
  - { offset: 0xE08A, size: 0x8, addend: 0x0, symName: __ZNKSt3__110unique_ptrINS_11__hash_nodeINS_17__hash_value_typeIiiEEPvEENS_22__hash_node_destructorINS_9allocatorIS5_EEEEEdeB8ne180100Ev, symObjAddr: 0x2EC0, symBinAddr: 0x1000038A0, symSize: 0x20 }
  - { offset: 0xE0B0, size: 0x8, addend: 0x0, symName: __ZNSt3__116allocator_traitsINS_9allocatorINS_11__hash_nodeINS_17__hash_value_typeIiiEEPvEEEEE9constructB8ne180100INS_4pairIKiiEEJRKNS_21piecewise_construct_tENS_5tupleIJOiEEENSG_IJEEEEvvEEvRS7_PT_DpOT0_, symObjAddr: 0x2EE0, symBinAddr: 0x1000038C0, symSize: 0x40 }
  - { offset: 0xE12D, size: 0x8, addend: 0x0, symName: __ZNSt3__110unique_ptrINS_11__hash_nodeINS_17__hash_value_typeIiiEEPvEENS_22__hash_node_destructorINS_9allocatorIS5_EEEEE11get_deleterB8ne180100Ev, symObjAddr: 0x2F20, symBinAddr: 0x100003900, symSize: 0x20 }
  - { offset: 0xE153, size: 0x8, addend: 0x0, symName: __ZNSt3__19allocatorINS_11__hash_nodeINS_17__hash_value_typeIiiEEPvEEE8allocateB8ne180100Em, symObjAddr: 0x2F40, symBinAddr: 0x100003920, symSize: 0x50 }
  - { offset: 0xE191, size: 0x8, addend: 0x0, symName: __ZNSt3__116allocator_traitsINS_9allocatorINS_11__hash_nodeINS_17__hash_value_typeIiiEEPvEEEEE8max_sizeB8ne180100IS7_vvEEmRKS7_, symObjAddr: 0x2F90, symBinAddr: 0x100003970, symSize: 0x30 }
  - { offset: 0xE1BD, size: 0x8, addend: 0x0, symName: __ZNSt3__122__hash_node_destructorINS_9allocatorINS_11__hash_nodeINS_17__hash_value_typeIiiEEPvEEEEEC2B8ne180100ERS7_b, symObjAddr: 0x2FC0, symBinAddr: 0x1000039A0, symSize: 0x30 }
  - { offset: 0xE205, size: 0x8, addend: 0x0, symName: __ZNSt3__110unique_ptrINS_11__hash_nodeINS_17__hash_value_typeIiiEEPvEENS_22__hash_node_destructorINS_9allocatorIS5_EEEEEC2B8ne180100ILb1EvEEPS5_NS_16__dependent_typeINS_27__unique_ptr_deleter_sfinaeIS9_EEXT_EE20__good_rval_ref_typeE, symObjAddr: 0x2FF0, symBinAddr: 0x1000039D0, symSize: 0x40 }
  - { offset: 0xE256, size: 0x8, addend: 0x0, symName: __ZNSt3__117__compressed_pairIPNS_11__hash_nodeINS_17__hash_value_typeIiiEEPvEENS_22__hash_node_destructorINS_9allocatorIS5_EEEEEC1B8ne180100IRS6_SA_EEOT_OT0_, symObjAddr: 0x3030, symBinAddr: 0x100003A10, symSize: 0x30 }
  - { offset: 0xE2AE, size: 0x8, addend: 0x0, symName: __ZNSt3__117__compressed_pairIPNS_11__hash_nodeINS_17__hash_value_typeIiiEEPvEENS_22__hash_node_destructorINS_9allocatorIS5_EEEEEC2B8ne180100IRS6_SA_EEOT_OT0_, symObjAddr: 0x3060, symBinAddr: 0x100003A40, symSize: 0x40 }
  - { offset: 0xE306, size: 0x8, addend: 0x0, symName: __ZNSt3__122__compressed_pair_elemIPNS_11__hash_nodeINS_17__hash_value_typeIiiEEPvEELi0ELb0EEC2B8ne180100IRS6_vEEOT_, symObjAddr: 0x30A0, symBinAddr: 0x100003A80, symSize: 0x20 }
  - { offset: 0xE348, size: 0x8, addend: 0x0, symName: __ZNSt3__122__compressed_pair_elemINS_22__hash_node_destructorINS_9allocatorINS_11__hash_nodeINS_17__hash_value_typeIiiEEPvEEEEEELi1ELb0EEC2B8ne180100IS9_vEEOT_, symObjAddr: 0x30C0, symBinAddr: 0x100003AA0, symSize: 0x30 }
  - { offset: 0xE38A, size: 0x8, addend: 0x0, symName: __ZNSt3__111__hash_nodeINS_17__hash_value_typeIiiEEPvEC1B8ne180100EPNS_16__hash_node_baseIPS4_EEm, symObjAddr: 0x3130, symBinAddr: 0x100003B10, symSize: 0x30 }
  - { offset: 0xE3D0, size: 0x8, addend: 0x0, symName: __ZNSt3__111__hash_nodeINS_17__hash_value_typeIiiEEPvEC2B8ne180100EPNS_16__hash_node_baseIPS4_EEm, symObjAddr: 0x3160, symBinAddr: 0x100003B40, symSize: 0x40 }
  - { offset: 0xE416, size: 0x8, addend: 0x0, symName: __ZNSt3__116__hash_node_baseIPNS_11__hash_nodeINS_17__hash_value_typeIiiEEPvEEEC2B8ne180100EPS7_, symObjAddr: 0x31A0, symBinAddr: 0x100003B80, symSize: 0x20 }
  - { offset: 0xE44E, size: 0x8, addend: 0x0, symName: __ZNKSt3__117__compressed_pairIPNS_11__hash_nodeINS_17__hash_value_typeIiiEEPvEENS_22__hash_node_destructorINS_9allocatorIS5_EEEEE5firstB8ne180100Ev, symObjAddr: 0x31C0, symBinAddr: 0x100003BA0, symSize: 0x20 }
  - { offset: 0xE474, size: 0x8, addend: 0x0, symName: __ZNKSt3__122__compressed_pair_elemIPNS_11__hash_nodeINS_17__hash_value_typeIiiEEPvEELi0ELb0EE5__getB8ne180100Ev, symObjAddr: 0x31E0, symBinAddr: 0x100003BC0, symSize: 0x10 }
  - { offset: 0xE49A, size: 0x8, addend: 0x0, symName: __ZNSt3__14pairIKiiEC1B8ne180100IJOiEJEEENS_21piecewise_construct_tENS_5tupleIJDpT_EEENS6_IJDpT0_EEE, symObjAddr: 0x3270, symBinAddr: 0x100003C50, symSize: 0x40 }
  - { offset: 0xE501, size: 0x8, addend: 0x0, symName: __ZNSt3__14pairIKiiEC1B8ne180100IJOiEJEJLm0EEJEEENS_21piecewise_construct_tERNS_5tupleIJDpT_EEERNS6_IJDpT0_EEENS_15__tuple_indicesIJXspT1_EEEENSF_IJXspT2_EEEE, symObjAddr: 0x32B0, symBinAddr: 0x100003C90, symSize: 0x30 }
  - { offset: 0xE591, size: 0x8, addend: 0x0, symName: __ZNSt3__14pairIKiiEC2B8ne180100IJOiEJEJLm0EEJEEENS_21piecewise_construct_tERNS_5tupleIJDpT_EEERNS6_IJDpT0_EEENS_15__tuple_indicesIJXspT1_EEEENSF_IJXspT2_EEEE, symObjAddr: 0x32E0, symBinAddr: 0x100003CC0, symSize: 0x40 }
  - { offset: 0xE621, size: 0x8, addend: 0x0, symName: __ZNSt3__112__tuple_leafILm0EOiLb0EE3getB8ne180100Ev, symObjAddr: 0x3340, symBinAddr: 0x100003D20, symSize: 0x20 }
  - { offset: 0xE647, size: 0x8, addend: 0x0, symName: __ZNSt3__117__compressed_pairIPNS_11__hash_nodeINS_17__hash_value_typeIiiEEPvEENS_22__hash_node_destructorINS_9allocatorIS5_EEEEE6secondB8ne180100Ev, symObjAddr: 0x3360, symBinAddr: 0x100003D40, symSize: 0x20 }
  - { offset: 0xE66D, size: 0x8, addend: 0x0, symName: __ZNSt3__122__compressed_pair_elemINS_22__hash_node_destructorINS_9allocatorINS_11__hash_nodeINS_17__hash_value_typeIiiEEPvEEEEEELi1ELb0EE5__getB8ne180100Ev, symObjAddr: 0x3380, symBinAddr: 0x100003D60, symSize: 0x10 }
  - { offset: 0xE693, size: 0x8, addend: 0x0, symName: __ZNSt3__117__compressed_pairImNS_22__unordered_map_hasherIiNS_17__hash_value_typeIiiEENS_4hashIiEENS_8equal_toIiEELb1EEEE5firstB8ne180100Ev, symObjAddr: 0x3390, symBinAddr: 0x100003D70, symSize: 0x20 }
  - { offset: 0xE6B9, size: 0x8, addend: 0x0, symName: __ZNSt3__117__compressed_pairIfNS_21__unordered_map_equalIiNS_17__hash_value_typeIiiEENS_8equal_toIiEENS_4hashIiEELb1EEEE5firstB8ne180100Ev, symObjAddr: 0x33B0, symBinAddr: 0x100003D90, symSize: 0x20 }
  - { offset: 0xE6DF, size: 0x8, addend: 0x0, symName: __ZNSt3__122__compressed_pair_elemIfLi0ELb0EE5__getB8ne180100Ev, symObjAddr: 0x33D0, symBinAddr: 0x100003DB0, symSize: 0x10 }
  - { offset: 0xE705, size: 0x8, addend: 0x0, symName: __ZNSt3__112__hash_tableINS_17__hash_value_typeIiiEENS_22__unordered_map_hasherIiS2_NS_4hashIiEENS_8equal_toIiEELb1EEENS_21__unordered_map_equalIiS2_S7_S5_Lb1EEENS_9allocatorIS2_EEE8__rehashILb1EEEvm, symObjAddr: 0x33E0, symBinAddr: 0x100003DC0, symSize: 0x230 }
  - { offset: 0xE755, size: 0x8, addend: 0x0, symName: __ZNSt3__112__hash_tableINS_17__hash_value_typeIiiEENS_22__unordered_map_hasherIiS2_NS_4hashIiEENS_8equal_toIiEELb1EEENS_21__unordered_map_equalIiS2_S7_S5_Lb1EEENS_9allocatorIS2_EEE11__do_rehashILb1EEEvm, symObjAddr: 0x3610, symBinAddr: 0x100003FF0, symSize: 0x250 }
  - { offset: 0xE838, size: 0x8, addend: 0x0, symName: __ZNSt3__110unique_ptrIA_PNS_16__hash_node_baseIPNS_11__hash_nodeINS_17__hash_value_typeIiiEEPvEEEENS_25__bucket_list_deallocatorINS_9allocatorIS9_EEEEE11get_deleterB8ne180100Ev, symObjAddr: 0x38C0, symBinAddr: 0x1000042A0, symSize: 0x20 }
  - { offset: 0xE85E, size: 0x8, addend: 0x0, symName: __ZNSt3__110unique_ptrIA_PNS_16__hash_node_baseIPNS_11__hash_nodeINS_17__hash_value_typeIiiEEPvEEEENS_25__bucket_list_deallocatorINS_9allocatorIS9_EEEEE5resetB8ne180100IPS9_Li0EEEvT_, symObjAddr: 0x38E0, symBinAddr: 0x1000042C0, symSize: 0x70 }
  - { offset: 0xE8B1, size: 0x8, addend: 0x0, symName: __ZNSt3__116allocator_traitsINS_9allocatorIPNS_16__hash_node_baseIPNS_11__hash_nodeINS_17__hash_value_typeIiiEEPvEEEEEEE8allocateB8ne180100ERSB_m, symObjAddr: 0x3950, symBinAddr: 0x100004330, symSize: 0x30 }
  - { offset: 0xE8E4, size: 0x8, addend: 0x0, symName: __ZNSt3__19allocatorIPNS_16__hash_node_baseIPNS_11__hash_nodeINS_17__hash_value_typeIiiEEPvEEEEE8allocateB8ne180100Em, symObjAddr: 0x3980, symBinAddr: 0x100004360, symSize: 0x50 }
  - { offset: 0xE922, size: 0x8, addend: 0x0, symName: __ZNSt3__116allocator_traitsINS_9allocatorIPNS_16__hash_node_baseIPNS_11__hash_nodeINS_17__hash_value_typeIiiEEPvEEEEEEE8max_sizeB8ne180100ISB_vvEEmRKSB_, symObjAddr: 0x39D0, symBinAddr: 0x1000043B0, symSize: 0x20 }
  - { offset: 0xE94E, size: 0x8, addend: 0x0, symName: __ZNSt3__117__compressed_pairIPNS_11__hash_nodeINS_17__hash_value_typeIiiEEPvEENS_22__hash_node_destructorINS_9allocatorIS5_EEEEE5firstB8ne180100Ev, symObjAddr: 0x3A60, symBinAddr: 0x100004440, symSize: 0x20 }
  - { offset: 0xE974, size: 0x8, addend: 0x0, symName: __ZNSt3__122__compressed_pair_elemIPNS_11__hash_nodeINS_17__hash_value_typeIiiEEPvEELi0ELb0EE5__getB8ne180100Ev, symObjAddr: 0x3A80, symBinAddr: 0x100004460, symSize: 0x10 }
  - { offset: 0xE99A, size: 0x8, addend: 0x0, symName: __ZNSt3__110unique_ptrINS_11__hash_nodeINS_17__hash_value_typeIiiEEPvEENS_22__hash_node_destructorINS_9allocatorIS5_EEEEED2B8ne180100Ev, symObjAddr: 0x3A90, symBinAddr: 0x100004470, symSize: 0x20 }
  - { offset: 0xE9C4, size: 0x8, addend: 0x0, symName: __ZNSt3__110unique_ptrINS_11__hash_nodeINS_17__hash_value_typeIiiEEPvEENS_22__hash_node_destructorINS_9allocatorIS5_EEEEE5resetB8ne180100EPS5_, symObjAddr: 0x3AB0, symBinAddr: 0x100004490, symSize: 0x70 }
  - { offset: 0xEA08, size: 0x8, addend: 0x0, symName: __ZNSt3__122__hash_node_destructorINS_9allocatorINS_11__hash_nodeINS_17__hash_value_typeIiiEEPvEEEEEclB8ne180100EPS6_, symObjAddr: 0x3B20, symBinAddr: 0x100004500, symSize: 0x90 }
  - { offset: 0xEA3D, size: 0x8, addend: 0x0, symName: __ZNSt3__115__hash_iteratorIPNS_11__hash_nodeINS_17__hash_value_typeIiiEEPvEEEC2B8ne180100EPNS_16__hash_node_baseIS6_EE, symObjAddr: 0x3BB0, symBinAddr: 0x100004590, symSize: 0x20 }
  - { offset: 0xEA76, size: 0x8, addend: 0x0, symName: __ZNSt3__14pairINS_15__hash_iteratorIPNS_11__hash_nodeINS_17__hash_value_typeIiiEEPvEEEEbEC2B8ne180100IS8_RbLi0EEEOT_OT0_, symObjAddr: 0x3BD0, symBinAddr: 0x1000045B0, symSize: 0x30 }
  - { offset: 0xEAD4, size: 0x8, addend: 0x0, symName: __ZNSt3__15tupleIJOiEEC1B8ne180100IJiELi0EEEDpOT_, symObjAddr: 0x3C00, symBinAddr: 0x1000045E0, symSize: 0x30 }
  - { offset: 0xEB1E, size: 0x8, addend: 0x0, symName: __ZNSt3__15tupleIJOiEEC2B8ne180100IJiELi0EEEDpOT_, symObjAddr: 0x3C30, symBinAddr: 0x100004610, symSize: 0x30 }
  - { offset: 0xEB68, size: 0x8, addend: 0x0, symName: __ZNSt3__112__tuple_implINS_15__tuple_indicesIJLm0EEEEJOiEEC1B8ne180100IJLm0EEJS3_EJEJEJiEEENS1_IJXspT_EEEENS_13__tuple_typesIJDpT0_EEENS1_IJXspT1_EEEENS7_IJDpT2_EEEDpOT3_, symObjAddr: 0x3C60, symBinAddr: 0x100004640, symSize: 0x30 }
  - { offset: 0xEBFD, size: 0x8, addend: 0x0, symName: __ZNSt3__112__tuple_implINS_15__tuple_indicesIJLm0EEEEJOiEEC2B8ne180100IJLm0EEJS3_EJEJEJiEEENS1_IJXspT_EEEENS_13__tuple_typesIJDpT0_EEENS1_IJXspT1_EEEENS7_IJDpT2_EEEDpOT3_, symObjAddr: 0x3C90, symBinAddr: 0x100004670, symSize: 0x30 }
  - { offset: 0xEC92, size: 0x8, addend: 0x0, symName: __ZNSt3__112__tuple_leafILm0EOiLb0EEC2B8ne180100IivEEOT_, symObjAddr: 0x3CC0, symBinAddr: 0x1000046A0, symSize: 0x20 }
  - { offset: 0xECD5, size: 0x8, addend: 0x0, symName: __ZNSt3__114pointer_traitsIPNS_17__hash_value_typeIiiEEE10pointer_toB8ne180100ERS2_, symObjAddr: 0x3CE0, symBinAddr: 0x1000046C0, symSize: 0x10 }
  - { offset: 0xECF8, size: 0x8, addend: 0x0, symName: __ZNKSt3__112__hash_tableINS_17__hash_value_typeIiiEENS_22__unordered_map_hasherIiS2_NS_4hashIiEENS_8equal_toIiEELb1EEENS_21__unordered_map_equalIiS2_S7_S5_Lb1EEENS_9allocatorIS2_EEE14__count_uniqueIiEEmRKT_, symObjAddr: 0x3CF0, symBinAddr: 0x1000046D0, symSize: 0x50 }
  - { offset: 0xED38, size: 0x8, addend: 0x0, symName: __ZNKSt3__112__hash_tableINS_17__hash_value_typeIiiEENS_22__unordered_map_hasherIiS2_NS_4hashIiEENS_8equal_toIiEELb1EEENS_21__unordered_map_equalIiS2_S7_S5_Lb1EEENS_9allocatorIS2_EEE4findIiEENS_21__hash_const_iteratorIPNS_11__hash_nodeIS2_PvEEEERKT_, symObjAddr: 0x3D70, symBinAddr: 0x100004750, symSize: 0x190 }
  - { offset: 0xEDC2, size: 0x8, addend: 0x0, symName: __ZNKSt3__112__hash_tableINS_17__hash_value_typeIiiEENS_22__unordered_map_hasherIiS2_NS_4hashIiEENS_8equal_toIiEELb1EEENS_21__unordered_map_equalIiS2_S7_S5_Lb1EEENS_9allocatorIS2_EEE3endEv, symObjAddr: 0x3F00, symBinAddr: 0x1000048E0, symSize: 0x30 }
  - { offset: 0xEDEA, size: 0x8, addend: 0x0, symName: __ZNKSt3__112__hash_tableINS_17__hash_value_typeIiiEENS_22__unordered_map_hasherIiS2_NS_4hashIiEENS_8equal_toIiEELb1EEENS_21__unordered_map_equalIiS2_S7_S5_Lb1EEENS_9allocatorIS2_EEE13hash_functionB8ne180100Ev, symObjAddr: 0x3F60, symBinAddr: 0x100004940, symSize: 0x20 }
  - { offset: 0xEE10, size: 0x8, addend: 0x0, symName: __ZNKSt3__112__hash_tableINS_17__hash_value_typeIiiEENS_22__unordered_map_hasherIiS2_NS_4hashIiEENS_8equal_toIiEELb1EEENS_21__unordered_map_equalIiS2_S7_S5_Lb1EEENS_9allocatorIS2_EEE6key_eqB8ne180100Ev, symObjAddr: 0x3F80, symBinAddr: 0x100004960, symSize: 0x20 }
  - { offset: 0xEE36, size: 0x8, addend: 0x0, symName: __ZNSt3__121__hash_const_iteratorIPNS_11__hash_nodeINS_17__hash_value_typeIiiEEPvEEEC1B8ne180100EPNS_16__hash_node_baseIS6_EE, symObjAddr: 0x3FA0, symBinAddr: 0x100004980, symSize: 0x30 }
  - { offset: 0xEE6F, size: 0x8, addend: 0x0, symName: __ZNKSt3__117__compressed_pairImNS_22__unordered_map_hasherIiNS_17__hash_value_typeIiiEENS_4hashIiEENS_8equal_toIiEELb1EEEE6secondB8ne180100Ev, symObjAddr: 0x3FD0, symBinAddr: 0x1000049B0, symSize: 0x20 }
  - { offset: 0xEE95, size: 0x8, addend: 0x0, symName: __ZNKSt3__122__compressed_pair_elemINS_22__unordered_map_hasherIiNS_17__hash_value_typeIiiEENS_4hashIiEENS_8equal_toIiEELb1EEELi1ELb1EE5__getB8ne180100Ev, symObjAddr: 0x3FF0, symBinAddr: 0x1000049D0, symSize: 0x10 }
  - { offset: 0xEEBB, size: 0x8, addend: 0x0, symName: __ZNKSt3__117__compressed_pairIfNS_21__unordered_map_equalIiNS_17__hash_value_typeIiiEENS_8equal_toIiEENS_4hashIiEELb1EEEE6secondB8ne180100Ev, symObjAddr: 0x4000, symBinAddr: 0x1000049E0, symSize: 0x20 }
  - { offset: 0xEEE1, size: 0x8, addend: 0x0, symName: __ZNKSt3__122__compressed_pair_elemINS_21__unordered_map_equalIiNS_17__hash_value_typeIiiEENS_8equal_toIiEENS_4hashIiEELb1EEELi1ELb1EE5__getB8ne180100Ev, symObjAddr: 0x4020, symBinAddr: 0x100004A00, symSize: 0x10 }
  - { offset: 0xEF07, size: 0x8, addend: 0x0, symName: __ZNSt3__121__hash_const_iteratorIPNS_11__hash_nodeINS_17__hash_value_typeIiiEEPvEEEC2B8ne180100EPNS_16__hash_node_baseIS6_EE, symObjAddr: 0x4030, symBinAddr: 0x100004A10, symSize: 0x20 }
  - { offset: 0xEF40, size: 0x8, addend: 0x0, symName: __ZNSt3__112__hash_tableINS_17__hash_value_typeIiiEENS_22__unordered_map_hasherIiS2_NS_4hashIiEENS_8equal_toIiEELb1EEENS_21__unordered_map_equalIiS2_S7_S5_Lb1EEENS_9allocatorIS2_EEE5beginEv, symObjAddr: 0x4050, symBinAddr: 0x100004A30, symSize: 0x30 }
  - { offset: 0xEF68, size: 0x8, addend: 0x0, symName: __ZNSt3__119__hash_map_iteratorINS_15__hash_iteratorIPNS_11__hash_nodeINS_17__hash_value_typeIiiEEPvEEEEEC1B8ne180100ES8_, symObjAddr: 0x4080, symBinAddr: 0x100004A60, symSize: 0x30 }
  - { offset: 0xEFA1, size: 0x8, addend: 0x0, symName: __ZNSt3__119__hash_map_iteratorINS_15__hash_iteratorIPNS_11__hash_nodeINS_17__hash_value_typeIiiEEPvEEEEEC2B8ne180100ES8_, symObjAddr: 0x40B0, symBinAddr: 0x100004A90, symSize: 0x20 }
  - { offset: 0xEFDA, size: 0x8, addend: 0x0, symName: __ZNSt3__112__hash_tableINS_17__hash_value_typeIiiEENS_22__unordered_map_hasherIiS2_NS_4hashIiEENS_8equal_toIiEELb1EEENS_21__unordered_map_equalIiS2_S7_S5_Lb1EEENS_9allocatorIS2_EEE3endEv, symObjAddr: 0x40D0, symBinAddr: 0x100004AB0, symSize: 0x30 }
  - { offset: 0xF002, size: 0x8, addend: 0x0, symName: __ZNSt3__115__hash_iteratorIPNS_11__hash_nodeINS_17__hash_value_typeIiiEEPvEEEppB8ne180100Ev, symObjAddr: 0x4130, symBinAddr: 0x100004B10, symSize: 0x20 }
  - { offset: 0xF028, size: 0x8, addend: 0x0, symName: __ZNKSt3__19basic_iosIcNS_11char_traitsIcEEE5widenB8ne180100Ec, symObjAddr: 0x4150, symBinAddr: 0x100004B30, symSize: 0x80 }
  - { offset: 0xF0A1, size: 0x8, addend: 0x0, symName: __ZNKSt3__15ctypeIcE5widenB8ne180100Ec, symObjAddr: 0x4200, symBinAddr: 0x100004BE0, symSize: 0x2B }
...
