---
triple:          'x86_64-apple-darwin'
binary-path:     f
relocations:
  - { offsetInCU: 0x3F, offset: 0x3F, size: 0x8, addend: 0x0, symName: _bridges, symObjAddr: 0x6ABD8, symBinAddr: 0x10000D000, symSize: 0x0 }
  - { offsetInCU: 0xA5F3, offset: 0xA5F3, size: 0x8, addend: 0x0, symName: __ZNSt3__17advanceB8ue170006IPNS_6vectorIxNS_9allocatorIxEEEEllvEEvRT_T0_, symObjAddr: 0x4F40, symBinAddr: 0x100005890, symSize: 0x30 }
  - { offsetInCU: 0xA873, offset: 0xA873, size: 0x8, addend: 0x0, symName: __ZNSt3__17advanceB8ue170006INS_16reverse_iteratorIPNS_6vectorIxNS_9allocatorIxEEEEEEllvEEvRT_T0_, symObjAddr: 0x5300, symBinAddr: 0x100005C50, symSize: 0x30 }
  - { offsetInCU: 0xA8DE, offset: 0xA8DE, size: 0x8, addend: 0x0, symName: __ZNSt3__114__copy_alignedB8ue170006INS_6vectorIbNS_9allocatorIbEEEELb1EEENS_14__bit_iteratorIT_Lb0EXLi0EEEENS5_IS6_XT0_EXLi0EEEES8_S7_, symObjAddr: 0x6A00, symBinAddr: 0x100007350, symSize: 0x260 }
  - { offsetInCU: 0xAA0E, offset: 0xAA0E, size: 0x8, addend: 0x0, symName: __ZNSt3__16copy_nB8ue170006IPKmmPmEENS_9enable_ifIXsr37__has_random_access_iterator_categoryIT_EE5valueET1_E4typeES5_T0_S6_, symObjAddr: 0x71A0, symBinAddr: 0x100007AF0, symSize: 0x40 }
  - { offsetInCU: 0xAAB5, offset: 0xAAB5, size: 0x8, addend: 0x0, symName: __ZNSt3__116__copy_unalignedB8ue170006INS_6vectorIbNS_9allocatorIbEEEELb1EEENS_14__bit_iteratorIT_Lb0EXLi0EEEENS5_IS6_XT0_EXLi0EEEES8_S7_, symObjAddr: 0x6C60, symBinAddr: 0x1000075B0, symSize: 0x4D0 }
  - { offsetInCU: 0xAC33, offset: 0xAC33, size: 0x8, addend: 0x0, symName: __ZNSt3__113__fill_n_trueB8ue170006INS_6vectorIbNS_9allocatorIbEEEEEEvNS_14__bit_iteratorIT_Lb0EXLi0EEEENS6_9size_typeE, symObjAddr: 0x7A40, symBinAddr: 0x100008390, symSize: 0x140 }
  - { offsetInCU: 0xACF9, offset: 0xACF9, size: 0x8, addend: 0x0, symName: __ZNSt3__114__fill_n_falseB8ue170006INS_6vectorIbNS_9allocatorIbEEEEEEvNS_14__bit_iteratorIT_Lb0EXLi0EEEENS6_9size_typeE, symObjAddr: 0x7B80, symBinAddr: 0x1000084D0, symSize: 0x140 }
  - { offsetInCU: 0xADBF, offset: 0xADBF, size: 0x8, addend: 0x0, symName: __ZNSt3__124__put_character_sequenceB8ue170006IcNS_11char_traitsIcEEEERNS_13basic_ostreamIT_T0_EES7_PKS4_m, symObjAddr: 0xA220, symBinAddr: 0x10000AB70, symSize: 0x1F0 }
  - { offsetInCU: 0xCBF9, offset: 0xCBF9, size: 0x8, addend: 0x0, symName: __ZNSt3__1neB8ue170006IPxEEbRKNS_11__wrap_iterIT_EES6_, symObjAddr: 0x480, symBinAddr: 0x100000DD0, symSize: 0x30 }
  - { offsetInCU: 0xCC3C, offset: 0xCC3C, size: 0x8, addend: 0x0, symName: __ZNSt3__13minB8ue170006IxEERKT_S3_S3_, symObjAddr: 0x500, symBinAddr: 0x100000E50, symSize: 0x30 }
  - { offsetInCU: 0xCC7F, offset: 0xCC7F, size: 0x8, addend: 0x0, symName: __ZNSt3__13maxB8ue170006IxEERKT_S3_S3_, symObjAddr: 0x570, symBinAddr: 0x100000EC0, symSize: 0x30 }
  - { offsetInCU: 0xCCC2, offset: 0xCCC2, size: 0x8, addend: 0x0, symName: __ZNSt3__1lsB8ue170006INS_11char_traitsIcEEEERNS_13basic_ostreamIcT_EES6_PKc, symObjAddr: 0x12F0, symBinAddr: 0x100001C40, symSize: 0x40 }
  - { offsetInCU: 0xCD08, offset: 0xCD08, size: 0x8, addend: 0x0, symName: __ZNSt3__112__to_addressB8ue170006INS_6vectorIxNS_9allocatorIxEEEEEEPT_S6_, symObjAddr: 0x1780, symBinAddr: 0x1000020D0, symSize: 0x10 }
  - { offsetInCU: 0xCD3D, offset: 0xCD3D, size: 0x8, addend: 0x0, symName: __ZNSt3__110destroy_atB8ue170006INS_6vectorIxNS_9allocatorIxEEEELi0EEEvPT_, symObjAddr: 0x1790, symBinAddr: 0x1000020E0, symSize: 0x20 }
  - { offsetInCU: 0xCD74, offset: 0xCD74, size: 0x8, addend: 0x0, symName: __ZNSt3__112__destroy_atB8ue170006INS_6vectorIxNS_9allocatorIxEEEELi0EEEvPT_, symObjAddr: 0x17B0, symBinAddr: 0x100002100, symSize: 0x20 }
  - { offsetInCU: 0xCDAB, offset: 0xCDAB, size: 0x8, addend: 0x0, symName: __ZNSt3__119__libcpp_deallocateB8ue170006EPvmm, symObjAddr: 0x1890, symBinAddr: 0x1000021E0, symSize: 0x60 }
  - { offsetInCU: 0xCE10, offset: 0xCE10, size: 0x8, addend: 0x0, symName: __ZNSt3__124__is_overaligned_for_newB8ue170006Em, symObjAddr: 0x18F0, symBinAddr: 0x100002240, symSize: 0x20 }
  - { offsetInCU: 0xCE3E, offset: 0xCE3E, size: 0x8, addend: 0x0, symName: __ZNSt3__127__do_deallocate_handle_sizeB8ue170006IJSt11align_val_tEEEvPvmDpT_, symObjAddr: 0x1910, symBinAddr: 0x100002260, symSize: 0x30 }
  - { offsetInCU: 0xCE91, offset: 0xCE91, size: 0x8, addend: 0x0, symName: __ZNSt3__127__do_deallocate_handle_sizeB8ue170006IJEEEvPvmDpT_, symObjAddr: 0x1940, symBinAddr: 0x100002290, symSize: 0x20 }
  - { offsetInCU: 0xCECF, offset: 0xCECF, size: 0x8, addend: 0x0, symName: __ZNSt3__124__libcpp_operator_deleteB8ue170006IJPvSt11align_val_tEEEvDpT_, symObjAddr: 0x1960, symBinAddr: 0x1000022B0, symSize: 0x30 }
  - { offsetInCU: 0xCF18, offset: 0xCF18, size: 0x8, addend: 0x0, symName: __ZNSt3__124__libcpp_operator_deleteB8ue170006IJPvEEEvDpT_, symObjAddr: 0x1990, symBinAddr: 0x1000022E0, symSize: 0x20 }
  - { offsetInCU: 0xCF4D, offset: 0xCF4D, size: 0x8, addend: 0x0, symName: __ZNSt3__112__to_addressB8ue170006IxEEPT_S2_, symObjAddr: 0x1F30, symBinAddr: 0x100002880, symSize: 0x10 }
  - { offsetInCU: 0xCF82, offset: 0xCF82, size: 0x8, addend: 0x0, symName: __ZNSt3__110destroy_atB8ue170006IxLi0EEEvPT_, symObjAddr: 0x1F40, symBinAddr: 0x100002890, symSize: 0x20 }
  - { offsetInCU: 0xCFB9, offset: 0xCFB9, size: 0x8, addend: 0x0, symName: __ZNSt3__112__destroy_atB8ue170006IxLi0EEEvPT_, symObjAddr: 0x1F60, symBinAddr: 0x1000028B0, symSize: 0x10 }
  - { offsetInCU: 0xCFF0, offset: 0xCFF0, size: 0x8, addend: 0x0, symName: __ZNSt3__1eqB8ue170006IPxEEbRKNS_11__wrap_iterIT_EES6_, symObjAddr: 0x21C0, symBinAddr: 0x100002B10, symSize: 0x40 }
  - { offsetInCU: 0xD033, offset: 0xD033, size: 0x8, addend: 0x0, symName: __ZNSt3__13minB8ue170006IxNS_6__lessIvvEEEERKT_S5_S5_T0_, symObjAddr: 0x2220, symBinAddr: 0x100002B70, symSize: 0x50 }
  - { offsetInCU: 0xD134, offset: 0xD134, size: 0x8, addend: 0x0, symName: __ZNSt3__13maxB8ue170006IxNS_6__lessIvvEEEERKT_S5_S5_T0_, symObjAddr: 0x22A0, symBinAddr: 0x100002BF0, symSize: 0x50 }
  - { offsetInCU: 0xD1B3, offset: 0xD1B3, size: 0x8, addend: 0x0, symName: __ZNSt3__112construct_atB8ue170006IxJRKxEPxEEPT_S5_DpOT0_, symObjAddr: 0x2590, symBinAddr: 0x100002EE0, symSize: 0x30 }
  - { offsetInCU: 0xD223, offset: 0xD223, size: 0x8, addend: 0x0, symName: __ZNSt3__13maxB8ue170006ImEERKT_S3_S3_, symObjAddr: 0x2880, symBinAddr: 0x1000031D0, symSize: 0x30 }
  - { offsetInCU: 0xD266, offset: 0xD266, size: 0x8, addend: 0x0, symName: __ZNSt3__13minB8ue170006ImEERKT_S3_S3_, symObjAddr: 0x28B0, symBinAddr: 0x100003200, symSize: 0x30 }
  - { offsetInCU: 0xD493, offset: 0xD493, size: 0x8, addend: 0x0, symName: __ZNSt3__13minB8ue170006ImNS_6__lessIvvEEEERKT_S5_S5_T0_, symObjAddr: 0x2930, symBinAddr: 0x100003280, symSize: 0x50 }
  - { offsetInCU: 0xD6D9, offset: 0xD6D9, size: 0x8, addend: 0x0, symName: __ZNSt3__120__throw_length_errorB8ue170006EPKc, symObjAddr: 0x2A10, symBinAddr: 0x100003360, symSize: 0x70 }
  - { offsetInCU: 0xD703, offset: 0xD703, size: 0x8, addend: 0x0, symName: __ZNSt3__13maxB8ue170006ImNS_6__lessIvvEEEERKT_S5_S5_T0_, symObjAddr: 0x2AF0, symBinAddr: 0x100003440, symSize: 0x50 }
  - { offsetInCU: 0xD75D, offset: 0xD75D, size: 0x8, addend: 0x0, symName: __ZNSt3__119__allocate_at_leastB8ue170006INS_9allocatorIxEEEENS_19__allocation_resultINS_16allocator_traitsIT_E7pointerEEERS5_m, symObjAddr: 0x2C40, symBinAddr: 0x100003590, symSize: 0x40 }
  - { offsetInCU: 0xD7A0, offset: 0xD7A0, size: 0x8, addend: 0x0, symName: __ZNSt3__117__libcpp_allocateB8ue170006Emm, symObjAddr: 0x2DD0, symBinAddr: 0x100003720, symSize: 0x60 }
  - { offsetInCU: 0xD7FA, offset: 0xD7FA, size: 0x8, addend: 0x0, symName: __ZNSt3__121__libcpp_operator_newB8ue170006IJmSt11align_val_tEEEPvDpT_, symObjAddr: 0x2E30, symBinAddr: 0x100003780, symSize: 0x30 }
  - { offsetInCU: 0xD847, offset: 0xD847, size: 0x8, addend: 0x0, symName: __ZNSt3__121__libcpp_operator_newB8ue170006IJmEEEPvDpT_, symObjAddr: 0x2E60, symBinAddr: 0x1000037B0, symSize: 0x20 }
  - { offsetInCU: 0xD880, offset: 0xD880, size: 0x8, addend: 0x0, symName: __ZNSt3__142__uninitialized_allocator_move_if_noexceptB8ue170006INS_9allocatorIxEENS_16reverse_iteratorIPxEES5_xvEET1_RT_T0_S9_S6_, symObjAddr: 0x2EE0, symBinAddr: 0x100003830, symSize: 0x70 }
  - { offsetInCU: 0xD8FC, offset: 0xD8FC, size: 0x8, addend: 0x0, symName: __ZNSt3__14swapB8ue170006IPxEENS_9enable_ifIXaasr21is_move_constructibleIT_EE5valuesr18is_move_assignableIS3_EE5valueEvE4typeERS3_S6_, symObjAddr: 0x2FA0, symBinAddr: 0x1000038F0, symSize: 0x40 }
  - { offsetInCU: 0xD94D, offset: 0xD94D, size: 0x8, addend: 0x0, symName: __ZNSt3__14moveB8ue170006INS_16reverse_iteratorIPxEES3_EET0_T_S5_S4_, symObjAddr: 0x3090, symBinAddr: 0x1000039E0, symSize: 0x80 }
  - { offsetInCU: 0xD9A7, offset: 0xD9A7, size: 0x8, addend: 0x0, symName: __ZNSt3__16__moveB8ue170006INS_17_ClassicAlgPolicyENS_16reverse_iteratorIPxEES4_S4_EENS_4pairIT0_T2_EES6_T1_S7_, symObjAddr: 0x3110, symBinAddr: 0x100003A60, symSize: 0x90 }
  - { offsetInCU: 0xDA13, offset: 0xDA13, size: 0x8, addend: 0x0, symName: __ZNSt3__123__dispatch_copy_or_moveB8ue170006INS_17_ClassicAlgPolicyENS_11__move_loopIS1_EENS_14__move_trivialENS_16reverse_iteratorIPxEES7_S7_EENS_4pairIT2_T4_EES9_T3_SA_, symObjAddr: 0x31A0, symBinAddr: 0x100003AF0, symSize: 0x90 }
  - { offsetInCU: 0xDA91, offset: 0xDA91, size: 0x8, addend: 0x0, symName: __ZNSt3__121__unwrap_and_dispatchB8ue170006INS_10__overloadINS_11__move_loopINS_17_ClassicAlgPolicyEEENS_14__move_trivialEEENS_16reverse_iteratorIPxEES9_S9_Li0EEENS_4pairIT0_T2_EESB_T1_SC_, symObjAddr: 0x3230, symBinAddr: 0x100003B80, symSize: 0x210 }
  - { offsetInCU: 0xDB20, offset: 0xDB20, size: 0x8, addend: 0x0, symName: __ZNSt3__114__unwrap_rangeB8ue170006INS_16reverse_iteratorIPxEES3_EEDaT_T0_, symObjAddr: 0x3440, symBinAddr: 0x100003D90, symSize: 0x60 }
  - { offsetInCU: 0xDC9B, offset: 0xDC9B, size: 0x8, addend: 0x0, symName: __ZNSt3__113__unwrap_iterB8ue170006INS_16reverse_iteratorIPxEENS_18__unwrap_iter_implIS3_Lb0EEELi0EEEDTclsrT0_8__unwrapclsr3stdE7declvalIT_EEEES7_, symObjAddr: 0x3540, symBinAddr: 0x100003E90, symSize: 0x40 }
  - { offsetInCU: 0xDCDF, offset: 0xDCDF, size: 0x8, addend: 0x0, symName: __ZNSt3__19make_pairB8ue170006INS_16reverse_iteratorIPxEES3_EENS_4pairINS_18__unwrap_ref_decayIT_E4typeENS5_IT0_E4typeEEEOS6_OS9_, symObjAddr: 0x3580, symBinAddr: 0x100003ED0, symSize: 0x30 }
  - { offsetInCU: 0xDD2E, offset: 0xDD2E, size: 0x8, addend: 0x0, symName: __ZNSt3__114__rewrap_rangeB8ue170006INS_16reverse_iteratorIPxEES3_S3_EET0_S4_T1_, symObjAddr: 0x35B0, symBinAddr: 0x100003F00, symSize: 0x60 }
  - { offsetInCU: 0xDD83, offset: 0xDD83, size: 0x8, addend: 0x0, symName: __ZNSt3__113__rewrap_iterB8ue170006INS_16reverse_iteratorIPxEES3_NS_18__unwrap_iter_implIS3_Lb0EEEEET_S6_T0_, symObjAddr: 0x3610, symBinAddr: 0x100003F60, symSize: 0x70 }
  - { offsetInCU: 0xDE28, offset: 0xDE28, size: 0x8, addend: 0x0, symName: __ZNSt3__1neB8ue170006IPxS1_EEbRKNS_16reverse_iteratorIT_EERKNS2_IT0_EE, symObjAddr: 0x3780, symBinAddr: 0x1000040D0, symSize: 0x40 }
  - { offsetInCU: 0xDF4B, offset: 0xDF4B, size: 0x8, addend: 0x0, symName: __ZNSt3__112construct_atB8ue170006INS_6vectorIxNS_9allocatorIxEEEEJEPS4_EEPT_S7_DpOT0_, symObjAddr: 0x41F0, symBinAddr: 0x100004B40, symSize: 0x30 }
  - { offsetInCU: 0xDFA7, offset: 0xDFA7, size: 0x8, addend: 0x0, symName: __ZNSt3__119__allocate_at_leastB8ue170006INS_9allocatorINS_6vectorIxNS1_IxEEEEEEEENS_19__allocation_resultINS_16allocator_traitsIT_E7pointerEEERS8_m, symObjAddr: 0x4560, symBinAddr: 0x100004EB0, symSize: 0x40 }
  - { offsetInCU: 0xDFEA, offset: 0xDFEA, size: 0x8, addend: 0x0, symName: __ZNSt3__142__uninitialized_allocator_move_if_noexceptB8ue170006INS_9allocatorINS_6vectorIxNS1_IxEEEEEENS_16reverse_iteratorIPS4_EES8_S8_EET2_RT_T0_T1_S9_, symObjAddr: 0x47C0, symBinAddr: 0x100005110, symSize: 0x180 }
  - { offsetInCU: 0xE089, offset: 0xE089, size: 0x8, addend: 0x0, symName: __ZNSt3__14swapB8ue170006IPNS_6vectorIxNS_9allocatorIxEEEEEENS_9enable_ifIXaasr21is_move_constructibleIT_EE5valuesr18is_move_assignableIS7_EE5valueEvE4typeERS7_SA_, symObjAddr: 0x4990, symBinAddr: 0x1000052E0, symSize: 0x40 }
  - { offsetInCU: 0xE0DA, offset: 0xE0DA, size: 0x8, addend: 0x0, symName: __ZNSt3__122__make_exception_guardB8ue170006INS_29_AllocatorDestroyRangeReverseINS_9allocatorINS_6vectorIxNS2_IxEEEEEENS_16reverse_iteratorIPS5_EEEEEENS_28__exception_guard_exceptionsIT_EESC_, symObjAddr: 0x4A70, symBinAddr: 0x1000053C0, symSize: 0x60 }
  - { offsetInCU: 0xE10F, offset: 0xE10F, size: 0x8, addend: 0x0, symName: __ZNSt3__1neB8ue170006IPNS_6vectorIxNS_9allocatorIxEEEES5_EEbRKNS_16reverse_iteratorIT_EERKNS6_IT0_EE, symObjAddr: 0x4B10, symBinAddr: 0x100005460, symSize: 0x40 }
  - { offsetInCU: 0xE15B, offset: 0xE15B, size: 0x8, addend: 0x0, symName: __ZNSt3__112__to_addressB8ue170006INS_16reverse_iteratorIPNS_6vectorIxNS_9allocatorIxEEEEEEvEEu7__decayIDTclsr19__to_address_helperIT_EE6__callclsr3stdE7declvalIRKS8_EEEEESA_, symObjAddr: 0x4B80, symBinAddr: 0x1000054D0, symSize: 0x20 }
  - { offsetInCU: 0xE191, offset: 0xE191, size: 0x8, addend: 0x0, symName: __ZNSt3__112construct_atB8ue170006INS_6vectorIxNS_9allocatorIxEEEEJS4_EPS4_EEPT_S7_DpOT0_, symObjAddr: 0x4CE0, symBinAddr: 0x100005630, symSize: 0x40 }
  - { offsetInCU: 0xE22A, offset: 0xE22A, size: 0x8, addend: 0x0, symName: __ZNSt3__14prevB8ue170006IPNS_6vectorIxNS_9allocatorIxEEEEEENS_9enable_ifIXsr29__has_input_iterator_categoryIT_EE5valueES7_E4typeES7_NS_15iterator_traitsIS7_E15difference_typeE, symObjAddr: 0x4F10, symBinAddr: 0x100005860, symSize: 0x30 }
  - { offsetInCU: 0xE26D, offset: 0xE26D, size: 0x8, addend: 0x0, symName: __ZNSt3__121__convert_to_integralB8ue170006El, symObjAddr: 0x4F70, symBinAddr: 0x1000058C0, symSize: 0x10 }
  - { offsetInCU: 0xE299, offset: 0xE299, size: 0x8, addend: 0x0, symName: __ZNSt3__19__advanceB8ue170006IPNS_6vectorIxNS_9allocatorIxEEEEEEvRT_NS_15iterator_traitsIS6_E15difference_typeENS_26random_access_iterator_tagE, symObjAddr: 0x4F80, symBinAddr: 0x1000058D0, symSize: 0x20 }
  - { offsetInCU: 0xE2E2, offset: 0xE2E2, size: 0x8, addend: 0x0, symName: __ZNSt3__119__allocator_destroyB8ue170006INS_9allocatorINS_6vectorIxNS1_IxEEEEEENS_16reverse_iteratorINS6_IPS4_EEEES9_EEvRT_T0_T1_, symObjAddr: 0x50D0, symBinAddr: 0x100005A20, symSize: 0x70 }
  - { offsetInCU: 0xE345, offset: 0xE345, size: 0x8, addend: 0x0, symName: __ZNSt3__1neB8ue170006INS_16reverse_iteratorIPNS_6vectorIxNS_9allocatorIxEEEEEES7_EEbRKNS1_IT_EERKNS1_IT0_EE, symObjAddr: 0x5170, symBinAddr: 0x100005AC0, symSize: 0x50 }
  - { offsetInCU: 0xE391, offset: 0xE391, size: 0x8, addend: 0x0, symName: __ZNSt3__112__to_addressB8ue170006INS_16reverse_iteratorINS1_IPNS_6vectorIxNS_9allocatorIxEEEEEEEEvEEu7__decayIDTclsr19__to_address_helperIT_EE6__callclsr3stdE7declvalIRKS9_EEEEESB_, symObjAddr: 0x51C0, symBinAddr: 0x100005B10, symSize: 0x20 }
  - { offsetInCU: 0xE3F0, offset: 0xE3F0, size: 0x8, addend: 0x0, symName: __ZNSt3__14prevB8ue170006INS_16reverse_iteratorIPNS_6vectorIxNS_9allocatorIxEEEEEEEENS_9enable_ifIXsr29__has_input_iterator_categoryIT_EE5valueES9_E4typeES9_NS_15iterator_traitsIS9_E15difference_typeE, symObjAddr: 0x52C0, symBinAddr: 0x100005C10, symSize: 0x40 }
  - { offsetInCU: 0xE433, offset: 0xE433, size: 0x8, addend: 0x0, symName: __ZNSt3__19__advanceB8ue170006INS_16reverse_iteratorIPNS_6vectorIxNS_9allocatorIxEEEEEEEEvRT_NS_15iterator_traitsIS8_E15difference_typeENS_26random_access_iterator_tagE, symObjAddr: 0x5330, symBinAddr: 0x100005C80, symSize: 0x30 }
  - { offsetInCU: 0xE47C, offset: 0xE47C, size: 0x8, addend: 0x0, symName: __ZNSt3__14copyB8ue170006INS_6vectorIbNS_9allocatorIbEEEELb1EEENS_14__bit_iteratorIT_Lb0EXLi0EEEENS5_IS6_XT0_EXLi0EEEES8_S7_, symObjAddr: 0x58E0, symBinAddr: 0x100006230, symSize: 0x100 }
  - { offsetInCU: 0xE4DC, offset: 0xE4DC, size: 0x8, addend: 0x0, symName: __ZNSt3__16fill_nB8ue170006INS_6vectorIbNS_9allocatorIbEEEEEEvNS_14__bit_iteratorIT_Lb0EXLi0EEEENS6_9size_typeEb, symObjAddr: 0x5AF0, symBinAddr: 0x100006440, symSize: 0x80 }
  - { offsetInCU: 0xE52E, offset: 0xE52E, size: 0x8, addend: 0x0, symName: __ZNSt3__119__allocate_at_leastB8ue170006INS_9allocatorImEEEENS_19__allocation_resultINS_16allocator_traitsIT_E7pointerEEERS5_m, symObjAddr: 0x6160, symBinAddr: 0x100006AB0, symSize: 0x40 }
  - { offsetInCU: 0xE571, offset: 0xE571, size: 0x8, addend: 0x0, symName: __ZNSt3__16__copyB8ue170006INS_17_ClassicAlgPolicyENS_14__bit_iteratorINS_6vectorIbNS_9allocatorIbEEEELb0ELm0EEES7_S7_EENS_4pairIT0_T2_EES9_T1_SA_, symObjAddr: 0x6210, symBinAddr: 0x100006B60, symSize: 0x70 }
  - { offsetInCU: 0xE5E0, offset: 0xE5E0, size: 0x8, addend: 0x0, symName: __ZNSt3__123__dispatch_copy_or_moveB8ue170006INS_17_ClassicAlgPolicyENS_11__copy_loopIS1_EENS_14__copy_trivialENS_14__bit_iteratorINS_6vectorIbNS_9allocatorIbEEEELb0ELm0EEESA_SA_EENS_4pairIT2_T4_EESC_T3_SD_, symObjAddr: 0x6280, symBinAddr: 0x100006BD0, symSize: 0x70 }
  - { offsetInCU: 0xE661, offset: 0xE661, size: 0x8, addend: 0x0, symName: __ZNSt3__121__unwrap_and_dispatchB8ue170006INS_10__overloadINS_11__copy_loopINS_17_ClassicAlgPolicyEEENS_14__copy_trivialEEENS_14__bit_iteratorINS_6vectorIbNS_9allocatorIbEEEELb0ELm0EEESC_SC_Li0EEENS_4pairIT0_T2_EESE_T1_SF_, symObjAddr: 0x62F0, symBinAddr: 0x100006C40, symSize: 0x190 }
  - { offsetInCU: 0xE6F3, offset: 0xE6F3, size: 0x8, addend: 0x0, symName: __ZNSt3__114__unwrap_rangeB8ue170006INS_14__bit_iteratorINS_6vectorIbNS_9allocatorIbEEEELb0ELm0EEES6_EEDaT_T0_, symObjAddr: 0x6480, symBinAddr: 0x100006DD0, symSize: 0x60 }
  - { offsetInCU: 0xE867, offset: 0xE867, size: 0x8, addend: 0x0, symName: __ZNSt3__113__unwrap_iterB8ue170006INS_14__bit_iteratorINS_6vectorIbNS_9allocatorIbEEEELb0ELm0EEENS_18__unwrap_iter_implIS6_Lb0EEELi0EEEDTclsrT0_8__unwrapclsr3stdE7declvalIT_EEEESA_, symObjAddr: 0x6590, symBinAddr: 0x100006EE0, symSize: 0x40 }
  - { offsetInCU: 0xE8AC, offset: 0xE8AC, size: 0x8, addend: 0x0, symName: __ZNSt3__19make_pairB8ue170006INS_14__bit_iteratorINS_6vectorIbNS_9allocatorIbEEEELb0ELm0EEES6_EENS_4pairINS_18__unwrap_ref_decayIT_E4typeENS8_IT0_E4typeEEEOS9_OSC_, symObjAddr: 0x65D0, symBinAddr: 0x100006F20, symSize: 0x40 }
  - { offsetInCU: 0xE8FB, offset: 0xE8FB, size: 0x8, addend: 0x0, symName: __ZNSt3__114__rewrap_rangeB8ue170006INS_14__bit_iteratorINS_6vectorIbNS_9allocatorIbEEEELb0ELm0EEES6_S6_EET0_S7_T1_, symObjAddr: 0x6610, symBinAddr: 0x100006F60, symSize: 0x60 }
  - { offsetInCU: 0xE952, offset: 0xE952, size: 0x8, addend: 0x0, symName: __ZNSt3__113__rewrap_iterB8ue170006INS_14__bit_iteratorINS_6vectorIbNS_9allocatorIbEEEELb0ELm0EEES6_NS_18__unwrap_iter_implIS6_Lb0EEEEET_S9_T0_, symObjAddr: 0x6670, symBinAddr: 0x100006FC0, symSize: 0x70 }
  - { offsetInCU: 0xE9F9, offset: 0xE9F9, size: 0x8, addend: 0x0, symName: __ZNSt3__1neB8ue170006ERKNS_14__bit_iteratorINS_6vectorIbNS_9allocatorIbEEEELb0ELm0EEES7_, symObjAddr: 0x67C0, symBinAddr: 0x100007110, symSize: 0x30 }
  - { offsetInCU: 0xEA36, offset: 0xEA36, size: 0x8, addend: 0x0, symName: __ZNSt3__1eqB8ue170006ERKNS_14__bit_iteratorINS_6vectorIbNS_9allocatorIbEEEELb0ELm0EEES7_, symObjAddr: 0x68C0, symBinAddr: 0x100007210, symSize: 0x50 }
  - { offsetInCU: 0xEABB, offset: 0xEABB, size: 0x8, addend: 0x0, symName: __ZNSt3__1miB8ue170006ERKNS_14__bit_iteratorINS_6vectorIbNS_9allocatorIbEEEELb1ELm0EEES7_, symObjAddr: 0x7130, symBinAddr: 0x100007A80, symSize: 0x40 }
  - { offsetInCU: 0xEAF8, offset: 0xEAF8, size: 0x8, addend: 0x0, symName: __ZNSt3__13minB8ue170006IlEERKT_S3_S3_, symObjAddr: 0x7170, symBinAddr: 0x100007AC0, symSize: 0x30 }
  - { offsetInCU: 0xEB3B, offset: 0xEB3B, size: 0x8, addend: 0x0, symName: __ZNSt3__112__to_addressB8ue170006IKmEEPT_S3_, symObjAddr: 0x71E0, symBinAddr: 0x100007B30, symSize: 0x10 }
  - { offsetInCU: 0xEB70, offset: 0xEB70, size: 0x8, addend: 0x0, symName: __ZNSt3__112__to_addressB8ue170006ImEEPT_S2_, symObjAddr: 0x71F0, symBinAddr: 0x100007B40, symSize: 0x10 }
  - { offsetInCU: 0xEBA5, offset: 0xEBA5, size: 0x8, addend: 0x0, symName: __ZNSt3__13minB8ue170006IlNS_6__lessIvvEEEERKT_S5_S5_T0_, symObjAddr: 0x7200, symBinAddr: 0x100007B50, symSize: 0x50 }
  - { offsetInCU: 0xEBFF, offset: 0xEBFF, size: 0x8, addend: 0x0, symName: __ZNSt3__14copyB8ue170006IPKmPmEET0_T_S5_S4_, symObjAddr: 0x7280, symBinAddr: 0x100007BD0, symSize: 0x40 }
  - { offsetInCU: 0xEC59, offset: 0xEC59, size: 0x8, addend: 0x0, symName: __ZNSt3__16__copyB8ue170006INS_17_ClassicAlgPolicyEPKmS3_PmEENS_4pairIT0_T2_EES6_T1_S7_, symObjAddr: 0x72C0, symBinAddr: 0x100007C10, symSize: 0x40 }
  - { offsetInCU: 0xECC5, offset: 0xECC5, size: 0x8, addend: 0x0, symName: __ZNSt3__123__dispatch_copy_or_moveB8ue170006INS_17_ClassicAlgPolicyENS_11__copy_loopIS1_EENS_14__copy_trivialEPKmS6_PmEENS_4pairIT2_T4_EES9_T3_SA_, symObjAddr: 0x7300, symBinAddr: 0x100007C50, symSize: 0x40 }
  - { offsetInCU: 0xED43, offset: 0xED43, size: 0x8, addend: 0x0, symName: __ZNSt3__121__unwrap_and_dispatchB8ue170006INS_10__overloadINS_11__copy_loopINS_17_ClassicAlgPolicyEEENS_14__copy_trivialEEEPKmS8_PmLi0EEENS_4pairIT0_T2_EESB_T1_SC_, symObjAddr: 0x7340, symBinAddr: 0x100007C90, symSize: 0xB0 }
  - { offsetInCU: 0xEDD2, offset: 0xEDD2, size: 0x8, addend: 0x0, symName: __ZNSt3__114__unwrap_rangeB8ue170006IPKmS2_EEDaT_T0_, symObjAddr: 0x73F0, symBinAddr: 0x100007D40, symSize: 0x40 }
  - { offsetInCU: 0xEF67, offset: 0xEF67, size: 0x8, addend: 0x0, symName: __ZNSt3__113__unwrap_iterB8ue170006IPmNS_18__unwrap_iter_implIS1_Lb1EEELi0EEEDTclsrT0_8__unwrapclsr3stdE7declvalIT_EEEES5_, symObjAddr: 0x7470, symBinAddr: 0x100007DC0, symSize: 0x20 }
  - { offsetInCU: 0xEFAB, offset: 0xEFAB, size: 0x8, addend: 0x0, symName: __ZNSt3__19make_pairB8ue170006IPKmPmEENS_4pairINS_18__unwrap_ref_decayIT_E4typeENS5_IT0_E4typeEEEOS6_OS9_, symObjAddr: 0x7490, symBinAddr: 0x100007DE0, symSize: 0x30 }
  - { offsetInCU: 0xEFFA, offset: 0xEFFA, size: 0x8, addend: 0x0, symName: __ZNSt3__114__rewrap_rangeB8ue170006IPKmS2_S2_EET0_S3_T1_, symObjAddr: 0x74C0, symBinAddr: 0x100007E10, symSize: 0x30 }
  - { offsetInCU: 0xF04F, offset: 0xF04F, size: 0x8, addend: 0x0, symName: __ZNSt3__113__rewrap_iterB8ue170006IPmS1_NS_18__unwrap_iter_implIS1_Lb1EEEEET_S4_T0_, symObjAddr: 0x74F0, symBinAddr: 0x100007E40, symSize: 0x40 }
  - { offsetInCU: 0xF1C0, offset: 0xF1C0, size: 0x8, addend: 0x0, symName: __ZNSt3__113__unwrap_iterB8ue170006IPKmNS_18__unwrap_iter_implIS2_Lb1EEELi0EEEDTclsrT0_8__unwrapclsr3stdE7declvalIT_EEEES6_, symObjAddr: 0x7580, symBinAddr: 0x100007ED0, symSize: 0x20 }
  - { offsetInCU: 0xF257, offset: 0xF257, size: 0x8, addend: 0x0, symName: __ZNSt3__119__copy_trivial_implB8ue170006IKmmEENS_4pairIPT_PT0_EES4_S4_S6_, symObjAddr: 0x7620, symBinAddr: 0x100007F70, symSize: 0x70 }
  - { offsetInCU: 0xF2BF, offset: 0xF2BF, size: 0x8, addend: 0x0, symName: __ZNSt3__119__constexpr_memmoveB8ue170006ImKmLi0EEEPT_S3_PT0_NS_15__element_countE, symObjAddr: 0x7690, symBinAddr: 0x100007FE0, symSize: 0x50 }
  - { offsetInCU: 0xF32D, offset: 0xF32D, size: 0x8, addend: 0x0, symName: __ZNSt3__19make_pairB8ue170006IRPKmPmEENS_4pairINS_18__unwrap_ref_decayIT_E4typeENS6_IT0_E4typeEEEOS7_OSA_, symObjAddr: 0x76E0, symBinAddr: 0x100008030, symSize: 0x30 }
  - { offsetInCU: 0xF3CF, offset: 0xF3CF, size: 0x8, addend: 0x0, symName: __ZNSt3__113__rewrap_iterB8ue170006IPKmS2_NS_18__unwrap_iter_implIS2_Lb1EEEEET_S5_T0_, symObjAddr: 0x7820, symBinAddr: 0x100008170, symSize: 0x40 }
  - { offsetInCU: 0xF424, offset: 0xF424, size: 0x8, addend: 0x0, symName: __ZNSt3__14swapB8ue170006IPmEENS_9enable_ifIXaasr21is_move_constructibleIT_EE5valuesr18is_move_assignableIS3_EE5valueEvE4typeERS3_S6_, symObjAddr: 0x79B0, symBinAddr: 0x100008300, symSize: 0x40 }
  - { offsetInCU: 0xF475, offset: 0xF475, size: 0x8, addend: 0x0, symName: __ZNSt3__14swapB8ue170006ImEENS_9enable_ifIXaasr21is_move_constructibleIT_EE5valuesr18is_move_assignableIS2_EE5valueEvE4typeERS2_S5_, symObjAddr: 0x79F0, symBinAddr: 0x100008340, symSize: 0x40 }
  - { offsetInCU: 0xF4C6, offset: 0xF4C6, size: 0x8, addend: 0x0, symName: __ZNSt3__116__swap_allocatorB8ue170006INS_9allocatorImEEEEvRT_S4_NS_17integral_constantIbLb0EEE, symObjAddr: 0x7A30, symBinAddr: 0x100008380, symSize: 0x10 }
  - { offsetInCU: 0xF507, offset: 0xF507, size: 0x8, addend: 0x0, symName: __ZNSt3__16fill_nB8ue170006IPmmmEET_S2_T0_RKT1_, symObjAddr: 0x7CC0, symBinAddr: 0x100008610, symSize: 0x40 }
  - { offsetInCU: 0xF56A, offset: 0xF56A, size: 0x8, addend: 0x0, symName: __ZNSt3__18__fill_nB8ue170006IPmmmEET_S2_T0_RKT1_, symObjAddr: 0x7D00, symBinAddr: 0x100008650, symSize: 0x50 }
  - { offsetInCU: 0xF5CD, offset: 0xF5CD, size: 0x8, addend: 0x0, symName: __ZNSt3__121__convert_to_integralB8ue170006Em, symObjAddr: 0x7D50, symBinAddr: 0x1000086A0, symSize: 0x10 }
  - { offsetInCU: 0xF5F9, offset: 0xF5F9, size: 0x8, addend: 0x0, symName: __ZNSt3__16fill_nB8ue170006IPmmiEET_S2_T0_RKT1_, symObjAddr: 0x7D60, symBinAddr: 0x1000086B0, symSize: 0x40 }
  - { offsetInCU: 0xF65C, offset: 0xF65C, size: 0x8, addend: 0x0, symName: __ZNSt3__18__fill_nB8ue170006IPmmiEET_S2_T0_RKT1_, symObjAddr: 0x7DA0, symBinAddr: 0x1000086F0, symSize: 0x50 }
  - { offsetInCU: 0xF6BF, offset: 0xF6BF, size: 0x8, addend: 0x0, symName: __ZNSt3__112construct_atB8ue170006IxJEPxEEPT_S3_DpOT0_, symObjAddr: 0x8420, symBinAddr: 0x100008D70, symSize: 0x20 }
  - { offsetInCU: 0xF71B, offset: 0xF71B, size: 0x8, addend: 0x0, symName: __ZNSt3__112construct_atB8ue170006IxJxEPxEEPT_S3_DpOT0_, symObjAddr: 0x85D0, symBinAddr: 0x100008F20, symSize: 0x30 }
  - { offsetInCU: 0xF7BE, offset: 0xF7BE, size: 0x8, addend: 0x0, symName: __ZNSt3__110destroy_atB8ue170006INS_4pairIxxEELi0EEEvPT_, symObjAddr: 0x8AC0, symBinAddr: 0x100009410, symSize: 0x20 }
  - { offsetInCU: 0xF7F5, offset: 0xF7F5, size: 0x8, addend: 0x0, symName: __ZNSt3__112__destroy_atB8ue170006INS_4pairIxxEELi0EEEvPT_, symObjAddr: 0x8AE0, symBinAddr: 0x100009430, symSize: 0x10 }
  - { offsetInCU: 0xF82C, offset: 0xF82C, size: 0x8, addend: 0x0, symName: __ZNSt3__1ltB8ue170006ENS_15strong_orderingENS_20_CmpUnspecifiedParamE, symObjAddr: 0x91E0, symBinAddr: 0x100009B30, symSize: 0x20 }
  - { offsetInCU: 0xF865, offset: 0xF865, size: 0x8, addend: 0x0, symName: __ZNSt3__1ssB8ue170006IxxxxEENS_26common_comparison_categoryIJDTclsr3stdE17__synth_three_wayclsr3stdE7declvalIRT_EEclsr3stdE7declvalIRT1_EEEEDTclsr3stdE17__synth_three_wayclsr3stdE7declvalIRT0_EEclsr3stdE7declvalIRT2_EEEEEE4typeERKNS_4pairIS2_S7_EERKNSE_IS4_S9_EE, symObjAddr: 0x9200, symBinAddr: 0x100009B50, symSize: 0x80 }
  - { offsetInCU: 0xF8FF, offset: 0xF8FF, size: 0x8, addend: 0x0, symName: __ZNSt3__117__synth_three_wayB8ue170006IxxEEDaRKT_RKT0_, symObjAddr: 0x92B0, symBinAddr: 0x100009C00, symSize: 0x70 }
  - { offsetInCU: 0xF94B, offset: 0xF94B, size: 0x8, addend: 0x0, symName: __ZNSt3__1eqB8ue170006ENS_15strong_orderingENS_20_CmpUnspecifiedParamE, symObjAddr: 0x9320, symBinAddr: 0x100009C70, symSize: 0x20 }
  - { offsetInCU: 0xF9C4, offset: 0xF9C4, size: 0x8, addend: 0x0, symName: __ZNSt3__112construct_atB8ue170006INS_4pairIxxEEJS2_EPS2_EEPT_S5_DpOT0_, symObjAddr: 0x9610, symBinAddr: 0x100009F60, symSize: 0x30 }
  - { offsetInCU: 0xFA34, offset: 0xFA34, size: 0x8, addend: 0x0, symName: __ZNSt3__127__tree_balance_after_insertB8ue170006IPNS_16__tree_node_baseIPvEEEEvT_S5_, symObjAddr: 0x96A0, symBinAddr: 0x100009FF0, symSize: 0x320 }
  - { offsetInCU: 0xFAB0, offset: 0xFAB0, size: 0x8, addend: 0x0, symName: __ZNSt3__120__tree_is_left_childB8ue170006IPNS_16__tree_node_baseIPvEEEEbT_, symObjAddr: 0x9A00, symBinAddr: 0x10000A350, symSize: 0x30 }
  - { offsetInCU: 0xFAE5, offset: 0xFAE5, size: 0x8, addend: 0x0, symName: __ZNSt3__118__tree_left_rotateB8ue170006IPNS_16__tree_node_baseIPvEEEEvT_, symObjAddr: 0x9A30, symBinAddr: 0x10000A380, symSize: 0xD0 }
  - { offsetInCU: 0xFB27, offset: 0xFB27, size: 0x8, addend: 0x0, symName: __ZNSt3__119__tree_right_rotateB8ue170006IPNS_16__tree_node_baseIPvEEEEvT_, symObjAddr: 0x9B00, symBinAddr: 0x10000A450, symSize: 0xC0 }
  - { offsetInCU: 0xFB69, offset: 0xFB69, size: 0x8, addend: 0x0, symName: __ZNSt3__1neB8ue170006ERKNS_21__tree_const_iteratorINS_4pairIxxEEPNS_11__tree_nodeIS2_PvEElEES9_, symObjAddr: 0x9E30, symBinAddr: 0x10000A780, symSize: 0x30 }
  - { offsetInCU: 0xFBA6, offset: 0xFBA6, size: 0x8, addend: 0x0, symName: __ZNSt3__1eqB8ue170006ERKNS_21__tree_const_iteratorINS_4pairIxxEEPNS_11__tree_nodeIS2_PvEElEES9_, symObjAddr: 0x9EC0, symBinAddr: 0x10000A810, symSize: 0x30 }
  - { offsetInCU: 0xFBE3, offset: 0xFBE3, size: 0x8, addend: 0x0, symName: __ZNSt3__116__pad_and_outputB8ue170006IcNS_11char_traitsIcEEEENS_19ostreambuf_iteratorIT_T0_EES6_PKS4_S8_S8_RNS_8ios_baseES4_, symObjAddr: 0xA460, symBinAddr: 0x10000ADB0, symSize: 0x220 }
  - { offsetInCU: 0xFCB3, offset: 0xFCB3, size: 0x8, addend: 0x0, symName: __ZNSt3__112__to_addressB8ue170006IcEEPT_S2_, symObjAddr: 0xA980, symBinAddr: 0x10000B2D0, symSize: 0x10 }
  - { offsetInCU: 0xFCE8, offset: 0xFCE8, size: 0x8, addend: 0x0, symName: __ZNSt3__19use_facetB8ue170006INS_5ctypeIcEEEERKT_RKNS_6localeE, symObjAddr: 0xAC10, symBinAddr: 0x10000B560, symSize: 0x30 }
  - { offsetInCU: 0x101B5, offset: 0x101B5, size: 0x8, addend: 0x0, symName: __ZNSt3__118__constexpr_strlenB8ue170006EPKc, symObjAddr: 0xACA0, symBinAddr: 0x10000B5F0, symSize: 0x1B }
  - { offsetInCU: 0x108FA, offset: 0x108FA, size: 0x8, addend: 0x0, symName: __ZSt28__throw_bad_array_new_lengthB8ue170006v, symObjAddr: 0x2D90, symBinAddr: 0x1000036E0, symSize: 0x40 }
  - { offsetInCU: 0x10DDC, offset: 0x10DDC, size: 0x8, addend: 0x0, symName: _n, symObjAddr: 0x6ABF0, symBinAddr: 0x10000D018, symSize: 0x0 }
  - { offsetInCU: 0x10DFC, offset: 0x10DFC, size: 0x8, addend: 0x0, symName: _adj, symObjAddr: 0x6ABF8, symBinAddr: 0x10000D020, symSize: 0x0 }
  - { offsetInCU: 0x1112D, offset: 0x1112D, size: 0x8, addend: 0x0, symName: _visited, symObjAddr: 0x6AC10, symBinAddr: 0x10000D038, symSize: 0x0 }
  - { offsetInCU: 0x11292, offset: 0x11292, size: 0x8, addend: 0x0, symName: _tin, symObjAddr: 0x6AC28, symBinAddr: 0x10000D050, symSize: 0x0 }
  - { offsetInCU: 0x112A7, offset: 0x112A7, size: 0x8, addend: 0x0, symName: _low, symObjAddr: 0x6AC40, symBinAddr: 0x10000D068, symSize: 0x0 }
  - { offsetInCU: 0x112BC, offset: 0x112BC, size: 0x8, addend: 0x0, symName: _timer, symObjAddr: 0x6AC58, symBinAddr: 0x10000D080, symSize: 0x0 }
  - { offsetInCU: 0x112D1, offset: 0x112D1, size: 0x8, addend: 0x0, symName: _comp, symObjAddr: 0x6AC60, symBinAddr: 0x10000D088, symSize: 0x0 }
  - { offsetInCU: 0x112E6, offset: 0x112E6, size: 0x8, addend: 0x0, symName: _treeAdj, symObjAddr: 0x6AC78, symBinAddr: 0x10000D0A0, symSize: 0x0 }
  - { offsetInCU: 0x112FB, offset: 0x112FB, size: 0x8, addend: 0x0, symName: _answer, symObjAddr: 0x6AC90, symBinAddr: 0x10000D0B8, symSize: 0x0 }
  - { offsetInCU: 0x11310, offset: 0x11310, size: 0x8, addend: 0x0, symName: _sz, symObjAddr: 0x6AC98, symBinAddr: 0x10000D0C0, symSize: 0x0 }
  - { offsetInCU: 0x1164A, offset: 0x1164A, size: 0x8, addend: 0x0, symName: __ZNSt3__16vectorIxNS_9allocatorIxEEE26__swap_out_circular_bufferERNS_14__split_bufferIxRS2_EE, symObjAddr: 0x26C0, symBinAddr: 0x100003010, symSize: 0x120 }
  - { offsetInCU: 0x116A2, offset: 0x116A2, size: 0x8, addend: 0x0, symName: __ZNSt3__16vectorINS0_IxNS_9allocatorIxEEEENS1_IS3_EEE26__swap_out_circular_bufferERNS_14__split_bufferIS3_RS4_EE, symObjAddr: 0x3FD0, symBinAddr: 0x100004920, symSize: 0x120 }
  - { offsetInCU: 0x13E81, offset: 0x13E81, size: 0x8, addend: 0x0, symName: __ZNSt3__13setINS_4pairIxxEENS_4lessIS2_EENS_9allocatorIS2_EEEC1B8ue170006Ev, symObjAddr: 0x0, symBinAddr: 0x100000950, symSize: 0x20 }
  - { offsetInCU: 0x13EAB, offset: 0x13EAB, size: 0x8, addend: 0x0, symName: __ZNSt3__13setINS_4pairIxxEENS_4lessIS2_EENS_9allocatorIS2_EEED1B8ue170006Ev, symObjAddr: 0x20, symBinAddr: 0x100000970, symSize: 0x20 }
  - { offsetInCU: 0x13ED5, offset: 0x13ED5, size: 0x8, addend: 0x0, symName: __ZNSt3__16vectorINS0_IxNS_9allocatorIxEEEENS1_IS3_EEED1B8ue170006Ev, symObjAddr: 0x40, symBinAddr: 0x100000990, symSize: 0x20 }
  - { offsetInCU: 0x13EFF, offset: 0x13EFF, size: 0x8, addend: 0x0, symName: __ZNSt3__16vectorIbNS_9allocatorIbEEED1B8ue170006Ev, symObjAddr: 0x60, symBinAddr: 0x1000009B0, symSize: 0x20 }
  - { offsetInCU: 0x13F29, offset: 0x13F29, size: 0x8, addend: 0x0, symName: __ZNSt3__16vectorIxNS_9allocatorIxEEED1B8ue170006Ev, symObjAddr: 0x80, symBinAddr: 0x1000009D0, symSize: 0x20 }
  - { offsetInCU: 0x13F52, offset: 0x13F52, size: 0x8, addend: 0x0, symName: __Z3dfsxx, symObjAddr: 0xA0, symBinAddr: 0x1000009F0, symSize: 0x2A0 }
  - { offsetInCU: 0x13FE9, offset: 0x13FE9, size: 0x8, addend: 0x0, symName: __ZNSt3__16vectorIbNS_9allocatorIbEEEixB8ue170006Em, symObjAddr: 0x340, symBinAddr: 0x100000C90, symSize: 0x40 }
  - { offsetInCU: 0x1401E, offset: 0x1401E, size: 0x8, addend: 0x0, symName: __ZNSt3__115__bit_referenceINS_6vectorIbNS_9allocatorIbEEEELb1EEaSB8ue170006Eb, symObjAddr: 0x380, symBinAddr: 0x100000CD0, symSize: 0x60 }
  - { offsetInCU: 0x14052, offset: 0x14052, size: 0x8, addend: 0x0, symName: __ZNSt3__16vectorIxNS_9allocatorIxEEEixB8ue170006Em, symObjAddr: 0x3E0, symBinAddr: 0x100000D30, symSize: 0x20 }
  - { offsetInCU: 0x14089, offset: 0x14089, size: 0x8, addend: 0x0, symName: __ZNSt3__16vectorINS0_IxNS_9allocatorIxEEEENS1_IS3_EEEixB8ue170006Em, symObjAddr: 0x400, symBinAddr: 0x100000D50, symSize: 0x20 }
  - { offsetInCU: 0x140C0, offset: 0x140C0, size: 0x8, addend: 0x0, symName: __ZNSt3__16vectorIxNS_9allocatorIxEEE5beginB8ue170006Ev, symObjAddr: 0x420, symBinAddr: 0x100000D70, symSize: 0x30 }
  - { offsetInCU: 0x140E8, offset: 0x140E8, size: 0x8, addend: 0x0, symName: __ZNSt3__16vectorIxNS_9allocatorIxEEE3endB8ue170006Ev, symObjAddr: 0x450, symBinAddr: 0x100000DA0, symSize: 0x30 }
  - { offsetInCU: 0x14110, offset: 0x14110, size: 0x8, addend: 0x0, symName: __ZNKSt3__111__wrap_iterIPxEdeB8ue170006Ev, symObjAddr: 0x4B0, symBinAddr: 0x100000E00, symSize: 0x20 }
  - { offsetInCU: 0x14136, offset: 0x14136, size: 0x8, addend: 0x0, symName: __ZNKSt3__115__bit_referenceINS_6vectorIbNS_9allocatorIbEEEELb1EEcvbB8ue170006Ev, symObjAddr: 0x4D0, symBinAddr: 0x100000E20, symSize: 0x30 }
  - { offsetInCU: 0x1415C, offset: 0x1415C, size: 0x8, addend: 0x0, symName: __ZNSt3__13setINS_4pairIxxEENS_4lessIS2_EENS_9allocatorIS2_EEE6insertB8ue170006EOS2_, symObjAddr: 0x530, symBinAddr: 0x100000E80, symSize: 0x40 }
  - { offsetInCU: 0x14196, offset: 0x14196, size: 0x8, addend: 0x0, symName: __ZNSt3__14pairIxxEC1B8ue170006ILb1ELPv0EEERKxS5_, symObjAddr: 0x5A0, symBinAddr: 0x100000EF0, symSize: 0x30 }
  - { offsetInCU: 0x141EC, offset: 0x141EC, size: 0x8, addend: 0x0, symName: __ZNSt3__111__wrap_iterIPxEppB8ue170006Ev, symObjAddr: 0x5D0, symBinAddr: 0x100000F20, symSize: 0x20 }
  - { offsetInCU: 0x14211, offset: 0x14211, size: 0x8, addend: 0x0, symName: __Z4dfs2xx, symObjAddr: 0x5F0, symBinAddr: 0x100000F40, symSize: 0x180 }
  - { offsetInCU: 0x142AC, offset: 0x142AC, size: 0x8, addend: 0x0, symName: __ZNKSt3__13setINS_4pairIxxEENS_4lessIS2_EENS_9allocatorIS2_EEE8containsB8ue170006ERKS2_, symObjAddr: 0x770, symBinAddr: 0x1000010C0, symSize: 0x50 }
  - { offsetInCU: 0x142E0, offset: 0x142E0, size: 0x8, addend: 0x0, symName: __Z5buildx, symObjAddr: 0x7C0, symBinAddr: 0x100001110, symSize: 0x1A0 }
  - { offsetInCU: 0x1435A, offset: 0x1435A, size: 0x8, addend: 0x0, symName: __ZNSt3__16vectorIxNS_9allocatorIxEEE9push_backB8ue170006ERKx, symObjAddr: 0x960, symBinAddr: 0x1000012B0, symSize: 0x60 }
  - { offsetInCU: 0x14390, offset: 0x14390, size: 0x8, addend: 0x0, symName: __Z3subxx, symObjAddr: 0x9C0, symBinAddr: 0x100001310, symSize: 0x130 }
  - { offsetInCU: 0x14437, offset: 0x14437, size: 0x8, addend: 0x0, symName: __Z5solvev, symObjAddr: 0xAF0, symBinAddr: 0x100001440, symSize: 0x3D0 }
  - { offsetInCU: 0x1451A, offset: 0x1451A, size: 0x8, addend: 0x0, symName: __ZNSt3__16vectorINS0_IxNS_9allocatorIxEEEENS1_IS3_EEE5clearB8ue170006Ev, symObjAddr: 0xEC0, symBinAddr: 0x100001810, symSize: 0x40 }
  - { offsetInCU: 0x1454F, offset: 0x1454F, size: 0x8, addend: 0x0, symName: __ZNSt3__16vectorIbNS_9allocatorIbEEE5clearB8ue170006Ev, symObjAddr: 0xF00, symBinAddr: 0x100001850, symSize: 0x20 }
  - { offsetInCU: 0x14575, offset: 0x14575, size: 0x8, addend: 0x0, symName: __ZNSt3__16vectorIxNS_9allocatorIxEEE5clearB8ue170006Ev, symObjAddr: 0xF20, symBinAddr: 0x100001870, symSize: 0x40 }
  - { offsetInCU: 0x145AA, offset: 0x145AA, size: 0x8, addend: 0x0, symName: __ZNSt3__16vectorINS0_IxNS_9allocatorIxEEEENS1_IS3_EEE6resizeEm, symObjAddr: 0xF60, symBinAddr: 0x1000018B0, symSize: 0x80 }
  - { offsetInCU: 0x145F0, offset: 0x145F0, size: 0x8, addend: 0x0, symName: __ZNSt3__16vectorIbNS_9allocatorIbEEE6resizeEmb, symObjAddr: 0xFE0, symBinAddr: 0x100001930, symSize: 0x240 }
  - { offsetInCU: 0x1468E, offset: 0x1468E, size: 0x8, addend: 0x0, symName: __ZNSt3__16vectorIxNS_9allocatorIxEEE6resizeEmRKx, symObjAddr: 0x1220, symBinAddr: 0x100001B70, symSize: 0x80 }
  - { offsetInCU: 0x146E3, offset: 0x146E3, size: 0x8, addend: 0x0, symName: __ZNSt3__13setINS_4pairIxxEENS_4lessIS2_EENS_9allocatorIS2_EEE5clearB8ue170006Ev, symObjAddr: 0x12A0, symBinAddr: 0x100001BF0, symSize: 0x20 }
  - { offsetInCU: 0x14709, offset: 0x14709, size: 0x8, addend: 0x0, symName: __ZNKSt3__13setINS_4pairIxxEENS_4lessIS2_EENS_9allocatorIS2_EEE5emptyB8ue170006Ev, symObjAddr: 0x12C0, symBinAddr: 0x100001C10, symSize: 0x30 }
  - { offsetInCU: 0x1472F, offset: 0x1472F, size: 0x8, addend: 0x0, symName: __ZNSt3__16vectorIxNS_9allocatorIxEEE6resizeEm, symObjAddr: 0x1330, symBinAddr: 0x100001C80, symSize: 0x80 }
  - { offsetInCU: 0x14775, offset: 0x14775, size: 0x8, addend: 0x0, symName: __ZNSt3__16vectorIxNS_9allocatorIxEEE9push_backB8ue170006EOx, symObjAddr: 0x13B0, symBinAddr: 0x100001D00, symSize: 0x60 }
  - { offsetInCU: 0x147AC, offset: 0x147AC, size: 0x8, addend: 0x0, symName: _main, symObjAddr: 0x1410, symBinAddr: 0x100001D60, symSize: 0x50 }
  - { offsetInCU: 0x147D5, offset: 0x147D5, size: 0x8, addend: 0x0, symName: __ZNSt3__16vectorINS0_IxNS_9allocatorIxEEEENS1_IS3_EEED2B8ue170006Ev, symObjAddr: 0x1460, symBinAddr: 0x100001DB0, symSize: 0x40 }
  - { offsetInCU: 0x147FF, offset: 0x147FF, size: 0x8, addend: 0x0, symName: __ZNSt3__16vectorINS0_IxNS_9allocatorIxEEEENS1_IS3_EEE16__destroy_vectorC1B8ue170006ERS5_, symObjAddr: 0x14A0, symBinAddr: 0x100001DF0, symSize: 0x30 }
  - { offsetInCU: 0x14838, offset: 0x14838, size: 0x8, addend: 0x0, symName: __ZNSt3__16vectorINS0_IxNS_9allocatorIxEEEENS1_IS3_EEE16__destroy_vectorclB8ue170006Ev, symObjAddr: 0x14E0, symBinAddr: 0x100001E30, symSize: 0x80 }
  - { offsetInCU: 0x1485E, offset: 0x1485E, size: 0x8, addend: 0x0, symName: __ZNSt3__16vectorINS0_IxNS_9allocatorIxEEEENS1_IS3_EEE16__destroy_vectorC2B8ue170006ERS5_, symObjAddr: 0x1560, symBinAddr: 0x100001EB0, symSize: 0x20 }
  - { offsetInCU: 0x14897, offset: 0x14897, size: 0x8, addend: 0x0, symName: __ZNSt3__16vectorINS0_IxNS_9allocatorIxEEEENS1_IS3_EEE7__clearB8ue170006Ev, symObjAddr: 0x1580, symBinAddr: 0x100001ED0, symSize: 0x20 }
  - { offsetInCU: 0x148BD, offset: 0x148BD, size: 0x8, addend: 0x0, symName: __ZNKSt3__16vectorINS0_IxNS_9allocatorIxEEEENS1_IS3_EEE17__annotate_deleteB8ue170006Ev, symObjAddr: 0x15A0, symBinAddr: 0x100001EF0, symSize: 0xB0 }
  - { offsetInCU: 0x148E3, offset: 0x148E3, size: 0x8, addend: 0x0, symName: __ZNSt3__116allocator_traitsINS_9allocatorINS_6vectorIxNS1_IxEEEEEEE10deallocateB8ue170006ERS5_PS4_m, symObjAddr: 0x1650, symBinAddr: 0x100001FA0, symSize: 0x30 }
  - { offsetInCU: 0x14925, offset: 0x14925, size: 0x8, addend: 0x0, symName: __ZNSt3__16vectorINS0_IxNS_9allocatorIxEEEENS1_IS3_EEE7__allocB8ue170006Ev, symObjAddr: 0x1680, symBinAddr: 0x100001FD0, symSize: 0x20 }
  - { offsetInCU: 0x1494B, offset: 0x1494B, size: 0x8, addend: 0x0, symName: __ZNKSt3__16vectorINS0_IxNS_9allocatorIxEEEENS1_IS3_EEE8capacityB8ue170006Ev, symObjAddr: 0x16A0, symBinAddr: 0x100001FF0, symSize: 0x40 }
  - { offsetInCU: 0x14971, offset: 0x14971, size: 0x8, addend: 0x0, symName: __ZNSt3__16vectorINS0_IxNS_9allocatorIxEEEENS1_IS3_EEE22__base_destruct_at_endB8ue170006EPS3_, symObjAddr: 0x16E0, symBinAddr: 0x100002030, symSize: 0x80 }
  - { offsetInCU: 0x149B5, offset: 0x149B5, size: 0x8, addend: 0x0, symName: __ZNSt3__116allocator_traitsINS_9allocatorINS_6vectorIxNS1_IxEEEEEEE7destroyB8ue170006IS4_vvEEvRS5_PT_, symObjAddr: 0x1760, symBinAddr: 0x1000020B0, symSize: 0x20 }
  - { offsetInCU: 0x149EF, offset: 0x149EF, size: 0x8, addend: 0x0, symName: __ZNKSt3__16vectorINS0_IxNS_9allocatorIxEEEENS1_IS3_EEE31__annotate_contiguous_containerB8ue170006EPKvS7_S7_S7_, symObjAddr: 0x17D0, symBinAddr: 0x100002120, symSize: 0x20 }
  - { offsetInCU: 0x14A41, offset: 0x14A41, size: 0x8, addend: 0x0, symName: __ZNKSt3__16vectorINS0_IxNS_9allocatorIxEEEENS1_IS3_EEE4dataB8ue170006Ev, symObjAddr: 0x17F0, symBinAddr: 0x100002140, symSize: 0x20 }
  - { offsetInCU: 0x14A67, offset: 0x14A67, size: 0x8, addend: 0x0, symName: __ZNKSt3__16vectorINS0_IxNS_9allocatorIxEEEENS1_IS3_EEE4sizeB8ue170006Ev, symObjAddr: 0x1810, symBinAddr: 0x100002160, symSize: 0x30 }
  - { offsetInCU: 0x14A8D, offset: 0x14A8D, size: 0x8, addend: 0x0, symName: __ZNSt3__19allocatorINS_6vectorIxNS0_IxEEEEE10deallocateB8ue170006EPS3_m, symObjAddr: 0x1840, symBinAddr: 0x100002190, symSize: 0x50 }
  - { offsetInCU: 0x14ACF, offset: 0x14ACF, size: 0x8, addend: 0x0, symName: __ZNSt3__117__compressed_pairIPNS_6vectorIxNS_9allocatorIxEEEENS2_IS4_EEE6secondB8ue170006Ev, symObjAddr: 0x19B0, symBinAddr: 0x100002300, symSize: 0x20 }
  - { offsetInCU: 0x14AF5, offset: 0x14AF5, size: 0x8, addend: 0x0, symName: __ZNSt3__122__compressed_pair_elemINS_9allocatorINS_6vectorIxNS1_IxEEEEEELi1ELb1EE5__getB8ue170006Ev, symObjAddr: 0x19D0, symBinAddr: 0x100002320, symSize: 0x10 }
  - { offsetInCU: 0x14B1B, offset: 0x14B1B, size: 0x8, addend: 0x0, symName: __ZNKSt3__16vectorINS0_IxNS_9allocatorIxEEEENS1_IS3_EEE9__end_capB8ue170006Ev, symObjAddr: 0x19E0, symBinAddr: 0x100002330, symSize: 0x20 }
  - { offsetInCU: 0x14B41, offset: 0x14B41, size: 0x8, addend: 0x0, symName: __ZNKSt3__117__compressed_pairIPNS_6vectorIxNS_9allocatorIxEEEENS2_IS4_EEE5firstB8ue170006Ev, symObjAddr: 0x1A00, symBinAddr: 0x100002350, symSize: 0x20 }
  - { offsetInCU: 0x14B67, offset: 0x14B67, size: 0x8, addend: 0x0, symName: __ZNKSt3__122__compressed_pair_elemIPNS_6vectorIxNS_9allocatorIxEEEELi0ELb0EE5__getB8ue170006Ev, symObjAddr: 0x1A20, symBinAddr: 0x100002370, symSize: 0x10 }
  - { offsetInCU: 0x14B8D, offset: 0x14B8D, size: 0x8, addend: 0x0, symName: __ZNSt3__16vectorIbNS_9allocatorIbEEED2B8ue170006Ev, symObjAddr: 0x1A30, symBinAddr: 0x100002380, symSize: 0x40 }
  - { offsetInCU: 0x14BB7, offset: 0x14BB7, size: 0x8, addend: 0x0, symName: __ZNSt3__16vectorIbNS_9allocatorIbEEE16__destroy_vectorC1B8ue170006ERS3_, symObjAddr: 0x1A70, symBinAddr: 0x1000023C0, symSize: 0x30 }
  - { offsetInCU: 0x14BF0, offset: 0x14BF0, size: 0x8, addend: 0x0, symName: __ZNSt3__16vectorIbNS_9allocatorIbEEE16__destroy_vectorclB8ue170006Ev, symObjAddr: 0x1AA0, symBinAddr: 0x1000023F0, symSize: 0x60 }
  - { offsetInCU: 0x14C16, offset: 0x14C16, size: 0x8, addend: 0x0, symName: __ZNSt3__16vectorIbNS_9allocatorIbEEE16__destroy_vectorC2B8ue170006ERS3_, symObjAddr: 0x1B00, symBinAddr: 0x100002450, symSize: 0x20 }
  - { offsetInCU: 0x14C4F, offset: 0x14C4F, size: 0x8, addend: 0x0, symName: __ZNSt3__116allocator_traitsINS_9allocatorImEEE10deallocateB8ue170006ERS2_Pmm, symObjAddr: 0x1B20, symBinAddr: 0x100002470, symSize: 0x30 }
  - { offsetInCU: 0x14C91, offset: 0x14C91, size: 0x8, addend: 0x0, symName: __ZNSt3__16vectorIbNS_9allocatorIbEEE7__allocB8ue170006Ev, symObjAddr: 0x1B50, symBinAddr: 0x1000024A0, symSize: 0x20 }
  - { offsetInCU: 0x14CB7, offset: 0x14CB7, size: 0x8, addend: 0x0, symName: __ZNSt3__16vectorIbNS_9allocatorIbEEE5__capB8ue170006Ev, symObjAddr: 0x1B70, symBinAddr: 0x1000024C0, symSize: 0x20 }
  - { offsetInCU: 0x14CDD, offset: 0x14CDD, size: 0x8, addend: 0x0, symName: __ZNSt3__19allocatorImE10deallocateB8ue170006EPmm, symObjAddr: 0x1B90, symBinAddr: 0x1000024E0, symSize: 0x40 }
  - { offsetInCU: 0x14D1F, offset: 0x14D1F, size: 0x8, addend: 0x0, symName: __ZNSt3__117__compressed_pairImNS_9allocatorImEEE6secondB8ue170006Ev, symObjAddr: 0x1BD0, symBinAddr: 0x100002520, symSize: 0x20 }
  - { offsetInCU: 0x14D45, offset: 0x14D45, size: 0x8, addend: 0x0, symName: __ZNSt3__122__compressed_pair_elemINS_9allocatorImEELi1ELb1EE5__getB8ue170006Ev, symObjAddr: 0x1BF0, symBinAddr: 0x100002540, symSize: 0x10 }
  - { offsetInCU: 0x14D6B, offset: 0x14D6B, size: 0x8, addend: 0x0, symName: __ZNSt3__117__compressed_pairImNS_9allocatorImEEE5firstB8ue170006Ev, symObjAddr: 0x1C00, symBinAddr: 0x100002550, symSize: 0x20 }
  - { offsetInCU: 0x14D91, offset: 0x14D91, size: 0x8, addend: 0x0, symName: __ZNSt3__122__compressed_pair_elemImLi0ELb0EE5__getB8ue170006Ev, symObjAddr: 0x1C20, symBinAddr: 0x100002570, symSize: 0x10 }
  - { offsetInCU: 0x14DB7, offset: 0x14DB7, size: 0x8, addend: 0x0, symName: __ZNSt3__16vectorIxNS_9allocatorIxEEED2B8ue170006Ev, symObjAddr: 0x1C30, symBinAddr: 0x100002580, symSize: 0x40 }
  - { offsetInCU: 0x14DE1, offset: 0x14DE1, size: 0x8, addend: 0x0, symName: __ZNSt3__16vectorIxNS_9allocatorIxEEE16__destroy_vectorC1B8ue170006ERS3_, symObjAddr: 0x1C70, symBinAddr: 0x1000025C0, symSize: 0x30 }
  - { offsetInCU: 0x14E1A, offset: 0x14E1A, size: 0x8, addend: 0x0, symName: __ZNSt3__16vectorIxNS_9allocatorIxEEE16__destroy_vectorclB8ue170006Ev, symObjAddr: 0x1CA0, symBinAddr: 0x1000025F0, symSize: 0x80 }
  - { offsetInCU: 0x14E40, offset: 0x14E40, size: 0x8, addend: 0x0, symName: __ZNSt3__16vectorIxNS_9allocatorIxEEE16__destroy_vectorC2B8ue170006ERS3_, symObjAddr: 0x1D20, symBinAddr: 0x100002670, symSize: 0x20 }
  - { offsetInCU: 0x14E79, offset: 0x14E79, size: 0x8, addend: 0x0, symName: __ZNSt3__16vectorIxNS_9allocatorIxEEE7__clearB8ue170006Ev, symObjAddr: 0x1D40, symBinAddr: 0x100002690, symSize: 0x20 }
  - { offsetInCU: 0x14E9F, offset: 0x14E9F, size: 0x8, addend: 0x0, symName: __ZNKSt3__16vectorIxNS_9allocatorIxEEE17__annotate_deleteB8ue170006Ev, symObjAddr: 0x1D60, symBinAddr: 0x1000026B0, symSize: 0xB0 }
  - { offsetInCU: 0x14EC5, offset: 0x14EC5, size: 0x8, addend: 0x0, symName: __ZNSt3__116allocator_traitsINS_9allocatorIxEEE10deallocateB8ue170006ERS2_Pxm, symObjAddr: 0x1E10, symBinAddr: 0x100002760, symSize: 0x30 }
  - { offsetInCU: 0x14F07, offset: 0x14F07, size: 0x8, addend: 0x0, symName: __ZNSt3__16vectorIxNS_9allocatorIxEEE7__allocB8ue170006Ev, symObjAddr: 0x1E40, symBinAddr: 0x100002790, symSize: 0x20 }
  - { offsetInCU: 0x14F2D, offset: 0x14F2D, size: 0x8, addend: 0x0, symName: __ZNKSt3__16vectorIxNS_9allocatorIxEEE8capacityB8ue170006Ev, symObjAddr: 0x1E60, symBinAddr: 0x1000027B0, symSize: 0x30 }
  - { offsetInCU: 0x14F53, offset: 0x14F53, size: 0x8, addend: 0x0, symName: __ZNSt3__16vectorIxNS_9allocatorIxEEE22__base_destruct_at_endB8ue170006EPx, symObjAddr: 0x1E90, symBinAddr: 0x1000027E0, symSize: 0x80 }
  - { offsetInCU: 0x14F97, offset: 0x14F97, size: 0x8, addend: 0x0, symName: __ZNSt3__116allocator_traitsINS_9allocatorIxEEE7destroyB8ue170006IxvvEEvRS2_PT_, symObjAddr: 0x1F10, symBinAddr: 0x100002860, symSize: 0x20 }
  - { offsetInCU: 0x14FD1, offset: 0x14FD1, size: 0x8, addend: 0x0, symName: __ZNKSt3__16vectorIxNS_9allocatorIxEEE31__annotate_contiguous_containerB8ue170006EPKvS5_S5_S5_, symObjAddr: 0x1F70, symBinAddr: 0x1000028C0, symSize: 0x20 }
  - { offsetInCU: 0x15023, offset: 0x15023, size: 0x8, addend: 0x0, symName: __ZNKSt3__16vectorIxNS_9allocatorIxEEE4dataB8ue170006Ev, symObjAddr: 0x1F90, symBinAddr: 0x1000028E0, symSize: 0x20 }
  - { offsetInCU: 0x15049, offset: 0x15049, size: 0x8, addend: 0x0, symName: __ZNKSt3__16vectorIxNS_9allocatorIxEEE4sizeB8ue170006Ev, symObjAddr: 0x1FB0, symBinAddr: 0x100002900, symSize: 0x20 }
  - { offsetInCU: 0x1506F, offset: 0x1506F, size: 0x8, addend: 0x0, symName: __ZNSt3__19allocatorIxE10deallocateB8ue170006EPxm, symObjAddr: 0x1FD0, symBinAddr: 0x100002920, symSize: 0x40 }
  - { offsetInCU: 0x150B1, offset: 0x150B1, size: 0x8, addend: 0x0, symName: __ZNSt3__117__compressed_pairIPxNS_9allocatorIxEEE6secondB8ue170006Ev, symObjAddr: 0x2010, symBinAddr: 0x100002960, symSize: 0x20 }
  - { offsetInCU: 0x150D7, offset: 0x150D7, size: 0x8, addend: 0x0, symName: __ZNSt3__122__compressed_pair_elemINS_9allocatorIxEELi1ELb1EE5__getB8ue170006Ev, symObjAddr: 0x2030, symBinAddr: 0x100002980, symSize: 0x10 }
  - { offsetInCU: 0x150FD, offset: 0x150FD, size: 0x8, addend: 0x0, symName: __ZNKSt3__16vectorIxNS_9allocatorIxEEE9__end_capB8ue170006Ev, symObjAddr: 0x2040, symBinAddr: 0x100002990, symSize: 0x20 }
  - { offsetInCU: 0x15123, offset: 0x15123, size: 0x8, addend: 0x0, symName: __ZNKSt3__117__compressed_pairIPxNS_9allocatorIxEEE5firstB8ue170006Ev, symObjAddr: 0x2060, symBinAddr: 0x1000029B0, symSize: 0x20 }
  - { offsetInCU: 0x15149, offset: 0x15149, size: 0x8, addend: 0x0, symName: __ZNKSt3__122__compressed_pair_elemIPxLi0ELb0EE5__getB8ue170006Ev, symObjAddr: 0x2080, symBinAddr: 0x1000029D0, symSize: 0x10 }
  - { offsetInCU: 0x1516F, offset: 0x1516F, size: 0x8, addend: 0x0, symName: __ZNSt3__16vectorIbNS_9allocatorIbEEE10__make_refB8ue170006Em, symObjAddr: 0x2090, symBinAddr: 0x1000029E0, symSize: 0x50 }
  - { offsetInCU: 0x151A4, offset: 0x151A4, size: 0x8, addend: 0x0, symName: __ZNSt3__115__bit_referenceINS_6vectorIbNS_9allocatorIbEEEELb1EEC1B8ue170006EPmm, symObjAddr: 0x20E0, symBinAddr: 0x100002A30, symSize: 0x30 }
  - { offsetInCU: 0x151EA, offset: 0x151EA, size: 0x8, addend: 0x0, symName: __ZNSt3__115__bit_referenceINS_6vectorIbNS_9allocatorIbEEEELb1EEC2B8ue170006EPmm, symObjAddr: 0x2110, symBinAddr: 0x100002A60, symSize: 0x30 }
  - { offsetInCU: 0x15230, offset: 0x15230, size: 0x8, addend: 0x0, symName: __ZNSt3__16vectorIxNS_9allocatorIxEEE11__make_iterB8ue170006EPx, symObjAddr: 0x2140, symBinAddr: 0x100002A90, symSize: 0x30 }
  - { offsetInCU: 0x15265, offset: 0x15265, size: 0x8, addend: 0x0, symName: __ZNSt3__111__wrap_iterIPxEC1B8ue170006ES1_, symObjAddr: 0x2170, symBinAddr: 0x100002AC0, symSize: 0x30 }
  - { offsetInCU: 0x1529D, offset: 0x1529D, size: 0x8, addend: 0x0, symName: __ZNSt3__111__wrap_iterIPxEC2B8ue170006ES1_, symObjAddr: 0x21A0, symBinAddr: 0x100002AF0, symSize: 0x20 }
  - { offsetInCU: 0x152D5, offset: 0x152D5, size: 0x8, addend: 0x0, symName: __ZNKSt3__111__wrap_iterIPxE4baseB8ue170006Ev, symObjAddr: 0x2200, symBinAddr: 0x100002B50, symSize: 0x20 }
  - { offsetInCU: 0x15306, offset: 0x15306, size: 0x8, addend: 0x0, symName: __ZNKSt3__16__lessIvvEclB8ue170006IxxEEbRKT_RKT0_, symObjAddr: 0x2270, symBinAddr: 0x100002BC0, symSize: 0x30 }
  - { offsetInCU: 0x1535A, offset: 0x1535A, size: 0x8, addend: 0x0, symName: __ZNSt3__14pairIxxEC2B8ue170006ILb1ELPv0EEERKxS5_, symObjAddr: 0x22F0, symBinAddr: 0x100002C40, symSize: 0x30 }
  - { offsetInCU: 0x153B0, offset: 0x153B0, size: 0x8, addend: 0x0, symName: __ZNSt3__16vectorIxNS_9allocatorIxEEE9__end_capB8ue170006Ev, symObjAddr: 0x2320, symBinAddr: 0x100002C70, symSize: 0x20 }
  - { offsetInCU: 0x153D6, offset: 0x153D6, size: 0x8, addend: 0x0, symName: __ZNSt3__16vectorIxNS_9allocatorIxEEE22__construct_one_at_endB8ue170006IJRKxEEEvDpOT_, symObjAddr: 0x2340, symBinAddr: 0x100002C90, symSize: 0x90 }
  - { offsetInCU: 0x15425, offset: 0x15425, size: 0x8, addend: 0x0, symName: __ZNSt3__16vectorIxNS_9allocatorIxEEE21__push_back_slow_pathIRKxEEvOT_, symObjAddr: 0x23D0, symBinAddr: 0x100002D20, symSize: 0xD0 }
  - { offsetInCU: 0x15483, offset: 0x15483, size: 0x8, addend: 0x0, symName: __ZNSt3__117__compressed_pairIPxNS_9allocatorIxEEE5firstB8ue170006Ev, symObjAddr: 0x24A0, symBinAddr: 0x100002DF0, symSize: 0x20 }
  - { offsetInCU: 0x154A9, offset: 0x154A9, size: 0x8, addend: 0x0, symName: __ZNSt3__122__compressed_pair_elemIPxLi0ELb0EE5__getB8ue170006Ev, symObjAddr: 0x24C0, symBinAddr: 0x100002E10, symSize: 0x10 }
  - { offsetInCU: 0x154EA, offset: 0x154EA, size: 0x8, addend: 0x0, symName: __ZNSt3__16vectorIxNS_9allocatorIxEEE21_ConstructTransactionC1B8ue170006ERS3_m, symObjAddr: 0x24D0, symBinAddr: 0x100002E20, symSize: 0x30 }
  - { offsetInCU: 0x15532, offset: 0x15532, size: 0x8, addend: 0x0, symName: __ZNSt3__116allocator_traitsINS_9allocatorIxEEE9constructB8ue170006IxJRKxEvvEEvRS2_PT_DpOT0_, symObjAddr: 0x2500, symBinAddr: 0x100002E50, symSize: 0x30 }
  - { offsetInCU: 0x15586, offset: 0x15586, size: 0x8, addend: 0x0, symName: __ZNSt3__16vectorIxNS_9allocatorIxEEE21_ConstructTransactionD1B8ue170006Ev, symObjAddr: 0x2530, symBinAddr: 0x100002E80, symSize: 0x20 }
  - { offsetInCU: 0x155B0, offset: 0x155B0, size: 0x8, addend: 0x0, symName: __ZNSt3__16vectorIxNS_9allocatorIxEEE21_ConstructTransactionC2B8ue170006ERS3_m, symObjAddr: 0x2550, symBinAddr: 0x100002EA0, symSize: 0x40 }
  - { offsetInCU: 0x155F8, offset: 0x155F8, size: 0x8, addend: 0x0, symName: __ZNSt3__16vectorIxNS_9allocatorIxEEE21_ConstructTransactionD2B8ue170006Ev, symObjAddr: 0x25C0, symBinAddr: 0x100002F10, symSize: 0x20 }
  - { offsetInCU: 0x15622, offset: 0x15622, size: 0x8, addend: 0x0, symName: __ZNKSt3__16vectorIxNS_9allocatorIxEEE11__recommendB8ue170006Em, symObjAddr: 0x25E0, symBinAddr: 0x100002F30, symSize: 0xA0 }
  - { offsetInCU: 0x15677, offset: 0x15677, size: 0x8, addend: 0x0, symName: __ZNSt3__114__split_bufferIxRNS_9allocatorIxEEEC1EmmS3_, symObjAddr: 0x2680, symBinAddr: 0x100002FD0, symSize: 0x40 }
  - { offsetInCU: 0x156CD, offset: 0x156CD, size: 0x8, addend: 0x0, symName: __ZNSt3__114__split_bufferIxRNS_9allocatorIxEEED1Ev, symObjAddr: 0x27E0, symBinAddr: 0x100003130, symSize: 0x20 }
  - { offsetInCU: 0x156F9, offset: 0x156F9, size: 0x8, addend: 0x0, symName: __ZNKSt3__16vectorIxNS_9allocatorIxEEE8max_sizeEv, symObjAddr: 0x2800, symBinAddr: 0x100003150, symSize: 0x60 }
  - { offsetInCU: 0x15721, offset: 0x15721, size: 0x8, addend: 0x0, symName: __ZNKSt3__16vectorIxNS_9allocatorIxEEE20__throw_length_errorB8ue170006Ev, symObjAddr: 0x2860, symBinAddr: 0x1000031B0, symSize: 0x20 }
  - { offsetInCU: 0x15752, offset: 0x15752, size: 0x8, addend: 0x0, symName: __ZNSt3__116allocator_traitsINS_9allocatorIxEEE8max_sizeB8ue170006IS2_vvEEmRKS2_, symObjAddr: 0x28E0, symBinAddr: 0x100003230, symSize: 0x20 }
  - { offsetInCU: 0x1577D, offset: 0x1577D, size: 0x8, addend: 0x0, symName: __ZNKSt3__16vectorIxNS_9allocatorIxEEE7__allocB8ue170006Ev, symObjAddr: 0x2900, symBinAddr: 0x100003250, symSize: 0x20 }
  - { offsetInCU: 0x157A3, offset: 0x157A3, size: 0x8, addend: 0x0, symName: __ZNSt3__114numeric_limitsIlE3maxB8ue170006Ev, symObjAddr: 0x2920, symBinAddr: 0x100003270, symSize: 0x10 }
  - { offsetInCU: 0x157B7, offset: 0x157B7, size: 0x8, addend: 0x0, symName: __ZNKSt3__16__lessIvvEclB8ue170006ImmEEbRKT_RKT0_, symObjAddr: 0x2980, symBinAddr: 0x1000032D0, symSize: 0x30 }
  - { offsetInCU: 0x1580B, offset: 0x1580B, size: 0x8, addend: 0x0, symName: __ZNSt3__114numeric_limitsImE3maxB8ue170006Ev, symObjAddr: 0x29B0, symBinAddr: 0x100003300, symSize: 0x10 }
  - { offsetInCU: 0x1581F, offset: 0x1581F, size: 0x8, addend: 0x0, symName: __ZNSt3__123__libcpp_numeric_limitsImLb1EE3maxB8ue170006Ev, symObjAddr: 0x29C0, symBinAddr: 0x100003310, symSize: 0x10 }
  - { offsetInCU: 0x15833, offset: 0x15833, size: 0x8, addend: 0x0, symName: __ZNKSt3__117__compressed_pairIPxNS_9allocatorIxEEE6secondB8ue170006Ev, symObjAddr: 0x29D0, symBinAddr: 0x100003320, symSize: 0x20 }
  - { offsetInCU: 0x15859, offset: 0x15859, size: 0x8, addend: 0x0, symName: __ZNKSt3__122__compressed_pair_elemINS_9allocatorIxEELi1ELb1EE5__getB8ue170006Ev, symObjAddr: 0x29F0, symBinAddr: 0x100003340, symSize: 0x10 }
  - { offsetInCU: 0x1587F, offset: 0x1587F, size: 0x8, addend: 0x0, symName: __ZNSt3__123__libcpp_numeric_limitsIlLb1EE3maxB8ue170006Ev, symObjAddr: 0x2A00, symBinAddr: 0x100003350, symSize: 0x10 }
  - { offsetInCU: 0x15893, offset: 0x15893, size: 0x8, addend: 0x0, symName: __ZNSt12length_errorC1B8ue170006EPKc, symObjAddr: 0x2A80, symBinAddr: 0x1000033D0, symSize: 0x30 }
  - { offsetInCU: 0x158CB, offset: 0x158CB, size: 0x8, addend: 0x0, symName: __ZNSt12length_errorC2B8ue170006EPKc, symObjAddr: 0x2AB0, symBinAddr: 0x100003400, symSize: 0x40 }
  - { offsetInCU: 0x15903, offset: 0x15903, size: 0x8, addend: 0x0, symName: __ZNSt3__114__split_bufferIxRNS_9allocatorIxEEEC2EmmS3_, symObjAddr: 0x2B40, symBinAddr: 0x100003490, symSize: 0xD0 }
  - { offsetInCU: 0x1597C, offset: 0x1597C, size: 0x8, addend: 0x0, symName: __ZNSt3__117__compressed_pairIPxRNS_9allocatorIxEEEC1B8ue170006IDnS4_EEOT_OT0_, symObjAddr: 0x2C10, symBinAddr: 0x100003560, symSize: 0x30 }
  - { offsetInCU: 0x159D4, offset: 0x159D4, size: 0x8, addend: 0x0, symName: __ZNSt3__114__split_bufferIxRNS_9allocatorIxEEE7__allocB8ue170006Ev, symObjAddr: 0x2C80, symBinAddr: 0x1000035D0, symSize: 0x20 }
  - { offsetInCU: 0x159FA, offset: 0x159FA, size: 0x8, addend: 0x0, symName: __ZNSt3__114__split_bufferIxRNS_9allocatorIxEEE9__end_capB8ue170006Ev, symObjAddr: 0x2CA0, symBinAddr: 0x1000035F0, symSize: 0x20 }
  - { offsetInCU: 0x15A20, offset: 0x15A20, size: 0x8, addend: 0x0, symName: __ZNSt3__117__compressed_pairIPxRNS_9allocatorIxEEEC2B8ue170006IDnS4_EEOT_OT0_, symObjAddr: 0x2CC0, symBinAddr: 0x100003610, symSize: 0x40 }
  - { offsetInCU: 0x15A78, offset: 0x15A78, size: 0x8, addend: 0x0, symName: __ZNSt3__122__compressed_pair_elemIPxLi0ELb0EEC2B8ue170006IDnvEEOT_, symObjAddr: 0x2D00, symBinAddr: 0x100003650, symSize: 0x20 }
  - { offsetInCU: 0x15ABA, offset: 0x15ABA, size: 0x8, addend: 0x0, symName: __ZNSt3__122__compressed_pair_elemIRNS_9allocatorIxEELi1ELb0EEC2B8ue170006IS3_vEEOT_, symObjAddr: 0x2D20, symBinAddr: 0x100003670, symSize: 0x20 }
  - { offsetInCU: 0x15AFC, offset: 0x15AFC, size: 0x8, addend: 0x0, symName: __ZNSt3__19allocatorIxE8allocateB8ue170006Em, symObjAddr: 0x2D40, symBinAddr: 0x100003690, symSize: 0x50 }
  - { offsetInCU: 0x15B30, offset: 0x15B30, size: 0x8, addend: 0x0, symName: __ZNSt3__117__compressed_pairIPxRNS_9allocatorIxEEE6secondB8ue170006Ev, symObjAddr: 0x2E80, symBinAddr: 0x1000037D0, symSize: 0x20 }
  - { offsetInCU: 0x15B56, offset: 0x15B56, size: 0x8, addend: 0x0, symName: __ZNSt3__122__compressed_pair_elemIRNS_9allocatorIxEELi1ELb0EE5__getB8ue170006Ev, symObjAddr: 0x2EA0, symBinAddr: 0x1000037F0, symSize: 0x20 }
  - { offsetInCU: 0x15B7C, offset: 0x15B7C, size: 0x8, addend: 0x0, symName: __ZNSt3__117__compressed_pairIPxRNS_9allocatorIxEEE5firstB8ue170006Ev, symObjAddr: 0x2EC0, symBinAddr: 0x100003810, symSize: 0x20 }
  - { offsetInCU: 0x15BA2, offset: 0x15BA2, size: 0x8, addend: 0x0, symName: __ZNSt3__116reverse_iteratorIPxEC1B8ue170006ES1_, symObjAddr: 0x2F50, symBinAddr: 0x1000038A0, symSize: 0x30 }
  - { offsetInCU: 0x15BDA, offset: 0x15BDA, size: 0x8, addend: 0x0, symName: __ZNKSt3__116reverse_iteratorIPxE4baseB8ue170006Ev, symObjAddr: 0x2F80, symBinAddr: 0x1000038D0, symSize: 0x20 }
  - { offsetInCU: 0x15C00, offset: 0x15C00, size: 0x8, addend: 0x0, symName: __ZNKSt3__16vectorIxNS_9allocatorIxEEE14__annotate_newB8ue170006Em, symObjAddr: 0x2FE0, symBinAddr: 0x100003930, symSize: 0xB0 }
  - { offsetInCU: 0x15C5B, offset: 0x15C5B, size: 0x8, addend: 0x0, symName: __ZNKSt3__111__move_loopINS_17_ClassicAlgPolicyEEclB8ue170006INS_16reverse_iteratorIPxEES6_S6_EENS_4pairIT_T1_EES8_T0_S9_, symObjAddr: 0x34A0, symBinAddr: 0x100003DF0, symSize: 0xA0 }
  - { offsetInCU: 0x15CC6, offset: 0x15CC6, size: 0x8, addend: 0x0, symName: __ZNSt3__119__unwrap_range_implINS_16reverse_iteratorIPxEES3_E8__unwrapB8ue170006ES3_S3_, symObjAddr: 0x3680, symBinAddr: 0x100003FD0, symSize: 0x90 }
  - { offsetInCU: 0x15CFD, offset: 0x15CFD, size: 0x8, addend: 0x0, symName: __ZNSt3__14pairINS_16reverse_iteratorIPxEES3_EC1B8ue170006IS3_S3_LPv0EEEOT_OT0_, symObjAddr: 0x3710, symBinAddr: 0x100004060, symSize: 0x30 }
  - { offsetInCU: 0x15D5B, offset: 0x15D5B, size: 0x8, addend: 0x0, symName: __ZNSt3__14pairINS_16reverse_iteratorIPxEES3_EC2B8ue170006IS3_S3_LPv0EEEOT_OT0_, symObjAddr: 0x3740, symBinAddr: 0x100004090, symSize: 0x40 }
  - { offsetInCU: 0x15DBF, offset: 0x15DBF, size: 0x8, addend: 0x0, symName: __ZNSt3__18_IterOpsINS_17_ClassicAlgPolicyEE11__iter_moveB8ue170006IRNS_16reverse_iteratorIPxEEEENS_9enable_ifIXsr12is_referenceIDTdeclsr3stdE7declvalIRT_EEEEE5valueEDTclsr3stdE4movedeclsr3stdE7declvalISA_EEEEE4typeEOS9_, symObjAddr: 0x37C0, symBinAddr: 0x100004110, symSize: 0x20 }
  - { offsetInCU: 0x15DEB, offset: 0x15DEB, size: 0x8, addend: 0x0, symName: __ZNKSt3__116reverse_iteratorIPxEdeB8ue170006Ev, symObjAddr: 0x37E0, symBinAddr: 0x100004130, symSize: 0x30 }
  - { offsetInCU: 0x15E1F, offset: 0x15E1F, size: 0x8, addend: 0x0, symName: __ZNSt3__116reverse_iteratorIPxEppB8ue170006Ev, symObjAddr: 0x3810, symBinAddr: 0x100004160, symSize: 0x20 }
  - { offsetInCU: 0x15E45, offset: 0x15E45, size: 0x8, addend: 0x0, symName: __ZNSt3__18_IterOpsINS_17_ClassicAlgPolicyEE25__validate_iter_referenceB8ue170006IRNS_16reverse_iteratorIPxEEEEvv, symObjAddr: 0x3830, symBinAddr: 0x100004180, symSize: 0x10 }
  - { offsetInCU: 0x15E63, offset: 0x15E63, size: 0x8, addend: 0x0, symName: __ZNSt3__118__unwrap_iter_implINS_16reverse_iteratorIPxEELb0EE8__unwrapB8ue170006ES3_, symObjAddr: 0x3840, symBinAddr: 0x100004190, symSize: 0x20 }
  - { offsetInCU: 0x15E86, offset: 0x15E86, size: 0x8, addend: 0x0, symName: __ZNSt3__119__unwrap_range_implINS_16reverse_iteratorIPxEES3_E8__rewrapB8ue170006ES3_S3_, symObjAddr: 0x3860, symBinAddr: 0x1000041B0, symSize: 0x60 }
  - { offsetInCU: 0x15EB7, offset: 0x15EB7, size: 0x8, addend: 0x0, symName: __ZNSt3__118__unwrap_iter_implINS_16reverse_iteratorIPxEELb0EE8__rewrapB8ue170006ES3_S3_, symObjAddr: 0x38C0, symBinAddr: 0x100004210, symSize: 0x30 }
  - { offsetInCU: 0x15EE4, offset: 0x15EE4, size: 0x8, addend: 0x0, symName: __ZNSt3__116reverse_iteratorIPxEC2B8ue170006ES1_, symObjAddr: 0x38F0, symBinAddr: 0x100004240, symSize: 0x30 }
  - { offsetInCU: 0x15F1C, offset: 0x15F1C, size: 0x8, addend: 0x0, symName: __ZNSt3__114__split_bufferIxRNS_9allocatorIxEEED2Ev, symObjAddr: 0x3920, symBinAddr: 0x100004270, symSize: 0x70 }
  - { offsetInCU: 0x15F48, offset: 0x15F48, size: 0x8, addend: 0x0, symName: __ZNSt3__114__split_bufferIxRNS_9allocatorIxEEE5clearB8ue170006Ev, symObjAddr: 0x3990, symBinAddr: 0x1000042E0, symSize: 0x20 }
  - { offsetInCU: 0x15F6E, offset: 0x15F6E, size: 0x8, addend: 0x0, symName: __ZNKSt3__114__split_bufferIxRNS_9allocatorIxEEE8capacityB8ue170006Ev, symObjAddr: 0x39B0, symBinAddr: 0x100004300, symSize: 0x30 }
  - { offsetInCU: 0x15F94, offset: 0x15F94, size: 0x8, addend: 0x0, symName: __ZNSt3__114__split_bufferIxRNS_9allocatorIxEEE17__destruct_at_endB8ue170006EPx, symObjAddr: 0x39E0, symBinAddr: 0x100004330, symSize: 0x30 }
  - { offsetInCU: 0x15FC8, offset: 0x15FC8, size: 0x8, addend: 0x0, symName: __ZNSt3__114__split_bufferIxRNS_9allocatorIxEEE17__destruct_at_endB8ue170006EPxNS_17integral_constantIbLb0EEE, symObjAddr: 0x3A10, symBinAddr: 0x100004360, symSize: 0x80 }
  - { offsetInCU: 0x16008, offset: 0x16008, size: 0x8, addend: 0x0, symName: __ZNKSt3__114__split_bufferIxRNS_9allocatorIxEEE9__end_capB8ue170006Ev, symObjAddr: 0x3A90, symBinAddr: 0x1000043E0, symSize: 0x20 }
  - { offsetInCU: 0x1602E, offset: 0x1602E, size: 0x8, addend: 0x0, symName: __ZNKSt3__117__compressed_pairIPxRNS_9allocatorIxEEE5firstB8ue170006Ev, symObjAddr: 0x3AB0, symBinAddr: 0x100004400, symSize: 0x20 }
  - { offsetInCU: 0x16054, offset: 0x16054, size: 0x8, addend: 0x0, symName: __ZNKSt3__16vectorINS0_IxNS_9allocatorIxEEEENS1_IS3_EEE17__annotate_shrinkB8ue170006Em, symObjAddr: 0x3AD0, symBinAddr: 0x100004420, symSize: 0xA0 }
  - { offsetInCU: 0x16089, offset: 0x16089, size: 0x8, addend: 0x0, symName: __ZNKSt3__16vectorIxNS_9allocatorIxEEE17__annotate_shrinkB8ue170006Em, symObjAddr: 0x3B70, symBinAddr: 0x1000044C0, symSize: 0xA0 }
  - { offsetInCU: 0x160BE, offset: 0x160BE, size: 0x8, addend: 0x0, symName: __ZNSt3__16vectorINS0_IxNS_9allocatorIxEEEENS1_IS3_EEE8__appendEm, symObjAddr: 0x3C10, symBinAddr: 0x100004560, symSize: 0x100 }
  - { offsetInCU: 0x16119, offset: 0x16119, size: 0x8, addend: 0x0, symName: __ZNSt3__16vectorINS0_IxNS_9allocatorIxEEEENS1_IS3_EEE17__destruct_at_endB8ue170006EPS3_, symObjAddr: 0x3D10, symBinAddr: 0x100004660, symSize: 0x50 }
  - { offsetInCU: 0x1615D, offset: 0x1615D, size: 0x8, addend: 0x0, symName: __ZNSt3__16vectorINS0_IxNS_9allocatorIxEEEENS1_IS3_EEE9__end_capB8ue170006Ev, symObjAddr: 0x3D60, symBinAddr: 0x1000046B0, symSize: 0x20 }
  - { offsetInCU: 0x16183, offset: 0x16183, size: 0x8, addend: 0x0, symName: __ZNSt3__16vectorINS0_IxNS_9allocatorIxEEEENS1_IS3_EEE18__construct_at_endEm, symObjAddr: 0x3D80, symBinAddr: 0x1000046D0, symSize: 0xC0 }
  - { offsetInCU: 0x161F5, offset: 0x161F5, size: 0x8, addend: 0x0, symName: __ZNKSt3__16vectorINS0_IxNS_9allocatorIxEEEENS1_IS3_EEE11__recommendB8ue170006Em, symObjAddr: 0x3E40, symBinAddr: 0x100004790, symSize: 0xA0 }
  - { offsetInCU: 0x1624A, offset: 0x1624A, size: 0x8, addend: 0x0, symName: __ZNSt3__114__split_bufferINS_6vectorIxNS_9allocatorIxEEEERNS2_IS4_EEEC1EmmS6_, symObjAddr: 0x3EE0, symBinAddr: 0x100004830, symSize: 0x40 }
  - { offsetInCU: 0x162A0, offset: 0x162A0, size: 0x8, addend: 0x0, symName: __ZNSt3__114__split_bufferINS_6vectorIxNS_9allocatorIxEEEERNS2_IS4_EEE18__construct_at_endEm, symObjAddr: 0x3F20, symBinAddr: 0x100004870, symSize: 0xB0 }
  - { offsetInCU: 0x162E5, offset: 0x162E5, size: 0x8, addend: 0x0, symName: __ZNSt3__114__split_bufferINS_6vectorIxNS_9allocatorIxEEEERNS2_IS4_EEED1Ev, symObjAddr: 0x40F0, symBinAddr: 0x100004A40, symSize: 0x20 }
  - { offsetInCU: 0x16311, offset: 0x16311, size: 0x8, addend: 0x0, symName: __ZNSt3__117__compressed_pairIPNS_6vectorIxNS_9allocatorIxEEEENS2_IS4_EEE5firstB8ue170006Ev, symObjAddr: 0x4110, symBinAddr: 0x100004A60, symSize: 0x20 }
  - { offsetInCU: 0x16337, offset: 0x16337, size: 0x8, addend: 0x0, symName: __ZNSt3__122__compressed_pair_elemIPNS_6vectorIxNS_9allocatorIxEEEELi0ELb0EE5__getB8ue170006Ev, symObjAddr: 0x4130, symBinAddr: 0x100004A80, symSize: 0x10 }
  - { offsetInCU: 0x16378, offset: 0x16378, size: 0x8, addend: 0x0, symName: __ZNSt3__16vectorINS0_IxNS_9allocatorIxEEEENS1_IS3_EEE21_ConstructTransactionC1B8ue170006ERS5_m, symObjAddr: 0x4140, symBinAddr: 0x100004A90, symSize: 0x30 }
  - { offsetInCU: 0x163C0, offset: 0x163C0, size: 0x8, addend: 0x0, symName: __ZNSt3__116allocator_traitsINS_9allocatorINS_6vectorIxNS1_IxEEEEEEE9constructB8ue170006IS4_JEvvEEvRS5_PT_DpOT0_, symObjAddr: 0x4170, symBinAddr: 0x100004AC0, symSize: 0x20 }
  - { offsetInCU: 0x163FF, offset: 0x163FF, size: 0x8, addend: 0x0, symName: __ZNSt3__16vectorINS0_IxNS_9allocatorIxEEEENS1_IS3_EEE21_ConstructTransactionD1B8ue170006Ev, symObjAddr: 0x4190, symBinAddr: 0x100004AE0, symSize: 0x20 }
  - { offsetInCU: 0x16429, offset: 0x16429, size: 0x8, addend: 0x0, symName: __ZNSt3__16vectorINS0_IxNS_9allocatorIxEEEENS1_IS3_EEE21_ConstructTransactionC2B8ue170006ERS5_m, symObjAddr: 0x41B0, symBinAddr: 0x100004B00, symSize: 0x40 }
  - { offsetInCU: 0x16471, offset: 0x16471, size: 0x8, addend: 0x0, symName: __ZNSt3__16vectorIxNS_9allocatorIxEEEC1B8ue170006Ev, symObjAddr: 0x4220, symBinAddr: 0x100004B70, symSize: 0x20 }
  - { offsetInCU: 0x1649B, offset: 0x1649B, size: 0x8, addend: 0x0, symName: __ZNSt3__16vectorIxNS_9allocatorIxEEEC2B8ue170006Ev, symObjAddr: 0x4240, symBinAddr: 0x100004B90, symSize: 0x50 }
  - { offsetInCU: 0x164CB, offset: 0x164CB, size: 0x8, addend: 0x0, symName: __ZNSt3__117__compressed_pairIPxNS_9allocatorIxEEEC1B8ue170006IDnNS_18__default_init_tagEEEOT_OT0_, symObjAddr: 0x4290, symBinAddr: 0x100004BE0, symSize: 0x30 }
  - { offsetInCU: 0x16523, offset: 0x16523, size: 0x8, addend: 0x0, symName: __ZNSt3__117__compressed_pairIPxNS_9allocatorIxEEEC2B8ue170006IDnNS_18__default_init_tagEEEOT_OT0_, symObjAddr: 0x42C0, symBinAddr: 0x100004C10, symSize: 0x40 }
  - { offsetInCU: 0x1657B, offset: 0x1657B, size: 0x8, addend: 0x0, symName: __ZNSt3__122__compressed_pair_elemINS_9allocatorIxEELi1ELb1EEC2B8ue170006ENS_18__default_init_tagE, symObjAddr: 0x4300, symBinAddr: 0x100004C50, symSize: 0x20 }
  - { offsetInCU: 0x165AF, offset: 0x165AF, size: 0x8, addend: 0x0, symName: __ZNSt3__19allocatorIxEC2B8ue170006Ev, symObjAddr: 0x4320, symBinAddr: 0x100004C70, symSize: 0x20 }
  - { offsetInCU: 0x165D9, offset: 0x165D9, size: 0x8, addend: 0x0, symName: __ZNSt3__116__non_trivial_ifILb1ENS_9allocatorIxEEEC2B8ue170006Ev, symObjAddr: 0x4340, symBinAddr: 0x100004C90, symSize: 0x10 }
  - { offsetInCU: 0x16603, offset: 0x16603, size: 0x8, addend: 0x0, symName: __ZNSt3__16vectorINS0_IxNS_9allocatorIxEEEENS1_IS3_EEE21_ConstructTransactionD2B8ue170006Ev, symObjAddr: 0x4350, symBinAddr: 0x100004CA0, symSize: 0x20 }
  - { offsetInCU: 0x1662D, offset: 0x1662D, size: 0x8, addend: 0x0, symName: __ZNKSt3__16vectorINS0_IxNS_9allocatorIxEEEENS1_IS3_EEE8max_sizeEv, symObjAddr: 0x4370, symBinAddr: 0x100004CC0, symSize: 0x60 }
  - { offsetInCU: 0x16655, offset: 0x16655, size: 0x8, addend: 0x0, symName: __ZNKSt3__16vectorINS0_IxNS_9allocatorIxEEEENS1_IS3_EEE20__throw_length_errorB8ue170006Ev, symObjAddr: 0x43D0, symBinAddr: 0x100004D20, symSize: 0x20 }
  - { offsetInCU: 0x16686, offset: 0x16686, size: 0x8, addend: 0x0, symName: __ZNSt3__116allocator_traitsINS_9allocatorINS_6vectorIxNS1_IxEEEEEEE8max_sizeB8ue170006IS5_vvEEmRKS5_, symObjAddr: 0x43F0, symBinAddr: 0x100004D40, symSize: 0x30 }
  - { offsetInCU: 0x166B1, offset: 0x166B1, size: 0x8, addend: 0x0, symName: __ZNKSt3__16vectorINS0_IxNS_9allocatorIxEEEENS1_IS3_EEE7__allocB8ue170006Ev, symObjAddr: 0x4420, symBinAddr: 0x100004D70, symSize: 0x20 }
  - { offsetInCU: 0x166D7, offset: 0x166D7, size: 0x8, addend: 0x0, symName: __ZNKSt3__117__compressed_pairIPNS_6vectorIxNS_9allocatorIxEEEENS2_IS4_EEE6secondB8ue170006Ev, symObjAddr: 0x4440, symBinAddr: 0x100004D90, symSize: 0x20 }
  - { offsetInCU: 0x166FD, offset: 0x166FD, size: 0x8, addend: 0x0, symName: __ZNKSt3__122__compressed_pair_elemINS_9allocatorINS_6vectorIxNS1_IxEEEEEELi1ELb1EE5__getB8ue170006Ev, symObjAddr: 0x4460, symBinAddr: 0x100004DB0, symSize: 0x10 }
  - { offsetInCU: 0x16723, offset: 0x16723, size: 0x8, addend: 0x0, symName: __ZNSt3__114__split_bufferINS_6vectorIxNS_9allocatorIxEEEERNS2_IS4_EEEC2EmmS6_, symObjAddr: 0x4470, symBinAddr: 0x100004DC0, symSize: 0xC0 }
  - { offsetInCU: 0x16796, offset: 0x16796, size: 0x8, addend: 0x0, symName: __ZNSt3__117__compressed_pairIPNS_6vectorIxNS_9allocatorIxEEEERNS2_IS4_EEEC1B8ue170006IDnS7_EEOT_OT0_, symObjAddr: 0x4530, symBinAddr: 0x100004E80, symSize: 0x30 }
  - { offsetInCU: 0x167EE, offset: 0x167EE, size: 0x8, addend: 0x0, symName: __ZNSt3__114__split_bufferINS_6vectorIxNS_9allocatorIxEEEERNS2_IS4_EEE7__allocB8ue170006Ev, symObjAddr: 0x45A0, symBinAddr: 0x100004EF0, symSize: 0x20 }
  - { offsetInCU: 0x16814, offset: 0x16814, size: 0x8, addend: 0x0, symName: __ZNSt3__114__split_bufferINS_6vectorIxNS_9allocatorIxEEEERNS2_IS4_EEE9__end_capB8ue170006Ev, symObjAddr: 0x45C0, symBinAddr: 0x100004F10, symSize: 0x20 }
  - { offsetInCU: 0x1683A, offset: 0x1683A, size: 0x8, addend: 0x0, symName: __ZNSt3__117__compressed_pairIPNS_6vectorIxNS_9allocatorIxEEEERNS2_IS4_EEEC2B8ue170006IDnS7_EEOT_OT0_, symObjAddr: 0x45E0, symBinAddr: 0x100004F30, symSize: 0x40 }
  - { offsetInCU: 0x16892, offset: 0x16892, size: 0x8, addend: 0x0, symName: __ZNSt3__122__compressed_pair_elemIPNS_6vectorIxNS_9allocatorIxEEEELi0ELb0EEC2B8ue170006IDnvEEOT_, symObjAddr: 0x4620, symBinAddr: 0x100004F70, symSize: 0x20 }
  - { offsetInCU: 0x168D4, offset: 0x168D4, size: 0x8, addend: 0x0, symName: __ZNSt3__122__compressed_pair_elemIRNS_9allocatorINS_6vectorIxNS1_IxEEEEEELi1ELb0EEC2B8ue170006IS6_vEEOT_, symObjAddr: 0x4640, symBinAddr: 0x100004F90, symSize: 0x20 }
  - { offsetInCU: 0x16916, offset: 0x16916, size: 0x8, addend: 0x0, symName: __ZNSt3__19allocatorINS_6vectorIxNS0_IxEEEEE8allocateB8ue170006Em, symObjAddr: 0x4660, symBinAddr: 0x100004FB0, symSize: 0x50 }
  - { offsetInCU: 0x1694A, offset: 0x1694A, size: 0x8, addend: 0x0, symName: __ZNSt3__117__compressed_pairIPNS_6vectorIxNS_9allocatorIxEEEERNS2_IS4_EEE6secondB8ue170006Ev, symObjAddr: 0x46B0, symBinAddr: 0x100005000, symSize: 0x20 }
  - { offsetInCU: 0x16970, offset: 0x16970, size: 0x8, addend: 0x0, symName: __ZNSt3__122__compressed_pair_elemIRNS_9allocatorINS_6vectorIxNS1_IxEEEEEELi1ELb0EE5__getB8ue170006Ev, symObjAddr: 0x46D0, symBinAddr: 0x100005020, symSize: 0x20 }
  - { offsetInCU: 0x16996, offset: 0x16996, size: 0x8, addend: 0x0, symName: __ZNSt3__117__compressed_pairIPNS_6vectorIxNS_9allocatorIxEEEERNS2_IS4_EEE5firstB8ue170006Ev, symObjAddr: 0x46F0, symBinAddr: 0x100005040, symSize: 0x20 }
  - { offsetInCU: 0x169C6, offset: 0x169C6, size: 0x8, addend: 0x0, symName: __ZNSt3__114__split_bufferINS_6vectorIxNS_9allocatorIxEEEERNS2_IS4_EEE21_ConstructTransactionC1B8ue170006EPPS4_m, symObjAddr: 0x4710, symBinAddr: 0x100005060, symSize: 0x30 }
  - { offsetInCU: 0x16A0C, offset: 0x16A0C, size: 0x8, addend: 0x0, symName: __ZNSt3__114__split_bufferINS_6vectorIxNS_9allocatorIxEEEERNS2_IS4_EEE21_ConstructTransactionD1B8ue170006Ev, symObjAddr: 0x4740, symBinAddr: 0x100005090, symSize: 0x20 }
  - { offsetInCU: 0x16A36, offset: 0x16A36, size: 0x8, addend: 0x0, symName: __ZNSt3__114__split_bufferINS_6vectorIxNS_9allocatorIxEEEERNS2_IS4_EEE21_ConstructTransactionC2B8ue170006EPPS4_m, symObjAddr: 0x4760, symBinAddr: 0x1000050B0, symSize: 0x40 }
  - { offsetInCU: 0x16A7C, offset: 0x16A7C, size: 0x8, addend: 0x0, symName: __ZNSt3__114__split_bufferINS_6vectorIxNS_9allocatorIxEEEERNS2_IS4_EEE21_ConstructTransactionD2B8ue170006Ev, symObjAddr: 0x47A0, symBinAddr: 0x1000050F0, symSize: 0x20 }
  - { offsetInCU: 0x16AA6, offset: 0x16AA6, size: 0x8, addend: 0x0, symName: __ZNSt3__116reverse_iteratorIPNS_6vectorIxNS_9allocatorIxEEEEEC1B8ue170006ES5_, symObjAddr: 0x4940, symBinAddr: 0x100005290, symSize: 0x30 }
  - { offsetInCU: 0x16ADE, offset: 0x16ADE, size: 0x8, addend: 0x0, symName: __ZNKSt3__116reverse_iteratorIPNS_6vectorIxNS_9allocatorIxEEEEE4baseB8ue170006Ev, symObjAddr: 0x4970, symBinAddr: 0x1000052C0, symSize: 0x20 }
  - { offsetInCU: 0x16B04, offset: 0x16B04, size: 0x8, addend: 0x0, symName: __ZNKSt3__16vectorINS0_IxNS_9allocatorIxEEEENS1_IS3_EEE14__annotate_newB8ue170006Em, symObjAddr: 0x49D0, symBinAddr: 0x100005320, symSize: 0xA0 }
  - { offsetInCU: 0x16B39, offset: 0x16B39, size: 0x8, addend: 0x0, symName: __ZNSt3__129_AllocatorDestroyRangeReverseINS_9allocatorINS_6vectorIxNS1_IxEEEEEENS_16reverse_iteratorIPS4_EEEC1B8ue170006ERS5_RS8_SB_, symObjAddr: 0x4AD0, symBinAddr: 0x100005420, symSize: 0x40 }
  - { offsetInCU: 0x16B90, offset: 0x16B90, size: 0x8, addend: 0x0, symName: __ZNSt3__116allocator_traitsINS_9allocatorINS_6vectorIxNS1_IxEEEEEEE9constructB8ue170006IS4_JS4_EvvEEvRS5_PT_DpOT0_, symObjAddr: 0x4B50, symBinAddr: 0x1000054A0, symSize: 0x30 }
  - { offsetInCU: 0x16BE4, offset: 0x16BE4, size: 0x8, addend: 0x0, symName: __ZNKSt3__116reverse_iteratorIPNS_6vectorIxNS_9allocatorIxEEEEEdeB8ue170006Ev, symObjAddr: 0x4BA0, symBinAddr: 0x1000054F0, symSize: 0x30 }
  - { offsetInCU: 0x16C18, offset: 0x16C18, size: 0x8, addend: 0x0, symName: __ZNSt3__116reverse_iteratorIPNS_6vectorIxNS_9allocatorIxEEEEEppB8ue170006Ev, symObjAddr: 0x4BD0, symBinAddr: 0x100005520, symSize: 0x20 }
  - { offsetInCU: 0x16C3E, offset: 0x16C3E, size: 0x8, addend: 0x0, symName: __ZNSt3__128__exception_guard_exceptionsINS_29_AllocatorDestroyRangeReverseINS_9allocatorINS_6vectorIxNS2_IxEEEEEENS_16reverse_iteratorIPS5_EEEEE10__completeB8ue170006Ev, symObjAddr: 0x4BF0, symBinAddr: 0x100005540, symSize: 0x20 }
  - { offsetInCU: 0x16C64, offset: 0x16C64, size: 0x8, addend: 0x0, symName: __ZNSt3__128__exception_guard_exceptionsINS_29_AllocatorDestroyRangeReverseINS_9allocatorINS_6vectorIxNS2_IxEEEEEENS_16reverse_iteratorIPS5_EEEEED1B8ue170006Ev, symObjAddr: 0x4C10, symBinAddr: 0x100005560, symSize: 0x20 }
  - { offsetInCU: 0x16C8E, offset: 0x16C8E, size: 0x8, addend: 0x0, symName: __ZNSt3__128__exception_guard_exceptionsINS_29_AllocatorDestroyRangeReverseINS_9allocatorINS_6vectorIxNS2_IxEEEEEENS_16reverse_iteratorIPS5_EEEEEC1B8ue170006ESA_, symObjAddr: 0x4C30, symBinAddr: 0x100005580, symSize: 0x40 }
  - { offsetInCU: 0x16CC6, offset: 0x16CC6, size: 0x8, addend: 0x0, symName: __ZNSt3__128__exception_guard_exceptionsINS_29_AllocatorDestroyRangeReverseINS_9allocatorINS_6vectorIxNS2_IxEEEEEENS_16reverse_iteratorIPS5_EEEEEC2B8ue170006ESA_, symObjAddr: 0x4C70, symBinAddr: 0x1000055C0, symSize: 0x30 }
  - { offsetInCU: 0x16CFE, offset: 0x16CFE, size: 0x8, addend: 0x0, symName: __ZNSt3__129_AllocatorDestroyRangeReverseINS_9allocatorINS_6vectorIxNS1_IxEEEEEENS_16reverse_iteratorIPS4_EEEC2B8ue170006ERS5_RS8_SB_, symObjAddr: 0x4CA0, symBinAddr: 0x1000055F0, symSize: 0x40 }
  - { offsetInCU: 0x16D55, offset: 0x16D55, size: 0x8, addend: 0x0, symName: __ZNSt3__16vectorIxNS_9allocatorIxEEEC1B8ue170006EOS3_, symObjAddr: 0x4D20, symBinAddr: 0x100005670, symSize: 0x30 }
  - { offsetInCU: 0x16D90, offset: 0x16D90, size: 0x8, addend: 0x0, symName: __ZNSt3__16vectorIxNS_9allocatorIxEEEC2B8ue170006EOS3_, symObjAddr: 0x4D50, symBinAddr: 0x1000056A0, symSize: 0xD0 }
  - { offsetInCU: 0x16DD1, offset: 0x16DD1, size: 0x8, addend: 0x0, symName: __ZNSt3__117__compressed_pairIPxNS_9allocatorIxEEEC1B8ue170006IDnS3_EEOT_OT0_, symObjAddr: 0x4E20, symBinAddr: 0x100005770, symSize: 0x30 }
  - { offsetInCU: 0x16E29, offset: 0x16E29, size: 0x8, addend: 0x0, symName: __ZNSt3__117__compressed_pairIPxNS_9allocatorIxEEEC2B8ue170006IDnS3_EEOT_OT0_, symObjAddr: 0x4E50, symBinAddr: 0x1000057A0, symSize: 0x40 }
  - { offsetInCU: 0x16E81, offset: 0x16E81, size: 0x8, addend: 0x0, symName: __ZNSt3__122__compressed_pair_elemINS_9allocatorIxEELi1ELb1EEC2B8ue170006IS2_vEEOT_, symObjAddr: 0x4E90, symBinAddr: 0x1000057E0, symSize: 0x10 }
  - { offsetInCU: 0x16EC8, offset: 0x16EC8, size: 0x8, addend: 0x0, symName: __ZNSt3__119__to_address_helperINS_16reverse_iteratorIPNS_6vectorIxNS_9allocatorIxEEEEEEvE6__callB8ue170006ERKS7_, symObjAddr: 0x4EA0, symBinAddr: 0x1000057F0, symSize: 0x40 }
  - { offsetInCU: 0x16EEB, offset: 0x16EEB, size: 0x8, addend: 0x0, symName: __ZNKSt3__116reverse_iteratorIPNS_6vectorIxNS_9allocatorIxEEEEEptB8ue170006Ev, symObjAddr: 0x4EE0, symBinAddr: 0x100005830, symSize: 0x30 }
  - { offsetInCU: 0x16F11, offset: 0x16F11, size: 0x8, addend: 0x0, symName: __ZNSt3__128__exception_guard_exceptionsINS_29_AllocatorDestroyRangeReverseINS_9allocatorINS_6vectorIxNS2_IxEEEEEENS_16reverse_iteratorIPS5_EEEEED2B8ue170006Ev, symObjAddr: 0x4FA0, symBinAddr: 0x1000058F0, symSize: 0x40 }
  - { offsetInCU: 0x16F3B, offset: 0x16F3B, size: 0x8, addend: 0x0, symName: __ZNKSt3__129_AllocatorDestroyRangeReverseINS_9allocatorINS_6vectorIxNS1_IxEEEEEENS_16reverse_iteratorIPS4_EEEclB8ue170006Ev, symObjAddr: 0x4FE0, symBinAddr: 0x100005930, symSize: 0xF0 }
  - { offsetInCU: 0x16F62, offset: 0x16F62, size: 0x8, addend: 0x0, symName: __ZNSt3__116reverse_iteratorINS0_IPNS_6vectorIxNS_9allocatorIxEEEEEEEC1B8ue170006ES6_, symObjAddr: 0x5140, symBinAddr: 0x100005A90, symSize: 0x30 }
  - { offsetInCU: 0x16F9A, offset: 0x16F9A, size: 0x8, addend: 0x0, symName: __ZNSt3__116reverse_iteratorINS0_IPNS_6vectorIxNS_9allocatorIxEEEEEEEppB8ue170006Ev, symObjAddr: 0x51E0, symBinAddr: 0x100005B30, symSize: 0x30 }
  - { offsetInCU: 0x16FC0, offset: 0x16FC0, size: 0x8, addend: 0x0, symName: __ZNKSt3__116reverse_iteratorINS0_IPNS_6vectorIxNS_9allocatorIxEEEEEEE4baseB8ue170006Ev, symObjAddr: 0x5210, symBinAddr: 0x100005B60, symSize: 0x20 }
  - { offsetInCU: 0x16FEB, offset: 0x16FEB, size: 0x8, addend: 0x0, symName: __ZNSt3__119__to_address_helperINS_16reverse_iteratorINS1_IPNS_6vectorIxNS_9allocatorIxEEEEEEEEvE6__callB8ue170006ERKS8_, symObjAddr: 0x5230, symBinAddr: 0x100005B80, symSize: 0x40 }
  - { offsetInCU: 0x1700E, offset: 0x1700E, size: 0x8, addend: 0x0, symName: __ZNKSt3__116reverse_iteratorINS0_IPNS_6vectorIxNS_9allocatorIxEEEEEEEptB8ue170006Ev, symObjAddr: 0x5270, symBinAddr: 0x100005BC0, symSize: 0x50 }
  - { offsetInCU: 0x17034, offset: 0x17034, size: 0x8, addend: 0x0, symName: __ZNSt3__116reverse_iteratorIPNS_6vectorIxNS_9allocatorIxEEEEEpLB8ue170006El, symObjAddr: 0x5360, symBinAddr: 0x100005CB0, symSize: 0x30 }
  - { offsetInCU: 0x17068, offset: 0x17068, size: 0x8, addend: 0x0, symName: __ZNSt3__116reverse_iteratorIPNS_6vectorIxNS_9allocatorIxEEEEEmmB8ue170006Ev, symObjAddr: 0x5390, symBinAddr: 0x100005CE0, symSize: 0x20 }
  - { offsetInCU: 0x1708E, offset: 0x1708E, size: 0x8, addend: 0x0, symName: __ZNSt3__116reverse_iteratorINS0_IPNS_6vectorIxNS_9allocatorIxEEEEEEEC2B8ue170006ES6_, symObjAddr: 0x53B0, symBinAddr: 0x100005D00, symSize: 0x40 }
  - { offsetInCU: 0x170C6, offset: 0x170C6, size: 0x8, addend: 0x0, symName: __ZNSt3__116reverse_iteratorIPNS_6vectorIxNS_9allocatorIxEEEEEC2B8ue170006ES5_, symObjAddr: 0x53F0, symBinAddr: 0x100005D40, symSize: 0x30 }
  - { offsetInCU: 0x170FE, offset: 0x170FE, size: 0x8, addend: 0x0, symName: __ZNSt3__114__split_bufferINS_6vectorIxNS_9allocatorIxEEEERNS2_IS4_EEED2Ev, symObjAddr: 0x5420, symBinAddr: 0x100005D70, symSize: 0x70 }
  - { offsetInCU: 0x1712A, offset: 0x1712A, size: 0x8, addend: 0x0, symName: __ZNSt3__114__split_bufferINS_6vectorIxNS_9allocatorIxEEEERNS2_IS4_EEE5clearB8ue170006Ev, symObjAddr: 0x5490, symBinAddr: 0x100005DE0, symSize: 0x20 }
  - { offsetInCU: 0x17150, offset: 0x17150, size: 0x8, addend: 0x0, symName: __ZNKSt3__114__split_bufferINS_6vectorIxNS_9allocatorIxEEEERNS2_IS4_EEE8capacityB8ue170006Ev, symObjAddr: 0x54B0, symBinAddr: 0x100005E00, symSize: 0x40 }
  - { offsetInCU: 0x17176, offset: 0x17176, size: 0x8, addend: 0x0, symName: __ZNSt3__114__split_bufferINS_6vectorIxNS_9allocatorIxEEEERNS2_IS4_EEE17__destruct_at_endB8ue170006EPS4_, symObjAddr: 0x54F0, symBinAddr: 0x100005E40, symSize: 0x30 }
  - { offsetInCU: 0x171AA, offset: 0x171AA, size: 0x8, addend: 0x0, symName: __ZNSt3__114__split_bufferINS_6vectorIxNS_9allocatorIxEEEERNS2_IS4_EEE17__destruct_at_endB8ue170006EPS4_NS_17integral_constantIbLb0EEE, symObjAddr: 0x5520, symBinAddr: 0x100005E70, symSize: 0x80 }
  - { offsetInCU: 0x171EA, offset: 0x171EA, size: 0x8, addend: 0x0, symName: __ZNKSt3__114__split_bufferINS_6vectorIxNS_9allocatorIxEEEERNS2_IS4_EEE9__end_capB8ue170006Ev, symObjAddr: 0x55A0, symBinAddr: 0x100005EF0, symSize: 0x20 }
  - { offsetInCU: 0x17210, offset: 0x17210, size: 0x8, addend: 0x0, symName: __ZNKSt3__117__compressed_pairIPNS_6vectorIxNS_9allocatorIxEEEERNS2_IS4_EEE5firstB8ue170006Ev, symObjAddr: 0x55C0, symBinAddr: 0x100005F10, symSize: 0x20 }
  - { offsetInCU: 0x17236, offset: 0x17236, size: 0x8, addend: 0x0, symName: __ZNKSt3__16vectorIbNS_9allocatorIbEEE4sizeB8ue170006Ev, symObjAddr: 0x55E0, symBinAddr: 0x100005F30, symSize: 0x20 }
  - { offsetInCU: 0x1725C, offset: 0x1725C, size: 0x8, addend: 0x0, symName: __ZNSt3__114__bit_iteratorINS_6vectorIbNS_9allocatorIbEEEELb0ELm0EEC1B8ue170006Ev, symObjAddr: 0x5600, symBinAddr: 0x100005F50, symSize: 0x20 }
  - { offsetInCU: 0x17286, offset: 0x17286, size: 0x8, addend: 0x0, symName: __ZNKSt3__16vectorIbNS_9allocatorIbEEE8capacityB8ue170006Ev, symObjAddr: 0x5620, symBinAddr: 0x100005F70, symSize: 0x30 }
  - { offsetInCU: 0x172AC, offset: 0x172AC, size: 0x8, addend: 0x0, symName: __ZNSt3__16vectorIbNS_9allocatorIbEEE3endB8ue170006Ev, symObjAddr: 0x5650, symBinAddr: 0x100005FA0, symSize: 0x30 }
  - { offsetInCU: 0x172D2, offset: 0x172D2, size: 0x8, addend: 0x0, symName: __ZNSt3__114__bit_iteratorINS_6vectorIbNS_9allocatorIbEEEELb0ELm0EEaSB8ue170006ERKS5_, symObjAddr: 0x5680, symBinAddr: 0x100005FD0, symSize: 0x30 }
  - { offsetInCU: 0x17307, offset: 0x17307, size: 0x8, addend: 0x0, symName: __ZNKSt3__16vectorIbNS_9allocatorIbEEE13get_allocatorB8ue170006Ev, symObjAddr: 0x56B0, symBinAddr: 0x100006000, symSize: 0x30 }
  - { offsetInCU: 0x1732D, offset: 0x1732D, size: 0x8, addend: 0x0, symName: __ZNSt3__16vectorIbNS_9allocatorIbEEEC1B8ue170006ERKS2_, symObjAddr: 0x56E0, symBinAddr: 0x100006030, symSize: 0x30 }
  - { offsetInCU: 0x17368, offset: 0x17368, size: 0x8, addend: 0x0, symName: __ZNSt3__16vectorIbNS_9allocatorIbEEE7reserveEm, symObjAddr: 0x5710, symBinAddr: 0x100006060, symSize: 0x130 }
  - { offsetInCU: 0x173B4, offset: 0x173B4, size: 0x8, addend: 0x0, symName: __ZNKSt3__16vectorIbNS_9allocatorIbEEE11__recommendB8ue170006Em, symObjAddr: 0x5840, symBinAddr: 0x100006190, symSize: 0xA0 }
  - { offsetInCU: 0x17409, offset: 0x17409, size: 0x8, addend: 0x0, symName: __ZNKSt3__16vectorIbNS_9allocatorIbEEE6cbeginB8ue170006Ev, symObjAddr: 0x59E0, symBinAddr: 0x100006330, symSize: 0x30 }
  - { offsetInCU: 0x1742F, offset: 0x1742F, size: 0x8, addend: 0x0, symName: __ZNKSt3__16vectorIbNS_9allocatorIbEEE4cendB8ue170006Ev, symObjAddr: 0x5A10, symBinAddr: 0x100006360, symSize: 0x30 }
  - { offsetInCU: 0x17455, offset: 0x17455, size: 0x8, addend: 0x0, symName: __ZNSt3__16vectorIbNS_9allocatorIbEEE5beginB8ue170006Ev, symObjAddr: 0x5A40, symBinAddr: 0x100006390, symSize: 0x30 }
  - { offsetInCU: 0x1747B, offset: 0x1747B, size: 0x8, addend: 0x0, symName: __ZNSt3__16vectorIbNS_9allocatorIbEEE4swapERS3_, symObjAddr: 0x5A70, symBinAddr: 0x1000063C0, symSize: 0x80 }
  - { offsetInCU: 0x174B2, offset: 0x174B2, size: 0x8, addend: 0x0, symName: __ZNSt3__114__bit_iteratorINS_6vectorIbNS_9allocatorIbEEEELb0ELm0EEC1B8ue170006ERKS5_, symObjAddr: 0x5B70, symBinAddr: 0x1000064C0, symSize: 0x30 }
  - { offsetInCU: 0x174EB, offset: 0x174EB, size: 0x8, addend: 0x0, symName: __ZNSt3__114__bit_iteratorINS_6vectorIbNS_9allocatorIbEEEELb0ELm0EEC2B8ue170006Ev, symObjAddr: 0x5BA0, symBinAddr: 0x1000064F0, symSize: 0x20 }
  - { offsetInCU: 0x17515, offset: 0x17515, size: 0x8, addend: 0x0, symName: __ZNSt3__16vectorIbNS_9allocatorIbEEE26__internal_cap_to_externalB8ue170006Em, symObjAddr: 0x5BC0, symBinAddr: 0x100006510, symSize: 0x20 }
  - { offsetInCU: 0x17539, offset: 0x17539, size: 0x8, addend: 0x0, symName: __ZNKSt3__16vectorIbNS_9allocatorIbEEE5__capB8ue170006Ev, symObjAddr: 0x5BE0, symBinAddr: 0x100006530, symSize: 0x20 }
  - { offsetInCU: 0x1755F, offset: 0x1755F, size: 0x8, addend: 0x0, symName: __ZNKSt3__117__compressed_pairImNS_9allocatorImEEE5firstB8ue170006Ev, symObjAddr: 0x5C00, symBinAddr: 0x100006550, symSize: 0x20 }
  - { offsetInCU: 0x17585, offset: 0x17585, size: 0x8, addend: 0x0, symName: __ZNKSt3__122__compressed_pair_elemImLi0ELb0EE5__getB8ue170006Ev, symObjAddr: 0x5C20, symBinAddr: 0x100006570, symSize: 0x10 }
  - { offsetInCU: 0x175AB, offset: 0x175AB, size: 0x8, addend: 0x0, symName: __ZNSt3__16vectorIbNS_9allocatorIbEEE11__make_iterB8ue170006Em, symObjAddr: 0x5C30, symBinAddr: 0x100006580, symSize: 0x50 }
  - { offsetInCU: 0x175E0, offset: 0x175E0, size: 0x8, addend: 0x0, symName: __ZNSt3__114__bit_iteratorINS_6vectorIbNS_9allocatorIbEEEELb0ELm0EEC1B8ue170006EPmj, symObjAddr: 0x5C80, symBinAddr: 0x1000065D0, symSize: 0x30 }
  - { offsetInCU: 0x17628, offset: 0x17628, size: 0x8, addend: 0x0, symName: __ZNSt3__114__bit_iteratorINS_6vectorIbNS_9allocatorIbEEEELb0ELm0EEC2B8ue170006EPmj, symObjAddr: 0x5CB0, symBinAddr: 0x100006600, symSize: 0x30 }
  - { offsetInCU: 0x17670, offset: 0x17670, size: 0x8, addend: 0x0, symName: __ZNKSt3__16vectorIbNS_9allocatorIbEEE7__allocB8ue170006Ev, symObjAddr: 0x5CE0, symBinAddr: 0x100006630, symSize: 0x20 }
  - { offsetInCU: 0x17696, offset: 0x17696, size: 0x8, addend: 0x0, symName: __ZNSt3__19allocatorIbEC1B8ue170006ImEERKNS0_IT_EE, symObjAddr: 0x5D00, symBinAddr: 0x100006650, symSize: 0x30 }
  - { offsetInCU: 0x176D3, offset: 0x176D3, size: 0x8, addend: 0x0, symName: __ZNKSt3__117__compressed_pairImNS_9allocatorImEEE6secondB8ue170006Ev, symObjAddr: 0x5D30, symBinAddr: 0x100006680, symSize: 0x20 }
  - { offsetInCU: 0x176F9, offset: 0x176F9, size: 0x8, addend: 0x0, symName: __ZNKSt3__122__compressed_pair_elemINS_9allocatorImEELi1ELb1EE5__getB8ue170006Ev, symObjAddr: 0x5D50, symBinAddr: 0x1000066A0, symSize: 0x10 }
  - { offsetInCU: 0x1771F, offset: 0x1771F, size: 0x8, addend: 0x0, symName: __ZNSt3__19allocatorIbEC2B8ue170006ImEERKNS0_IT_EE, symObjAddr: 0x5D60, symBinAddr: 0x1000066B0, symSize: 0x20 }
  - { offsetInCU: 0x1775C, offset: 0x1775C, size: 0x8, addend: 0x0, symName: __ZNSt3__116__non_trivial_ifILb1ENS_9allocatorIbEEEC2B8ue170006Ev, symObjAddr: 0x5D80, symBinAddr: 0x1000066D0, symSize: 0x10 }
  - { offsetInCU: 0x17786, offset: 0x17786, size: 0x8, addend: 0x0, symName: __ZNSt3__16vectorIbNS_9allocatorIbEEEC2B8ue170006ERKS2_, symObjAddr: 0x5D90, symBinAddr: 0x1000066E0, symSize: 0x70 }
  - { offsetInCU: 0x177CC, offset: 0x177CC, size: 0x8, addend: 0x0, symName: __ZNSt3__19allocatorImEC1B8ue170006IbEERKNS0_IT_EE, symObjAddr: 0x5E00, symBinAddr: 0x100006750, symSize: 0x30 }
  - { offsetInCU: 0x17815, offset: 0x17815, size: 0x8, addend: 0x0, symName: __ZNSt3__117__compressed_pairImNS_9allocatorImEEEC1B8ue170006IiS2_EEOT_OT0_, symObjAddr: 0x5E30, symBinAddr: 0x100006780, symSize: 0x30 }
  - { offsetInCU: 0x1786D, offset: 0x1786D, size: 0x8, addend: 0x0, symName: __ZNSt3__19allocatorImEC2B8ue170006IbEERKNS0_IT_EE, symObjAddr: 0x5E60, symBinAddr: 0x1000067B0, symSize: 0x20 }
  - { offsetInCU: 0x178AA, offset: 0x178AA, size: 0x8, addend: 0x0, symName: __ZNSt3__116__non_trivial_ifILb1ENS_9allocatorImEEEC2B8ue170006Ev, symObjAddr: 0x5E80, symBinAddr: 0x1000067D0, symSize: 0x10 }
  - { offsetInCU: 0x178D4, offset: 0x178D4, size: 0x8, addend: 0x0, symName: __ZNSt3__117__compressed_pairImNS_9allocatorImEEEC2B8ue170006IiS2_EEOT_OT0_, symObjAddr: 0x5E90, symBinAddr: 0x1000067E0, symSize: 0x40 }
  - { offsetInCU: 0x1792C, offset: 0x1792C, size: 0x8, addend: 0x0, symName: __ZNSt3__122__compressed_pair_elemImLi0ELb0EEC2B8ue170006IivEEOT_, symObjAddr: 0x5ED0, symBinAddr: 0x100006820, symSize: 0x20 }
  - { offsetInCU: 0x1796E, offset: 0x1796E, size: 0x8, addend: 0x0, symName: __ZNSt3__122__compressed_pair_elemINS_9allocatorImEELi1ELb1EEC2B8ue170006IS2_vEEOT_, symObjAddr: 0x5EF0, symBinAddr: 0x100006840, symSize: 0x10 }
  - { offsetInCU: 0x179B0, offset: 0x179B0, size: 0x8, addend: 0x0, symName: __ZNKSt3__16vectorIbNS_9allocatorIbEEE8max_sizeEv, symObjAddr: 0x5F00, symBinAddr: 0x100006850, symSize: 0x70 }
  - { offsetInCU: 0x179F6, offset: 0x179F6, size: 0x8, addend: 0x0, symName: __ZNKSt3__16vectorIbNS_9allocatorIbEEE20__throw_length_errorB8ue170006Ev, symObjAddr: 0x5F70, symBinAddr: 0x1000068C0, symSize: 0x20 }
  - { offsetInCU: 0x17A1C, offset: 0x17A1C, size: 0x8, addend: 0x0, symName: __ZNSt3__16vectorIbNS_9allocatorIbEEE11__vallocateB8ue170006Em, symObjAddr: 0x5F90, symBinAddr: 0x1000068E0, symSize: 0xA0 }
  - { offsetInCU: 0x17A60, offset: 0x17A60, size: 0x8, addend: 0x0, symName: __ZNSt3__16vectorIbNS_9allocatorIbEEE18__construct_at_endINS_14__bit_iteratorIS3_Lb0ELm0EEES6_EEvT_T0_m, symObjAddr: 0x6030, symBinAddr: 0x100006980, symSize: 0x110 }
  - { offsetInCU: 0x17AE3, offset: 0x17AE3, size: 0x8, addend: 0x0, symName: __ZNSt3__116allocator_traitsINS_9allocatorImEEE8max_sizeB8ue170006IS2_vvEEmRKS2_, symObjAddr: 0x6140, symBinAddr: 0x100006A90, symSize: 0x20 }
  - { offsetInCU: 0x17B0E, offset: 0x17B0E, size: 0x8, addend: 0x0, symName: __ZNSt3__16vectorIbNS_9allocatorIbEEE26__external_cap_to_internalB8ue170006Em, symObjAddr: 0x61A0, symBinAddr: 0x100006AF0, symSize: 0x20 }
  - { offsetInCU: 0x17B32, offset: 0x17B32, size: 0x8, addend: 0x0, symName: __ZNSt3__19allocatorImE8allocateB8ue170006Em, symObjAddr: 0x61C0, symBinAddr: 0x100006B10, symSize: 0x50 }
  - { offsetInCU: 0x17B8C, offset: 0x17B8C, size: 0x8, addend: 0x0, symName: __ZNKSt3__111__copy_loopINS_17_ClassicAlgPolicyEEclB8ue170006INS_14__bit_iteratorINS_6vectorIbNS_9allocatorIbEEEELb0ELm0EEES9_S9_EENS_4pairIT_T1_EESB_T0_SC_, symObjAddr: 0x64E0, symBinAddr: 0x100006E30, symSize: 0xB0 }
  - { offsetInCU: 0x17BFA, offset: 0x17BFA, size: 0x8, addend: 0x0, symName: __ZNSt3__119__unwrap_range_implINS_14__bit_iteratorINS_6vectorIbNS_9allocatorIbEEEELb0ELm0EEES6_E8__unwrapB8ue170006ES6_S6_, symObjAddr: 0x66E0, symBinAddr: 0x100007030, symSize: 0x70 }
  - { offsetInCU: 0x17C33, offset: 0x17C33, size: 0x8, addend: 0x0, symName: __ZNSt3__14pairINS_14__bit_iteratorINS_6vectorIbNS_9allocatorIbEEEELb0ELm0EEES6_EC1B8ue170006IS6_S6_LPv0EEEOT_OT0_, symObjAddr: 0x6750, symBinAddr: 0x1000070A0, symSize: 0x30 }
  - { offsetInCU: 0x17C91, offset: 0x17C91, size: 0x8, addend: 0x0, symName: __ZNSt3__14pairINS_14__bit_iteratorINS_6vectorIbNS_9allocatorIbEEEELb0ELm0EEES6_EC2B8ue170006IS6_S6_LPv0EEEOT_OT0_, symObjAddr: 0x6780, symBinAddr: 0x1000070D0, symSize: 0x40 }
  - { offsetInCU: 0x17CEF, offset: 0x17CEF, size: 0x8, addend: 0x0, symName: __ZNKSt3__114__bit_iteratorINS_6vectorIbNS_9allocatorIbEEEELb0ELm0EEdeB8ue170006Ev, symObjAddr: 0x67F0, symBinAddr: 0x100007140, symSize: 0x40 }
  - { offsetInCU: 0x17D15, offset: 0x17D15, size: 0x8, addend: 0x0, symName: __ZNSt3__115__bit_referenceINS_6vectorIbNS_9allocatorIbEEEELb1EEaSB8ue170006ERKS5_, symObjAddr: 0x6830, symBinAddr: 0x100007180, symSize: 0x40 }
  - { offsetInCU: 0x17D49, offset: 0x17D49, size: 0x8, addend: 0x0, symName: __ZNSt3__114__bit_iteratorINS_6vectorIbNS_9allocatorIbEEEELb0ELm0EEppB8ue170006Ev, symObjAddr: 0x6870, symBinAddr: 0x1000071C0, symSize: 0x50 }
  - { offsetInCU: 0x17D6F, offset: 0x17D6F, size: 0x8, addend: 0x0, symName: __ZNSt3__118__unwrap_iter_implINS_14__bit_iteratorINS_6vectorIbNS_9allocatorIbEEEELb0ELm0EEELb0EE8__unwrapB8ue170006ES6_, symObjAddr: 0x6910, symBinAddr: 0x100007260, symSize: 0x30 }
  - { offsetInCU: 0x17D93, offset: 0x17D93, size: 0x8, addend: 0x0, symName: __ZNSt3__119__unwrap_range_implINS_14__bit_iteratorINS_6vectorIbNS_9allocatorIbEEEELb0ELm0EEES6_E8__rewrapB8ue170006ES6_S6_, symObjAddr: 0x6940, symBinAddr: 0x100007290, symSize: 0x60 }
  - { offsetInCU: 0x17DC6, offset: 0x17DC6, size: 0x8, addend: 0x0, symName: __ZNSt3__118__unwrap_iter_implINS_14__bit_iteratorINS_6vectorIbNS_9allocatorIbEEEELb0ELm0EEELb0EE8__rewrapB8ue170006ES6_S6_, symObjAddr: 0x69A0, symBinAddr: 0x1000072F0, symSize: 0x40 }
  - { offsetInCU: 0x17DF5, offset: 0x17DF5, size: 0x8, addend: 0x0, symName: __ZNSt3__16vectorIbNS_9allocatorIbEEE10__align_itB8ue170006Em, symObjAddr: 0x69E0, symBinAddr: 0x100007330, symSize: 0x20 }
  - { offsetInCU: 0x17E24, offset: 0x17E24, size: 0x8, addend: 0x0, symName: __ZNKSt3__16__lessIvvEclB8ue170006IllEEbRKT_RKT0_, symObjAddr: 0x7250, symBinAddr: 0x100007BA0, symSize: 0x30 }
  - { offsetInCU: 0x17E9E, offset: 0x17E9E, size: 0x8, addend: 0x0, symName: __ZNKSt3__114__copy_trivialclB8ue170006IKmmLi0EEENS_4pairIPT_PT0_EES5_S5_S7_, symObjAddr: 0x7430, symBinAddr: 0x100007D80, symSize: 0x40 }
  - { offsetInCU: 0x17F21, offset: 0x17F21, size: 0x8, addend: 0x0, symName: __ZNSt3__119__unwrap_range_implIPKmS2_E8__unwrapB8ue170006ES2_S2_, symObjAddr: 0x7530, symBinAddr: 0x100007E80, symSize: 0x50 }
  - { offsetInCU: 0x17F58, offset: 0x17F58, size: 0x8, addend: 0x0, symName: __ZNSt3__14pairIPKmS2_EC1B8ue170006IS2_S2_LPv0EEEOT_OT0_, symObjAddr: 0x75A0, symBinAddr: 0x100007EF0, symSize: 0x30 }
  - { offsetInCU: 0x17FB6, offset: 0x17FB6, size: 0x8, addend: 0x0, symName: __ZNSt3__118__unwrap_iter_implIPKmLb1EE8__unwrapB8ue170006ES2_, symObjAddr: 0x75D0, symBinAddr: 0x100007F20, symSize: 0x20 }
  - { offsetInCU: 0x17FD9, offset: 0x17FD9, size: 0x8, addend: 0x0, symName: __ZNSt3__14pairIPKmS2_EC2B8ue170006IS2_S2_LPv0EEEOT_OT0_, symObjAddr: 0x75F0, symBinAddr: 0x100007F40, symSize: 0x30 }
  - { offsetInCU: 0x18042, offset: 0x18042, size: 0x8, addend: 0x0, symName: __ZNSt3__14pairIPKmPmEC1B8ue170006IRS2_S3_LPv0EEEOT_OT0_, symObjAddr: 0x7710, symBinAddr: 0x100008060, symSize: 0x30 }
  - { offsetInCU: 0x180A0, offset: 0x180A0, size: 0x8, addend: 0x0, symName: __ZNSt3__14pairIPKmPmEC2B8ue170006IRS2_S3_LPv0EEEOT_OT0_, symObjAddr: 0x7740, symBinAddr: 0x100008090, symSize: 0x30 }
  - { offsetInCU: 0x180FE, offset: 0x180FE, size: 0x8, addend: 0x0, symName: __ZNSt3__118__unwrap_iter_implIPmLb1EE8__unwrapB8ue170006ES1_, symObjAddr: 0x7770, symBinAddr: 0x1000080C0, symSize: 0x20 }
  - { offsetInCU: 0x18121, offset: 0x18121, size: 0x8, addend: 0x0, symName: __ZNSt3__14pairIPKmPmEC1B8ue170006IS2_S3_LPv0EEEOT_OT0_, symObjAddr: 0x7790, symBinAddr: 0x1000080E0, symSize: 0x30 }
  - { offsetInCU: 0x1817F, offset: 0x1817F, size: 0x8, addend: 0x0, symName: __ZNSt3__14pairIPKmPmEC2B8ue170006IS2_S3_LPv0EEEOT_OT0_, symObjAddr: 0x77C0, symBinAddr: 0x100008110, symSize: 0x30 }
  - { offsetInCU: 0x181DD, offset: 0x181DD, size: 0x8, addend: 0x0, symName: __ZNSt3__119__unwrap_range_implIPKmS2_E8__rewrapB8ue170006ES2_S2_, symObjAddr: 0x77F0, symBinAddr: 0x100008140, symSize: 0x30 }
  - { offsetInCU: 0x1820E, offset: 0x1820E, size: 0x8, addend: 0x0, symName: __ZNSt3__118__unwrap_iter_implIPKmLb1EE8__rewrapB8ue170006ES2_S2_, symObjAddr: 0x7860, symBinAddr: 0x1000081B0, symSize: 0x50 }
  - { offsetInCU: 0x1823F, offset: 0x1823F, size: 0x8, addend: 0x0, symName: __ZNSt3__118__unwrap_iter_implIPmLb1EE8__rewrapB8ue170006ES1_S1_, symObjAddr: 0x78B0, symBinAddr: 0x100008200, symSize: 0x50 }
  - { offsetInCU: 0x18270, offset: 0x18270, size: 0x8, addend: 0x0, symName: __ZNKSt3__16vectorIbNS_9allocatorIbEEE11__make_iterB8ue170006Em, symObjAddr: 0x7900, symBinAddr: 0x100008250, symSize: 0x50 }
  - { offsetInCU: 0x182A5, offset: 0x182A5, size: 0x8, addend: 0x0, symName: __ZNSt3__114__bit_iteratorINS_6vectorIbNS_9allocatorIbEEEELb1ELm0EEC1B8ue170006EPKmj, symObjAddr: 0x7950, symBinAddr: 0x1000082A0, symSize: 0x30 }
  - { offsetInCU: 0x182ED, offset: 0x182ED, size: 0x8, addend: 0x0, symName: __ZNSt3__114__bit_iteratorINS_6vectorIbNS_9allocatorIbEEEELb1ELm0EEC2B8ue170006EPKmj, symObjAddr: 0x7980, symBinAddr: 0x1000082D0, symSize: 0x30 }
  - { offsetInCU: 0x18335, offset: 0x18335, size: 0x8, addend: 0x0, symName: __ZNSt3__114__bit_iteratorINS_6vectorIbNS_9allocatorIbEEEELb0ELm0EEC2B8ue170006ERKS5_, symObjAddr: 0x7DF0, symBinAddr: 0x100008740, symSize: 0x30 }
  - { offsetInCU: 0x1836E, offset: 0x1836E, size: 0x8, addend: 0x0, symName: __ZNSt3__16vectorIxNS_9allocatorIxEEE8__appendEmRKx, symObjAddr: 0x7E20, symBinAddr: 0x100008770, symSize: 0x100 }
  - { offsetInCU: 0x183D9, offset: 0x183D9, size: 0x8, addend: 0x0, symName: __ZNSt3__16vectorIxNS_9allocatorIxEEE17__destruct_at_endB8ue170006EPx, symObjAddr: 0x7F20, symBinAddr: 0x100008870, symSize: 0x50 }
  - { offsetInCU: 0x1841D, offset: 0x1841D, size: 0x8, addend: 0x0, symName: __ZNSt3__16vectorIxNS_9allocatorIxEEE18__construct_at_endEmRKx, symObjAddr: 0x7F70, symBinAddr: 0x1000088C0, symSize: 0xC0 }
  - { offsetInCU: 0x1849E, offset: 0x1849E, size: 0x8, addend: 0x0, symName: __ZNSt3__114__split_bufferIxRNS_9allocatorIxEEE18__construct_at_endEmRKx, symObjAddr: 0x8030, symBinAddr: 0x100008980, symSize: 0xB0 }
  - { offsetInCU: 0x184FB, offset: 0x184FB, size: 0x8, addend: 0x0, symName: __ZNSt3__114__split_bufferIxRNS_9allocatorIxEEE21_ConstructTransactionC1B8ue170006EPPxm, symObjAddr: 0x80E0, symBinAddr: 0x100008A30, symSize: 0x30 }
  - { offsetInCU: 0x18541, offset: 0x18541, size: 0x8, addend: 0x0, symName: __ZNSt3__114__split_bufferIxRNS_9allocatorIxEEE21_ConstructTransactionD1B8ue170006Ev, symObjAddr: 0x8110, symBinAddr: 0x100008A60, symSize: 0x20 }
  - { offsetInCU: 0x1856B, offset: 0x1856B, size: 0x8, addend: 0x0, symName: __ZNSt3__114__split_bufferIxRNS_9allocatorIxEEE21_ConstructTransactionC2B8ue170006EPPxm, symObjAddr: 0x8130, symBinAddr: 0x100008A80, symSize: 0x40 }
  - { offsetInCU: 0x185B1, offset: 0x185B1, size: 0x8, addend: 0x0, symName: __ZNSt3__114__split_bufferIxRNS_9allocatorIxEEE21_ConstructTransactionD2B8ue170006Ev, symObjAddr: 0x8170, symBinAddr: 0x100008AC0, symSize: 0x20 }
  - { offsetInCU: 0x185DB, offset: 0x185DB, size: 0x8, addend: 0x0, symName: __ZNSt3__16vectorIxNS_9allocatorIxEEE8__appendEm, symObjAddr: 0x8190, symBinAddr: 0x100008AE0, symSize: 0x100 }
  - { offsetInCU: 0x18636, offset: 0x18636, size: 0x8, addend: 0x0, symName: __ZNSt3__16vectorIxNS_9allocatorIxEEE18__construct_at_endEm, symObjAddr: 0x8290, symBinAddr: 0x100008BE0, symSize: 0xC0 }
  - { offsetInCU: 0x186A8, offset: 0x186A8, size: 0x8, addend: 0x0, symName: __ZNSt3__114__split_bufferIxRNS_9allocatorIxEEE18__construct_at_endEm, symObjAddr: 0x8350, symBinAddr: 0x100008CA0, symSize: 0xB0 }
  - { offsetInCU: 0x186ED, offset: 0x186ED, size: 0x8, addend: 0x0, symName: __ZNSt3__116allocator_traitsINS_9allocatorIxEEE9constructB8ue170006IxJEvvEEvRS2_PT_DpOT0_, symObjAddr: 0x8400, symBinAddr: 0x100008D50, symSize: 0x20 }
  - { offsetInCU: 0x1872C, offset: 0x1872C, size: 0x8, addend: 0x0, symName: __ZNSt3__16vectorIxNS_9allocatorIxEEE22__construct_one_at_endB8ue170006IJxEEEvDpOT_, symObjAddr: 0x8440, symBinAddr: 0x100008D90, symSize: 0x90 }
  - { offsetInCU: 0x1877B, offset: 0x1877B, size: 0x8, addend: 0x0, symName: __ZNSt3__16vectorIxNS_9allocatorIxEEE21__push_back_slow_pathIxEEvOT_, symObjAddr: 0x84D0, symBinAddr: 0x100008E20, symSize: 0xD0 }
  - { offsetInCU: 0x187D9, offset: 0x187D9, size: 0x8, addend: 0x0, symName: __ZNSt3__116allocator_traitsINS_9allocatorIxEEE9constructB8ue170006IxJxEvvEEvRS2_PT_DpOT0_, symObjAddr: 0x85A0, symBinAddr: 0x100008EF0, symSize: 0x30 }
  - { offsetInCU: 0x1882D, offset: 0x1882D, size: 0x8, addend: 0x0, symName: __ZNSt3__13setINS_4pairIxxEENS_4lessIS2_EENS_9allocatorIS2_EEEC2B8ue170006Ev, symObjAddr: 0x8600, symBinAddr: 0x100008F50, symSize: 0x20 }
  - { offsetInCU: 0x18857, offset: 0x18857, size: 0x8, addend: 0x0, symName: __ZNSt3__16__treeINS_4pairIxxEENS_4lessIS2_EENS_9allocatorIS2_EEEC1ERKS4_, symObjAddr: 0x8620, symBinAddr: 0x100008F70, symSize: 0x30 }
  - { offsetInCU: 0x18892, offset: 0x18892, size: 0x8, addend: 0x0, symName: __ZNSt3__16__treeINS_4pairIxxEENS_4lessIS2_EENS_9allocatorIS2_EEEC2ERKS4_, symObjAddr: 0x8650, symBinAddr: 0x100008FA0, symSize: 0x80 }
  - { offsetInCU: 0x188CD, offset: 0x188CD, size: 0x8, addend: 0x0, symName: __ZNSt3__117__compressed_pairINS_15__tree_end_nodeIPNS_16__tree_node_baseIPvEEEENS_9allocatorINS_11__tree_nodeINS_4pairIxxEES3_EEEEEC1B8ue170006ILb1EvEEv, symObjAddr: 0x86D0, symBinAddr: 0x100009020, symSize: 0x20 }
  - { offsetInCU: 0x18902, offset: 0x18902, size: 0x8, addend: 0x0, symName: __ZNSt3__117__compressed_pairImNS_4lessINS_4pairIxxEEEEEC1B8ue170006IiRKS4_EEOT_OT0_, symObjAddr: 0x86F0, symBinAddr: 0x100009040, symSize: 0x30 }
  - { offsetInCU: 0x1895A, offset: 0x1895A, size: 0x8, addend: 0x0, symName: __ZNSt3__16__treeINS_4pairIxxEENS_4lessIS2_EENS_9allocatorIS2_EEE10__end_nodeB8ue170006Ev, symObjAddr: 0x8720, symBinAddr: 0x100009070, symSize: 0x30 }
  - { offsetInCU: 0x18980, offset: 0x18980, size: 0x8, addend: 0x0, symName: __ZNSt3__16__treeINS_4pairIxxEENS_4lessIS2_EENS_9allocatorIS2_EEE12__begin_nodeB8ue170006Ev, symObjAddr: 0x8750, symBinAddr: 0x1000090A0, symSize: 0x10 }
  - { offsetInCU: 0x189A6, offset: 0x189A6, size: 0x8, addend: 0x0, symName: __ZNSt3__117__compressed_pairINS_15__tree_end_nodeIPNS_16__tree_node_baseIPvEEEENS_9allocatorINS_11__tree_nodeINS_4pairIxxEES3_EEEEEC2B8ue170006ILb1EvEEv, symObjAddr: 0x8760, symBinAddr: 0x1000090B0, symSize: 0x30 }
  - { offsetInCU: 0x189DB, offset: 0x189DB, size: 0x8, addend: 0x0, symName: __ZNSt3__122__compressed_pair_elemINS_15__tree_end_nodeIPNS_16__tree_node_baseIPvEEEELi0ELb0EEC2B8ue170006ENS_16__value_init_tagE, symObjAddr: 0x8790, symBinAddr: 0x1000090E0, symSize: 0x20 }
  - { offsetInCU: 0x18A0F, offset: 0x18A0F, size: 0x8, addend: 0x0, symName: __ZNSt3__122__compressed_pair_elemINS_9allocatorINS_11__tree_nodeINS_4pairIxxEEPvEEEELi1ELb1EEC2B8ue170006ENS_16__value_init_tagE, symObjAddr: 0x87B0, symBinAddr: 0x100009100, symSize: 0x20 }
  - { offsetInCU: 0x18A43, offset: 0x18A43, size: 0x8, addend: 0x0, symName: __ZNSt3__115__tree_end_nodeIPNS_16__tree_node_baseIPvEEEC1B8ue170006Ev, symObjAddr: 0x87D0, symBinAddr: 0x100009120, symSize: 0x20 }
  - { offsetInCU: 0x18A6D, offset: 0x18A6D, size: 0x8, addend: 0x0, symName: __ZNSt3__115__tree_end_nodeIPNS_16__tree_node_baseIPvEEEC2B8ue170006Ev, symObjAddr: 0x87F0, symBinAddr: 0x100009140, symSize: 0x20 }
  - { offsetInCU: 0x18A97, offset: 0x18A97, size: 0x8, addend: 0x0, symName: __ZNSt3__19allocatorINS_11__tree_nodeINS_4pairIxxEEPvEEEC2B8ue170006Ev, symObjAddr: 0x8810, symBinAddr: 0x100009160, symSize: 0x20 }
  - { offsetInCU: 0x18AC1, offset: 0x18AC1, size: 0x8, addend: 0x0, symName: __ZNSt3__116__non_trivial_ifILb1ENS_9allocatorINS_11__tree_nodeINS_4pairIxxEEPvEEEEEC2B8ue170006Ev, symObjAddr: 0x8830, symBinAddr: 0x100009180, symSize: 0x10 }
  - { offsetInCU: 0x18AEB, offset: 0x18AEB, size: 0x8, addend: 0x0, symName: __ZNSt3__117__compressed_pairImNS_4lessINS_4pairIxxEEEEEC2B8ue170006IiRKS4_EEOT_OT0_, symObjAddr: 0x8840, symBinAddr: 0x100009190, symSize: 0x40 }
  - { offsetInCU: 0x18B43, offset: 0x18B43, size: 0x8, addend: 0x0, symName: __ZNSt3__122__compressed_pair_elemINS_4lessINS_4pairIxxEEEELi1ELb1EEC2B8ue170006IRKS4_vEEOT_, symObjAddr: 0x8880, symBinAddr: 0x1000091D0, symSize: 0x10 }
  - { offsetInCU: 0x18B85, offset: 0x18B85, size: 0x8, addend: 0x0, symName: __ZNSt3__114pointer_traitsIPNS_15__tree_end_nodeIPNS_16__tree_node_baseIPvEEEEE10pointer_toB8ue170006ERS6_, symObjAddr: 0x8890, symBinAddr: 0x1000091E0, symSize: 0x10 }
  - { offsetInCU: 0x18BA8, offset: 0x18BA8, size: 0x8, addend: 0x0, symName: __ZNSt3__117__compressed_pairINS_15__tree_end_nodeIPNS_16__tree_node_baseIPvEEEENS_9allocatorINS_11__tree_nodeINS_4pairIxxEES3_EEEEE5firstB8ue170006Ev, symObjAddr: 0x88A0, symBinAddr: 0x1000091F0, symSize: 0x20 }
  - { offsetInCU: 0x18BCE, offset: 0x18BCE, size: 0x8, addend: 0x0, symName: __ZNSt3__122__compressed_pair_elemINS_15__tree_end_nodeIPNS_16__tree_node_baseIPvEEEELi0ELb0EE5__getB8ue170006Ev, symObjAddr: 0x88C0, symBinAddr: 0x100009210, symSize: 0x10 }
  - { offsetInCU: 0x18BF4, offset: 0x18BF4, size: 0x8, addend: 0x0, symName: __ZNSt3__13setINS_4pairIxxEENS_4lessIS2_EENS_9allocatorIS2_EEED2B8ue170006Ev, symObjAddr: 0x88D0, symBinAddr: 0x100009220, symSize: 0x20 }
  - { offsetInCU: 0x18C1E, offset: 0x18C1E, size: 0x8, addend: 0x0, symName: __ZNSt3__16__treeINS_4pairIxxEENS_4lessIS2_EENS_9allocatorIS2_EEED1Ev, symObjAddr: 0x88F0, symBinAddr: 0x100009240, symSize: 0x20 }
  - { offsetInCU: 0x18C4A, offset: 0x18C4A, size: 0x8, addend: 0x0, symName: __ZNSt3__16__treeINS_4pairIxxEENS_4lessIS2_EENS_9allocatorIS2_EEED2Ev, symObjAddr: 0x8910, symBinAddr: 0x100009260, symSize: 0x30 }
  - { offsetInCU: 0x18C76, offset: 0x18C76, size: 0x8, addend: 0x0, symName: __ZNSt3__16__treeINS_4pairIxxEENS_4lessIS2_EENS_9allocatorIS2_EEE7destroyEPNS_11__tree_nodeIS2_PvEE, symObjAddr: 0x8940, symBinAddr: 0x100009290, symSize: 0xB0 }
  - { offsetInCU: 0x18CC2, offset: 0x18CC2, size: 0x8, addend: 0x0, symName: __ZNKSt3__16__treeINS_4pairIxxEENS_4lessIS2_EENS_9allocatorIS2_EEE6__rootB8ue170006Ev, symObjAddr: 0x89F0, symBinAddr: 0x100009340, symSize: 0x20 }
  - { offsetInCU: 0x18CE8, offset: 0x18CE8, size: 0x8, addend: 0x0, symName: __ZNSt3__16__treeINS_4pairIxxEENS_4lessIS2_EENS_9allocatorIS2_EEE12__node_allocB8ue170006Ev, symObjAddr: 0x8A10, symBinAddr: 0x100009360, symSize: 0x20 }
  - { offsetInCU: 0x18D0E, offset: 0x18D0E, size: 0x8, addend: 0x0, symName: __ZNSt3__116allocator_traitsINS_9allocatorINS_11__tree_nodeINS_4pairIxxEEPvEEEEE7destroyB8ue170006IS4_vvEEvRS7_PT_, symObjAddr: 0x8A30, symBinAddr: 0x100009380, symSize: 0x20 }
  - { offsetInCU: 0x18D48, offset: 0x18D48, size: 0x8, addend: 0x0, symName: __ZNSt3__122__tree_key_value_typesINS_4pairIxxEEE9__get_ptrB8ue170006ERS2_, symObjAddr: 0x8A50, symBinAddr: 0x1000093A0, symSize: 0x10 }
  - { offsetInCU: 0x18D6C, offset: 0x18D6C, size: 0x8, addend: 0x0, symName: __ZNSt3__116allocator_traitsINS_9allocatorINS_11__tree_nodeINS_4pairIxxEEPvEEEEE10deallocateB8ue170006ERS7_PS6_m, symObjAddr: 0x8A60, symBinAddr: 0x1000093B0, symSize: 0x30 }
  - { offsetInCU: 0x18DAE, offset: 0x18DAE, size: 0x8, addend: 0x0, symName: __ZNSt3__117__compressed_pairINS_15__tree_end_nodeIPNS_16__tree_node_baseIPvEEEENS_9allocatorINS_11__tree_nodeINS_4pairIxxEES3_EEEEE6secondB8ue170006Ev, symObjAddr: 0x8A90, symBinAddr: 0x1000093E0, symSize: 0x20 }
  - { offsetInCU: 0x18DD4, offset: 0x18DD4, size: 0x8, addend: 0x0, symName: __ZNSt3__122__compressed_pair_elemINS_9allocatorINS_11__tree_nodeINS_4pairIxxEEPvEEEELi1ELb1EE5__getB8ue170006Ev, symObjAddr: 0x8AB0, symBinAddr: 0x100009400, symSize: 0x10 }
  - { offsetInCU: 0x18DFA, offset: 0x18DFA, size: 0x8, addend: 0x0, symName: __ZNSt3__19allocatorINS_11__tree_nodeINS_4pairIxxEEPvEEE10deallocateB8ue170006EPS5_m, symObjAddr: 0x8AF0, symBinAddr: 0x100009440, symSize: 0x50 }
  - { offsetInCU: 0x18E3C, offset: 0x18E3C, size: 0x8, addend: 0x0, symName: __ZNKSt3__16__treeINS_4pairIxxEENS_4lessIS2_EENS_9allocatorIS2_EEE10__end_nodeB8ue170006Ev, symObjAddr: 0x8B40, symBinAddr: 0x100009490, symSize: 0x30 }
  - { offsetInCU: 0x18E62, offset: 0x18E62, size: 0x8, addend: 0x0, symName: __ZNKSt3__117__compressed_pairINS_15__tree_end_nodeIPNS_16__tree_node_baseIPvEEEENS_9allocatorINS_11__tree_nodeINS_4pairIxxEES3_EEEEE5firstB8ue170006Ev, symObjAddr: 0x8B70, symBinAddr: 0x1000094C0, symSize: 0x20 }
  - { offsetInCU: 0x18E88, offset: 0x18E88, size: 0x8, addend: 0x0, symName: __ZNKSt3__122__compressed_pair_elemINS_15__tree_end_nodeIPNS_16__tree_node_baseIPvEEEELi0ELb0EE5__getB8ue170006Ev, symObjAddr: 0x8B90, symBinAddr: 0x1000094E0, symSize: 0x10 }
  - { offsetInCU: 0x18EAE, offset: 0x18EAE, size: 0x8, addend: 0x0, symName: __ZNSt3__16__treeINS_4pairIxxEENS_4lessIS2_EENS_9allocatorIS2_EEE15__insert_uniqueB8ue170006EOS2_, symObjAddr: 0x8BA0, symBinAddr: 0x1000094F0, symSize: 0x50 }
  - { offsetInCU: 0x18EE3, offset: 0x18EE3, size: 0x8, addend: 0x0, symName: __ZNSt3__14pairINS_21__tree_const_iteratorINS0_IxxEEPNS_11__tree_nodeIS2_PvEElEEbEC1B8ue170006INS_15__tree_iteratorIS2_S6_lEEbLS4_0EEEONS0_IT_T0_EE, symObjAddr: 0x8BF0, symBinAddr: 0x100009540, symSize: 0x30 }
  - { offsetInCU: 0x18F34, offset: 0x18F34, size: 0x8, addend: 0x0, symName: __ZNSt3__16__treeINS_4pairIxxEENS_4lessIS2_EENS_9allocatorIS2_EEE25__emplace_unique_key_argsIS2_JS2_EEENS1_INS_15__tree_iteratorIS2_PNS_11__tree_nodeIS2_PvEElEEbEERKT_DpOT0_, symObjAddr: 0x8C20, symBinAddr: 0x100009570, symSize: 0xE0 }
  - { offsetInCU: 0x18FE9, offset: 0x18FE9, size: 0x8, addend: 0x0, symName: __ZNSt3__122__tree_key_value_typesINS_4pairIxxEEE9__get_keyB8ue170006ERKS2_, symObjAddr: 0x8D00, symBinAddr: 0x100009650, symSize: 0x10 }
  - { offsetInCU: 0x1900D, offset: 0x1900D, size: 0x8, addend: 0x0, symName: __ZNSt3__16__treeINS_4pairIxxEENS_4lessIS2_EENS_9allocatorIS2_EEE12__find_equalIS2_EERPNS_16__tree_node_baseIPvEERPNS_15__tree_end_nodeISC_EERKT_, symObjAddr: 0x8D10, symBinAddr: 0x100009660, symSize: 0x180 }
  - { offsetInCU: 0x1907A, offset: 0x1907A, size: 0x8, addend: 0x0, symName: __ZNSt3__16__treeINS_4pairIxxEENS_4lessIS2_EENS_9allocatorIS2_EEE16__construct_nodeIJS2_EEENS_10unique_ptrINS_11__tree_nodeIS2_PvEENS_22__tree_node_destructorINS5_ISC_EEEEEEDpOT_, symObjAddr: 0x8E90, symBinAddr: 0x1000097E0, symSize: 0xF0 }
  - { offsetInCU: 0x190DB, offset: 0x190DB, size: 0x8, addend: 0x0, symName: __ZNSt3__16__treeINS_4pairIxxEENS_4lessIS2_EENS_9allocatorIS2_EEE16__insert_node_atEPNS_15__tree_end_nodeIPNS_16__tree_node_baseIPvEEEERSC_SC_, symObjAddr: 0x8F80, symBinAddr: 0x1000098D0, symSize: 0xC0 }
  - { offsetInCU: 0x19130, offset: 0x19130, size: 0x8, addend: 0x0, symName: __ZNKSt3__110unique_ptrINS_11__tree_nodeINS_4pairIxxEEPvEENS_22__tree_node_destructorINS_9allocatorIS5_EEEEE3getB8ue170006Ev, symObjAddr: 0x9040, symBinAddr: 0x100009990, symSize: 0x20 }
  - { offsetInCU: 0x19156, offset: 0x19156, size: 0x8, addend: 0x0, symName: __ZNSt3__110unique_ptrINS_11__tree_nodeINS_4pairIxxEEPvEENS_22__tree_node_destructorINS_9allocatorIS5_EEEEE7releaseB8ue170006Ev, symObjAddr: 0x9060, symBinAddr: 0x1000099B0, symSize: 0x40 }
  - { offsetInCU: 0x1918B, offset: 0x1918B, size: 0x8, addend: 0x0, symName: __ZNSt3__110unique_ptrINS_11__tree_nodeINS_4pairIxxEEPvEENS_22__tree_node_destructorINS_9allocatorIS5_EEEEED1B8ue170006Ev, symObjAddr: 0x90A0, symBinAddr: 0x1000099F0, symSize: 0x20 }
  - { offsetInCU: 0x191B5, offset: 0x191B5, size: 0x8, addend: 0x0, symName: __ZNSt3__115__tree_iteratorINS_4pairIxxEEPNS_11__tree_nodeIS2_PvEElEC1B8ue170006ES6_, symObjAddr: 0x90C0, symBinAddr: 0x100009A10, symSize: 0x30 }
  - { offsetInCU: 0x191F9, offset: 0x191F9, size: 0x8, addend: 0x0, symName: __ZNSt3__14pairINS_15__tree_iteratorINS0_IxxEEPNS_11__tree_nodeIS2_PvEElEEbEC1B8ue170006IS7_RbLS4_0EEEOT_OT0_, symObjAddr: 0x90F0, symBinAddr: 0x100009A40, symSize: 0x30 }
  - { offsetInCU: 0x19257, offset: 0x19257, size: 0x8, addend: 0x0, symName: __ZNKSt3__16__treeINS_4pairIxxEENS_4lessIS2_EENS_9allocatorIS2_EEE10__root_ptrB8ue170006Ev, symObjAddr: 0x9120, symBinAddr: 0x100009A70, symSize: 0x20 }
  - { offsetInCU: 0x1927D, offset: 0x1927D, size: 0x8, addend: 0x0, symName: __ZNSt3__16__treeINS_4pairIxxEENS_4lessIS2_EENS_9allocatorIS2_EEE10value_compB8ue170006Ev, symObjAddr: 0x9140, symBinAddr: 0x100009A90, symSize: 0x20 }
  - { offsetInCU: 0x192A3, offset: 0x192A3, size: 0x8, addend: 0x0, symName: __ZNKSt3__14lessINS_4pairIxxEEEclB8ue170006ERKS2_S5_, symObjAddr: 0x9160, symBinAddr: 0x100009AB0, symSize: 0x50 }
  - { offsetInCU: 0x192E7, offset: 0x192E7, size: 0x8, addend: 0x0, symName: __ZNSt3__117__compressed_pairImNS_4lessINS_4pairIxxEEEEE6secondB8ue170006Ev, symObjAddr: 0x91B0, symBinAddr: 0x100009B00, symSize: 0x20 }
  - { offsetInCU: 0x1930D, offset: 0x1930D, size: 0x8, addend: 0x0, symName: __ZNSt3__122__compressed_pair_elemINS_4lessINS_4pairIxxEEEELi1ELb1EE5__getB8ue170006Ev, symObjAddr: 0x91D0, symBinAddr: 0x100009B20, symSize: 0x10 }
  - { offsetInCU: 0x19342, offset: 0x19342, size: 0x8, addend: 0x0, symName: __ZNSt3__120_CmpUnspecifiedParamC1B8ue170006EMS0_i, symObjAddr: 0x9280, symBinAddr: 0x100009BD0, symSize: 0x30 }
  - { offsetInCU: 0x19376, offset: 0x19376, size: 0x8, addend: 0x0, symName: __ZNSt3__120_CmpUnspecifiedParamC2B8ue170006EMS0_i, symObjAddr: 0x9340, symBinAddr: 0x100009C90, symSize: 0x10 }
  - { offsetInCU: 0x193AA, offset: 0x193AA, size: 0x8, addend: 0x0, symName: __ZNSt3__116allocator_traitsINS_9allocatorINS_11__tree_nodeINS_4pairIxxEEPvEEEEE8allocateB8ue170006ERS7_m, symObjAddr: 0x9350, symBinAddr: 0x100009CA0, symSize: 0x30 }
  - { offsetInCU: 0x193DD, offset: 0x193DD, size: 0x8, addend: 0x0, symName: __ZNSt3__122__tree_node_destructorINS_9allocatorINS_11__tree_nodeINS_4pairIxxEEPvEEEEEC1B8ue170006ERS7_b, symObjAddr: 0x9380, symBinAddr: 0x100009CD0, symSize: 0x40 }
  - { offsetInCU: 0x1942B, offset: 0x1942B, size: 0x8, addend: 0x0, symName: __ZNSt3__110unique_ptrINS_11__tree_nodeINS_4pairIxxEEPvEENS_22__tree_node_destructorINS_9allocatorIS5_EEEEEC1B8ue170006ILb1EvEEPS5_NS_16__dependent_typeINS_27__unique_ptr_deleter_sfinaeIS9_EEXT_EE20__good_rval_ref_typeE, symObjAddr: 0x93C0, symBinAddr: 0x100009D10, symSize: 0x30 }
  - { offsetInCU: 0x1947C, offset: 0x1947C, size: 0x8, addend: 0x0, symName: __ZNSt3__116allocator_traitsINS_9allocatorINS_11__tree_nodeINS_4pairIxxEEPvEEEEE9constructB8ue170006IS4_JS4_EvvEEvRS7_PT_DpOT0_, symObjAddr: 0x93F0, symBinAddr: 0x100009D40, symSize: 0x30 }
  - { offsetInCU: 0x194D0, offset: 0x194D0, size: 0x8, addend: 0x0, symName: __ZNKSt3__110unique_ptrINS_11__tree_nodeINS_4pairIxxEEPvEENS_22__tree_node_destructorINS_9allocatorIS5_EEEEEptB8ue170006Ev, symObjAddr: 0x9420, symBinAddr: 0x100009D70, symSize: 0x20 }
  - { offsetInCU: 0x194F6, offset: 0x194F6, size: 0x8, addend: 0x0, symName: __ZNSt3__110unique_ptrINS_11__tree_nodeINS_4pairIxxEEPvEENS_22__tree_node_destructorINS_9allocatorIS5_EEEEE11get_deleterB8ue170006Ev, symObjAddr: 0x9440, symBinAddr: 0x100009D90, symSize: 0x20 }
  - { offsetInCU: 0x1951C, offset: 0x1951C, size: 0x8, addend: 0x0, symName: __ZNSt3__19allocatorINS_11__tree_nodeINS_4pairIxxEEPvEEE8allocateB8ue170006Em, symObjAddr: 0x9460, symBinAddr: 0x100009DB0, symSize: 0x50 }
  - { offsetInCU: 0x1955B, offset: 0x1955B, size: 0x8, addend: 0x0, symName: __ZNSt3__116allocator_traitsINS_9allocatorINS_11__tree_nodeINS_4pairIxxEEPvEEEEE8max_sizeB8ue170006IS7_vvEEmRKS7_, symObjAddr: 0x94B0, symBinAddr: 0x100009E00, symSize: 0x30 }
  - { offsetInCU: 0x19586, offset: 0x19586, size: 0x8, addend: 0x0, symName: __ZNSt3__122__tree_node_destructorINS_9allocatorINS_11__tree_nodeINS_4pairIxxEEPvEEEEEC2B8ue170006ERS7_b, symObjAddr: 0x94E0, symBinAddr: 0x100009E30, symSize: 0x30 }
  - { offsetInCU: 0x195CE, offset: 0x195CE, size: 0x8, addend: 0x0, symName: __ZNSt3__110unique_ptrINS_11__tree_nodeINS_4pairIxxEEPvEENS_22__tree_node_destructorINS_9allocatorIS5_EEEEEC2B8ue170006ILb1EvEEPS5_NS_16__dependent_typeINS_27__unique_ptr_deleter_sfinaeIS9_EEXT_EE20__good_rval_ref_typeE, symObjAddr: 0x9510, symBinAddr: 0x100009E60, symSize: 0x40 }
  - { offsetInCU: 0x1961F, offset: 0x1961F, size: 0x8, addend: 0x0, symName: __ZNSt3__117__compressed_pairIPNS_11__tree_nodeINS_4pairIxxEEPvEENS_22__tree_node_destructorINS_9allocatorIS5_EEEEEC1B8ue170006IRS6_SA_EEOT_OT0_, symObjAddr: 0x9550, symBinAddr: 0x100009EA0, symSize: 0x30 }
  - { offsetInCU: 0x19677, offset: 0x19677, size: 0x8, addend: 0x0, symName: __ZNSt3__117__compressed_pairIPNS_11__tree_nodeINS_4pairIxxEEPvEENS_22__tree_node_destructorINS_9allocatorIS5_EEEEEC2B8ue170006IRS6_SA_EEOT_OT0_, symObjAddr: 0x9580, symBinAddr: 0x100009ED0, symSize: 0x40 }
  - { offsetInCU: 0x196CF, offset: 0x196CF, size: 0x8, addend: 0x0, symName: __ZNSt3__122__compressed_pair_elemIPNS_11__tree_nodeINS_4pairIxxEEPvEELi0ELb0EEC2B8ue170006IRS6_vEEOT_, symObjAddr: 0x95C0, symBinAddr: 0x100009F10, symSize: 0x20 }
  - { offsetInCU: 0x19711, offset: 0x19711, size: 0x8, addend: 0x0, symName: __ZNSt3__122__compressed_pair_elemINS_22__tree_node_destructorINS_9allocatorINS_11__tree_nodeINS_4pairIxxEEPvEEEEEELi1ELb0EEC2B8ue170006IS9_vEEOT_, symObjAddr: 0x95E0, symBinAddr: 0x100009F30, symSize: 0x30 }
  - { offsetInCU: 0x19753, offset: 0x19753, size: 0x8, addend: 0x0, symName: __ZNKSt3__117__compressed_pairIPNS_11__tree_nodeINS_4pairIxxEEPvEENS_22__tree_node_destructorINS_9allocatorIS5_EEEEE5firstB8ue170006Ev, symObjAddr: 0x9640, symBinAddr: 0x100009F90, symSize: 0x20 }
  - { offsetInCU: 0x19779, offset: 0x19779, size: 0x8, addend: 0x0, symName: __ZNKSt3__122__compressed_pair_elemIPNS_11__tree_nodeINS_4pairIxxEEPvEELi0ELb0EE5__getB8ue170006Ev, symObjAddr: 0x9660, symBinAddr: 0x100009FB0, symSize: 0x10 }
  - { offsetInCU: 0x1979F, offset: 0x1979F, size: 0x8, addend: 0x0, symName: __ZNSt3__117__compressed_pairIPNS_11__tree_nodeINS_4pairIxxEEPvEENS_22__tree_node_destructorINS_9allocatorIS5_EEEEE6secondB8ue170006Ev, symObjAddr: 0x9670, symBinAddr: 0x100009FC0, symSize: 0x20 }
  - { offsetInCU: 0x197C5, offset: 0x197C5, size: 0x8, addend: 0x0, symName: __ZNSt3__122__compressed_pair_elemINS_22__tree_node_destructorINS_9allocatorINS_11__tree_nodeINS_4pairIxxEEPvEEEEEELi1ELb0EE5__getB8ue170006Ev, symObjAddr: 0x9690, symBinAddr: 0x100009FE0, symSize: 0x10 }
  - { offsetInCU: 0x197EB, offset: 0x197EB, size: 0x8, addend: 0x0, symName: __ZNSt3__16__treeINS_4pairIxxEENS_4lessIS2_EENS_9allocatorIS2_EEE4sizeB8ue170006Ev, symObjAddr: 0x99C0, symBinAddr: 0x10000A310, symSize: 0x20 }
  - { offsetInCU: 0x19811, offset: 0x19811, size: 0x8, addend: 0x0, symName: __ZNKSt3__116__tree_node_baseIPvE15__parent_unsafeB8ue170006Ev, symObjAddr: 0x99E0, symBinAddr: 0x10000A330, symSize: 0x20 }
  - { offsetInCU: 0x19837, offset: 0x19837, size: 0x8, addend: 0x0, symName: __ZNSt3__116__tree_node_baseIPvE12__set_parentB8ue170006EPS2_, symObjAddr: 0x9BC0, symBinAddr: 0x10000A510, symSize: 0x20 }
  - { offsetInCU: 0x1986C, offset: 0x1986C, size: 0x8, addend: 0x0, symName: __ZNSt3__117__compressed_pairImNS_4lessINS_4pairIxxEEEEE5firstB8ue170006Ev, symObjAddr: 0x9BE0, symBinAddr: 0x10000A530, symSize: 0x20 }
  - { offsetInCU: 0x19892, offset: 0x19892, size: 0x8, addend: 0x0, symName: __ZNSt3__117__compressed_pairIPNS_11__tree_nodeINS_4pairIxxEEPvEENS_22__tree_node_destructorINS_9allocatorIS5_EEEEE5firstB8ue170006Ev, symObjAddr: 0x9C00, symBinAddr: 0x10000A550, symSize: 0x20 }
  - { offsetInCU: 0x198B8, offset: 0x198B8, size: 0x8, addend: 0x0, symName: __ZNSt3__122__compressed_pair_elemIPNS_11__tree_nodeINS_4pairIxxEEPvEELi0ELb0EE5__getB8ue170006Ev, symObjAddr: 0x9C20, symBinAddr: 0x10000A570, symSize: 0x10 }
  - { offsetInCU: 0x198DE, offset: 0x198DE, size: 0x8, addend: 0x0, symName: __ZNSt3__110unique_ptrINS_11__tree_nodeINS_4pairIxxEEPvEENS_22__tree_node_destructorINS_9allocatorIS5_EEEEED2B8ue170006Ev, symObjAddr: 0x9C30, symBinAddr: 0x10000A580, symSize: 0x20 }
  - { offsetInCU: 0x19908, offset: 0x19908, size: 0x8, addend: 0x0, symName: __ZNSt3__110unique_ptrINS_11__tree_nodeINS_4pairIxxEEPvEENS_22__tree_node_destructorINS_9allocatorIS5_EEEEE5resetB8ue170006EPS5_, symObjAddr: 0x9C50, symBinAddr: 0x10000A5A0, symSize: 0x70 }
  - { offsetInCU: 0x1994C, offset: 0x1994C, size: 0x8, addend: 0x0, symName: __ZNSt3__122__tree_node_destructorINS_9allocatorINS_11__tree_nodeINS_4pairIxxEEPvEEEEEclB8ue170006EPS6_, symObjAddr: 0x9CC0, symBinAddr: 0x10000A610, symSize: 0x80 }
  - { offsetInCU: 0x19981, offset: 0x19981, size: 0x8, addend: 0x0, symName: __ZNSt3__115__tree_iteratorINS_4pairIxxEEPNS_11__tree_nodeIS2_PvEElEC2B8ue170006ES6_, symObjAddr: 0x9D40, symBinAddr: 0x10000A690, symSize: 0x20 }
  - { offsetInCU: 0x199BA, offset: 0x199BA, size: 0x8, addend: 0x0, symName: __ZNSt3__14pairINS_15__tree_iteratorINS0_IxxEEPNS_11__tree_nodeIS2_PvEElEEbEC2B8ue170006IS7_RbLS4_0EEEOT_OT0_, symObjAddr: 0x9D60, symBinAddr: 0x10000A6B0, symSize: 0x30 }
  - { offsetInCU: 0x19A18, offset: 0x19A18, size: 0x8, addend: 0x0, symName: __ZNSt3__14pairINS_21__tree_const_iteratorINS0_IxxEEPNS_11__tree_nodeIS2_PvEElEEbEC2B8ue170006INS_15__tree_iteratorIS2_S6_lEEbLS4_0EEEONS0_IT_T0_EE, symObjAddr: 0x9D90, symBinAddr: 0x10000A6E0, symSize: 0x50 }
  - { offsetInCU: 0x19A69, offset: 0x19A69, size: 0x8, addend: 0x0, symName: __ZNSt3__121__tree_const_iteratorINS_4pairIxxEEPNS_11__tree_nodeIS2_PvEElEC1B8ue170006ENS_15__tree_iteratorIS2_S6_lEE, symObjAddr: 0x9DE0, symBinAddr: 0x10000A730, symSize: 0x30 }
  - { offsetInCU: 0x19AA2, offset: 0x19AA2, size: 0x8, addend: 0x0, symName: __ZNSt3__121__tree_const_iteratorINS_4pairIxxEEPNS_11__tree_nodeIS2_PvEElEC2B8ue170006ENS_15__tree_iteratorIS2_S6_lEE, symObjAddr: 0x9E10, symBinAddr: 0x10000A760, symSize: 0x20 }
  - { offsetInCU: 0x19ADB, offset: 0x19ADB, size: 0x8, addend: 0x0, symName: __ZNKSt3__13setINS_4pairIxxEENS_4lessIS2_EENS_9allocatorIS2_EEE4findB8ue170006ERKS2_, symObjAddr: 0x9E60, symBinAddr: 0x10000A7B0, symSize: 0x30 }
  - { offsetInCU: 0x19B10, offset: 0x19B10, size: 0x8, addend: 0x0, symName: __ZNKSt3__13setINS_4pairIxxEENS_4lessIS2_EENS_9allocatorIS2_EEE3endB8ue170006Ev, symObjAddr: 0x9E90, symBinAddr: 0x10000A7E0, symSize: 0x30 }
  - { offsetInCU: 0x19B36, offset: 0x19B36, size: 0x8, addend: 0x0, symName: __ZNKSt3__16__treeINS_4pairIxxEENS_4lessIS2_EENS_9allocatorIS2_EEE4findIS2_EENS_21__tree_const_iteratorIS2_PNS_11__tree_nodeIS2_PvEElEERKT_, symObjAddr: 0x9EF0, symBinAddr: 0x10000A840, symSize: 0xE0 }
  - { offsetInCU: 0x19B85, offset: 0x19B85, size: 0x8, addend: 0x0, symName: __ZNKSt3__16__treeINS_4pairIxxEENS_4lessIS2_EENS_9allocatorIS2_EEE13__lower_boundIS2_EENS_21__tree_const_iteratorIS2_PNS_11__tree_nodeIS2_PvEElEERKT_SD_PNS_15__tree_end_nodeIPNS_16__tree_node_baseISB_EEEE, symObjAddr: 0x9FD0, symBinAddr: 0x10000A920, symSize: 0x90 }
  - { offsetInCU: 0x19BE3, offset: 0x19BE3, size: 0x8, addend: 0x0, symName: __ZNKSt3__16__treeINS_4pairIxxEENS_4lessIS2_EENS_9allocatorIS2_EEE3endB8ue170006Ev, symObjAddr: 0xA060, symBinAddr: 0x10000A9B0, symSize: 0x30 }
  - { offsetInCU: 0x19C09, offset: 0x19C09, size: 0x8, addend: 0x0, symName: __ZNKSt3__16__treeINS_4pairIxxEENS_4lessIS2_EENS_9allocatorIS2_EEE10value_compB8ue170006Ev, symObjAddr: 0xA090, symBinAddr: 0x10000A9E0, symSize: 0x20 }
  - { offsetInCU: 0x19C2F, offset: 0x19C2F, size: 0x8, addend: 0x0, symName: __ZNKSt3__121__tree_const_iteratorINS_4pairIxxEEPNS_11__tree_nodeIS2_PvEElEdeB8ue170006Ev, symObjAddr: 0xA0B0, symBinAddr: 0x10000AA00, symSize: 0x20 }
  - { offsetInCU: 0x19C55, offset: 0x19C55, size: 0x8, addend: 0x0, symName: __ZNSt3__121__tree_const_iteratorINS_4pairIxxEEPNS_11__tree_nodeIS2_PvEElEC1B8ue170006EPNS_15__tree_end_nodeIPNS_16__tree_node_baseIS4_EEEE, symObjAddr: 0xA0D0, symBinAddr: 0x10000AA20, symSize: 0x30 }
  - { offsetInCU: 0x19C8E, offset: 0x19C8E, size: 0x8, addend: 0x0, symName: __ZNSt3__121__tree_const_iteratorINS_4pairIxxEEPNS_11__tree_nodeIS2_PvEElEC2B8ue170006EPNS_15__tree_end_nodeIPNS_16__tree_node_baseIS4_EEEE, symObjAddr: 0xA100, symBinAddr: 0x10000AA50, symSize: 0x20 }
  - { offsetInCU: 0x19CC7, offset: 0x19CC7, size: 0x8, addend: 0x0, symName: __ZNKSt3__117__compressed_pairImNS_4lessINS_4pairIxxEEEEE6secondB8ue170006Ev, symObjAddr: 0xA120, symBinAddr: 0x10000AA70, symSize: 0x20 }
  - { offsetInCU: 0x19CED, offset: 0x19CED, size: 0x8, addend: 0x0, symName: __ZNKSt3__122__compressed_pair_elemINS_4lessINS_4pairIxxEEEELi1ELb1EE5__getB8ue170006Ev, symObjAddr: 0xA140, symBinAddr: 0x10000AA90, symSize: 0x10 }
  - { offsetInCU: 0x19D13, offset: 0x19D13, size: 0x8, addend: 0x0, symName: __ZNKSt3__121__tree_const_iteratorINS_4pairIxxEEPNS_11__tree_nodeIS2_PvEElE8__get_npB8ue170006Ev, symObjAddr: 0xA150, symBinAddr: 0x10000AAA0, symSize: 0x20 }
  - { offsetInCU: 0x19D39, offset: 0x19D39, size: 0x8, addend: 0x0, symName: __ZNSt3__16__treeINS_4pairIxxEENS_4lessIS2_EENS_9allocatorIS2_EEE5clearEv, symObjAddr: 0xA170, symBinAddr: 0x10000AAC0, symSize: 0x70 }
  - { offsetInCU: 0x19D61, offset: 0x19D61, size: 0x8, addend: 0x0, symName: __ZNKSt3__16__treeINS_4pairIxxEENS_4lessIS2_EENS_9allocatorIS2_EEE4sizeB8ue170006Ev, symObjAddr: 0xA1E0, symBinAddr: 0x10000AB30, symSize: 0x20 }
  - { offsetInCU: 0x19D87, offset: 0x19D87, size: 0x8, addend: 0x0, symName: __ZNKSt3__117__compressed_pairImNS_4lessINS_4pairIxxEEEEE5firstB8ue170006Ev, symObjAddr: 0xA200, symBinAddr: 0x10000AB50, symSize: 0x20 }
  - { offsetInCU: 0x19DAD, offset: 0x19DAD, size: 0x8, addend: 0x0, symName: __ZNSt3__111char_traitsIcE6lengthB8ue170006EPKc, symObjAddr: 0xA410, symBinAddr: 0x10000AD60, symSize: 0x30 }
  - { offsetInCU: 0x19DEF, offset: 0x19DEF, size: 0x8, addend: 0x0, symName: __ZNKSt3__113basic_ostreamIcNS_11char_traitsIcEEE6sentrycvbB8ue170006Ev, symObjAddr: 0xA440, symBinAddr: 0x10000AD90, symSize: 0x20 }
  - { offsetInCU: 0x19E15, offset: 0x19E15, size: 0x8, addend: 0x0, symName: __ZNSt3__119ostreambuf_iteratorIcNS_11char_traitsIcEEEC1B8ue170006ERNS_13basic_ostreamIcS2_EE, symObjAddr: 0xA680, symBinAddr: 0x10000AFD0, symSize: 0x30 }
  - { offsetInCU: 0x19E4D, offset: 0x19E4D, size: 0x8, addend: 0x0, symName: __ZNKSt3__18ios_base5flagsB8ue170006Ev, symObjAddr: 0xA6B0, symBinAddr: 0x10000B000, symSize: 0x20 }
  - { offsetInCU: 0x19E75, offset: 0x19E75, size: 0x8, addend: 0x0, symName: __ZNKSt3__19basic_iosIcNS_11char_traitsIcEEE4fillB8ue170006Ev, symObjAddr: 0xA6D0, symBinAddr: 0x10000B020, symSize: 0x70 }
  - { offsetInCU: 0x19E9D, offset: 0x19E9D, size: 0x8, addend: 0x0, symName: __ZNKSt3__119ostreambuf_iteratorIcNS_11char_traitsIcEEE6failedB8ue170006Ev, symObjAddr: 0xA740, symBinAddr: 0x10000B090, symSize: 0x20 }
  - { offsetInCU: 0x19EC3, offset: 0x19EC3, size: 0x8, addend: 0x0, symName: __ZNSt3__19basic_iosIcNS_11char_traitsIcEEE8setstateB8ue170006Ej, symObjAddr: 0xA760, symBinAddr: 0x10000B0B0, symSize: 0x30 }
  - { offsetInCU: 0x19EF8, offset: 0x19EF8, size: 0x8, addend: 0x0, symName: __ZNKSt3__18ios_base5widthB8ue170006Ev, symObjAddr: 0xA790, symBinAddr: 0x10000B0E0, symSize: 0x20 }
  - { offsetInCU: 0x19F20, offset: 0x19F20, size: 0x8, addend: 0x0, symName: __ZNSt3__115basic_streambufIcNS_11char_traitsIcEEE5sputnB8ue170006EPKcl, symObjAddr: 0xA7B0, symBinAddr: 0x10000B100, symSize: 0x30 }
  - { offsetInCU: 0x19F62, offset: 0x19F62, size: 0x8, addend: 0x0, symName: __ZNSt3__112basic_stringIcNS_11char_traitsIcEENS_9allocatorIcEEEC1B8ue170006Emc, symObjAddr: 0xA7E0, symBinAddr: 0x10000B130, symSize: 0x30 }
  - { offsetInCU: 0x19FAA, offset: 0x19FAA, size: 0x8, addend: 0x0, symName: __ZNSt3__112basic_stringIcNS_11char_traitsIcEENS_9allocatorIcEEE4dataB8ue170006Ev, symObjAddr: 0xA810, symBinAddr: 0x10000B160, symSize: 0x30 }
  - { offsetInCU: 0x19FD0, offset: 0x19FD0, size: 0x8, addend: 0x0, symName: __ZNSt3__18ios_base5widthB8ue170006El, symObjAddr: 0xA840, symBinAddr: 0x10000B190, symSize: 0x30 }
  - { offsetInCU: 0x1A016, offset: 0x1A016, size: 0x8, addend: 0x0, symName: __ZNSt3__112basic_stringIcNS_11char_traitsIcEENS_9allocatorIcEEEC2B8ue170006Emc, symObjAddr: 0xA870, symBinAddr: 0x10000B1C0, symSize: 0x50 }
  - { offsetInCU: 0x1A05E, offset: 0x1A05E, size: 0x8, addend: 0x0, symName: __ZNSt3__117__compressed_pairINS_12basic_stringIcNS_11char_traitsIcEENS_9allocatorIcEEE5__repES5_EC1B8ue170006INS_18__default_init_tagESA_EEOT_OT0_, symObjAddr: 0xA8C0, symBinAddr: 0x10000B210, symSize: 0x30 }
  - { offsetInCU: 0x1A0B6, offset: 0x1A0B6, size: 0x8, addend: 0x0, symName: __ZNSt3__117__compressed_pairINS_12basic_stringIcNS_11char_traitsIcEENS_9allocatorIcEEE5__repES5_EC2B8ue170006INS_18__default_init_tagESA_EEOT_OT0_, symObjAddr: 0xA8F0, symBinAddr: 0x10000B240, symSize: 0x30 }
  - { offsetInCU: 0x1A10E, offset: 0x1A10E, size: 0x8, addend: 0x0, symName: __ZNSt3__122__compressed_pair_elemINS_12basic_stringIcNS_11char_traitsIcEENS_9allocatorIcEEE5__repELi0ELb0EEC2B8ue170006ENS_18__default_init_tagE, symObjAddr: 0xA920, symBinAddr: 0x10000B270, symSize: 0x10 }
  - { offsetInCU: 0x1A142, offset: 0x1A142, size: 0x8, addend: 0x0, symName: __ZNSt3__122__compressed_pair_elemINS_9allocatorIcEELi1ELb1EEC2B8ue170006ENS_18__default_init_tagE, symObjAddr: 0xA930, symBinAddr: 0x10000B280, symSize: 0x20 }
  - { offsetInCU: 0x1A176, offset: 0x1A176, size: 0x8, addend: 0x0, symName: __ZNSt3__19allocatorIcEC2B8ue170006Ev, symObjAddr: 0xA950, symBinAddr: 0x10000B2A0, symSize: 0x20 }
  - { offsetInCU: 0x1A1A0, offset: 0x1A1A0, size: 0x8, addend: 0x0, symName: __ZNSt3__116__non_trivial_ifILb1ENS_9allocatorIcEEEC2B8ue170006Ev, symObjAddr: 0xA970, symBinAddr: 0x10000B2C0, symSize: 0x10 }
  - { offsetInCU: 0x1A1CA, offset: 0x1A1CA, size: 0x8, addend: 0x0, symName: __ZNSt3__112basic_stringIcNS_11char_traitsIcEENS_9allocatorIcEEE13__get_pointerB8ue170006Ev, symObjAddr: 0xA990, symBinAddr: 0x10000B2E0, symSize: 0x50 }
  - { offsetInCU: 0x1A1F0, offset: 0x1A1F0, size: 0x8, addend: 0x0, symName: __ZNKSt3__112basic_stringIcNS_11char_traitsIcEENS_9allocatorIcEEE9__is_longB8ue170006Ev, symObjAddr: 0xA9E0, symBinAddr: 0x10000B330, symSize: 0x30 }
  - { offsetInCU: 0x1A216, offset: 0x1A216, size: 0x8, addend: 0x0, symName: __ZNSt3__112basic_stringIcNS_11char_traitsIcEENS_9allocatorIcEEE18__get_long_pointerB8ue170006Ev, symObjAddr: 0xAA10, symBinAddr: 0x10000B360, symSize: 0x20 }
  - { offsetInCU: 0x1A23C, offset: 0x1A23C, size: 0x8, addend: 0x0, symName: __ZNSt3__112basic_stringIcNS_11char_traitsIcEENS_9allocatorIcEEE19__get_short_pointerB8ue170006Ev, symObjAddr: 0xAA30, symBinAddr: 0x10000B380, symSize: 0x30 }
  - { offsetInCU: 0x1A262, offset: 0x1A262, size: 0x8, addend: 0x0, symName: __ZNKSt3__117__compressed_pairINS_12basic_stringIcNS_11char_traitsIcEENS_9allocatorIcEEE5__repES5_E5firstB8ue170006Ev, symObjAddr: 0xAA60, symBinAddr: 0x10000B3B0, symSize: 0x20 }
  - { offsetInCU: 0x1A288, offset: 0x1A288, size: 0x8, addend: 0x0, symName: __ZNKSt3__122__compressed_pair_elemINS_12basic_stringIcNS_11char_traitsIcEENS_9allocatorIcEEE5__repELi0ELb0EE5__getB8ue170006Ev, symObjAddr: 0xAA80, symBinAddr: 0x10000B3D0, symSize: 0x10 }
  - { offsetInCU: 0x1A2AE, offset: 0x1A2AE, size: 0x8, addend: 0x0, symName: __ZNSt3__117__compressed_pairINS_12basic_stringIcNS_11char_traitsIcEENS_9allocatorIcEEE5__repES5_E5firstB8ue170006Ev, symObjAddr: 0xAA90, symBinAddr: 0x10000B3E0, symSize: 0x20 }
  - { offsetInCU: 0x1A2D4, offset: 0x1A2D4, size: 0x8, addend: 0x0, symName: __ZNSt3__122__compressed_pair_elemINS_12basic_stringIcNS_11char_traitsIcEENS_9allocatorIcEEE5__repELi0ELb0EE5__getB8ue170006Ev, symObjAddr: 0xAAB0, symBinAddr: 0x10000B400, symSize: 0x10 }
  - { offsetInCU: 0x1A2FA, offset: 0x1A2FA, size: 0x8, addend: 0x0, symName: __ZNSt3__114pointer_traitsIPcE10pointer_toB8ue170006ERc, symObjAddr: 0xAAC0, symBinAddr: 0x10000B410, symSize: 0x10 }
  - { offsetInCU: 0x1A31D, offset: 0x1A31D, size: 0x8, addend: 0x0, symName: __ZNSt3__119ostreambuf_iteratorIcNS_11char_traitsIcEEEC2B8ue170006ERNS_13basic_ostreamIcS2_EE, symObjAddr: 0xAAD0, symBinAddr: 0x10000B420, symSize: 0x50 }
  - { offsetInCU: 0x1A355, offset: 0x1A355, size: 0x8, addend: 0x0, symName: __ZNKSt3__19basic_iosIcNS_11char_traitsIcEEE5rdbufB8ue170006Ev, symObjAddr: 0xAB20, symBinAddr: 0x10000B470, symSize: 0x20 }
  - { offsetInCU: 0x1A37D, offset: 0x1A37D, size: 0x8, addend: 0x0, symName: __ZNKSt3__18ios_base5rdbufB8ue170006Ev, symObjAddr: 0xAB40, symBinAddr: 0x10000B490, symSize: 0x20 }
  - { offsetInCU: 0x1A3A3, offset: 0x1A3A3, size: 0x8, addend: 0x0, symName: __ZNSt3__111char_traitsIcE11eq_int_typeB8ue170006Eii, symObjAddr: 0xAB60, symBinAddr: 0x10000B4B0, symSize: 0x20 }
  - { offsetInCU: 0x1A3D6, offset: 0x1A3D6, size: 0x8, addend: 0x0, symName: __ZNSt3__111char_traitsIcE3eofB8ue170006Ev, symObjAddr: 0xAB80, symBinAddr: 0x10000B4D0, symSize: 0x10 }
  - { offsetInCU: 0x1A3EA, offset: 0x1A3EA, size: 0x8, addend: 0x0, symName: __ZNKSt3__19basic_iosIcNS_11char_traitsIcEEE5widenB8ue170006Ec, symObjAddr: 0xAB90, symBinAddr: 0x10000B4E0, symSize: 0x80 }
  - { offsetInCU: 0x1A456, offset: 0x1A456, size: 0x8, addend: 0x0, symName: __ZNKSt3__15ctypeIcE5widenB8ue170006Ec, symObjAddr: 0xAC40, symBinAddr: 0x10000B590, symSize: 0x30 }
  - { offsetInCU: 0x1A48B, offset: 0x1A48B, size: 0x8, addend: 0x0, symName: __ZNSt3__18ios_base8setstateB8ue170006Ej, symObjAddr: 0xAC70, symBinAddr: 0x10000B5C0, symSize: 0x30 }
...
