---
triple:          'x86_64-apple-darwin'
binary-path:     c
relocations:
  - { offset: 0x5957, size: 0x8, addend: 0x0, symName: __ZNSt3__14sortB8ne180100INS_11__wrap_iterIPiEEEEvT_S4_, symObjAddr: 0x2E0, symBinAddr: 0x100000A00, symSize: 0x40 }
  - { offset: 0x5999, size: 0x8, addend: 0x0, symName: __ZNSt3__13minB8ne180100IiEERKT_S3_S3_, symObjAddr: 0x380, symBinAddr: 0x100000AA0, symSize: 0x30 }
  - { offset: 0x59DC, size: 0x8, addend: 0x0, symName: __ZNSt3__14endlB8ne180100IcNS_11char_traitsIcEEEERNS_13basic_ostreamIT_T0_EES7_, symObjAddr: 0x3D0, symBinAddr: 0x100000AF0, symSize: 0x50 }
  - { offset: 0x5A1C, size: 0x8, addend: 0x0, symName: __ZNSt3__122__make_exception_guardB8ne180100INS_6vectorIiNS_9allocatorIiEEE16__destroy_vectorEEENS_28__exception_guard_exceptionsIT_EES7_, symObjAddr: 0x540, symBinAddr: 0x100000C60, symSize: 0x40 }
  - { offset: 0x5A51, size: 0x8, addend: 0x0, symName: __ZNSt3__119__allocate_at_leastB8ne180100INS_9allocatorIiEEEENS_19__allocation_resultINS_16allocator_traitsIT_E7pointerEEERS5_m, symObjAddr: 0x8F0, symBinAddr: 0x100001010, symSize: 0x40 }
  - { offset: 0x5A94, size: 0x8, addend: 0x0, symName: __ZNSt3__13minB8ne180100ImEERKT_S3_S3_, symObjAddr: 0x980, symBinAddr: 0x1000010A0, symSize: 0x30 }
  - { offset: 0x5CC1, size: 0x8, addend: 0x0, symName: __ZNSt3__13minB8ne180100ImNS_6__lessIvvEEEERKT_S5_S5_T0_, symObjAddr: 0xA10, symBinAddr: 0x100001130, symSize: 0x50 }
  - { offset: 0x5F7D, size: 0x8, addend: 0x0, symName: __ZNSt3__120__throw_length_errorB8ne180100EPKc, symObjAddr: 0xAF0, symBinAddr: 0x100001210, symSize: 0x70 }
  - { offset: 0x5FA5, size: 0x8, addend: 0x0, symName: __ZNSt3__117__libcpp_allocateB8ne180100Emm, symObjAddr: 0xC60, symBinAddr: 0x100001380, symSize: 0x60 }
  - { offset: 0x5FFF, size: 0x8, addend: 0x0, symName: __ZNSt3__124__is_overaligned_for_newB8ne180100Em, symObjAddr: 0xCC0, symBinAddr: 0x1000013E0, symSize: 0x20 }
  - { offset: 0x602D, size: 0x8, addend: 0x0, symName: __ZNSt3__121__libcpp_operator_newB8ne180100IJmSt11align_val_tEEEPvDpT_, symObjAddr: 0xCE0, symBinAddr: 0x100001400, symSize: 0x30 }
  - { offset: 0x607A, size: 0x8, addend: 0x0, symName: __ZNSt3__121__libcpp_operator_newB8ne180100IJmEEEPvDpT_, symObjAddr: 0xD10, symBinAddr: 0x100001430, symSize: 0x20 }
  - { offset: 0x60B3, size: 0x8, addend: 0x0, symName: __ZNSt3__112__to_addressB8ne180100IiEEPT_S2_, symObjAddr: 0xDE0, symBinAddr: 0x100001500, symSize: 0x10 }
  - { offset: 0x60E8, size: 0x8, addend: 0x0, symName: __ZNSt3__114__construct_atB8ne180100IiJEPiEEPT_S3_DpOT0_, symObjAddr: 0xE50, symBinAddr: 0x100001570, symSize: 0x20 }
  - { offset: 0x6127, size: 0x8, addend: 0x0, symName: __ZNSt3__112construct_atB8ne180100IiJEPiEEPT_S3_DpOT0_, symObjAddr: 0xE70, symBinAddr: 0x100001590, symSize: 0x20 }
  - { offset: 0x6166, size: 0x8, addend: 0x0, symName: __ZNSt3__112__destroy_atB8ne180100IiLi0EEEvPT_, symObjAddr: 0x10A0, symBinAddr: 0x1000017C0, symSize: 0x10 }
  - { offset: 0x619D, size: 0x8, addend: 0x0, symName: __ZNSt3__119__libcpp_deallocateB8ne180100EPvmm, symObjAddr: 0x10F0, symBinAddr: 0x100001810, symSize: 0x60 }
  - { offset: 0x6202, size: 0x8, addend: 0x0, symName: __ZNSt3__127__do_deallocate_handle_sizeB8ne180100IJSt11align_val_tEEEvPvmDpT_, symObjAddr: 0x1150, symBinAddr: 0x100001870, symSize: 0x30 }
  - { offset: 0x6255, size: 0x8, addend: 0x0, symName: __ZNSt3__127__do_deallocate_handle_sizeB8ne180100IJEEEvPvmDpT_, symObjAddr: 0x1180, symBinAddr: 0x1000018A0, symSize: 0x20 }
  - { offset: 0x6293, size: 0x8, addend: 0x0, symName: __ZNSt3__124__libcpp_operator_deleteB8ne180100IJPvSt11align_val_tEEEvDpT_, symObjAddr: 0x11A0, symBinAddr: 0x1000018C0, symSize: 0x30 }
  - { offset: 0x62DC, size: 0x8, addend: 0x0, symName: __ZNSt3__124__libcpp_operator_deleteB8ne180100IJPvEEEvDpT_, symObjAddr: 0x11D0, symBinAddr: 0x1000018F0, symSize: 0x20 }
  - { offset: 0x6311, size: 0x8, addend: 0x0, symName: __ZNSt3__14sortB8ne180100INS_11__wrap_iterIPiEENS_6__lessIvvEEEEvT_S6_T0_, symObjAddr: 0x1240, symBinAddr: 0x100001960, symSize: 0x40 }
  - { offset: 0x636B, size: 0x8, addend: 0x0, symName: __ZNSt3__111__sort_implB8ne180100INS_17_ClassicAlgPolicyENS_11__wrap_iterIPiEENS_6__lessIvvEEEEvT0_S7_RT1_, symObjAddr: 0x1280, symBinAddr: 0x1000019A0, symSize: 0xB0 }
  - { offset: 0x63CE, size: 0x8, addend: 0x0, symName: __ZNSt3__123__debug_randomize_rangeB8ne180100INS_17_ClassicAlgPolicyENS_11__wrap_iterIPiEES4_EEvT0_T1_, symObjAddr: 0x1330, symBinAddr: 0x100001A50, symSize: 0x10 }
  - { offset: 0x641F, size: 0x8, addend: 0x0, symName: __ZNSt3__115__sort_dispatchB8ne180100INS_17_ClassicAlgPolicyEiLi0EEEvPT0_S3_RNS_6__lessIvvEE, symObjAddr: 0x1340, symBinAddr: 0x100001A60, symSize: 0x30 }
  - { offset: 0x648A, size: 0x8, addend: 0x0, symName: __ZNSt3__113__unwrap_iterB8ne180100INS_11__wrap_iterIPiEENS_18__unwrap_iter_implIS3_Lb1EEELi0EEEDTclsrT0_8__unwrapclsr3stdE7declvalIT_EEEES7_, symObjAddr: 0x1370, symBinAddr: 0x100001A90, symSize: 0x30 }
  - { offset: 0x64CE, size: 0x8, addend: 0x0, symName: __ZNSt3__135__check_strict_weak_ordering_sortedB8ne180100IPiNS_6__lessIvvEEEEvT_S4_RT0_, symObjAddr: 0x13A0, symBinAddr: 0x100001AC0, symSize: 0x20 }
  - { offset: 0x6577, size: 0x8, addend: 0x0, symName: __ZNSt3__112__to_addressB8ne180100INS_11__wrap_iterIPiEEvEEu7__decayIDTclsr19__to_address_helperIT_EE6__callclsr3stdE7declvalIRKS4_EEEEES6_, symObjAddr: 0x13E0, symBinAddr: 0x100001B00, symSize: 0x20 }
  - { offset: 0x6614, size: 0x8, addend: 0x0, symName: __ZNSt3__13minB8ne180100IiNS_6__lessIvvEEEERKT_S5_S5_T0_, symObjAddr: 0x1500, symBinAddr: 0x100001C20, symSize: 0x50 }
  - { offset: 0x666E, size: 0x8, addend: 0x0, symName: __ZNSt3__19use_facetB8ne180100INS_5ctypeIcEEEERKT_RKNS_6localeE, symObjAddr: 0x1640, symBinAddr: 0x100001D60, symSize: 0x30 }
  - { offset: 0x7A93, size: 0x8, addend: 0x0, symName: __ZSt28__throw_bad_array_new_lengthB8ne180100v, symObjAddr: 0xC20, symBinAddr: 0x100001340, symSize: 0x40 }
  - { offset: 0x7F3D, size: 0x8, addend: 0x0, symName: _main, symObjAddr: 0x0, symBinAddr: 0x100000720, symSize: 0x260 }
  - { offset: 0x80D5, size: 0x8, addend: 0x0, symName: __ZNSt3__19basic_iosIcNS_11char_traitsIcEEE3tieB8ne180100EPNS_13basic_ostreamIcS2_EE, symObjAddr: 0x260, symBinAddr: 0x100000980, symSize: 0x30 }
  - { offset: 0x8119, size: 0x8, addend: 0x0, symName: __ZNSt3__16vectorIiNS_9allocatorIiEEEC1Em, symObjAddr: 0x290, symBinAddr: 0x1000009B0, symSize: 0x30 }
  - { offset: 0x8152, size: 0x8, addend: 0x0, symName: __ZNSt3__16vectorIiNS_9allocatorIiEEEixB8ne180100Em, symObjAddr: 0x2C0, symBinAddr: 0x1000009E0, symSize: 0x20 }
  - { offset: 0x8187, size: 0x8, addend: 0x0, symName: __ZNSt3__16vectorIiNS_9allocatorIiEEE5beginB8ne180100Ev, symObjAddr: 0x320, symBinAddr: 0x100000A40, symSize: 0x30 }
  - { offset: 0x81AD, size: 0x8, addend: 0x0, symName: __ZNSt3__16vectorIiNS_9allocatorIiEEE3endB8ne180100Ev, symObjAddr: 0x350, symBinAddr: 0x100000A70, symSize: 0x30 }
  - { offset: 0x81D3, size: 0x8, addend: 0x0, symName: __ZNSt3__113basic_ostreamIcNS_11char_traitsIcEEElsB8ne180100EPFRS3_S4_E, symObjAddr: 0x3B0, symBinAddr: 0x100000AD0, symSize: 0x20 }
  - { offset: 0x8205, size: 0x8, addend: 0x0, symName: __ZNSt3__16vectorIiNS_9allocatorIiEEED1B8ne180100Ev, symObjAddr: 0x420, symBinAddr: 0x100000B40, symSize: 0x20 }
  - { offset: 0x822D, size: 0x8, addend: 0x0, symName: __ZNSt3__16vectorIiNS_9allocatorIiEEEC2Em, symObjAddr: 0x440, symBinAddr: 0x100000B60, symSize: 0xD0 }
  - { offset: 0x8285, size: 0x8, addend: 0x0, symName: __ZNSt3__117__compressed_pairIPiNS_9allocatorIiEEEC1B8ne180100IDnNS_18__default_init_tagEEEOT_OT0_, symObjAddr: 0x510, symBinAddr: 0x100000C30, symSize: 0x30 }
  - { offset: 0x82DB, size: 0x8, addend: 0x0, symName: __ZNSt3__16vectorIiNS_9allocatorIiEEE16__destroy_vectorC1B8ne180100ERS3_, symObjAddr: 0x580, symBinAddr: 0x100000CA0, symSize: 0x30 }
  - { offset: 0x8312, size: 0x8, addend: 0x0, symName: __ZNSt3__16vectorIiNS_9allocatorIiEEE11__vallocateB8ne180100Em, symObjAddr: 0x5B0, symBinAddr: 0x100000CD0, symSize: 0xA0 }
  - { offset: 0x8354, size: 0x8, addend: 0x0, symName: __ZNSt3__16vectorIiNS_9allocatorIiEEE18__construct_at_endEm, symObjAddr: 0x650, symBinAddr: 0x100000D70, symSize: 0xC0 }
  - { offset: 0x83C4, size: 0x8, addend: 0x0, symName: __ZNSt3__128__exception_guard_exceptionsINS_6vectorIiNS_9allocatorIiEEE16__destroy_vectorEE10__completeB8ne180100Ev, symObjAddr: 0x710, symBinAddr: 0x100000E30, symSize: 0x20 }
  - { offset: 0x83E8, size: 0x8, addend: 0x0, symName: __ZNSt3__128__exception_guard_exceptionsINS_6vectorIiNS_9allocatorIiEEE16__destroy_vectorEED1B8ne180100Ev, symObjAddr: 0x730, symBinAddr: 0x100000E50, symSize: 0x20 }
  - { offset: 0x8410, size: 0x8, addend: 0x0, symName: __ZNSt3__117__compressed_pairIPiNS_9allocatorIiEEEC2B8ne180100IDnNS_18__default_init_tagEEEOT_OT0_, symObjAddr: 0x750, symBinAddr: 0x100000E70, symSize: 0x40 }
  - { offset: 0x8466, size: 0x8, addend: 0x0, symName: __ZNSt3__122__compressed_pair_elemIPiLi0ELb0EEC2B8ne180100IDnvEEOT_, symObjAddr: 0x790, symBinAddr: 0x100000EB0, symSize: 0x20 }
  - { offset: 0x84A6, size: 0x8, addend: 0x0, symName: __ZNSt3__122__compressed_pair_elemINS_9allocatorIiEELi1ELb1EEC2B8ne180100ENS_18__default_init_tagE, symObjAddr: 0x7B0, symBinAddr: 0x100000ED0, symSize: 0x20 }
  - { offset: 0x84D9, size: 0x8, addend: 0x0, symName: __ZNSt3__19allocatorIiEC2B8ne180100Ev, symObjAddr: 0x7D0, symBinAddr: 0x100000EF0, symSize: 0x20 }
  - { offset: 0x8501, size: 0x8, addend: 0x0, symName: __ZNSt3__116__non_trivial_ifILb1ENS_9allocatorIiEEEC2B8ne180100Ev, symObjAddr: 0x7F0, symBinAddr: 0x100000F10, symSize: 0x10 }
  - { offset: 0x8529, size: 0x8, addend: 0x0, symName: __ZNSt3__128__exception_guard_exceptionsINS_6vectorIiNS_9allocatorIiEEE16__destroy_vectorEEC1B8ne180100ES5_, symObjAddr: 0x800, symBinAddr: 0x100000F20, symSize: 0x30 }
  - { offset: 0x855F, size: 0x8, addend: 0x0, symName: __ZNSt3__128__exception_guard_exceptionsINS_6vectorIiNS_9allocatorIiEEE16__destroy_vectorEEC2B8ne180100ES5_, symObjAddr: 0x830, symBinAddr: 0x100000F50, symSize: 0x20 }
  - { offset: 0x8595, size: 0x8, addend: 0x0, symName: __ZNSt3__16vectorIiNS_9allocatorIiEEE16__destroy_vectorC2B8ne180100ERS3_, symObjAddr: 0x850, symBinAddr: 0x100000F70, symSize: 0x20 }
  - { offset: 0x85CC, size: 0x8, addend: 0x0, symName: __ZNKSt3__16vectorIiNS_9allocatorIiEEE8max_sizeEv, symObjAddr: 0x870, symBinAddr: 0x100000F90, symSize: 0x60 }
  - { offset: 0x85F2, size: 0x8, addend: 0x0, symName: __ZNKSt3__16vectorIiNS_9allocatorIiEEE20__throw_length_errorB8ne180100Ev, symObjAddr: 0x8D0, symBinAddr: 0x100000FF0, symSize: 0x20 }
  - { offset: 0x8616, size: 0x8, addend: 0x0, symName: __ZNSt3__16vectorIiNS_9allocatorIiEEE7__allocB8ne180100Ev, symObjAddr: 0x930, symBinAddr: 0x100001050, symSize: 0x20 }
  - { offset: 0x863A, size: 0x8, addend: 0x0, symName: __ZNSt3__16vectorIiNS_9allocatorIiEEE9__end_capB8ne180100Ev, symObjAddr: 0x950, symBinAddr: 0x100001070, symSize: 0x20 }
  - { offset: 0x865E, size: 0x8, addend: 0x0, symName: __ZNKSt3__16vectorIiNS_9allocatorIiEEE14__annotate_newB8ne180100Em, symObjAddr: 0x970, symBinAddr: 0x100001090, symSize: 0x10 }
  - { offset: 0x869C, size: 0x8, addend: 0x0, symName: __ZNSt3__116allocator_traitsINS_9allocatorIiEEE8max_sizeB8ne180100IS2_vvEEmRKS2_, symObjAddr: 0x9B0, symBinAddr: 0x1000010D0, symSize: 0x20 }
  - { offset: 0x86C6, size: 0x8, addend: 0x0, symName: __ZNKSt3__16vectorIiNS_9allocatorIiEEE7__allocB8ne180100Ev, symObjAddr: 0x9D0, symBinAddr: 0x1000010F0, symSize: 0x20 }
  - { offset: 0x86EB, size: 0x8, addend: 0x0, symName: __ZNSt3__114numeric_limitsIlE3maxB8ne180100Ev, symObjAddr: 0x9F0, symBinAddr: 0x100001110, symSize: 0x10 }
  - { offset: 0x8712, size: 0x8, addend: 0x0, symName: __ZNKSt3__16__lessIvvEclB8ne180100ImmEEbRKT_RKT0_, symObjAddr: 0xA60, symBinAddr: 0x100001180, symSize: 0x30 }
  - { offset: 0x8765, size: 0x8, addend: 0x0, symName: __ZNSt3__114numeric_limitsImE3maxB8ne180100Ev, symObjAddr: 0xA90, symBinAddr: 0x1000011B0, symSize: 0x10 }
  - { offset: 0x8779, size: 0x8, addend: 0x0, symName: __ZNSt3__123__libcpp_numeric_limitsImLb1EE3maxB8ne180100Ev, symObjAddr: 0xAA0, symBinAddr: 0x1000011C0, symSize: 0x10 }
  - { offset: 0x878C, size: 0x8, addend: 0x0, symName: __ZNKSt3__117__compressed_pairIPiNS_9allocatorIiEEE6secondB8ne180100Ev, symObjAddr: 0xAB0, symBinAddr: 0x1000011D0, symSize: 0x20 }
  - { offset: 0x87B0, size: 0x8, addend: 0x0, symName: __ZNKSt3__122__compressed_pair_elemINS_9allocatorIiEELi1ELb1EE5__getB8ne180100Ev, symObjAddr: 0xAD0, symBinAddr: 0x1000011F0, symSize: 0x10 }
  - { offset: 0x87D5, size: 0x8, addend: 0x0, symName: __ZNSt3__123__libcpp_numeric_limitsIlLb1EE3maxB8ne180100Ev, symObjAddr: 0xAE0, symBinAddr: 0x100001200, symSize: 0x10 }
  - { offset: 0x87E8, size: 0x8, addend: 0x0, symName: __ZNSt12length_errorC1B8ne180100EPKc, symObjAddr: 0xB60, symBinAddr: 0x100001280, symSize: 0x30 }
  - { offset: 0x881E, size: 0x8, addend: 0x0, symName: __ZNSt12length_errorC2B8ne180100EPKc, symObjAddr: 0xB90, symBinAddr: 0x1000012B0, symSize: 0x40 }
  - { offset: 0x8854, size: 0x8, addend: 0x0, symName: __ZNSt3__19allocatorIiE8allocateB8ne180100Em, symObjAddr: 0xBD0, symBinAddr: 0x1000012F0, symSize: 0x50 }
  - { offset: 0x8886, size: 0x8, addend: 0x0, symName: __ZNSt3__117__compressed_pairIPiNS_9allocatorIiEEE6secondB8ne180100Ev, symObjAddr: 0xD30, symBinAddr: 0x100001450, symSize: 0x20 }
  - { offset: 0x88AA, size: 0x8, addend: 0x0, symName: __ZNSt3__122__compressed_pair_elemINS_9allocatorIiEELi1ELb1EE5__getB8ne180100Ev, symObjAddr: 0xD50, symBinAddr: 0x100001470, symSize: 0x10 }
  - { offset: 0x88CE, size: 0x8, addend: 0x0, symName: __ZNSt3__117__compressed_pairIPiNS_9allocatorIiEEE5firstB8ne180100Ev, symObjAddr: 0xD60, symBinAddr: 0x100001480, symSize: 0x20 }
  - { offset: 0x88F2, size: 0x8, addend: 0x0, symName: __ZNSt3__122__compressed_pair_elemIPiLi0ELb0EE5__getB8ne180100Ev, symObjAddr: 0xD80, symBinAddr: 0x1000014A0, symSize: 0x10 }
  - { offset: 0x892F, size: 0x8, addend: 0x0, symName: __ZNSt3__16vectorIiNS_9allocatorIiEEE21_ConstructTransactionC1B8ne180100ERS3_m, symObjAddr: 0xD90, symBinAddr: 0x1000014B0, symSize: 0x30 }
  - { offset: 0x8976, size: 0x8, addend: 0x0, symName: __ZNSt3__116allocator_traitsINS_9allocatorIiEEE9constructB8ne180100IiJEvvEEvRS2_PT_DpOT0_, symObjAddr: 0xDC0, symBinAddr: 0x1000014E0, symSize: 0x20 }
  - { offset: 0x89B4, size: 0x8, addend: 0x0, symName: __ZNSt3__16vectorIiNS_9allocatorIiEEE21_ConstructTransactionD1B8ne180100Ev, symObjAddr: 0xDF0, symBinAddr: 0x100001510, symSize: 0x20 }
  - { offset: 0x89DC, size: 0x8, addend: 0x0, symName: __ZNSt3__16vectorIiNS_9allocatorIiEEE21_ConstructTransactionC2B8ne180100ERS3_m, symObjAddr: 0xE10, symBinAddr: 0x100001530, symSize: 0x40 }
  - { offset: 0x8A22, size: 0x8, addend: 0x0, symName: __ZNSt3__16vectorIiNS_9allocatorIiEEE21_ConstructTransactionD2B8ne180100Ev, symObjAddr: 0xE90, symBinAddr: 0x1000015B0, symSize: 0x20 }
  - { offset: 0x8A4A, size: 0x8, addend: 0x0, symName: __ZNSt3__128__exception_guard_exceptionsINS_6vectorIiNS_9allocatorIiEEE16__destroy_vectorEED2B8ne180100Ev, symObjAddr: 0xEB0, symBinAddr: 0x1000015D0, symSize: 0x40 }
  - { offset: 0x8A72, size: 0x8, addend: 0x0, symName: __ZNSt3__16vectorIiNS_9allocatorIiEEE16__destroy_vectorclB8ne180100Ev, symObjAddr: 0xEF0, symBinAddr: 0x100001610, symSize: 0x80 }
  - { offset: 0x8A96, size: 0x8, addend: 0x0, symName: __ZNSt3__16vectorIiNS_9allocatorIiEEE7__clearB8ne180100Ev, symObjAddr: 0xF70, symBinAddr: 0x100001690, symSize: 0x20 }
  - { offset: 0x8ABA, size: 0x8, addend: 0x0, symName: __ZNKSt3__16vectorIiNS_9allocatorIiEEE17__annotate_deleteB8ne180100Ev, symObjAddr: 0xF90, symBinAddr: 0x1000016B0, symSize: 0x10 }
  - { offset: 0x8ADF, size: 0x8, addend: 0x0, symName: __ZNSt3__116allocator_traitsINS_9allocatorIiEEE10deallocateB8ne180100ERS2_Pim, symObjAddr: 0xFA0, symBinAddr: 0x1000016C0, symSize: 0x30 }
  - { offset: 0x8B20, size: 0x8, addend: 0x0, symName: __ZNKSt3__16vectorIiNS_9allocatorIiEEE8capacityB8ne180100Ev, symObjAddr: 0xFD0, symBinAddr: 0x1000016F0, symSize: 0x30 }
  - { offset: 0x8B44, size: 0x8, addend: 0x0, symName: __ZNSt3__16vectorIiNS_9allocatorIiEEE22__base_destruct_at_endB8ne180100EPi, symObjAddr: 0x1000, symBinAddr: 0x100001720, symSize: 0x80 }
  - { offset: 0x8B87, size: 0x8, addend: 0x0, symName: __ZNSt3__116allocator_traitsINS_9allocatorIiEEE7destroyB8ne180100IivvEEvRS2_PT_, symObjAddr: 0x1080, symBinAddr: 0x1000017A0, symSize: 0x20 }
  - { offset: 0x8BC0, size: 0x8, addend: 0x0, symName: __ZNSt3__19allocatorIiE10deallocateB8ne180100EPim, symObjAddr: 0x10B0, symBinAddr: 0x1000017D0, symSize: 0x40 }
  - { offset: 0x8C00, size: 0x8, addend: 0x0, symName: __ZNKSt3__16vectorIiNS_9allocatorIiEEE9__end_capB8ne180100Ev, symObjAddr: 0x11F0, symBinAddr: 0x100001910, symSize: 0x20 }
  - { offset: 0x8C24, size: 0x8, addend: 0x0, symName: __ZNKSt3__117__compressed_pairIPiNS_9allocatorIiEEE5firstB8ne180100Ev, symObjAddr: 0x1210, symBinAddr: 0x100001930, symSize: 0x20 }
  - { offset: 0x8C48, size: 0x8, addend: 0x0, symName: __ZNKSt3__122__compressed_pair_elemIPiLi0ELb0EE5__getB8ne180100Ev, symObjAddr: 0x1230, symBinAddr: 0x100001950, symSize: 0x10 }
  - { offset: 0x8C6D, size: 0x8, addend: 0x0, symName: __ZNSt3__118__unwrap_iter_implINS_11__wrap_iterIPiEELb1EE8__unwrapB8ne180100ES3_, symObjAddr: 0x13C0, symBinAddr: 0x100001AE0, symSize: 0x20 }
  - { offset: 0x8C9A, size: 0x8, addend: 0x0, symName: __ZNSt3__119__to_address_helperINS_11__wrap_iterIPiEEvE6__callB8ne180100ERKS3_, symObjAddr: 0x1400, symBinAddr: 0x100001B20, symSize: 0x30 }
  - { offset: 0x8CBD, size: 0x8, addend: 0x0, symName: __ZNSt3__114pointer_traitsINS_11__wrap_iterIPiEEE10to_addressB8ne180100ES3_, symObjAddr: 0x1430, symBinAddr: 0x100001B50, symSize: 0x30 }
  - { offset: 0x8CDF, size: 0x8, addend: 0x0, symName: __ZNKSt3__111__wrap_iterIPiE4baseB8ne180100Ev, symObjAddr: 0x1460, symBinAddr: 0x100001B80, symSize: 0x20 }
  - { offset: 0x8D03, size: 0x8, addend: 0x0, symName: __ZNSt3__16vectorIiNS_9allocatorIiEEE11__make_iterB8ne180100EPi, symObjAddr: 0x1480, symBinAddr: 0x100001BA0, symSize: 0x30 }
  - { offset: 0x8D36, size: 0x8, addend: 0x0, symName: __ZNSt3__111__wrap_iterIPiEC1B8ne180100ES1_, symObjAddr: 0x14B0, symBinAddr: 0x100001BD0, symSize: 0x30 }
  - { offset: 0x8D6C, size: 0x8, addend: 0x0, symName: __ZNSt3__111__wrap_iterIPiEC2B8ne180100ES1_, symObjAddr: 0x14E0, symBinAddr: 0x100001C00, symSize: 0x20 }
  - { offset: 0x8DA7, size: 0x8, addend: 0x0, symName: __ZNKSt3__16__lessIvvEclB8ne180100IiiEEbRKT_RKT0_, symObjAddr: 0x1550, symBinAddr: 0x100001C70, symSize: 0x30 }
  - { offset: 0x8DF9, size: 0x8, addend: 0x0, symName: __ZNSt3__16vectorIiNS_9allocatorIiEEED2B8ne180100Ev, symObjAddr: 0x1580, symBinAddr: 0x100001CA0, symSize: 0x40 }
  - { offset: 0x8E21, size: 0x8, addend: 0x0, symName: __ZNKSt3__19basic_iosIcNS_11char_traitsIcEEE5widenB8ne180100Ec, symObjAddr: 0x15C0, symBinAddr: 0x100001CE0, symSize: 0x80 }
  - { offset: 0x8E98, size: 0x8, addend: 0x0, symName: __ZNKSt3__15ctypeIcE5widenB8ne180100Ec, symObjAddr: 0x1670, symBinAddr: 0x100001D90, symSize: 0x2B }
...
