---
triple:          'x86_64-apple-darwin'
binary-path:     a
relocations:
  - { offset: 0x5C, size: 0x8, addend: 0x0, symName: __ZNSt3__119piecewise_constructE, symObjAddr: 0x3F97, symBinAddr: 0x100004E4C, symSize: 0x0 }
  - { offset: 0x80E5, size: 0x8, addend: 0x0, symName: __ZNSt3__1eqB8ne180100ERKNS_19__hash_map_iteratorINS_15__hash_iteratorIPNS_11__hash_nodeINS_17__hash_value_typeIxxEEPvEEEEEESB_, symObjAddr: 0x3B0, symBinAddr: 0x1000011B0, symSize: 0x30 }
  - { offset: 0x8122, size: 0x8, addend: 0x0, symName: __ZNSt3__13getB8ne180100ILm0EKxxEERKNS_13tuple_elementIXT_ENS_4pairIT0_T1_EEE4typeERKS6_, symObjAddr: 0x410, symBinAddr: 0x100001210, symSize: 0x20 }
  - { offset: 0x816C, size: 0x8, addend: 0x0, symName: __ZNSt3__13getB8ne180100ILm1EKxxEERKNS_13tuple_elementIXT_ENS_4pairIT0_T1_EEE4typeERKS6_, symObjAddr: 0x430, symBinAddr: 0x100001230, symSize: 0x20 }
  - { offset: 0x81B6, size: 0x8, addend: 0x0, symName: __ZNSt3__13maxB8ne180100IxEERKT_S3_S3_, symObjAddr: 0x450, symBinAddr: 0x100001250, symSize: 0x30 }
  - { offset: 0x8E57, size: 0x8, addend: 0x0, symName: __ZNSt3__14endlB8ne180100IcNS_11char_traitsIcEEEERNS_13basic_ostreamIT_T0_EES7_, symObjAddr: 0x4D0, symBinAddr: 0x1000012D0, symSize: 0x50 }
  - { offset: 0x8E97, size: 0x8, addend: 0x0, symName: __ZNSt3__122__make_exception_guardB8ne180100INS_6vectorIxNS_9allocatorIxEEE16__destroy_vectorEEENS_28__exception_guard_exceptionsIT_EES7_, symObjAddr: 0x660, symBinAddr: 0x100001460, symSize: 0x40 }
  - { offset: 0x8ECC, size: 0x8, addend: 0x0, symName: __ZNSt3__119__allocate_at_leastB8ne180100INS_9allocatorIxEEEENS_19__allocation_resultINS_16allocator_traitsIT_E7pointerEEERS5_m, symObjAddr: 0xA10, symBinAddr: 0x100001810, symSize: 0x40 }
  - { offset: 0x8F0F, size: 0x8, addend: 0x0, symName: __ZNSt3__13minB8ne180100ImEERKT_S3_S3_, symObjAddr: 0xAA0, symBinAddr: 0x1000018A0, symSize: 0x30 }
  - { offset: 0x913C, size: 0x8, addend: 0x0, symName: __ZNSt3__13minB8ne180100ImNS_6__lessIvvEEEERKT_S5_S5_T0_, symObjAddr: 0xB30, symBinAddr: 0x100001930, symSize: 0x50 }
  - { offset: 0x920C, size: 0x8, addend: 0x0, symName: __ZNSt3__120__throw_length_errorB8ne180100EPKc, symObjAddr: 0xC10, symBinAddr: 0x100001A10, symSize: 0x70 }
  - { offset: 0x9234, size: 0x8, addend: 0x0, symName: __ZNSt3__117__libcpp_allocateB8ne180100Emm, symObjAddr: 0xD80, symBinAddr: 0x100001B80, symSize: 0x60 }
  - { offset: 0x928E, size: 0x8, addend: 0x0, symName: __ZNSt3__124__is_overaligned_for_newB8ne180100Em, symObjAddr: 0xDE0, symBinAddr: 0x100001BE0, symSize: 0x20 }
  - { offset: 0x92BC, size: 0x8, addend: 0x0, symName: __ZNSt3__121__libcpp_operator_newB8ne180100IJmSt11align_val_tEEEPvDpT_, symObjAddr: 0xE00, symBinAddr: 0x100001C00, symSize: 0x30 }
  - { offset: 0x9309, size: 0x8, addend: 0x0, symName: __ZNSt3__121__libcpp_operator_newB8ne180100IJmEEEPvDpT_, symObjAddr: 0xE30, symBinAddr: 0x100001C30, symSize: 0x20 }
  - { offset: 0x9342, size: 0x8, addend: 0x0, symName: __ZNSt3__112__to_addressB8ne180100IxEEPT_S2_, symObjAddr: 0xF00, symBinAddr: 0x100001D00, symSize: 0x10 }
  - { offset: 0x9377, size: 0x8, addend: 0x0, symName: __ZNSt3__114__construct_atB8ne180100IxJEPxEEPT_S3_DpOT0_, symObjAddr: 0xF70, symBinAddr: 0x100001D70, symSize: 0x20 }
  - { offset: 0x93B6, size: 0x8, addend: 0x0, symName: __ZNSt3__112construct_atB8ne180100IxJEPxEEPT_S3_DpOT0_, symObjAddr: 0xF90, symBinAddr: 0x100001D90, symSize: 0x20 }
  - { offset: 0x93F5, size: 0x8, addend: 0x0, symName: __ZNSt3__112__destroy_atB8ne180100IxLi0EEEvPT_, symObjAddr: 0x11C0, symBinAddr: 0x100001FC0, symSize: 0x10 }
  - { offset: 0x942C, size: 0x8, addend: 0x0, symName: __ZNSt3__119__libcpp_deallocateB8ne180100EPvmm, symObjAddr: 0x1210, symBinAddr: 0x100002010, symSize: 0x60 }
  - { offset: 0x9491, size: 0x8, addend: 0x0, symName: __ZNSt3__127__do_deallocate_handle_sizeB8ne180100IJSt11align_val_tEEEvPvmDpT_, symObjAddr: 0x1270, symBinAddr: 0x100002070, symSize: 0x30 }
  - { offset: 0x94E4, size: 0x8, addend: 0x0, symName: __ZNSt3__127__do_deallocate_handle_sizeB8ne180100IJEEEvPvmDpT_, symObjAddr: 0x12A0, symBinAddr: 0x1000020A0, symSize: 0x20 }
  - { offset: 0x9522, size: 0x8, addend: 0x0, symName: __ZNSt3__124__libcpp_operator_deleteB8ne180100IJPvSt11align_val_tEEEvDpT_, symObjAddr: 0x12C0, symBinAddr: 0x1000020C0, symSize: 0x30 }
  - { offset: 0x956B, size: 0x8, addend: 0x0, symName: __ZNSt3__124__libcpp_operator_deleteB8ne180100IJPvEEEvDpT_, symObjAddr: 0x12F0, symBinAddr: 0x1000020F0, symSize: 0x20 }
  - { offset: 0x961A, size: 0x8, addend: 0x0, symName: __ZNSt3__13maxB8ne180100IxNS_6__lessIvvEEEERKT_S5_S5_T0_, symObjAddr: 0x1390, symBinAddr: 0x100002190, symSize: 0x50 }
  - { offset: 0x9674, size: 0x8, addend: 0x0, symName: __ZNSt3__112__destroy_atB8ne180100INS_11__hash_nodeINS_17__hash_value_typeIxxEEPvEELi0EEEvPT_, symObjAddr: 0x1BD0, symBinAddr: 0x1000029D0, symSize: 0x20 }
  - { offset: 0x96DE, size: 0x8, addend: 0x0, symName: __ZNSt3__112__destroy_atB8ne180100INS_4pairIKxxEELi0EEEvPT_, symObjAddr: 0x1C60, symBinAddr: 0x100002A60, symSize: 0x10 }
  - { offset: 0x9715, size: 0x8, addend: 0x0, symName: __ZNSt3__17launderB8ne180100INS_4pairIKxxEEEEPT_S5_, symObjAddr: 0x1C90, symBinAddr: 0x100002A90, symSize: 0x20 }
  - { offset: 0x974C, size: 0x8, addend: 0x0, symName: __ZNSt3__19__launderB8ne180100INS_4pairIKxxEEEEPT_S5_, symObjAddr: 0x1CB0, symBinAddr: 0x100002AB0, symSize: 0x10 }
  - { offset: 0x97BA, size: 0x8, addend: 0x0, symName: __ZNSt3__116forward_as_tupleB8ne180100IJRKxEEENS_5tupleIJDpOT_EEES6_, symObjAddr: 0x25E0, symBinAddr: 0x1000033E0, symSize: 0x30 }
  - { offset: 0x97F3, size: 0x8, addend: 0x0, symName: __ZNSt3__116forward_as_tupleB8ne180100IJEEENS_5tupleIJDpOT_EEES4_, symObjAddr: 0x2610, symBinAddr: 0x100003410, symSize: 0x10 }
  - { offset: 0x9817, size: 0x8, addend: 0x0, symName: __ZNSt3__116__constrain_hashB8ne180100Emm, symObjAddr: 0x26D0, symBinAddr: 0x1000034D0, symSize: 0x80 }
  - { offset: 0x9851, size: 0x8, addend: 0x0, symName: __ZNSt3__13maxB8ne180100ImEERKT_S3_S3_, symObjAddr: 0x29D0, symBinAddr: 0x1000037D0, symSize: 0x30 }
  - { offset: 0x9894, size: 0x8, addend: 0x0, symName: __ZNSt3__116__is_hash_power2B8ne180100Em, symObjAddr: 0x2A00, symBinAddr: 0x100003800, symSize: 0x40 }
  - { offset: 0x98C5, size: 0x8, addend: 0x0, symName: __ZNSt3__16__math4ceilB8ne180100Ef, symObjAddr: 0x2A40, symBinAddr: 0x100003840, symSize: 0x20 }
  - { offset: 0x9936, size: 0x8, addend: 0x0, symName: __ZNSt3__17launderB8ne180100IKNS_4pairIKxxEEEEPT_S6_, symObjAddr: 0x2D20, symBinAddr: 0x100003B20, symSize: 0x20 }
  - { offset: 0x996D, size: 0x8, addend: 0x0, symName: __ZNSt3__19__launderB8ne180100IKNS_4pairIKxxEEEEPT_S6_, symObjAddr: 0x2D40, symBinAddr: 0x100003B40, symSize: 0x10 }
  - { offset: 0x99C2, size: 0x8, addend: 0x0, symName: __ZNSt3__114__construct_atB8ne180100INS_11__hash_nodeINS_17__hash_value_typeIxxEEPvEEJDnRmEPS5_EEPT_S9_DpOT0_, symObjAddr: 0x2DF0, symBinAddr: 0x100003BF0, symSize: 0x30 }
  - { offset: 0x9A28, size: 0x8, addend: 0x0, symName: __ZNSt3__112construct_atB8ne180100INS_11__hash_nodeINS_17__hash_value_typeIxxEEPvEEJDnRmEPS5_EEPT_S9_DpOT0_, symObjAddr: 0x3040, symBinAddr: 0x100003E40, symSize: 0x40 }
  - { offset: 0x9A8E, size: 0x8, addend: 0x0, symName: __ZNSt3__114__construct_atB8ne180100INS_4pairIKxxEEJRKNS_21piecewise_construct_tENS_5tupleIJRS2_EEENS7_IJEEEEPS3_EEPT_SD_DpOT0_, symObjAddr: 0x3140, symBinAddr: 0x100003F40, symSize: 0x40 }
  - { offset: 0x9B07, size: 0x8, addend: 0x0, symName: __ZNSt3__112construct_atB8ne180100INS_4pairIKxxEEJRKNS_21piecewise_construct_tENS_5tupleIJRS2_EEENS7_IJEEEEPS3_EEPT_SD_DpOT0_, symObjAddr: 0x3180, symBinAddr: 0x100003F80, symSize: 0x40 }
  - { offset: 0x9B8B, size: 0x8, addend: 0x0, symName: __ZNSt3__13getB8ne180100ILm0EJRKxEEERNS_13tuple_elementIXT_ENS_5tupleIJDpT0_EEEE4typeERS7_, symObjAddr: 0x3270, symBinAddr: 0x100004070, symSize: 0x20 }
  - { offset: 0x9BCE, size: 0x8, addend: 0x0, symName: __ZNSt3__116__next_hash_pow2B8ne180100Em, symObjAddr: 0x37B0, symBinAddr: 0x1000045B0, symSize: 0x60 }
  - { offset: 0x9BFA, size: 0x8, addend: 0x0, symName: __ZNSt3__112__libcpp_clzB8ne180100Em, symObjAddr: 0x3940, symBinAddr: 0x100004740, symSize: 0x20 }
  - { offset: 0x9C26, size: 0x8, addend: 0x0, symName: __ZNSt3__13maxB8ne180100ImNS_6__lessIvvEEEERKT_S5_S5_T0_, symObjAddr: 0x3960, symBinAddr: 0x100004760, symSize: 0x50 }
  - { offset: 0x9CD7, size: 0x8, addend: 0x0, symName: __ZNSt3__1eqB8ne180100ERKNS_15__hash_iteratorIPNS_11__hash_nodeINS_17__hash_value_typeIxxEEPvEEEES9_, symObjAddr: 0x3CF0, symBinAddr: 0x100004AF0, symSize: 0x30 }
  - { offset: 0x9D14, size: 0x8, addend: 0x0, symName: __ZNSt3__19use_facetB8ne180100INS_5ctypeIcEEEERKT_RKNS_6localeE, symObjAddr: 0x3DC0, symBinAddr: 0x100004BC0, symSize: 0x30 }
  - { offset: 0xB0E5, size: 0x8, addend: 0x0, symName: __ZSt28__throw_bad_array_new_lengthB8ne180100v, symObjAddr: 0xD40, symBinAddr: 0x100001B40, symSize: 0x40 }
  - { offset: 0xBA59, size: 0x8, addend: 0x0, symName: _main, symObjAddr: 0x0, symBinAddr: 0x100000E00, symSize: 0x270 }
  - { offset: 0xBB64, size: 0x8, addend: 0x0, symName: __ZNSt3__16vectorIxNS_9allocatorIxEEEC1Em, symObjAddr: 0x270, symBinAddr: 0x100001070, symSize: 0x30 }
  - { offset: 0xBC35, size: 0x8, addend: 0x0, symName: __ZNSt3__113unordered_mapIxxNS_4hashIxEENS_8equal_toIxEENS_9allocatorINS_4pairIKxxEEEEEC1B8ne180100Ev, symObjAddr: 0x2A0, symBinAddr: 0x1000010A0, symSize: 0x20 }
  - { offset: 0xBC5F, size: 0x8, addend: 0x0, symName: __ZNSt3__16vectorIxNS_9allocatorIxEEEixB8ne180100Em, symObjAddr: 0x2C0, symBinAddr: 0x1000010C0, symSize: 0x20 }
  - { offset: 0xBC96, size: 0x8, addend: 0x0, symName: __ZNSt3__113unordered_mapIxxNS_4hashIxEENS_8equal_toIxEENS_9allocatorINS_4pairIKxxEEEEEixERS7_, symObjAddr: 0x2E0, symBinAddr: 0x1000010E0, symSize: 0x70 }
  - { offset: 0xBCCD, size: 0x8, addend: 0x0, symName: __ZNSt3__113unordered_mapIxxNS_4hashIxEENS_8equal_toIxEENS_9allocatorINS_4pairIKxxEEEEE5beginB8ne180100Ev, symObjAddr: 0x350, symBinAddr: 0x100001150, symSize: 0x30 }
  - { offset: 0xBCF3, size: 0x8, addend: 0x0, symName: __ZNSt3__113unordered_mapIxxNS_4hashIxEENS_8equal_toIxEENS_9allocatorINS_4pairIKxxEEEEE3endB8ne180100Ev, symObjAddr: 0x380, symBinAddr: 0x100001180, symSize: 0x30 }
  - { offset: 0xBD19, size: 0x8, addend: 0x0, symName: __ZNKSt3__119__hash_map_iteratorINS_15__hash_iteratorIPNS_11__hash_nodeINS_17__hash_value_typeIxxEEPvEEEEEdeB8ne180100Ev, symObjAddr: 0x3E0, symBinAddr: 0x1000011E0, symSize: 0x30 }
  - { offset: 0xBD3F, size: 0x8, addend: 0x0, symName: __ZNSt3__119__hash_map_iteratorINS_15__hash_iteratorIPNS_11__hash_nodeINS_17__hash_value_typeIxxEEPvEEEEEppB8ne180100Ev, symObjAddr: 0x480, symBinAddr: 0x100001280, symSize: 0x30 }
  - { offset: 0xBE38, size: 0x8, addend: 0x0, symName: __ZNSt3__113basic_ostreamIcNS_11char_traitsIcEEElsB8ne180100EPFRS3_S4_E, symObjAddr: 0x4B0, symBinAddr: 0x1000012B0, symSize: 0x20 }
  - { offset: 0xBE6C, size: 0x8, addend: 0x0, symName: __ZNSt3__113unordered_mapIxxNS_4hashIxEENS_8equal_toIxEENS_9allocatorINS_4pairIKxxEEEEED1B8ne180100Ev, symObjAddr: 0x520, symBinAddr: 0x100001320, symSize: 0x20 }
  - { offset: 0xBE96, size: 0x8, addend: 0x0, symName: __ZNSt3__16vectorIxNS_9allocatorIxEEED1B8ne180100Ev, symObjAddr: 0x540, symBinAddr: 0x100001340, symSize: 0x20 }
  - { offset: 0xBEC0, size: 0x8, addend: 0x0, symName: __ZNSt3__16vectorIxNS_9allocatorIxEEEC2Em, symObjAddr: 0x560, symBinAddr: 0x100001360, symSize: 0xD0 }
  - { offset: 0xBF1B, size: 0x8, addend: 0x0, symName: __ZNSt3__117__compressed_pairIPxNS_9allocatorIxEEEC1B8ne180100IDnNS_18__default_init_tagEEEOT_OT0_, symObjAddr: 0x630, symBinAddr: 0x100001430, symSize: 0x30 }
  - { offset: 0xBF73, size: 0x8, addend: 0x0, symName: __ZNSt3__16vectorIxNS_9allocatorIxEEE16__destroy_vectorC1B8ne180100ERS3_, symObjAddr: 0x6A0, symBinAddr: 0x1000014A0, symSize: 0x30 }
  - { offset: 0xBFAC, size: 0x8, addend: 0x0, symName: __ZNSt3__16vectorIxNS_9allocatorIxEEE11__vallocateB8ne180100Em, symObjAddr: 0x6D0, symBinAddr: 0x1000014D0, symSize: 0xA0 }
  - { offset: 0xBFF0, size: 0x8, addend: 0x0, symName: __ZNSt3__16vectorIxNS_9allocatorIxEEE18__construct_at_endEm, symObjAddr: 0x770, symBinAddr: 0x100001570, symSize: 0xC0 }
  - { offset: 0xC062, size: 0x8, addend: 0x0, symName: __ZNSt3__128__exception_guard_exceptionsINS_6vectorIxNS_9allocatorIxEEE16__destroy_vectorEE10__completeB8ne180100Ev, symObjAddr: 0x830, symBinAddr: 0x100001630, symSize: 0x20 }
  - { offset: 0xC088, size: 0x8, addend: 0x0, symName: __ZNSt3__128__exception_guard_exceptionsINS_6vectorIxNS_9allocatorIxEEE16__destroy_vectorEED1B8ne180100Ev, symObjAddr: 0x850, symBinAddr: 0x100001650, symSize: 0x20 }
  - { offset: 0xC0B2, size: 0x8, addend: 0x0, symName: __ZNSt3__117__compressed_pairIPxNS_9allocatorIxEEEC2B8ne180100IDnNS_18__default_init_tagEEEOT_OT0_, symObjAddr: 0x870, symBinAddr: 0x100001670, symSize: 0x40 }
  - { offset: 0xC10A, size: 0x8, addend: 0x0, symName: __ZNSt3__122__compressed_pair_elemIPxLi0ELb0EEC2B8ne180100IDnvEEOT_, symObjAddr: 0x8B0, symBinAddr: 0x1000016B0, symSize: 0x20 }
  - { offset: 0xC14C, size: 0x8, addend: 0x0, symName: __ZNSt3__122__compressed_pair_elemINS_9allocatorIxEELi1ELb1EEC2B8ne180100ENS_18__default_init_tagE, symObjAddr: 0x8D0, symBinAddr: 0x1000016D0, symSize: 0x20 }
  - { offset: 0xC181, size: 0x8, addend: 0x0, symName: __ZNSt3__19allocatorIxEC2B8ne180100Ev, symObjAddr: 0x8F0, symBinAddr: 0x1000016F0, symSize: 0x20 }
  - { offset: 0xC1AB, size: 0x8, addend: 0x0, symName: __ZNSt3__116__non_trivial_ifILb1ENS_9allocatorIxEEEC2B8ne180100Ev, symObjAddr: 0x910, symBinAddr: 0x100001710, symSize: 0x10 }
  - { offset: 0xC1D5, size: 0x8, addend: 0x0, symName: __ZNSt3__128__exception_guard_exceptionsINS_6vectorIxNS_9allocatorIxEEE16__destroy_vectorEEC1B8ne180100ES5_, symObjAddr: 0x920, symBinAddr: 0x100001720, symSize: 0x30 }
  - { offset: 0xC20D, size: 0x8, addend: 0x0, symName: __ZNSt3__128__exception_guard_exceptionsINS_6vectorIxNS_9allocatorIxEEE16__destroy_vectorEEC2B8ne180100ES5_, symObjAddr: 0x950, symBinAddr: 0x100001750, symSize: 0x20 }
  - { offset: 0xC245, size: 0x8, addend: 0x0, symName: __ZNSt3__16vectorIxNS_9allocatorIxEEE16__destroy_vectorC2B8ne180100ERS3_, symObjAddr: 0x970, symBinAddr: 0x100001770, symSize: 0x20 }
  - { offset: 0xC27E, size: 0x8, addend: 0x0, symName: __ZNKSt3__16vectorIxNS_9allocatorIxEEE8max_sizeEv, symObjAddr: 0x990, symBinAddr: 0x100001790, symSize: 0x60 }
  - { offset: 0xC2A6, size: 0x8, addend: 0x0, symName: __ZNKSt3__16vectorIxNS_9allocatorIxEEE20__throw_length_errorB8ne180100Ev, symObjAddr: 0x9F0, symBinAddr: 0x1000017F0, symSize: 0x20 }
  - { offset: 0xC2CC, size: 0x8, addend: 0x0, symName: __ZNSt3__16vectorIxNS_9allocatorIxEEE7__allocB8ne180100Ev, symObjAddr: 0xA50, symBinAddr: 0x100001850, symSize: 0x20 }
  - { offset: 0xC2F2, size: 0x8, addend: 0x0, symName: __ZNSt3__16vectorIxNS_9allocatorIxEEE9__end_capB8ne180100Ev, symObjAddr: 0xA70, symBinAddr: 0x100001870, symSize: 0x20 }
  - { offset: 0xC318, size: 0x8, addend: 0x0, symName: __ZNKSt3__16vectorIxNS_9allocatorIxEEE14__annotate_newB8ne180100Em, symObjAddr: 0xA90, symBinAddr: 0x100001890, symSize: 0x10 }
  - { offset: 0xC357, size: 0x8, addend: 0x0, symName: __ZNSt3__116allocator_traitsINS_9allocatorIxEEE8max_sizeB8ne180100IS2_vvEEmRKS2_, symObjAddr: 0xAD0, symBinAddr: 0x1000018D0, symSize: 0x20 }
  - { offset: 0xC383, size: 0x8, addend: 0x0, symName: __ZNKSt3__16vectorIxNS_9allocatorIxEEE7__allocB8ne180100Ev, symObjAddr: 0xAF0, symBinAddr: 0x1000018F0, symSize: 0x20 }
  - { offset: 0xC3A9, size: 0x8, addend: 0x0, symName: __ZNSt3__114numeric_limitsIlE3maxB8ne180100Ev, symObjAddr: 0xB10, symBinAddr: 0x100001910, symSize: 0x10 }
  - { offset: 0xC3C7, size: 0x8, addend: 0x0, symName: __ZNKSt3__16__lessIvvEclB8ne180100ImmEEbRKT_RKT0_, symObjAddr: 0xB80, symBinAddr: 0x100001980, symSize: 0x30 }
  - { offset: 0xC41B, size: 0x8, addend: 0x0, symName: __ZNSt3__114numeric_limitsImE3maxB8ne180100Ev, symObjAddr: 0xBB0, symBinAddr: 0x1000019B0, symSize: 0x10 }
  - { offset: 0xC42F, size: 0x8, addend: 0x0, symName: __ZNSt3__123__libcpp_numeric_limitsImLb1EE3maxB8ne180100Ev, symObjAddr: 0xBC0, symBinAddr: 0x1000019C0, symSize: 0x10 }
  - { offset: 0xC443, size: 0x8, addend: 0x0, symName: __ZNKSt3__117__compressed_pairIPxNS_9allocatorIxEEE6secondB8ne180100Ev, symObjAddr: 0xBD0, symBinAddr: 0x1000019D0, symSize: 0x20 }
  - { offset: 0xC469, size: 0x8, addend: 0x0, symName: __ZNKSt3__122__compressed_pair_elemINS_9allocatorIxEELi1ELb1EE5__getB8ne180100Ev, symObjAddr: 0xBF0, symBinAddr: 0x1000019F0, symSize: 0x10 }
  - { offset: 0xC48F, size: 0x8, addend: 0x0, symName: __ZNSt3__123__libcpp_numeric_limitsIlLb1EE3maxB8ne180100Ev, symObjAddr: 0xC00, symBinAddr: 0x100001A00, symSize: 0x10 }
  - { offset: 0xC4A3, size: 0x8, addend: 0x0, symName: __ZNSt12length_errorC1B8ne180100EPKc, symObjAddr: 0xC80, symBinAddr: 0x100001A80, symSize: 0x30 }
  - { offset: 0xC4DB, size: 0x8, addend: 0x0, symName: __ZNSt12length_errorC2B8ne180100EPKc, symObjAddr: 0xCB0, symBinAddr: 0x100001AB0, symSize: 0x40 }
  - { offset: 0xC513, size: 0x8, addend: 0x0, symName: __ZNSt3__19allocatorIxE8allocateB8ne180100Em, symObjAddr: 0xCF0, symBinAddr: 0x100001AF0, symSize: 0x50 }
  - { offset: 0xC547, size: 0x8, addend: 0x0, symName: __ZNSt3__117__compressed_pairIPxNS_9allocatorIxEEE6secondB8ne180100Ev, symObjAddr: 0xE50, symBinAddr: 0x100001C50, symSize: 0x20 }
  - { offset: 0xC56D, size: 0x8, addend: 0x0, symName: __ZNSt3__122__compressed_pair_elemINS_9allocatorIxEELi1ELb1EE5__getB8ne180100Ev, symObjAddr: 0xE70, symBinAddr: 0x100001C70, symSize: 0x10 }
  - { offset: 0xC593, size: 0x8, addend: 0x0, symName: __ZNSt3__117__compressed_pairIPxNS_9allocatorIxEEE5firstB8ne180100Ev, symObjAddr: 0xE80, symBinAddr: 0x100001C80, symSize: 0x20 }
  - { offset: 0xC5B9, size: 0x8, addend: 0x0, symName: __ZNSt3__122__compressed_pair_elemIPxLi0ELb0EE5__getB8ne180100Ev, symObjAddr: 0xEA0, symBinAddr: 0x100001CA0, symSize: 0x10 }
  - { offset: 0xC5F8, size: 0x8, addend: 0x0, symName: __ZNSt3__16vectorIxNS_9allocatorIxEEE21_ConstructTransactionC1B8ne180100ERS3_m, symObjAddr: 0xEB0, symBinAddr: 0x100001CB0, symSize: 0x30 }
  - { offset: 0xC640, size: 0x8, addend: 0x0, symName: __ZNSt3__116allocator_traitsINS_9allocatorIxEEE9constructB8ne180100IxJEvvEEvRS2_PT_DpOT0_, symObjAddr: 0xEE0, symBinAddr: 0x100001CE0, symSize: 0x20 }
  - { offset: 0xC680, size: 0x8, addend: 0x0, symName: __ZNSt3__16vectorIxNS_9allocatorIxEEE21_ConstructTransactionD1B8ne180100Ev, symObjAddr: 0xF10, symBinAddr: 0x100001D10, symSize: 0x20 }
  - { offset: 0xC6AA, size: 0x8, addend: 0x0, symName: __ZNSt3__16vectorIxNS_9allocatorIxEEE21_ConstructTransactionC2B8ne180100ERS3_m, symObjAddr: 0xF30, symBinAddr: 0x100001D30, symSize: 0x40 }
  - { offset: 0xC6F2, size: 0x8, addend: 0x0, symName: __ZNSt3__16vectorIxNS_9allocatorIxEEE21_ConstructTransactionD2B8ne180100Ev, symObjAddr: 0xFB0, symBinAddr: 0x100001DB0, symSize: 0x20 }
  - { offset: 0xC71C, size: 0x8, addend: 0x0, symName: __ZNSt3__128__exception_guard_exceptionsINS_6vectorIxNS_9allocatorIxEEE16__destroy_vectorEED2B8ne180100Ev, symObjAddr: 0xFD0, symBinAddr: 0x100001DD0, symSize: 0x40 }
  - { offset: 0xC746, size: 0x8, addend: 0x0, symName: __ZNSt3__16vectorIxNS_9allocatorIxEEE16__destroy_vectorclB8ne180100Ev, symObjAddr: 0x1010, symBinAddr: 0x100001E10, symSize: 0x80 }
  - { offset: 0xC76C, size: 0x8, addend: 0x0, symName: __ZNSt3__16vectorIxNS_9allocatorIxEEE7__clearB8ne180100Ev, symObjAddr: 0x1090, symBinAddr: 0x100001E90, symSize: 0x20 }
  - { offset: 0xC792, size: 0x8, addend: 0x0, symName: __ZNKSt3__16vectorIxNS_9allocatorIxEEE17__annotate_deleteB8ne180100Ev, symObjAddr: 0x10B0, symBinAddr: 0x100001EB0, symSize: 0x10 }
  - { offset: 0xC7B8, size: 0x8, addend: 0x0, symName: __ZNSt3__116allocator_traitsINS_9allocatorIxEEE10deallocateB8ne180100ERS2_Pxm, symObjAddr: 0x10C0, symBinAddr: 0x100001EC0, symSize: 0x30 }
  - { offset: 0xC7FA, size: 0x8, addend: 0x0, symName: __ZNKSt3__16vectorIxNS_9allocatorIxEEE8capacityB8ne180100Ev, symObjAddr: 0x10F0, symBinAddr: 0x100001EF0, symSize: 0x30 }
  - { offset: 0xC820, size: 0x8, addend: 0x0, symName: __ZNSt3__16vectorIxNS_9allocatorIxEEE22__base_destruct_at_endB8ne180100EPx, symObjAddr: 0x1120, symBinAddr: 0x100001F20, symSize: 0x80 }
  - { offset: 0xC864, size: 0x8, addend: 0x0, symName: __ZNSt3__116allocator_traitsINS_9allocatorIxEEE7destroyB8ne180100IxvvEEvRS2_PT_, symObjAddr: 0x11A0, symBinAddr: 0x100001FA0, symSize: 0x20 }
  - { offset: 0xC89F, size: 0x8, addend: 0x0, symName: __ZNSt3__19allocatorIxE10deallocateB8ne180100EPxm, symObjAddr: 0x11D0, symBinAddr: 0x100001FD0, symSize: 0x40 }
  - { offset: 0xC8E1, size: 0x8, addend: 0x0, symName: __ZNKSt3__16vectorIxNS_9allocatorIxEEE9__end_capB8ne180100Ev, symObjAddr: 0x1310, symBinAddr: 0x100002110, symSize: 0x20 }
  - { offset: 0xC907, size: 0x8, addend: 0x0, symName: __ZNKSt3__117__compressed_pairIPxNS_9allocatorIxEEE5firstB8ne180100Ev, symObjAddr: 0x1330, symBinAddr: 0x100002130, symSize: 0x20 }
  - { offset: 0xC92D, size: 0x8, addend: 0x0, symName: __ZNKSt3__122__compressed_pair_elemIPxLi0ELb0EE5__getB8ne180100Ev, symObjAddr: 0x1350, symBinAddr: 0x100002150, symSize: 0x10 }
  - { offset: 0xC953, size: 0x8, addend: 0x0, symName: __ZNSt3__110__get_pairILm0EE3getB8ne180100IKxxEERKT_RKNS_4pairIS4_T0_EE, symObjAddr: 0x1360, symBinAddr: 0x100002160, symSize: 0x10 }
  - { offset: 0xC989, size: 0x8, addend: 0x0, symName: __ZNSt3__110__get_pairILm1EE3getB8ne180100IKxxEERKT0_RKNS_4pairIT_S4_EE, symObjAddr: 0x1370, symBinAddr: 0x100002170, symSize: 0x20 }
  - { offset: 0xC9BF, size: 0x8, addend: 0x0, symName: __ZNKSt3__16__lessIvvEclB8ne180100IxxEEbRKT_RKT0_, symObjAddr: 0x13E0, symBinAddr: 0x1000021E0, symSize: 0x30 }
  - { offset: 0xCA13, size: 0x8, addend: 0x0, symName: __ZNSt3__16vectorIxNS_9allocatorIxEEED2B8ne180100Ev, symObjAddr: 0x1410, symBinAddr: 0x100002210, symSize: 0x40 }
  - { offset: 0xCA3D, size: 0x8, addend: 0x0, symName: __ZNSt3__113unordered_mapIxxNS_4hashIxEENS_8equal_toIxEENS_9allocatorINS_4pairIKxxEEEEEC2B8ne180100Ev, symObjAddr: 0x1450, symBinAddr: 0x100002250, symSize: 0x20 }
  - { offset: 0xCA67, size: 0x8, addend: 0x0, symName: __ZNSt3__112__hash_tableINS_17__hash_value_typeIxxEENS_22__unordered_map_hasherIxS2_NS_4hashIxEENS_8equal_toIxEELb1EEENS_21__unordered_map_equalIxS2_S7_S5_Lb1EEENS_9allocatorIS2_EEEC1Ev, symObjAddr: 0x1470, symBinAddr: 0x100002270, symSize: 0x20 }
  - { offset: 0xCA93, size: 0x8, addend: 0x0, symName: __ZNSt3__112__hash_tableINS_17__hash_value_typeIxxEENS_22__unordered_map_hasherIxS2_NS_4hashIxEENS_8equal_toIxEELb1EEENS_21__unordered_map_equalIxS2_S7_S5_Lb1EEENS_9allocatorIS2_EEEC2Ev, symObjAddr: 0x1490, symBinAddr: 0x100002290, symSize: 0x80 }
  - { offset: 0xCABF, size: 0x8, addend: 0x0, symName: __ZNSt3__110unique_ptrIA_PNS_16__hash_node_baseIPNS_11__hash_nodeINS_17__hash_value_typeIxxEEPvEEEENS_25__bucket_list_deallocatorINS_9allocatorIS9_EEEEEC1B8ne180100ILb1EvEEv, symObjAddr: 0x1510, symBinAddr: 0x100002310, symSize: 0x20 }
  - { offset: 0xCAF4, size: 0x8, addend: 0x0, symName: __ZNSt3__117__compressed_pairINS_16__hash_node_baseIPNS_11__hash_nodeINS_17__hash_value_typeIxxEEPvEEEENS_9allocatorIS6_EEEC1B8ne180100ILb1EvEEv, symObjAddr: 0x1530, symBinAddr: 0x100002330, symSize: 0x20 }
  - { offset: 0xCB2E, size: 0x8, addend: 0x0, symName: __ZNSt3__117__compressed_pairImNS_22__unordered_map_hasherIxNS_17__hash_value_typeIxxEENS_4hashIxEENS_8equal_toIxEELb1EEEEC1B8ne180100IiNS_18__default_init_tagEEEOT_OT0_, symObjAddr: 0x1550, symBinAddr: 0x100002350, symSize: 0x30 }
  - { offset: 0xCB8B, size: 0x8, addend: 0x0, symName: __ZNSt3__117__compressed_pairIfNS_21__unordered_map_equalIxNS_17__hash_value_typeIxxEENS_8equal_toIxEENS_4hashIxEELb1EEEEC1B8ne180100IfNS_18__default_init_tagEEEOT_OT0_, symObjAddr: 0x1580, symBinAddr: 0x100002380, symSize: 0x30 }
  - { offset: 0xCBE3, size: 0x8, addend: 0x0, symName: __ZNSt3__110unique_ptrIA_PNS_16__hash_node_baseIPNS_11__hash_nodeINS_17__hash_value_typeIxxEEPvEEEENS_25__bucket_list_deallocatorINS_9allocatorIS9_EEEEEC2B8ne180100ILb1EvEEv, symObjAddr: 0x15B0, symBinAddr: 0x1000023B0, symSize: 0x30 }
  - { offset: 0xCC1D, size: 0x8, addend: 0x0, symName: __ZNSt3__117__compressed_pairIPPNS_16__hash_node_baseIPNS_11__hash_nodeINS_17__hash_value_typeIxxEEPvEEEENS_25__bucket_list_deallocatorINS_9allocatorIS9_EEEEEC1B8ne180100INS_16__value_init_tagESH_EEOT_OT0_, symObjAddr: 0x15E0, symBinAddr: 0x1000023E0, symSize: 0x30 }
  - { offset: 0xCC75, size: 0x8, addend: 0x0, symName: __ZNSt3__117__compressed_pairIPPNS_16__hash_node_baseIPNS_11__hash_nodeINS_17__hash_value_typeIxxEEPvEEEENS_25__bucket_list_deallocatorINS_9allocatorIS9_EEEEEC2B8ne180100INS_16__value_init_tagESH_EEOT_OT0_, symObjAddr: 0x1610, symBinAddr: 0x100002410, symSize: 0x40 }
  - { offset: 0xCCCD, size: 0x8, addend: 0x0, symName: __ZNSt3__122__compressed_pair_elemIPPNS_16__hash_node_baseIPNS_11__hash_nodeINS_17__hash_value_typeIxxEEPvEEEELi0ELb0EEC2B8ne180100ENS_16__value_init_tagE, symObjAddr: 0x1650, symBinAddr: 0x100002450, symSize: 0x20 }
  - { offset: 0xCD02, size: 0x8, addend: 0x0, symName: __ZNSt3__122__compressed_pair_elemINS_25__bucket_list_deallocatorINS_9allocatorIPNS_16__hash_node_baseIPNS_11__hash_nodeINS_17__hash_value_typeIxxEEPvEEEEEEEELi1ELb0EEC2B8ne180100ENS_16__value_init_tagE, symObjAddr: 0x1670, symBinAddr: 0x100002470, symSize: 0x20 }
  - { offset: 0xCD37, size: 0x8, addend: 0x0, symName: __ZNSt3__125__bucket_list_deallocatorINS_9allocatorIPNS_16__hash_node_baseIPNS_11__hash_nodeINS_17__hash_value_typeIxxEEPvEEEEEEEC1B8ne180100Ev, symObjAddr: 0x1690, symBinAddr: 0x100002490, symSize: 0x20 }
  - { offset: 0xCD61, size: 0x8, addend: 0x0, symName: __ZNSt3__125__bucket_list_deallocatorINS_9allocatorIPNS_16__hash_node_baseIPNS_11__hash_nodeINS_17__hash_value_typeIxxEEPvEEEEEEEC2B8ne180100Ev, symObjAddr: 0x16B0, symBinAddr: 0x1000024B0, symSize: 0x40 }
  - { offset: 0xCD8B, size: 0x8, addend: 0x0, symName: __ZNSt3__117__compressed_pairImNS_9allocatorIPNS_16__hash_node_baseIPNS_11__hash_nodeINS_17__hash_value_typeIxxEEPvEEEEEEEC1B8ne180100IiNS_18__default_init_tagEEEOT_OT0_, symObjAddr: 0x16F0, symBinAddr: 0x1000024F0, symSize: 0x30 }
  - { offset: 0xCDE3, size: 0x8, addend: 0x0, symName: __ZNSt3__117__compressed_pairImNS_9allocatorIPNS_16__hash_node_baseIPNS_11__hash_nodeINS_17__hash_value_typeIxxEEPvEEEEEEEC2B8ne180100IiNS_18__default_init_tagEEEOT_OT0_, symObjAddr: 0x1720, symBinAddr: 0x100002520, symSize: 0x40 }
  - { offset: 0xCE3B, size: 0x8, addend: 0x0, symName: __ZNSt3__122__compressed_pair_elemImLi0ELb0EEC2B8ne180100IivEEOT_, symObjAddr: 0x1760, symBinAddr: 0x100002560, symSize: 0x20 }
  - { offset: 0xCE7D, size: 0x8, addend: 0x0, symName: __ZNSt3__122__compressed_pair_elemINS_9allocatorIPNS_16__hash_node_baseIPNS_11__hash_nodeINS_17__hash_value_typeIxxEEPvEEEEEELi1ELb1EEC2B8ne180100ENS_18__default_init_tagE, symObjAddr: 0x1780, symBinAddr: 0x100002580, symSize: 0x20 }
  - { offset: 0xCEB2, size: 0x8, addend: 0x0, symName: __ZNSt3__19allocatorIPNS_16__hash_node_baseIPNS_11__hash_nodeINS_17__hash_value_typeIxxEEPvEEEEEC2B8ne180100Ev, symObjAddr: 0x17A0, symBinAddr: 0x1000025A0, symSize: 0x20 }
  - { offset: 0xCEDC, size: 0x8, addend: 0x0, symName: __ZNSt3__116__non_trivial_ifILb1ENS_9allocatorIPNS_16__hash_node_baseIPNS_11__hash_nodeINS_17__hash_value_typeIxxEEPvEEEEEEEC2B8ne180100Ev, symObjAddr: 0x17C0, symBinAddr: 0x1000025C0, symSize: 0x10 }
  - { offset: 0xCF06, size: 0x8, addend: 0x0, symName: __ZNSt3__117__compressed_pairINS_16__hash_node_baseIPNS_11__hash_nodeINS_17__hash_value_typeIxxEEPvEEEENS_9allocatorIS6_EEEC2B8ne180100ILb1EvEEv, symObjAddr: 0x17D0, symBinAddr: 0x1000025D0, symSize: 0x30 }
  - { offset: 0xCF3B, size: 0x8, addend: 0x0, symName: __ZNSt3__122__compressed_pair_elemINS_16__hash_node_baseIPNS_11__hash_nodeINS_17__hash_value_typeIxxEEPvEEEELi0ELb0EEC2B8ne180100ENS_16__value_init_tagE, symObjAddr: 0x1800, symBinAddr: 0x100002600, symSize: 0x20 }
  - { offset: 0xCF70, size: 0x8, addend: 0x0, symName: __ZNSt3__122__compressed_pair_elemINS_9allocatorINS_11__hash_nodeINS_17__hash_value_typeIxxEEPvEEEELi1ELb1EEC2B8ne180100ENS_16__value_init_tagE, symObjAddr: 0x1820, symBinAddr: 0x100002620, symSize: 0x20 }
  - { offset: 0xCFA5, size: 0x8, addend: 0x0, symName: __ZNSt3__116__hash_node_baseIPNS_11__hash_nodeINS_17__hash_value_typeIxxEEPvEEEC1B8ne180100Ev, symObjAddr: 0x1840, symBinAddr: 0x100002640, symSize: 0x20 }
  - { offset: 0xCFCF, size: 0x8, addend: 0x0, symName: __ZNSt3__116__hash_node_baseIPNS_11__hash_nodeINS_17__hash_value_typeIxxEEPvEEEC2B8ne180100Ev, symObjAddr: 0x1860, symBinAddr: 0x100002660, symSize: 0x20 }
  - { offset: 0xCFF9, size: 0x8, addend: 0x0, symName: __ZNSt3__19allocatorINS_11__hash_nodeINS_17__hash_value_typeIxxEEPvEEEC2B8ne180100Ev, symObjAddr: 0x1880, symBinAddr: 0x100002680, symSize: 0x20 }
  - { offset: 0xD023, size: 0x8, addend: 0x0, symName: __ZNSt3__116__non_trivial_ifILb1ENS_9allocatorINS_11__hash_nodeINS_17__hash_value_typeIxxEEPvEEEEEC2B8ne180100Ev, symObjAddr: 0x18A0, symBinAddr: 0x1000026A0, symSize: 0x10 }
  - { offset: 0xD04D, size: 0x8, addend: 0x0, symName: __ZNSt3__117__compressed_pairImNS_22__unordered_map_hasherIxNS_17__hash_value_typeIxxEENS_4hashIxEENS_8equal_toIxEELb1EEEEC2B8ne180100IiNS_18__default_init_tagEEEOT_OT0_, symObjAddr: 0x18B0, symBinAddr: 0x1000026B0, symSize: 0x40 }
  - { offset: 0xD0A5, size: 0x8, addend: 0x0, symName: __ZNSt3__122__compressed_pair_elemINS_22__unordered_map_hasherIxNS_17__hash_value_typeIxxEENS_4hashIxEENS_8equal_toIxEELb1EEELi1ELb1EEC2B8ne180100ENS_18__default_init_tagE, symObjAddr: 0x18F0, symBinAddr: 0x1000026F0, symSize: 0x20 }
  - { offset: 0xD0DA, size: 0x8, addend: 0x0, symName: __ZNSt3__122__unordered_map_hasherIxNS_17__hash_value_typeIxxEENS_4hashIxEENS_8equal_toIxEELb1EEC2B8ne180100Ev, symObjAddr: 0x1910, symBinAddr: 0x100002710, symSize: 0x10 }
  - { offset: 0xD104, size: 0x8, addend: 0x0, symName: __ZNSt3__117__compressed_pairIfNS_21__unordered_map_equalIxNS_17__hash_value_typeIxxEENS_8equal_toIxEENS_4hashIxEELb1EEEEC2B8ne180100IfNS_18__default_init_tagEEEOT_OT0_, symObjAddr: 0x1920, symBinAddr: 0x100002720, symSize: 0x40 }
  - { offset: 0xD15C, size: 0x8, addend: 0x0, symName: __ZNSt3__122__compressed_pair_elemIfLi0ELb0EEC2B8ne180100IfvEEOT_, symObjAddr: 0x1960, symBinAddr: 0x100002760, symSize: 0x20 }
  - { offset: 0xD19E, size: 0x8, addend: 0x0, symName: __ZNSt3__122__compressed_pair_elemINS_21__unordered_map_equalIxNS_17__hash_value_typeIxxEENS_8equal_toIxEENS_4hashIxEELb1EEELi1ELb1EEC2B8ne180100ENS_18__default_init_tagE, symObjAddr: 0x1980, symBinAddr: 0x100002780, symSize: 0x20 }
  - { offset: 0xD1D3, size: 0x8, addend: 0x0, symName: __ZNSt3__121__unordered_map_equalIxNS_17__hash_value_typeIxxEENS_8equal_toIxEENS_4hashIxEELb1EEC2B8ne180100Ev, symObjAddr: 0x19A0, symBinAddr: 0x1000027A0, symSize: 0x10 }
  - { offset: 0xD1FD, size: 0x8, addend: 0x0, symName: __ZNSt3__113unordered_mapIxxNS_4hashIxEENS_8equal_toIxEENS_9allocatorINS_4pairIKxxEEEEED2B8ne180100Ev, symObjAddr: 0x19B0, symBinAddr: 0x1000027B0, symSize: 0x20 }
  - { offset: 0xD227, size: 0x8, addend: 0x0, symName: __ZNSt3__112__hash_tableINS_17__hash_value_typeIxxEENS_22__unordered_map_hasherIxS2_NS_4hashIxEENS_8equal_toIxEELb1EEENS_21__unordered_map_equalIxS2_S7_S5_Lb1EEENS_9allocatorIS2_EEED1Ev, symObjAddr: 0x19D0, symBinAddr: 0x1000027D0, symSize: 0x20 }
  - { offset: 0xD253, size: 0x8, addend: 0x0, symName: __ZNSt3__112__hash_tableINS_17__hash_value_typeIxxEENS_22__unordered_map_hasherIxS2_NS_4hashIxEENS_8equal_toIxEELb1EEENS_21__unordered_map_equalIxS2_S7_S5_Lb1EEENS_9allocatorIS2_EEED2Ev, symObjAddr: 0x19F0, symBinAddr: 0x1000027F0, symSize: 0x40 }
  - { offset: 0xD27F, size: 0x8, addend: 0x0, symName: __ZNSt3__112__hash_tableINS_17__hash_value_typeIxxEENS_22__unordered_map_hasherIxS2_NS_4hashIxEENS_8equal_toIxEELb1EEENS_21__unordered_map_equalIxS2_S7_S5_Lb1EEENS_9allocatorIS2_EEE17__deallocate_nodeEPNS_16__hash_node_baseIPNS_11__hash_nodeIS2_PvEEEE, symObjAddr: 0x1A30, symBinAddr: 0x100002830, symSize: 0xC0 }
  - { offset: 0xD2EA, size: 0x8, addend: 0x0, symName: __ZNSt3__117__compressed_pairINS_16__hash_node_baseIPNS_11__hash_nodeINS_17__hash_value_typeIxxEEPvEEEENS_9allocatorIS6_EEE5firstB8ne180100Ev, symObjAddr: 0x1AF0, symBinAddr: 0x1000028F0, symSize: 0x20 }
  - { offset: 0xD310, size: 0x8, addend: 0x0, symName: __ZNSt3__110unique_ptrIA_PNS_16__hash_node_baseIPNS_11__hash_nodeINS_17__hash_value_typeIxxEEPvEEEENS_25__bucket_list_deallocatorINS_9allocatorIS9_EEEEED1B8ne180100Ev, symObjAddr: 0x1B10, symBinAddr: 0x100002910, symSize: 0x20 }
  - { offset: 0xD33A, size: 0x8, addend: 0x0, symName: __ZNSt3__112__hash_tableINS_17__hash_value_typeIxxEENS_22__unordered_map_hasherIxS2_NS_4hashIxEENS_8equal_toIxEELb1EEENS_21__unordered_map_equalIxS2_S7_S5_Lb1EEENS_9allocatorIS2_EEE12__node_allocB8ne180100Ev, symObjAddr: 0x1B30, symBinAddr: 0x100002930, symSize: 0x20 }
  - { offset: 0xD360, size: 0x8, addend: 0x0, symName: __ZNSt3__116__hash_node_baseIPNS_11__hash_nodeINS_17__hash_value_typeIxxEEPvEEE8__upcastB8ne180100Ev, symObjAddr: 0x1B50, symBinAddr: 0x100002950, symSize: 0x20 }
  - { offset: 0xD386, size: 0x8, addend: 0x0, symName: __ZNSt3__116allocator_traitsINS_9allocatorINS_11__hash_nodeINS_17__hash_value_typeIxxEEPvEEEEE7destroyB8ne180100INS_4pairIKxxEEvvEEvRS7_PT_, symObjAddr: 0x1B70, symBinAddr: 0x100002970, symSize: 0x20 }
  - { offset: 0xD3C1, size: 0x8, addend: 0x0, symName: __ZNSt3__122__hash_key_value_typesINS_17__hash_value_typeIxxEEE9__get_ptrB8ne180100ERS2_, symObjAddr: 0x1B90, symBinAddr: 0x100002990, symSize: 0x20 }
  - { offset: 0xD3E4, size: 0x8, addend: 0x0, symName: __ZNSt3__111__hash_nodeINS_17__hash_value_typeIxxEEPvE11__get_valueB8ne180100Ev, symObjAddr: 0x1BB0, symBinAddr: 0x1000029B0, symSize: 0x20 }
  - { offset: 0xD40A, size: 0x8, addend: 0x0, symName: __ZNSt3__116allocator_traitsINS_9allocatorINS_11__hash_nodeINS_17__hash_value_typeIxxEEPvEEEEE10deallocateB8ne180100ERS7_PS6_m, symObjAddr: 0x1BF0, symBinAddr: 0x1000029F0, symSize: 0x30 }
  - { offset: 0xD44C, size: 0x8, addend: 0x0, symName: __ZNSt3__117__compressed_pairINS_16__hash_node_baseIPNS_11__hash_nodeINS_17__hash_value_typeIxxEEPvEEEENS_9allocatorIS6_EEE6secondB8ne180100Ev, symObjAddr: 0x1C20, symBinAddr: 0x100002A20, symSize: 0x20 }
  - { offset: 0xD472, size: 0x8, addend: 0x0, symName: __ZNSt3__122__compressed_pair_elemINS_9allocatorINS_11__hash_nodeINS_17__hash_value_typeIxxEEPvEEEELi1ELb1EE5__getB8ne180100Ev, symObjAddr: 0x1C40, symBinAddr: 0x100002A40, symSize: 0x10 }
  - { offset: 0xD498, size: 0x8, addend: 0x0, symName: __ZNSt3__114pointer_traitsIPNS_16__hash_node_baseIPNS_11__hash_nodeINS_17__hash_value_typeIxxEEPvEEEEE10pointer_toB8ne180100ERS8_, symObjAddr: 0x1C50, symBinAddr: 0x100002A50, symSize: 0x10 }
  - { offset: 0xD4BB, size: 0x8, addend: 0x0, symName: __ZNSt3__117__hash_value_typeIxxE11__get_valueB8ne180100Ev, symObjAddr: 0x1C70, symBinAddr: 0x100002A70, symSize: 0x20 }
  - { offset: 0xD4E1, size: 0x8, addend: 0x0, symName: __ZNSt3__111__hash_nodeINS_17__hash_value_typeIxxEEPvED1B8ne180100Ev, symObjAddr: 0x1CC0, symBinAddr: 0x100002AC0, symSize: 0x20 }
  - { offset: 0xD50B, size: 0x8, addend: 0x0, symName: __ZNSt3__111__hash_nodeINS_17__hash_value_typeIxxEEPvED2B8ne180100Ev, symObjAddr: 0x1CE0, symBinAddr: 0x100002AE0, symSize: 0x10 }
  - { offset: 0xD535, size: 0x8, addend: 0x0, symName: __ZNSt3__19allocatorINS_11__hash_nodeINS_17__hash_value_typeIxxEEPvEEE10deallocateB8ne180100EPS5_m, symObjAddr: 0x1CF0, symBinAddr: 0x100002AF0, symSize: 0x40 }
  - { offset: 0xD577, size: 0x8, addend: 0x0, symName: __ZNSt3__122__compressed_pair_elemINS_16__hash_node_baseIPNS_11__hash_nodeINS_17__hash_value_typeIxxEEPvEEEELi0ELb0EE5__getB8ne180100Ev, symObjAddr: 0x1D30, symBinAddr: 0x100002B30, symSize: 0x10 }
  - { offset: 0xD59D, size: 0x8, addend: 0x0, symName: __ZNSt3__110unique_ptrIA_PNS_16__hash_node_baseIPNS_11__hash_nodeINS_17__hash_value_typeIxxEEPvEEEENS_25__bucket_list_deallocatorINS_9allocatorIS9_EEEEED2B8ne180100Ev, symObjAddr: 0x1D40, symBinAddr: 0x100002B40, symSize: 0x20 }
  - { offset: 0xD5C7, size: 0x8, addend: 0x0, symName: __ZNSt3__110unique_ptrIA_PNS_16__hash_node_baseIPNS_11__hash_nodeINS_17__hash_value_typeIxxEEPvEEEENS_25__bucket_list_deallocatorINS_9allocatorIS9_EEEEE5resetB8ne180100EDn, symObjAddr: 0x1D60, symBinAddr: 0x100002B60, symSize: 0x60 }
  - { offset: 0xD608, size: 0x8, addend: 0x0, symName: __ZNSt3__117__compressed_pairIPPNS_16__hash_node_baseIPNS_11__hash_nodeINS_17__hash_value_typeIxxEEPvEEEENS_25__bucket_list_deallocatorINS_9allocatorIS9_EEEEE5firstB8ne180100Ev, symObjAddr: 0x1DC0, symBinAddr: 0x100002BC0, symSize: 0x20 }
  - { offset: 0xD62E, size: 0x8, addend: 0x0, symName: __ZNSt3__117__compressed_pairIPPNS_16__hash_node_baseIPNS_11__hash_nodeINS_17__hash_value_typeIxxEEPvEEEENS_25__bucket_list_deallocatorINS_9allocatorIS9_EEEEE6secondB8ne180100Ev, symObjAddr: 0x1DE0, symBinAddr: 0x100002BE0, symSize: 0x20 }
  - { offset: 0xD654, size: 0x8, addend: 0x0, symName: __ZNSt3__125__bucket_list_deallocatorINS_9allocatorIPNS_16__hash_node_baseIPNS_11__hash_nodeINS_17__hash_value_typeIxxEEPvEEEEEEEclB8ne180100EPSA_, symObjAddr: 0x1E00, symBinAddr: 0x100002C00, symSize: 0x50 }
  - { offset: 0xD689, size: 0x8, addend: 0x0, symName: __ZNSt3__122__compressed_pair_elemIPPNS_16__hash_node_baseIPNS_11__hash_nodeINS_17__hash_value_typeIxxEEPvEEEELi0ELb0EE5__getB8ne180100Ev, symObjAddr: 0x1E50, symBinAddr: 0x100002C50, symSize: 0x10 }
  - { offset: 0xD6AF, size: 0x8, addend: 0x0, symName: __ZNSt3__122__compressed_pair_elemINS_25__bucket_list_deallocatorINS_9allocatorIPNS_16__hash_node_baseIPNS_11__hash_nodeINS_17__hash_value_typeIxxEEPvEEEEEEEELi1ELb0EE5__getB8ne180100Ev, symObjAddr: 0x1E60, symBinAddr: 0x100002C60, symSize: 0x10 }
  - { offset: 0xD6D5, size: 0x8, addend: 0x0, symName: __ZNSt3__116allocator_traitsINS_9allocatorIPNS_16__hash_node_baseIPNS_11__hash_nodeINS_17__hash_value_typeIxxEEPvEEEEEEE10deallocateB8ne180100ERSB_PSA_m, symObjAddr: 0x1E70, symBinAddr: 0x100002C70, symSize: 0x30 }
  - { offset: 0xD717, size: 0x8, addend: 0x0, symName: __ZNSt3__125__bucket_list_deallocatorINS_9allocatorIPNS_16__hash_node_baseIPNS_11__hash_nodeINS_17__hash_value_typeIxxEEPvEEEEEEE7__allocB8ne180100Ev, symObjAddr: 0x1EA0, symBinAddr: 0x100002CA0, symSize: 0x20 }
  - { offset: 0xD73D, size: 0x8, addend: 0x0, symName: __ZNSt3__125__bucket_list_deallocatorINS_9allocatorIPNS_16__hash_node_baseIPNS_11__hash_nodeINS_17__hash_value_typeIxxEEPvEEEEEEE4sizeB8ne180100Ev, symObjAddr: 0x1EC0, symBinAddr: 0x100002CC0, symSize: 0x20 }
  - { offset: 0xD763, size: 0x8, addend: 0x0, symName: __ZNSt3__19allocatorIPNS_16__hash_node_baseIPNS_11__hash_nodeINS_17__hash_value_typeIxxEEPvEEEEE10deallocateB8ne180100EPS9_m, symObjAddr: 0x1EE0, symBinAddr: 0x100002CE0, symSize: 0x40 }
  - { offset: 0xD7A5, size: 0x8, addend: 0x0, symName: __ZNSt3__117__compressed_pairImNS_9allocatorIPNS_16__hash_node_baseIPNS_11__hash_nodeINS_17__hash_value_typeIxxEEPvEEEEEEE6secondB8ne180100Ev, symObjAddr: 0x1F20, symBinAddr: 0x100002D20, symSize: 0x20 }
  - { offset: 0xD7CB, size: 0x8, addend: 0x0, symName: __ZNSt3__122__compressed_pair_elemINS_9allocatorIPNS_16__hash_node_baseIPNS_11__hash_nodeINS_17__hash_value_typeIxxEEPvEEEEEELi1ELb1EE5__getB8ne180100Ev, symObjAddr: 0x1F40, symBinAddr: 0x100002D40, symSize: 0x10 }
  - { offset: 0xD7F1, size: 0x8, addend: 0x0, symName: __ZNSt3__117__compressed_pairImNS_9allocatorIPNS_16__hash_node_baseIPNS_11__hash_nodeINS_17__hash_value_typeIxxEEPvEEEEEEE5firstB8ne180100Ev, symObjAddr: 0x1F50, symBinAddr: 0x100002D50, symSize: 0x20 }
  - { offset: 0xD817, size: 0x8, addend: 0x0, symName: __ZNSt3__122__compressed_pair_elemImLi0ELb0EE5__getB8ne180100Ev, symObjAddr: 0x1F70, symBinAddr: 0x100002D70, symSize: 0x10 }
  - { offset: 0xD851, size: 0x8, addend: 0x0, symName: __ZNSt3__112__hash_tableINS_17__hash_value_typeIxxEENS_22__unordered_map_hasherIxS2_NS_4hashIxEENS_8equal_toIxEELb1EEENS_21__unordered_map_equalIxS2_S7_S5_Lb1EEENS_9allocatorIS2_EEE25__emplace_unique_key_argsIxJRKNS_21piecewise_construct_tENS_5tupleIJRKxEEENSI_IJEEEEEENS_4pairINS_15__hash_iteratorIPNS_11__hash_nodeIS2_PvEEEEbEERKT_DpOT0_, symObjAddr: 0x1F80, symBinAddr: 0x100002D80, symSize: 0x660 }
  - { offset: 0xD95A, size: 0x8, addend: 0x0, symName: __ZNKSt3__115__hash_iteratorIPNS_11__hash_nodeINS_17__hash_value_typeIxxEEPvEEEptB8ne180100Ev, symObjAddr: 0x2620, symBinAddr: 0x100003420, symSize: 0x30 }
  - { offset: 0xD980, size: 0x8, addend: 0x0, symName: __ZNSt3__112__hash_tableINS_17__hash_value_typeIxxEENS_22__unordered_map_hasherIxS2_NS_4hashIxEENS_8equal_toIxEELb1EEENS_21__unordered_map_equalIxS2_S7_S5_Lb1EEENS_9allocatorIS2_EEE13hash_functionB8ne180100Ev, symObjAddr: 0x2650, symBinAddr: 0x100003450, symSize: 0x20 }
  - { offset: 0xD9A6, size: 0x8, addend: 0x0, symName: __ZNKSt3__122__unordered_map_hasherIxNS_17__hash_value_typeIxxEENS_4hashIxEENS_8equal_toIxEELb1EEclB8ne180100ERKx, symObjAddr: 0x2670, symBinAddr: 0x100003470, symSize: 0x30 }
  - { offset: 0xD9DB, size: 0x8, addend: 0x0, symName: __ZNKSt3__112__hash_tableINS_17__hash_value_typeIxxEENS_22__unordered_map_hasherIxS2_NS_4hashIxEENS_8equal_toIxEELb1EEENS_21__unordered_map_equalIxS2_S7_S5_Lb1EEENS_9allocatorIS2_EEE12bucket_countB8ne180100Ev, symObjAddr: 0x26A0, symBinAddr: 0x1000034A0, symSize: 0x30 }
  - { offset: 0xDA01, size: 0x8, addend: 0x0, symName: __ZNKSt3__110unique_ptrIA_PNS_16__hash_node_baseIPNS_11__hash_nodeINS_17__hash_value_typeIxxEEPvEEEENS_25__bucket_list_deallocatorINS_9allocatorIS9_EEEEEixB8ne180100Em, symObjAddr: 0x2750, symBinAddr: 0x100003550, symSize: 0x30 }
  - { offset: 0xDA36, size: 0x8, addend: 0x0, symName: __ZNKSt3__116__hash_node_baseIPNS_11__hash_nodeINS_17__hash_value_typeIxxEEPvEEE6__hashB8ne180100Ev, symObjAddr: 0x2780, symBinAddr: 0x100003580, symSize: 0x20 }
  - { offset: 0xDA5C, size: 0x8, addend: 0x0, symName: __ZNSt3__112__hash_tableINS_17__hash_value_typeIxxEENS_22__unordered_map_hasherIxS2_NS_4hashIxEENS_8equal_toIxEELb1EEENS_21__unordered_map_equalIxS2_S7_S5_Lb1EEENS_9allocatorIS2_EEE6key_eqB8ne180100Ev, symObjAddr: 0x27A0, symBinAddr: 0x1000035A0, symSize: 0x20 }
  - { offset: 0xDA82, size: 0x8, addend: 0x0, symName: __ZNKSt3__121__unordered_map_equalIxNS_17__hash_value_typeIxxEENS_8equal_toIxEENS_4hashIxEELb1EEclB8ne180100ERKS2_RKx, symObjAddr: 0x27C0, symBinAddr: 0x1000035C0, symSize: 0x40 }
  - { offset: 0xDAC6, size: 0x8, addend: 0x0, symName: __ZNSt3__112__hash_tableINS_17__hash_value_typeIxxEENS_22__unordered_map_hasherIxS2_NS_4hashIxEENS_8equal_toIxEELb1EEENS_21__unordered_map_equalIxS2_S7_S5_Lb1EEENS_9allocatorIS2_EEE21__construct_node_hashIRKNS_21piecewise_construct_tEJNS_5tupleIJRKxEEENSI_IJEEEEEENS_10unique_ptrINS_11__hash_nodeIS2_PvEENS_22__hash_node_destructorINSB_ISQ_EEEEEEmOT_DpOT0_, symObjAddr: 0x2800, symBinAddr: 0x100003600, symSize: 0x160 }
  - { offset: 0xDB62, size: 0x8, addend: 0x0, symName: __ZNSt3__112__hash_tableINS_17__hash_value_typeIxxEENS_22__unordered_map_hasherIxS2_NS_4hashIxEENS_8equal_toIxEELb1EEENS_21__unordered_map_equalIxS2_S7_S5_Lb1EEENS_9allocatorIS2_EEE4sizeB8ne180100Ev, symObjAddr: 0x2960, symBinAddr: 0x100003760, symSize: 0x20 }
  - { offset: 0xDB88, size: 0x8, addend: 0x0, symName: __ZNSt3__112__hash_tableINS_17__hash_value_typeIxxEENS_22__unordered_map_hasherIxS2_NS_4hashIxEENS_8equal_toIxEELb1EEENS_21__unordered_map_equalIxS2_S7_S5_Lb1EEENS_9allocatorIS2_EEE15max_load_factorB8ne180100Ev, symObjAddr: 0x2980, symBinAddr: 0x100003780, symSize: 0x20 }
  - { offset: 0xDBAE, size: 0x8, addend: 0x0, symName: __ZNSt3__112__hash_tableINS_17__hash_value_typeIxxEENS_22__unordered_map_hasherIxS2_NS_4hashIxEENS_8equal_toIxEELb1EEENS_21__unordered_map_equalIxS2_S7_S5_Lb1EEENS_9allocatorIS2_EEE15__rehash_uniqueB8ne180100Em, symObjAddr: 0x29A0, symBinAddr: 0x1000037A0, symSize: 0x30 }
  - { offset: 0xDBE3, size: 0x8, addend: 0x0, symName: __ZNSt3__116__hash_node_baseIPNS_11__hash_nodeINS_17__hash_value_typeIxxEEPvEEE5__ptrB8ne180100Ev, symObjAddr: 0x2A60, symBinAddr: 0x100003860, symSize: 0x20 }
  - { offset: 0xDC09, size: 0x8, addend: 0x0, symName: __ZNKSt3__110unique_ptrINS_11__hash_nodeINS_17__hash_value_typeIxxEEPvEENS_22__hash_node_destructorINS_9allocatorIS5_EEEEEptB8ne180100Ev, symObjAddr: 0x2A80, symBinAddr: 0x100003880, symSize: 0x20 }
  - { offset: 0xDC2F, size: 0x8, addend: 0x0, symName: __ZNKSt3__110unique_ptrINS_11__hash_nodeINS_17__hash_value_typeIxxEEPvEENS_22__hash_node_destructorINS_9allocatorIS5_EEEEE3getB8ne180100Ev, symObjAddr: 0x2AA0, symBinAddr: 0x1000038A0, symSize: 0x20 }
  - { offset: 0xDC55, size: 0x8, addend: 0x0, symName: __ZNSt3__110unique_ptrINS_11__hash_nodeINS_17__hash_value_typeIxxEEPvEENS_22__hash_node_destructorINS_9allocatorIS5_EEEEE7releaseB8ne180100Ev, symObjAddr: 0x2AC0, symBinAddr: 0x1000038C0, symSize: 0x40 }
  - { offset: 0xDC8A, size: 0x8, addend: 0x0, symName: __ZNSt3__110unique_ptrINS_11__hash_nodeINS_17__hash_value_typeIxxEEPvEENS_22__hash_node_destructorINS_9allocatorIS5_EEEEED1B8ne180100Ev, symObjAddr: 0x2B00, symBinAddr: 0x100003900, symSize: 0x20 }
  - { offset: 0xDCB4, size: 0x8, addend: 0x0, symName: __ZNSt3__115__hash_iteratorIPNS_11__hash_nodeINS_17__hash_value_typeIxxEEPvEEEC1B8ne180100EPNS_16__hash_node_baseIS6_EE, symObjAddr: 0x2B20, symBinAddr: 0x100003920, symSize: 0x30 }
  - { offset: 0xDCF7, size: 0x8, addend: 0x0, symName: __ZNSt3__14pairINS_15__hash_iteratorIPNS_11__hash_nodeINS_17__hash_value_typeIxxEEPvEEEEbEC1B8ne180100IS8_RbLi0EEEOT_OT0_, symObjAddr: 0x2B50, symBinAddr: 0x100003950, symSize: 0x30 }
  - { offset: 0xDD55, size: 0x8, addend: 0x0, symName: __ZNSt3__117__compressed_pairImNS_22__unordered_map_hasherIxNS_17__hash_value_typeIxxEENS_4hashIxEENS_8equal_toIxEELb1EEEE6secondB8ne180100Ev, symObjAddr: 0x2B80, symBinAddr: 0x100003980, symSize: 0x20 }
  - { offset: 0xDD7B, size: 0x8, addend: 0x0, symName: __ZNSt3__122__compressed_pair_elemINS_22__unordered_map_hasherIxNS_17__hash_value_typeIxxEENS_4hashIxEENS_8equal_toIxEELb1EEELi1ELb1EE5__getB8ne180100Ev, symObjAddr: 0x2BA0, symBinAddr: 0x1000039A0, symSize: 0x10 }
  - { offset: 0xDDA1, size: 0x8, addend: 0x0, symName: __ZNKSt3__113__scalar_hashIxLm1EEclB8ne180100Ex, symObjAddr: 0x2BB0, symBinAddr: 0x1000039B0, symSize: 0x20 }
  - { offset: 0xDE07, size: 0x8, addend: 0x0, symName: __ZNKSt3__110unique_ptrIA_PNS_16__hash_node_baseIPNS_11__hash_nodeINS_17__hash_value_typeIxxEEPvEEEENS_25__bucket_list_deallocatorINS_9allocatorIS9_EEEEE11get_deleterB8ne180100Ev, symObjAddr: 0x2BD0, symBinAddr: 0x1000039D0, symSize: 0x20 }
  - { offset: 0xDE2D, size: 0x8, addend: 0x0, symName: __ZNKSt3__125__bucket_list_deallocatorINS_9allocatorIPNS_16__hash_node_baseIPNS_11__hash_nodeINS_17__hash_value_typeIxxEEPvEEEEEEE4sizeB8ne180100Ev, symObjAddr: 0x2BF0, symBinAddr: 0x1000039F0, symSize: 0x20 }
  - { offset: 0xDE53, size: 0x8, addend: 0x0, symName: __ZNKSt3__117__compressed_pairIPPNS_16__hash_node_baseIPNS_11__hash_nodeINS_17__hash_value_typeIxxEEPvEEEENS_25__bucket_list_deallocatorINS_9allocatorIS9_EEEEE6secondB8ne180100Ev, symObjAddr: 0x2C10, symBinAddr: 0x100003A10, symSize: 0x20 }
  - { offset: 0xDE79, size: 0x8, addend: 0x0, symName: __ZNKSt3__122__compressed_pair_elemINS_25__bucket_list_deallocatorINS_9allocatorIPNS_16__hash_node_baseIPNS_11__hash_nodeINS_17__hash_value_typeIxxEEPvEEEEEEEELi1ELb0EE5__getB8ne180100Ev, symObjAddr: 0x2C30, symBinAddr: 0x100003A30, symSize: 0x10 }
  - { offset: 0xDE9F, size: 0x8, addend: 0x0, symName: __ZNKSt3__117__compressed_pairImNS_9allocatorIPNS_16__hash_node_baseIPNS_11__hash_nodeINS_17__hash_value_typeIxxEEPvEEEEEEE5firstB8ne180100Ev, symObjAddr: 0x2C40, symBinAddr: 0x100003A40, symSize: 0x20 }
  - { offset: 0xDEC5, size: 0x8, addend: 0x0, symName: __ZNKSt3__122__compressed_pair_elemImLi0ELb0EE5__getB8ne180100Ev, symObjAddr: 0x2C60, symBinAddr: 0x100003A60, symSize: 0x10 }
  - { offset: 0xDEEB, size: 0x8, addend: 0x0, symName: __ZNKSt3__117__compressed_pairIPPNS_16__hash_node_baseIPNS_11__hash_nodeINS_17__hash_value_typeIxxEEPvEEEENS_25__bucket_list_deallocatorINS_9allocatorIS9_EEEEE5firstB8ne180100Ev, symObjAddr: 0x2C70, symBinAddr: 0x100003A70, symSize: 0x20 }
  - { offset: 0xDF11, size: 0x8, addend: 0x0, symName: __ZNKSt3__122__compressed_pair_elemIPPNS_16__hash_node_baseIPNS_11__hash_nodeINS_17__hash_value_typeIxxEEPvEEEELi0ELb0EE5__getB8ne180100Ev, symObjAddr: 0x2C90, symBinAddr: 0x100003A90, symSize: 0x10 }
  - { offset: 0xDF37, size: 0x8, addend: 0x0, symName: __ZNSt3__117__compressed_pairIfNS_21__unordered_map_equalIxNS_17__hash_value_typeIxxEENS_8equal_toIxEENS_4hashIxEELb1EEEE6secondB8ne180100Ev, symObjAddr: 0x2CA0, symBinAddr: 0x100003AA0, symSize: 0x20 }
  - { offset: 0xDF5D, size: 0x8, addend: 0x0, symName: __ZNSt3__122__compressed_pair_elemINS_21__unordered_map_equalIxNS_17__hash_value_typeIxxEENS_8equal_toIxEENS_4hashIxEELb1EEELi1ELb1EE5__getB8ne180100Ev, symObjAddr: 0x2CC0, symBinAddr: 0x100003AC0, symSize: 0x10 }
  - { offset: 0xDF83, size: 0x8, addend: 0x0, symName: __ZNKSt3__18equal_toIxEclB8ne180100ERKxS3_, symObjAddr: 0x2CD0, symBinAddr: 0x100003AD0, symSize: 0x30 }
  - { offset: 0xDFC7, size: 0x8, addend: 0x0, symName: __ZNKSt3__117__hash_value_typeIxxE11__get_valueB8ne180100Ev, symObjAddr: 0x2D00, symBinAddr: 0x100003B00, symSize: 0x20 }
  - { offset: 0xDFED, size: 0x8, addend: 0x0, symName: __ZNSt3__116allocator_traitsINS_9allocatorINS_11__hash_nodeINS_17__hash_value_typeIxxEEPvEEEEE8allocateB8ne180100ERS7_m, symObjAddr: 0x2D50, symBinAddr: 0x100003B50, symSize: 0x30 }
  - { offset: 0xE020, size: 0x8, addend: 0x0, symName: __ZNSt3__122__hash_node_destructorINS_9allocatorINS_11__hash_nodeINS_17__hash_value_typeIxxEEPvEEEEEC1B8ne180100ERS7_b, symObjAddr: 0x2D80, symBinAddr: 0x100003B80, symSize: 0x40 }
  - { offset: 0xE06D, size: 0x8, addend: 0x0, symName: __ZNSt3__110unique_ptrINS_11__hash_nodeINS_17__hash_value_typeIxxEEPvEENS_22__hash_node_destructorINS_9allocatorIS5_EEEEEC1B8ne180100ILb1EvEEPS5_NS_16__dependent_typeINS_27__unique_ptr_deleter_sfinaeIS9_EEXT_EE20__good_rval_ref_typeE, symObjAddr: 0x2DC0, symBinAddr: 0x100003BC0, symSize: 0x30 }
  - { offset: 0xE0BE, size: 0x8, addend: 0x0, symName: __ZNKSt3__110unique_ptrINS_11__hash_nodeINS_17__hash_value_typeIxxEEPvEENS_22__hash_node_destructorINS_9allocatorIS5_EEEEEdeB8ne180100Ev, symObjAddr: 0x2E20, symBinAddr: 0x100003C20, symSize: 0x20 }
  - { offset: 0xE0E4, size: 0x8, addend: 0x0, symName: __ZNSt3__116allocator_traitsINS_9allocatorINS_11__hash_nodeINS_17__hash_value_typeIxxEEPvEEEEE9constructB8ne180100INS_4pairIKxxEEJRKNS_21piecewise_construct_tENS_5tupleIJRSB_EEENSG_IJEEEEvvEEvRS7_PT_DpOT0_, symObjAddr: 0x2E40, symBinAddr: 0x100003C40, symSize: 0x40 }
  - { offset: 0xE161, size: 0x8, addend: 0x0, symName: __ZNSt3__110unique_ptrINS_11__hash_nodeINS_17__hash_value_typeIxxEEPvEENS_22__hash_node_destructorINS_9allocatorIS5_EEEEE11get_deleterB8ne180100Ev, symObjAddr: 0x2E80, symBinAddr: 0x100003C80, symSize: 0x20 }
  - { offset: 0xE187, size: 0x8, addend: 0x0, symName: __ZNSt3__19allocatorINS_11__hash_nodeINS_17__hash_value_typeIxxEEPvEEE8allocateB8ne180100Em, symObjAddr: 0x2EA0, symBinAddr: 0x100003CA0, symSize: 0x50 }
  - { offset: 0xE1C5, size: 0x8, addend: 0x0, symName: __ZNSt3__116allocator_traitsINS_9allocatorINS_11__hash_nodeINS_17__hash_value_typeIxxEEPvEEEEE8max_sizeB8ne180100IS7_vvEEmRKS7_, symObjAddr: 0x2EF0, symBinAddr: 0x100003CF0, symSize: 0x20 }
  - { offset: 0xE1F1, size: 0x8, addend: 0x0, symName: __ZNSt3__122__hash_node_destructorINS_9allocatorINS_11__hash_nodeINS_17__hash_value_typeIxxEEPvEEEEEC2B8ne180100ERS7_b, symObjAddr: 0x2F10, symBinAddr: 0x100003D10, symSize: 0x30 }
  - { offset: 0xE239, size: 0x8, addend: 0x0, symName: __ZNSt3__110unique_ptrINS_11__hash_nodeINS_17__hash_value_typeIxxEEPvEENS_22__hash_node_destructorINS_9allocatorIS5_EEEEEC2B8ne180100ILb1EvEEPS5_NS_16__dependent_typeINS_27__unique_ptr_deleter_sfinaeIS9_EEXT_EE20__good_rval_ref_typeE, symObjAddr: 0x2F40, symBinAddr: 0x100003D40, symSize: 0x40 }
  - { offset: 0xE28A, size: 0x8, addend: 0x0, symName: __ZNSt3__117__compressed_pairIPNS_11__hash_nodeINS_17__hash_value_typeIxxEEPvEENS_22__hash_node_destructorINS_9allocatorIS5_EEEEEC1B8ne180100IRS6_SA_EEOT_OT0_, symObjAddr: 0x2F80, symBinAddr: 0x100003D80, symSize: 0x30 }
  - { offset: 0xE2E2, size: 0x8, addend: 0x0, symName: __ZNSt3__117__compressed_pairIPNS_11__hash_nodeINS_17__hash_value_typeIxxEEPvEENS_22__hash_node_destructorINS_9allocatorIS5_EEEEEC2B8ne180100IRS6_SA_EEOT_OT0_, symObjAddr: 0x2FB0, symBinAddr: 0x100003DB0, symSize: 0x40 }
  - { offset: 0xE33A, size: 0x8, addend: 0x0, symName: __ZNSt3__122__compressed_pair_elemIPNS_11__hash_nodeINS_17__hash_value_typeIxxEEPvEELi0ELb0EEC2B8ne180100IRS6_vEEOT_, symObjAddr: 0x2FF0, symBinAddr: 0x100003DF0, symSize: 0x20 }
  - { offset: 0xE37C, size: 0x8, addend: 0x0, symName: __ZNSt3__122__compressed_pair_elemINS_22__hash_node_destructorINS_9allocatorINS_11__hash_nodeINS_17__hash_value_typeIxxEEPvEEEEEELi1ELb0EEC2B8ne180100IS9_vEEOT_, symObjAddr: 0x3010, symBinAddr: 0x100003E10, symSize: 0x30 }
  - { offset: 0xE3BE, size: 0x8, addend: 0x0, symName: __ZNSt3__111__hash_nodeINS_17__hash_value_typeIxxEEPvEC1B8ne180100EPNS_16__hash_node_baseIPS4_EEm, symObjAddr: 0x3080, symBinAddr: 0x100003E80, symSize: 0x30 }
  - { offset: 0xE404, size: 0x8, addend: 0x0, symName: __ZNSt3__111__hash_nodeINS_17__hash_value_typeIxxEEPvEC2B8ne180100EPNS_16__hash_node_baseIPS4_EEm, symObjAddr: 0x30B0, symBinAddr: 0x100003EB0, symSize: 0x40 }
  - { offset: 0xE44A, size: 0x8, addend: 0x0, symName: __ZNSt3__116__hash_node_baseIPNS_11__hash_nodeINS_17__hash_value_typeIxxEEPvEEEC2B8ne180100EPS7_, symObjAddr: 0x30F0, symBinAddr: 0x100003EF0, symSize: 0x20 }
  - { offset: 0xE482, size: 0x8, addend: 0x0, symName: __ZNKSt3__117__compressed_pairIPNS_11__hash_nodeINS_17__hash_value_typeIxxEEPvEENS_22__hash_node_destructorINS_9allocatorIS5_EEEEE5firstB8ne180100Ev, symObjAddr: 0x3110, symBinAddr: 0x100003F10, symSize: 0x20 }
  - { offset: 0xE4A8, size: 0x8, addend: 0x0, symName: __ZNKSt3__122__compressed_pair_elemIPNS_11__hash_nodeINS_17__hash_value_typeIxxEEPvEELi0ELb0EE5__getB8ne180100Ev, symObjAddr: 0x3130, symBinAddr: 0x100003F30, symSize: 0x10 }
  - { offset: 0xE4CE, size: 0x8, addend: 0x0, symName: __ZNSt3__14pairIKxxEC1B8ne180100IJRS1_EJEEENS_21piecewise_construct_tENS_5tupleIJDpT_EEENS6_IJDpT0_EEE, symObjAddr: 0x31C0, symBinAddr: 0x100003FC0, symSize: 0x40 }
  - { offset: 0xE535, size: 0x8, addend: 0x0, symName: __ZNSt3__14pairIKxxEC1B8ne180100IJRS1_EJEJLm0EEJEEENS_21piecewise_construct_tERNS_5tupleIJDpT_EEERNS6_IJDpT0_EEENS_15__tuple_indicesIJXspT1_EEEENSF_IJXspT2_EEEE, symObjAddr: 0x3200, symBinAddr: 0x100004000, symSize: 0x30 }
  - { offset: 0xE5C5, size: 0x8, addend: 0x0, symName: __ZNSt3__14pairIKxxEC2B8ne180100IJRS1_EJEJLm0EEJEEENS_21piecewise_construct_tERNS_5tupleIJDpT_EEERNS6_IJDpT0_EEENS_15__tuple_indicesIJXspT1_EEEENSF_IJXspT2_EEEE, symObjAddr: 0x3230, symBinAddr: 0x100004030, symSize: 0x40 }
  - { offset: 0xE655, size: 0x8, addend: 0x0, symName: __ZNSt3__112__tuple_leafILm0ERKxLb0EE3getB8ne180100Ev, symObjAddr: 0x3290, symBinAddr: 0x100004090, symSize: 0x20 }
  - { offset: 0xE67B, size: 0x8, addend: 0x0, symName: __ZNSt3__117__compressed_pairIPNS_11__hash_nodeINS_17__hash_value_typeIxxEEPvEENS_22__hash_node_destructorINS_9allocatorIS5_EEEEE6secondB8ne180100Ev, symObjAddr: 0x32B0, symBinAddr: 0x1000040B0, symSize: 0x20 }
  - { offset: 0xE6A1, size: 0x8, addend: 0x0, symName: __ZNSt3__122__compressed_pair_elemINS_22__hash_node_destructorINS_9allocatorINS_11__hash_nodeINS_17__hash_value_typeIxxEEPvEEEEEELi1ELb0EE5__getB8ne180100Ev, symObjAddr: 0x32D0, symBinAddr: 0x1000040D0, symSize: 0x10 }
  - { offset: 0xE6C7, size: 0x8, addend: 0x0, symName: __ZNSt3__117__compressed_pairImNS_22__unordered_map_hasherIxNS_17__hash_value_typeIxxEENS_4hashIxEENS_8equal_toIxEELb1EEEE5firstB8ne180100Ev, symObjAddr: 0x32E0, symBinAddr: 0x1000040E0, symSize: 0x20 }
  - { offset: 0xE6ED, size: 0x8, addend: 0x0, symName: __ZNSt3__117__compressed_pairIfNS_21__unordered_map_equalIxNS_17__hash_value_typeIxxEENS_8equal_toIxEENS_4hashIxEELb1EEEE5firstB8ne180100Ev, symObjAddr: 0x3300, symBinAddr: 0x100004100, symSize: 0x20 }
  - { offset: 0xE713, size: 0x8, addend: 0x0, symName: __ZNSt3__122__compressed_pair_elemIfLi0ELb0EE5__getB8ne180100Ev, symObjAddr: 0x3320, symBinAddr: 0x100004120, symSize: 0x10 }
  - { offset: 0xE739, size: 0x8, addend: 0x0, symName: __ZNSt3__112__hash_tableINS_17__hash_value_typeIxxEENS_22__unordered_map_hasherIxS2_NS_4hashIxEENS_8equal_toIxEELb1EEENS_21__unordered_map_equalIxS2_S7_S5_Lb1EEENS_9allocatorIS2_EEE8__rehashILb1EEEvm, symObjAddr: 0x3330, symBinAddr: 0x100004130, symSize: 0x230 }
  - { offset: 0xE789, size: 0x8, addend: 0x0, symName: __ZNSt3__112__hash_tableINS_17__hash_value_typeIxxEENS_22__unordered_map_hasherIxS2_NS_4hashIxEENS_8equal_toIxEELb1EEENS_21__unordered_map_equalIxS2_S7_S5_Lb1EEENS_9allocatorIS2_EEE11__do_rehashILb1EEEvm, symObjAddr: 0x3560, symBinAddr: 0x100004360, symSize: 0x250 }
  - { offset: 0xE86C, size: 0x8, addend: 0x0, symName: __ZNSt3__110unique_ptrIA_PNS_16__hash_node_baseIPNS_11__hash_nodeINS_17__hash_value_typeIxxEEPvEEEENS_25__bucket_list_deallocatorINS_9allocatorIS9_EEEEE11get_deleterB8ne180100Ev, symObjAddr: 0x3810, symBinAddr: 0x100004610, symSize: 0x20 }
  - { offset: 0xE892, size: 0x8, addend: 0x0, symName: __ZNSt3__110unique_ptrIA_PNS_16__hash_node_baseIPNS_11__hash_nodeINS_17__hash_value_typeIxxEEPvEEEENS_25__bucket_list_deallocatorINS_9allocatorIS9_EEEEE5resetB8ne180100IPS9_Li0EEEvT_, symObjAddr: 0x3830, symBinAddr: 0x100004630, symSize: 0x70 }
  - { offset: 0xE8E5, size: 0x8, addend: 0x0, symName: __ZNSt3__116allocator_traitsINS_9allocatorIPNS_16__hash_node_baseIPNS_11__hash_nodeINS_17__hash_value_typeIxxEEPvEEEEEEE8allocateB8ne180100ERSB_m, symObjAddr: 0x38A0, symBinAddr: 0x1000046A0, symSize: 0x30 }
  - { offset: 0xE918, size: 0x8, addend: 0x0, symName: __ZNSt3__19allocatorIPNS_16__hash_node_baseIPNS_11__hash_nodeINS_17__hash_value_typeIxxEEPvEEEEE8allocateB8ne180100Em, symObjAddr: 0x38D0, symBinAddr: 0x1000046D0, symSize: 0x50 }
  - { offset: 0xE956, size: 0x8, addend: 0x0, symName: __ZNSt3__116allocator_traitsINS_9allocatorIPNS_16__hash_node_baseIPNS_11__hash_nodeINS_17__hash_value_typeIxxEEPvEEEEEEE8max_sizeB8ne180100ISB_vvEEmRKSB_, symObjAddr: 0x3920, symBinAddr: 0x100004720, symSize: 0x20 }
  - { offset: 0xE982, size: 0x8, addend: 0x0, symName: __ZNSt3__117__compressed_pairIPNS_11__hash_nodeINS_17__hash_value_typeIxxEEPvEENS_22__hash_node_destructorINS_9allocatorIS5_EEEEE5firstB8ne180100Ev, symObjAddr: 0x39B0, symBinAddr: 0x1000047B0, symSize: 0x20 }
  - { offset: 0xE9A8, size: 0x8, addend: 0x0, symName: __ZNSt3__122__compressed_pair_elemIPNS_11__hash_nodeINS_17__hash_value_typeIxxEEPvEELi0ELb0EE5__getB8ne180100Ev, symObjAddr: 0x39D0, symBinAddr: 0x1000047D0, symSize: 0x10 }
  - { offset: 0xE9CE, size: 0x8, addend: 0x0, symName: __ZNSt3__110unique_ptrINS_11__hash_nodeINS_17__hash_value_typeIxxEEPvEENS_22__hash_node_destructorINS_9allocatorIS5_EEEEED2B8ne180100Ev, symObjAddr: 0x39E0, symBinAddr: 0x1000047E0, symSize: 0x20 }
  - { offset: 0xE9F8, size: 0x8, addend: 0x0, symName: __ZNSt3__110unique_ptrINS_11__hash_nodeINS_17__hash_value_typeIxxEEPvEENS_22__hash_node_destructorINS_9allocatorIS5_EEEEE5resetB8ne180100EPS5_, symObjAddr: 0x3A00, symBinAddr: 0x100004800, symSize: 0x70 }
  - { offset: 0xEA3C, size: 0x8, addend: 0x0, symName: __ZNSt3__122__hash_node_destructorINS_9allocatorINS_11__hash_nodeINS_17__hash_value_typeIxxEEPvEEEEEclB8ne180100EPS6_, symObjAddr: 0x3A70, symBinAddr: 0x100004870, symSize: 0x90 }
  - { offset: 0xEA71, size: 0x8, addend: 0x0, symName: __ZNSt3__115__hash_iteratorIPNS_11__hash_nodeINS_17__hash_value_typeIxxEEPvEEEC2B8ne180100EPNS_16__hash_node_baseIS6_EE, symObjAddr: 0x3B00, symBinAddr: 0x100004900, symSize: 0x20 }
  - { offset: 0xEAAA, size: 0x8, addend: 0x0, symName: __ZNSt3__14pairINS_15__hash_iteratorIPNS_11__hash_nodeINS_17__hash_value_typeIxxEEPvEEEEbEC2B8ne180100IS8_RbLi0EEEOT_OT0_, symObjAddr: 0x3B20, symBinAddr: 0x100004920, symSize: 0x30 }
  - { offset: 0xEB08, size: 0x8, addend: 0x0, symName: __ZNSt3__15tupleIJRKxEEC1B8ne180100INS_4_AndELi0EEES2_, symObjAddr: 0x3B50, symBinAddr: 0x100004950, symSize: 0x30 }
  - { offset: 0xEB50, size: 0x8, addend: 0x0, symName: __ZNSt3__15tupleIJRKxEEC2B8ne180100INS_4_AndELi0EEES2_, symObjAddr: 0x3B80, symBinAddr: 0x100004980, symSize: 0x30 }
  - { offset: 0xEB98, size: 0x8, addend: 0x0, symName: __ZNSt3__112__tuple_implINS_15__tuple_indicesIJLm0EEEEJRKxEEC1B8ne180100IJLm0EEJS4_EJEJEJS4_EEENS1_IJXspT_EEEENS_13__tuple_typesIJDpT0_EEENS1_IJXspT1_EEEENS8_IJDpT2_EEEDpOT3_, symObjAddr: 0x3BB0, symBinAddr: 0x1000049B0, symSize: 0x30 }
  - { offset: 0xEC2D, size: 0x8, addend: 0x0, symName: __ZNSt3__112__tuple_implINS_15__tuple_indicesIJLm0EEEEJRKxEEC2B8ne180100IJLm0EEJS4_EJEJEJS4_EEENS1_IJXspT_EEEENS_13__tuple_typesIJDpT0_EEENS1_IJXspT1_EEEENS8_IJDpT2_EEEDpOT3_, symObjAddr: 0x3BE0, symBinAddr: 0x1000049E0, symSize: 0x30 }
  - { offset: 0xECC2, size: 0x8, addend: 0x0, symName: __ZNSt3__112__tuple_leafILm0ERKxLb0EEC2B8ne180100IS2_vEEOT_, symObjAddr: 0x3C10, symBinAddr: 0x100004A10, symSize: 0x20 }
  - { offset: 0xED05, size: 0x8, addend: 0x0, symName: __ZNSt3__114pointer_traitsIPNS_17__hash_value_typeIxxEEE10pointer_toB8ne180100ERS2_, symObjAddr: 0x3C30, symBinAddr: 0x100004A30, symSize: 0x10 }
  - { offset: 0xED28, size: 0x8, addend: 0x0, symName: __ZNSt3__112__hash_tableINS_17__hash_value_typeIxxEENS_22__unordered_map_hasherIxS2_NS_4hashIxEENS_8equal_toIxEELb1EEENS_21__unordered_map_equalIxS2_S7_S5_Lb1EEENS_9allocatorIS2_EEE5beginEv, symObjAddr: 0x3C40, symBinAddr: 0x100004A40, symSize: 0x30 }
  - { offset: 0xED50, size: 0x8, addend: 0x0, symName: __ZNSt3__119__hash_map_iteratorINS_15__hash_iteratorIPNS_11__hash_nodeINS_17__hash_value_typeIxxEEPvEEEEEC1B8ne180100ES8_, symObjAddr: 0x3C70, symBinAddr: 0x100004A70, symSize: 0x30 }
  - { offset: 0xED89, size: 0x8, addend: 0x0, symName: __ZNSt3__119__hash_map_iteratorINS_15__hash_iteratorIPNS_11__hash_nodeINS_17__hash_value_typeIxxEEPvEEEEEC2B8ne180100ES8_, symObjAddr: 0x3CA0, symBinAddr: 0x100004AA0, symSize: 0x20 }
  - { offset: 0xEDC2, size: 0x8, addend: 0x0, symName: __ZNSt3__112__hash_tableINS_17__hash_value_typeIxxEENS_22__unordered_map_hasherIxS2_NS_4hashIxEENS_8equal_toIxEELb1EEENS_21__unordered_map_equalIxS2_S7_S5_Lb1EEENS_9allocatorIS2_EEE3endEv, symObjAddr: 0x3CC0, symBinAddr: 0x100004AC0, symSize: 0x30 }
  - { offset: 0xEDEA, size: 0x8, addend: 0x0, symName: __ZNSt3__115__hash_iteratorIPNS_11__hash_nodeINS_17__hash_value_typeIxxEEPvEEEppB8ne180100Ev, symObjAddr: 0x3D20, symBinAddr: 0x100004B20, symSize: 0x20 }
  - { offset: 0xEE10, size: 0x8, addend: 0x0, symName: __ZNKSt3__19basic_iosIcNS_11char_traitsIcEEE5widenB8ne180100Ec, symObjAddr: 0x3D40, symBinAddr: 0x100004B40, symSize: 0x80 }
  - { offset: 0xEE89, size: 0x8, addend: 0x0, symName: __ZNKSt3__15ctypeIcE5widenB8ne180100Ec, symObjAddr: 0x3DF0, symBinAddr: 0x100004BF0, symSize: 0x2B }
...
