---
triple:          'x86_64-apple-darwin'
binary-path:     a1
relocations:
  - { offset: 0x5F76, size: 0x8, addend: 0x0, symName: __ZNSt3__14endlB8ne180100IcNS_11char_traitsIcEEEERNS_13basic_ostreamIT_T0_EES7_, symObjAddr: 0x320, symBinAddr: 0x100000F40, symSize: 0x50 }
  - { offset: 0x5FB6, size: 0x8, addend: 0x0, symName: __ZNSt3__112__to_addressB8ne180100IxEEPT_S2_, symObjAddr: 0x710, symBinAddr: 0x100001330, symSize: 0x10 }
  - { offset: 0x5FEB, size: 0x8, addend: 0x0, symName: __ZNSt3__114__construct_atB8ne180100IxJRKxEPxEEPT_S5_DpOT0_, symObjAddr: 0x780, symBinAddr: 0x1000013A0, symSize: 0x30 }
  - { offset: 0x603E, size: 0x8, addend: 0x0, symName: __ZNSt3__112construct_atB8ne180100IxJRKxEPxEEPT_S5_DpOT0_, symObjAddr: 0x7B0, symBinAddr: 0x1000013D0, symSize: 0x20 }
  - { offset: 0x6091, size: 0x8, addend: 0x0, symName: __ZNSt3__13maxB8ne180100ImEERKT_S3_S3_, symObjAddr: 0xB00, symBinAddr: 0x100001720, symSize: 0x30 }
  - { offset: 0x60D4, size: 0x8, addend: 0x0, symName: __ZNSt3__13minB8ne180100ImEERKT_S3_S3_, symObjAddr: 0xB30, symBinAddr: 0x100001750, symSize: 0x30 }
  - { offset: 0x6301, size: 0x8, addend: 0x0, symName: __ZNSt3__13minB8ne180100ImNS_6__lessIvvEEEERKT_S5_S5_T0_, symObjAddr: 0xBB0, symBinAddr: 0x1000017D0, symSize: 0x50 }
  - { offset: 0x658C, size: 0x8, addend: 0x0, symName: __ZNSt3__120__throw_length_errorB8ne180100EPKc, symObjAddr: 0xC90, symBinAddr: 0x1000018B0, symSize: 0x70 }
  - { offset: 0x65B4, size: 0x8, addend: 0x0, symName: __ZNSt3__13maxB8ne180100ImNS_6__lessIvvEEEERKT_S5_S5_T0_, symObjAddr: 0xDC0, symBinAddr: 0x1000019E0, symSize: 0x50 }
  - { offset: 0x660E, size: 0x8, addend: 0x0, symName: __ZNSt3__119__allocate_at_leastB8ne180100INS_9allocatorIxEEEENS_19__allocation_resultINS_16allocator_traitsIT_E7pointerEEERS5_m, symObjAddr: 0xF10, symBinAddr: 0x100001B30, symSize: 0x40 }
  - { offset: 0x6651, size: 0x8, addend: 0x0, symName: __ZNSt3__117__libcpp_allocateB8ne180100Emm, symObjAddr: 0x1080, symBinAddr: 0x100001CA0, symSize: 0x60 }
  - { offset: 0x66AB, size: 0x8, addend: 0x0, symName: __ZNSt3__124__is_overaligned_for_newB8ne180100Em, symObjAddr: 0x10E0, symBinAddr: 0x100001D00, symSize: 0x20 }
  - { offset: 0x66D9, size: 0x8, addend: 0x0, symName: __ZNSt3__121__libcpp_operator_newB8ne180100IJmSt11align_val_tEEEPvDpT_, symObjAddr: 0x1100, symBinAddr: 0x100001D20, symSize: 0x30 }
  - { offset: 0x6726, size: 0x8, addend: 0x0, symName: __ZNSt3__121__libcpp_operator_newB8ne180100IJmEEEPvDpT_, symObjAddr: 0x1130, symBinAddr: 0x100001D50, symSize: 0x20 }
  - { offset: 0x675F, size: 0x8, addend: 0x0, symName: __ZNSt3__142__uninitialized_allocator_move_if_noexceptB8ne180100INS_9allocatorIxEENS_16reverse_iteratorIPxEES5_xvEET1_RT_T0_S9_S6_, symObjAddr: 0x11C0, symBinAddr: 0x100001DE0, symSize: 0x70 }
  - { offset: 0x67DB, size: 0x8, addend: 0x0, symName: __ZNSt3__14swapB8ne180100IPxEENS_9enable_ifIXaasr21is_move_constructibleIT_EE5valuesr18is_move_assignableIS3_EE5valueEvE4typeERS3_S6_, symObjAddr: 0x1280, symBinAddr: 0x100001EA0, symSize: 0x40 }
  - { offset: 0x682C, size: 0x8, addend: 0x0, symName: __ZNSt3__14moveB8ne180100INS_16reverse_iteratorIPxEES3_EET0_T_S5_S4_, symObjAddr: 0x12D0, symBinAddr: 0x100001EF0, symSize: 0x80 }
  - { offset: 0x6886, size: 0x8, addend: 0x0, symName: __ZNSt3__16__moveB8ne180100INS_17_ClassicAlgPolicyENS_16reverse_iteratorIPxEES4_S4_EENS_4pairIT0_T2_EES6_T1_S7_, symObjAddr: 0x1350, symBinAddr: 0x100001F70, symSize: 0x90 }
  - { offset: 0x68F2, size: 0x8, addend: 0x0, symName: __ZNSt3__123__dispatch_copy_or_moveB8ne180100INS_17_ClassicAlgPolicyENS_11__move_loopIS1_EENS_14__move_trivialENS_16reverse_iteratorIPxEES7_S7_EENS_4pairIT2_T4_EES9_T3_SA_, symObjAddr: 0x13E0, symBinAddr: 0x100002000, symSize: 0x90 }
  - { offset: 0x6970, size: 0x8, addend: 0x0, symName: __ZNSt3__121__unwrap_and_dispatchB8ne180100INS_10__overloadINS_11__move_loopINS_17_ClassicAlgPolicyEEENS_14__move_trivialEEENS_16reverse_iteratorIPxEES9_S9_Li0EEENS_4pairIT0_T2_EESB_T1_SC_, symObjAddr: 0x1470, symBinAddr: 0x100002090, symSize: 0x210 }
  - { offset: 0x69FF, size: 0x8, addend: 0x0, symName: __ZNSt3__114__unwrap_rangeB8ne180100INS_16reverse_iteratorIPxEES3_EEDaT_T0_, symObjAddr: 0x1680, symBinAddr: 0x1000022A0, symSize: 0x60 }
  - { offset: 0x6B7A, size: 0x8, addend: 0x0, symName: __ZNSt3__113__unwrap_iterB8ne180100INS_16reverse_iteratorIPxEENS_18__unwrap_iter_implIS3_Lb0EEELi0EEEDTclsrT0_8__unwrapclsr3stdE7declvalIT_EEEES7_, symObjAddr: 0x1780, symBinAddr: 0x1000023A0, symSize: 0x40 }
  - { offset: 0x6BBE, size: 0x8, addend: 0x0, symName: __ZNSt3__19make_pairB8ne180100INS_16reverse_iteratorIPxEES3_EENS_4pairINS_18__unwrap_ref_decayIT_E4typeENS5_IT0_E4typeEEEOS6_OS9_, symObjAddr: 0x17C0, symBinAddr: 0x1000023E0, symSize: 0x30 }
  - { offset: 0x6C0D, size: 0x8, addend: 0x0, symName: __ZNSt3__114__rewrap_rangeB8ne180100INS_16reverse_iteratorIPxEES3_S3_EET0_S4_T1_, symObjAddr: 0x17F0, symBinAddr: 0x100002410, symSize: 0x60 }
  - { offset: 0x6C62, size: 0x8, addend: 0x0, symName: __ZNSt3__113__rewrap_iterB8ne180100INS_16reverse_iteratorIPxEES3_NS_18__unwrap_iter_implIS3_Lb0EEEEET_S6_T0_, symObjAddr: 0x1850, symBinAddr: 0x100002470, symSize: 0x70 }
  - { offset: 0x6D07, size: 0x8, addend: 0x0, symName: __ZNSt3__1neB8ne180100IPxS1_EEbRKNS_16reverse_iteratorIT_EERKNS2_IT0_EE, symObjAddr: 0x19C0, symBinAddr: 0x1000025E0, symSize: 0x40 }
  - { offset: 0x6DFD, size: 0x8, addend: 0x0, symName: __ZNSt3__112__destroy_atB8ne180100IxLi0EEEvPT_, symObjAddr: 0x1D20, symBinAddr: 0x100002940, symSize: 0x10 }
  - { offset: 0x6E34, size: 0x8, addend: 0x0, symName: __ZNSt3__119__libcpp_deallocateB8ne180100EPvmm, symObjAddr: 0x1D70, symBinAddr: 0x100002990, symSize: 0x60 }
  - { offset: 0x6E99, size: 0x8, addend: 0x0, symName: __ZNSt3__127__do_deallocate_handle_sizeB8ne180100IJSt11align_val_tEEEvPvmDpT_, symObjAddr: 0x1DD0, symBinAddr: 0x1000029F0, symSize: 0x30 }
  - { offset: 0x6EEC, size: 0x8, addend: 0x0, symName: __ZNSt3__127__do_deallocate_handle_sizeB8ne180100IJEEEvPvmDpT_, symObjAddr: 0x1E00, symBinAddr: 0x100002A20, symSize: 0x20 }
  - { offset: 0x6F2A, size: 0x8, addend: 0x0, symName: __ZNSt3__124__libcpp_operator_deleteB8ne180100IJPvSt11align_val_tEEEvDpT_, symObjAddr: 0x1E20, symBinAddr: 0x100002A40, symSize: 0x30 }
  - { offset: 0x6F73, size: 0x8, addend: 0x0, symName: __ZNSt3__124__libcpp_operator_deleteB8ne180100IJPvEEEvDpT_, symObjAddr: 0x1E50, symBinAddr: 0x100002A70, symSize: 0x20 }
  - { offset: 0x6FA8, size: 0x8, addend: 0x0, symName: __ZNSt3__19use_facetB8ne180100INS_5ctypeIcEEEERKT_RKNS_6localeE, symObjAddr: 0x20E0, symBinAddr: 0x100002D00, symSize: 0x30 }
  - { offset: 0x837E, size: 0x8, addend: 0x0, symName: __ZSt28__throw_bad_array_new_lengthB8ne180100v, symObjAddr: 0x1040, symBinAddr: 0x100001C60, symSize: 0x40 }
  - { offset: 0x8857, size: 0x8, addend: 0x0, symName: __ZNSt3__16vectorIxNS_9allocatorIxEEE26__swap_out_circular_bufferERNS_14__split_bufferIxRS2_EE, symObjAddr: 0x910, symBinAddr: 0x100001530, symSize: 0x120 }
  - { offset: 0x88CA, size: 0x8, addend: 0x0, symName: _main, symObjAddr: 0x0, symBinAddr: 0x100000C20, symSize: 0x240 }
  - { offset: 0x8971, size: 0x8, addend: 0x0, symName: __ZNSt3__16vectorIxNS_9allocatorIxEEEC1B8ne180100Ev, symObjAddr: 0x240, symBinAddr: 0x100000E60, symSize: 0x20 }
  - { offset: 0x8999, size: 0x8, addend: 0x0, symName: __ZNSt3__16vectorIxNS_9allocatorIxEEE9push_backB8ne180100ERKx, symObjAddr: 0x260, symBinAddr: 0x100000E80, symSize: 0x80 }
  - { offset: 0x89DD, size: 0x8, addend: 0x0, symName: __ZNSt3__16vectorIxNS_9allocatorIxEEEixB8ne180100Em, symObjAddr: 0x2E0, symBinAddr: 0x100000F00, symSize: 0x20 }
  - { offset: 0x8AF9, size: 0x8, addend: 0x0, symName: __ZNSt3__113basic_ostreamIcNS_11char_traitsIcEEElsB8ne180100EPFRS3_S4_E, symObjAddr: 0x300, symBinAddr: 0x100000F20, symSize: 0x20 }
  - { offset: 0x8B2B, size: 0x8, addend: 0x0, symName: __ZNSt3__16vectorIxNS_9allocatorIxEEED1B8ne180100Ev, symObjAddr: 0x370, symBinAddr: 0x100000F90, symSize: 0x20 }
  - { offset: 0x8B53, size: 0x8, addend: 0x0, symName: __ZNSt3__16vectorIxNS_9allocatorIxEEEC2B8ne180100Ev, symObjAddr: 0x390, symBinAddr: 0x100000FB0, symSize: 0x50 }
  - { offset: 0x8B85, size: 0x8, addend: 0x0, symName: __ZNSt3__117__compressed_pairIPxNS_9allocatorIxEEEC1B8ne180100IDnNS_18__default_init_tagEEEOT_OT0_, symObjAddr: 0x3E0, symBinAddr: 0x100001000, symSize: 0x30 }
  - { offset: 0x8BDB, size: 0x8, addend: 0x0, symName: __ZNSt3__117__compressed_pairIPxNS_9allocatorIxEEEC2B8ne180100IDnNS_18__default_init_tagEEEOT_OT0_, symObjAddr: 0x420, symBinAddr: 0x100001040, symSize: 0x40 }
  - { offset: 0x8C31, size: 0x8, addend: 0x0, symName: __ZNSt3__122__compressed_pair_elemIPxLi0ELb0EEC2B8ne180100IDnvEEOT_, symObjAddr: 0x460, symBinAddr: 0x100001080, symSize: 0x20 }
  - { offset: 0x8C71, size: 0x8, addend: 0x0, symName: __ZNSt3__122__compressed_pair_elemINS_9allocatorIxEELi1ELb1EEC2B8ne180100ENS_18__default_init_tagE, symObjAddr: 0x480, symBinAddr: 0x1000010A0, symSize: 0x20 }
  - { offset: 0x8CA4, size: 0x8, addend: 0x0, symName: __ZNSt3__19allocatorIxEC2B8ne180100Ev, symObjAddr: 0x4A0, symBinAddr: 0x1000010C0, symSize: 0x20 }
  - { offset: 0x8CCC, size: 0x8, addend: 0x0, symName: __ZNSt3__116__non_trivial_ifILb1ENS_9allocatorIxEEEC2B8ne180100Ev, symObjAddr: 0x4C0, symBinAddr: 0x1000010E0, symSize: 0x10 }
  - { offset: 0x8CF4, size: 0x8, addend: 0x0, symName: __ZNSt3__16vectorIxNS_9allocatorIxEEE9__end_capB8ne180100Ev, symObjAddr: 0x4D0, symBinAddr: 0x1000010F0, symSize: 0x20 }
  - { offset: 0x8D1D, size: 0x8, addend: 0x0, symName: __ZNSt3__16vectorIxNS_9allocatorIxEEE22__construct_one_at_endB8ne180100IJRKxEEEvDpOT_, symObjAddr: 0x4F0, symBinAddr: 0x100001110, symSize: 0x90 }
  - { offset: 0x8D6A, size: 0x8, addend: 0x0, symName: __ZNSt3__16vectorIxNS_9allocatorIxEEE21__push_back_slow_pathIRKxEEPxOT_, symObjAddr: 0x580, symBinAddr: 0x1000011A0, symSize: 0xE0 }
  - { offset: 0x8DC6, size: 0x8, addend: 0x0, symName: __ZNSt3__117__compressed_pairIPxNS_9allocatorIxEEE5firstB8ne180100Ev, symObjAddr: 0x660, symBinAddr: 0x100001280, symSize: 0x20 }
  - { offset: 0x8DEA, size: 0x8, addend: 0x0, symName: __ZNSt3__122__compressed_pair_elemIPxLi0ELb0EE5__getB8ne180100Ev, symObjAddr: 0x680, symBinAddr: 0x1000012A0, symSize: 0x10 }
  - { offset: 0x8E27, size: 0x8, addend: 0x0, symName: __ZNSt3__16vectorIxNS_9allocatorIxEEE21_ConstructTransactionC1B8ne180100ERS3_m, symObjAddr: 0x690, symBinAddr: 0x1000012B0, symSize: 0x30 }
  - { offset: 0x8E6E, size: 0x8, addend: 0x0, symName: __ZNSt3__116allocator_traitsINS_9allocatorIxEEE9constructB8ne180100IxJRKxEvvEEvRS2_PT_DpOT0_, symObjAddr: 0x6C0, symBinAddr: 0x1000012E0, symSize: 0x30 }
  - { offset: 0x8EC1, size: 0x8, addend: 0x0, symName: __ZNSt3__16vectorIxNS_9allocatorIxEEE7__allocB8ne180100Ev, symObjAddr: 0x6F0, symBinAddr: 0x100001310, symSize: 0x20 }
  - { offset: 0x8EE5, size: 0x8, addend: 0x0, symName: __ZNSt3__16vectorIxNS_9allocatorIxEEE21_ConstructTransactionD1B8ne180100Ev, symObjAddr: 0x720, symBinAddr: 0x100001340, symSize: 0x20 }
  - { offset: 0x8F0D, size: 0x8, addend: 0x0, symName: __ZNSt3__16vectorIxNS_9allocatorIxEEE21_ConstructTransactionC2B8ne180100ERS3_m, symObjAddr: 0x740, symBinAddr: 0x100001360, symSize: 0x40 }
  - { offset: 0x8F53, size: 0x8, addend: 0x0, symName: __ZNSt3__117__compressed_pairIPxNS_9allocatorIxEEE6secondB8ne180100Ev, symObjAddr: 0x7D0, symBinAddr: 0x1000013F0, symSize: 0x20 }
  - { offset: 0x8F77, size: 0x8, addend: 0x0, symName: __ZNSt3__122__compressed_pair_elemINS_9allocatorIxEELi1ELb1EE5__getB8ne180100Ev, symObjAddr: 0x7F0, symBinAddr: 0x100001410, symSize: 0x10 }
  - { offset: 0x8F9B, size: 0x8, addend: 0x0, symName: __ZNSt3__16vectorIxNS_9allocatorIxEEE21_ConstructTransactionD2B8ne180100Ev, symObjAddr: 0x800, symBinAddr: 0x100001420, symSize: 0x20 }
  - { offset: 0x8FC3, size: 0x8, addend: 0x0, symName: __ZNKSt3__16vectorIxNS_9allocatorIxEEE11__recommendB8ne180100Em, symObjAddr: 0x820, symBinAddr: 0x100001440, symSize: 0x90 }
  - { offset: 0x9016, size: 0x8, addend: 0x0, symName: __ZNKSt3__16vectorIxNS_9allocatorIxEEE4sizeB8ne180100Ev, symObjAddr: 0x8B0, symBinAddr: 0x1000014D0, symSize: 0x20 }
  - { offset: 0x903B, size: 0x8, addend: 0x0, symName: __ZNSt3__114__split_bufferIxRNS_9allocatorIxEEEC1EmmS3_, symObjAddr: 0x8D0, symBinAddr: 0x1000014F0, symSize: 0x40 }
  - { offset: 0x9090, size: 0x8, addend: 0x0, symName: __ZNSt3__114__split_bufferIxRNS_9allocatorIxEEED1Ev, symObjAddr: 0xA30, symBinAddr: 0x100001650, symSize: 0x20 }
  - { offset: 0x90BA, size: 0x8, addend: 0x0, symName: __ZNKSt3__16vectorIxNS_9allocatorIxEEE8max_sizeEv, symObjAddr: 0xA50, symBinAddr: 0x100001670, symSize: 0x60 }
  - { offset: 0x90E0, size: 0x8, addend: 0x0, symName: __ZNKSt3__16vectorIxNS_9allocatorIxEEE20__throw_length_errorB8ne180100Ev, symObjAddr: 0xAB0, symBinAddr: 0x1000016D0, symSize: 0x20 }
  - { offset: 0x9104, size: 0x8, addend: 0x0, symName: __ZNKSt3__16vectorIxNS_9allocatorIxEEE8capacityB8ne180100Ev, symObjAddr: 0xAD0, symBinAddr: 0x1000016F0, symSize: 0x30 }
  - { offset: 0x9133, size: 0x8, addend: 0x0, symName: __ZNSt3__116allocator_traitsINS_9allocatorIxEEE8max_sizeB8ne180100IS2_vvEEmRKS2_, symObjAddr: 0xB60, symBinAddr: 0x100001780, symSize: 0x20 }
  - { offset: 0x915D, size: 0x8, addend: 0x0, symName: __ZNKSt3__16vectorIxNS_9allocatorIxEEE7__allocB8ne180100Ev, symObjAddr: 0xB80, symBinAddr: 0x1000017A0, symSize: 0x20 }
  - { offset: 0x9182, size: 0x8, addend: 0x0, symName: __ZNSt3__114numeric_limitsIlE3maxB8ne180100Ev, symObjAddr: 0xBA0, symBinAddr: 0x1000017C0, symSize: 0x10 }
  - { offset: 0x91A9, size: 0x8, addend: 0x0, symName: __ZNKSt3__16__lessIvvEclB8ne180100ImmEEbRKT_RKT0_, symObjAddr: 0xC00, symBinAddr: 0x100001820, symSize: 0x30 }
  - { offset: 0x91FC, size: 0x8, addend: 0x0, symName: __ZNSt3__114numeric_limitsImE3maxB8ne180100Ev, symObjAddr: 0xC30, symBinAddr: 0x100001850, symSize: 0x10 }
  - { offset: 0x9210, size: 0x8, addend: 0x0, symName: __ZNSt3__123__libcpp_numeric_limitsImLb1EE3maxB8ne180100Ev, symObjAddr: 0xC40, symBinAddr: 0x100001860, symSize: 0x10 }
  - { offset: 0x9223, size: 0x8, addend: 0x0, symName: __ZNKSt3__117__compressed_pairIPxNS_9allocatorIxEEE6secondB8ne180100Ev, symObjAddr: 0xC50, symBinAddr: 0x100001870, symSize: 0x20 }
  - { offset: 0x9247, size: 0x8, addend: 0x0, symName: __ZNKSt3__122__compressed_pair_elemINS_9allocatorIxEELi1ELb1EE5__getB8ne180100Ev, symObjAddr: 0xC70, symBinAddr: 0x100001890, symSize: 0x10 }
  - { offset: 0x926C, size: 0x8, addend: 0x0, symName: __ZNSt3__123__libcpp_numeric_limitsIlLb1EE3maxB8ne180100Ev, symObjAddr: 0xC80, symBinAddr: 0x1000018A0, symSize: 0x10 }
  - { offset: 0x927F, size: 0x8, addend: 0x0, symName: __ZNSt12length_errorC1B8ne180100EPKc, symObjAddr: 0xD00, symBinAddr: 0x100001920, symSize: 0x30 }
  - { offset: 0x92B5, size: 0x8, addend: 0x0, symName: __ZNSt12length_errorC2B8ne180100EPKc, symObjAddr: 0xD30, symBinAddr: 0x100001950, symSize: 0x40 }
  - { offset: 0x92EB, size: 0x8, addend: 0x0, symName: __ZNKSt3__16vectorIxNS_9allocatorIxEEE9__end_capB8ne180100Ev, symObjAddr: 0xD70, symBinAddr: 0x100001990, symSize: 0x20 }
  - { offset: 0x930F, size: 0x8, addend: 0x0, symName: __ZNKSt3__117__compressed_pairIPxNS_9allocatorIxEEE5firstB8ne180100Ev, symObjAddr: 0xD90, symBinAddr: 0x1000019B0, symSize: 0x20 }
  - { offset: 0x9333, size: 0x8, addend: 0x0, symName: __ZNKSt3__122__compressed_pair_elemIPxLi0ELb0EE5__getB8ne180100Ev, symObjAddr: 0xDB0, symBinAddr: 0x1000019D0, symSize: 0x10 }
  - { offset: 0x9358, size: 0x8, addend: 0x0, symName: __ZNSt3__114__split_bufferIxRNS_9allocatorIxEEEC2EmmS3_, symObjAddr: 0xE10, symBinAddr: 0x100001A30, symSize: 0xD0 }
  - { offset: 0x93C9, size: 0x8, addend: 0x0, symName: __ZNSt3__117__compressed_pairIPxRNS_9allocatorIxEEEC1B8ne180100IDnS4_EEOT_OT0_, symObjAddr: 0xEE0, symBinAddr: 0x100001B00, symSize: 0x30 }
  - { offset: 0x941F, size: 0x8, addend: 0x0, symName: __ZNSt3__114__split_bufferIxRNS_9allocatorIxEEE7__allocB8ne180100Ev, symObjAddr: 0xF50, symBinAddr: 0x100001B70, symSize: 0x20 }
  - { offset: 0x9443, size: 0x8, addend: 0x0, symName: __ZNSt3__114__split_bufferIxRNS_9allocatorIxEEE9__end_capB8ne180100Ev, symObjAddr: 0xF70, symBinAddr: 0x100001B90, symSize: 0x20 }
  - { offset: 0x9467, size: 0x8, addend: 0x0, symName: __ZNSt3__117__compressed_pairIPxRNS_9allocatorIxEEEC2B8ne180100IDnS4_EEOT_OT0_, symObjAddr: 0xF90, symBinAddr: 0x100001BB0, symSize: 0x40 }
  - { offset: 0x94BD, size: 0x8, addend: 0x0, symName: __ZNSt3__122__compressed_pair_elemIRNS_9allocatorIxEELi1ELb0EEC2B8ne180100IS3_vEEOT_, symObjAddr: 0xFD0, symBinAddr: 0x100001BF0, symSize: 0x20 }
  - { offset: 0x94FD, size: 0x8, addend: 0x0, symName: __ZNSt3__19allocatorIxE8allocateB8ne180100Em, symObjAddr: 0xFF0, symBinAddr: 0x100001C10, symSize: 0x50 }
  - { offset: 0x952F, size: 0x8, addend: 0x0, symName: __ZNSt3__117__compressed_pairIPxRNS_9allocatorIxEEE6secondB8ne180100Ev, symObjAddr: 0x1150, symBinAddr: 0x100001D70, symSize: 0x20 }
  - { offset: 0x9553, size: 0x8, addend: 0x0, symName: __ZNSt3__122__compressed_pair_elemIRNS_9allocatorIxEELi1ELb0EE5__getB8ne180100Ev, symObjAddr: 0x1170, symBinAddr: 0x100001D90, symSize: 0x20 }
  - { offset: 0x9577, size: 0x8, addend: 0x0, symName: __ZNSt3__117__compressed_pairIPxRNS_9allocatorIxEEE5firstB8ne180100Ev, symObjAddr: 0x1190, symBinAddr: 0x100001DB0, symSize: 0x20 }
  - { offset: 0x959B, size: 0x8, addend: 0x0, symName: __ZNKSt3__16vectorIxNS_9allocatorIxEEE17__annotate_deleteB8ne180100Ev, symObjAddr: 0x11B0, symBinAddr: 0x100001DD0, symSize: 0x10 }
  - { offset: 0x95BF, size: 0x8, addend: 0x0, symName: __ZNSt3__116reverse_iteratorIPxEC1B8ne180100ES1_, symObjAddr: 0x1230, symBinAddr: 0x100001E50, symSize: 0x30 }
  - { offset: 0x95F5, size: 0x8, addend: 0x0, symName: __ZNKSt3__116reverse_iteratorIPxE4baseB8ne180100Ev, symObjAddr: 0x1260, symBinAddr: 0x100001E80, symSize: 0x20 }
  - { offset: 0x9619, size: 0x8, addend: 0x0, symName: __ZNKSt3__16vectorIxNS_9allocatorIxEEE14__annotate_newB8ne180100Em, symObjAddr: 0x12C0, symBinAddr: 0x100001EE0, symSize: 0x10 }
  - { offset: 0x966F, size: 0x8, addend: 0x0, symName: __ZNKSt3__111__move_loopINS_17_ClassicAlgPolicyEEclB8ne180100INS_16reverse_iteratorIPxEES6_S6_EENS_4pairIT_T1_EES8_T0_S9_, symObjAddr: 0x16E0, symBinAddr: 0x100002300, symSize: 0xA0 }
  - { offset: 0x96D9, size: 0x8, addend: 0x0, symName: __ZNSt3__119__unwrap_range_implINS_16reverse_iteratorIPxEES3_E8__unwrapB8ne180100ES3_S3_, symObjAddr: 0x18C0, symBinAddr: 0x1000024E0, symSize: 0x90 }
  - { offset: 0x970E, size: 0x8, addend: 0x0, symName: __ZNSt3__14pairINS_16reverse_iteratorIPxEES3_EC1B8ne180100IS3_S3_Li0EEEOT_OT0_, symObjAddr: 0x1950, symBinAddr: 0x100002570, symSize: 0x30 }
  - { offset: 0x976A, size: 0x8, addend: 0x0, symName: __ZNSt3__14pairINS_16reverse_iteratorIPxEES3_EC2B8ne180100IS3_S3_Li0EEEOT_OT0_, symObjAddr: 0x1980, symBinAddr: 0x1000025A0, symSize: 0x40 }
  - { offset: 0x97CC, size: 0x8, addend: 0x0, symName: __ZNSt3__18_IterOpsINS_17_ClassicAlgPolicyEE11__iter_moveB8ne180100IRNS_16reverse_iteratorIPxEELi0EEEDTclsr3stdE4movedeclsr3stdE7declvalIRT_EEEEOS8_, symObjAddr: 0x1A00, symBinAddr: 0x100002620, symSize: 0x20 }
  - { offset: 0x97FD, size: 0x8, addend: 0x0, symName: __ZNKSt3__116reverse_iteratorIPxEdeB8ne180100Ev, symObjAddr: 0x1A20, symBinAddr: 0x100002640, symSize: 0x30 }
  - { offset: 0x982F, size: 0x8, addend: 0x0, symName: __ZNSt3__116reverse_iteratorIPxEppB8ne180100Ev, symObjAddr: 0x1A50, symBinAddr: 0x100002670, symSize: 0x20 }
  - { offset: 0x9854, size: 0x8, addend: 0x0, symName: __ZNSt3__18_IterOpsINS_17_ClassicAlgPolicyEE25__validate_iter_referenceB8ne180100IRNS_16reverse_iteratorIPxEEEEvv, symObjAddr: 0x1A70, symBinAddr: 0x100002690, symSize: 0x10 }
  - { offset: 0x9872, size: 0x8, addend: 0x0, symName: __ZNSt3__118__unwrap_iter_implINS_16reverse_iteratorIPxEELb0EE8__unwrapB8ne180100ES3_, symObjAddr: 0x1A80, symBinAddr: 0x1000026A0, symSize: 0x20 }
  - { offset: 0x9895, size: 0x8, addend: 0x0, symName: __ZNSt3__119__unwrap_range_implINS_16reverse_iteratorIPxEES3_E8__rewrapB8ne180100ES3_S3_, symObjAddr: 0x1AA0, symBinAddr: 0x1000026C0, symSize: 0x60 }
  - { offset: 0x98C6, size: 0x8, addend: 0x0, symName: __ZNSt3__118__unwrap_iter_implINS_16reverse_iteratorIPxEELb0EE8__rewrapB8ne180100ES3_S3_, symObjAddr: 0x1B00, symBinAddr: 0x100002720, symSize: 0x30 }
  - { offset: 0x98F3, size: 0x8, addend: 0x0, symName: __ZNSt3__116reverse_iteratorIPxEC2B8ne180100ES1_, symObjAddr: 0x1B30, symBinAddr: 0x100002750, symSize: 0x30 }
  - { offset: 0x992A, size: 0x8, addend: 0x0, symName: __ZNSt3__114__split_bufferIxRNS_9allocatorIxEEED2Ev, symObjAddr: 0x1B60, symBinAddr: 0x100002780, symSize: 0x70 }
  - { offset: 0x9954, size: 0x8, addend: 0x0, symName: __ZNSt3__114__split_bufferIxRNS_9allocatorIxEEE5clearB8ne180100Ev, symObjAddr: 0x1BD0, symBinAddr: 0x1000027F0, symSize: 0x20 }
  - { offset: 0x9979, size: 0x8, addend: 0x0, symName: __ZNSt3__116allocator_traitsINS_9allocatorIxEEE10deallocateB8ne180100ERS2_Pxm, symObjAddr: 0x1BF0, symBinAddr: 0x100002810, symSize: 0x30 }
  - { offset: 0x99BA, size: 0x8, addend: 0x0, symName: __ZNKSt3__114__split_bufferIxRNS_9allocatorIxEEE8capacityB8ne180100Ev, symObjAddr: 0x1C20, symBinAddr: 0x100002840, symSize: 0x30 }
  - { offset: 0x99DE, size: 0x8, addend: 0x0, symName: __ZNSt3__114__split_bufferIxRNS_9allocatorIxEEE17__destruct_at_endB8ne180100EPx, symObjAddr: 0x1C50, symBinAddr: 0x100002870, symSize: 0x30 }
  - { offset: 0x9A10, size: 0x8, addend: 0x0, symName: __ZNSt3__114__split_bufferIxRNS_9allocatorIxEEE17__destruct_at_endB8ne180100EPxNS_17integral_constantIbLb0EEE, symObjAddr: 0x1C80, symBinAddr: 0x1000028A0, symSize: 0x80 }
  - { offset: 0x9A50, size: 0x8, addend: 0x0, symName: __ZNSt3__116allocator_traitsINS_9allocatorIxEEE7destroyB8ne180100IxvvEEvRS2_PT_, symObjAddr: 0x1D00, symBinAddr: 0x100002920, symSize: 0x20 }
  - { offset: 0x9A89, size: 0x8, addend: 0x0, symName: __ZNSt3__19allocatorIxE10deallocateB8ne180100EPxm, symObjAddr: 0x1D30, symBinAddr: 0x100002950, symSize: 0x40 }
  - { offset: 0x9AC9, size: 0x8, addend: 0x0, symName: __ZNKSt3__114__split_bufferIxRNS_9allocatorIxEEE9__end_capB8ne180100Ev, symObjAddr: 0x1E70, symBinAddr: 0x100002A90, symSize: 0x20 }
  - { offset: 0x9AED, size: 0x8, addend: 0x0, symName: __ZNKSt3__117__compressed_pairIPxRNS_9allocatorIxEEE5firstB8ne180100Ev, symObjAddr: 0x1E90, symBinAddr: 0x100002AB0, symSize: 0x20 }
  - { offset: 0x9B11, size: 0x8, addend: 0x0, symName: __ZNSt3__16vectorIxNS_9allocatorIxEEED2B8ne180100Ev, symObjAddr: 0x1EB0, symBinAddr: 0x100002AD0, symSize: 0x40 }
  - { offset: 0x9B39, size: 0x8, addend: 0x0, symName: __ZNSt3__16vectorIxNS_9allocatorIxEEE16__destroy_vectorC1B8ne180100ERS3_, symObjAddr: 0x1EF0, symBinAddr: 0x100002B10, symSize: 0x30 }
  - { offset: 0x9B70, size: 0x8, addend: 0x0, symName: __ZNSt3__16vectorIxNS_9allocatorIxEEE16__destroy_vectorclB8ne180100Ev, symObjAddr: 0x1F20, symBinAddr: 0x100002B40, symSize: 0x80 }
  - { offset: 0x9B94, size: 0x8, addend: 0x0, symName: __ZNSt3__16vectorIxNS_9allocatorIxEEE16__destroy_vectorC2B8ne180100ERS3_, symObjAddr: 0x1FA0, symBinAddr: 0x100002BC0, symSize: 0x20 }
  - { offset: 0x9BCB, size: 0x8, addend: 0x0, symName: __ZNSt3__16vectorIxNS_9allocatorIxEEE7__clearB8ne180100Ev, symObjAddr: 0x1FC0, symBinAddr: 0x100002BE0, symSize: 0x20 }
  - { offset: 0x9BEF, size: 0x8, addend: 0x0, symName: __ZNSt3__16vectorIxNS_9allocatorIxEEE22__base_destruct_at_endB8ne180100EPx, symObjAddr: 0x1FE0, symBinAddr: 0x100002C00, symSize: 0x80 }
  - { offset: 0x9C31, size: 0x8, addend: 0x0, symName: __ZNKSt3__19basic_iosIcNS_11char_traitsIcEEE5widenB8ne180100Ec, symObjAddr: 0x2060, symBinAddr: 0x100002C80, symSize: 0x80 }
  - { offset: 0x9CA8, size: 0x8, addend: 0x0, symName: __ZNKSt3__15ctypeIcE5widenB8ne180100Ec, symObjAddr: 0x2110, symBinAddr: 0x100002D30, symSize: 0x2B }
...
