---
triple:          'x86_64-apple-darwin'
binary-path:     cb
relocations:
  - { offset: 0x3F, size: 0x8, addend: 0x0, symName: _adj, symObjAddr: 0x4DB50, symBinAddr: 0x10000B000, symSize: 0x0 }
  - { offset: 0x6DCD, size: 0x8, addend: 0x0, symName: __ZNSt3__17advanceB8ne180100IPNS_4pairIixEEllvEEvRT_T0_, symObjAddr: 0x3F40, symBinAddr: 0x1000053B0, symSize: 0x30 }
  - { offset: 0x704D, size: 0x8, addend: 0x0, symName: __ZNSt3__17advanceB8ne180100INS_16reverse_iteratorIPNS_4pairIixEEEEllvEEvRT_T0_, symObjAddr: 0x4330, symBinAddr: 0x1000057A0, symSize: 0x30 }
  - { offset: 0x70B8, size: 0x8, addend: 0x0, symName: '__ZNSt3__111__introsortINS_17_ClassicAlgPolicyERZ4mainE3$_0PNS_4pairIixEELb0EEEvT1_S7_T0_NS_15iterator_traitsIS7_E15difference_typeEb', symObjAddr: 0x4850, symBinAddr: 0x100005CC0, symSize: 0x440 }
  - { offset: 0x71E6, size: 0x8, addend: 0x0, symName: '__ZNSt3__126__insertion_sort_unguardedB8ne180100INS_17_ClassicAlgPolicyERZ4mainE3$_0PNS_4pairIixEEEEvT1_S7_T0_', symObjAddr: 0x4F40, symBinAddr: 0x1000063B0, symSize: 0x110 }
  - { offset: 0x72D7, size: 0x8, addend: 0x0, symName: '__ZNSt3__111__sift_downB8ne180100INS_17_ClassicAlgPolicyERZ4mainE3$_0PNS_4pairIixEEEEvT1_OT0_NS_15iterator_traitsIS7_E15difference_typeES7_', symObjAddr: 0x6060, symBinAddr: 0x1000074D0, symSize: 0x1E0 }
  - { offset: 0x7384, size: 0x8, addend: 0x0, symName: '__ZNSt3__117__floyd_sift_downB8ne180100INS_17_ClassicAlgPolicyERZ4mainE3$_0PNS_4pairIixEEEET1_S7_OT0_NS_15iterator_traitsIS7_E15difference_typeE', symObjAddr: 0x63B0, symBinAddr: 0x100007820, symSize: 0x100 }
  - { offset: 0x741C, size: 0x8, addend: 0x0, symName: '__ZNSt3__131__partition_with_equals_on_leftB8ne180100INS_17_ClassicAlgPolicyEPNS_4pairIixEERZ4mainE3$_0EET0_S7_S7_T1_', symObjAddr: 0x5250, symBinAddr: 0x1000066C0, symSize: 0x1E0 }
  - { offset: 0x74D7, size: 0x8, addend: 0x0, symName: '__ZNSt3__118__bitset_partitionB8ne180100INS_17_ClassicAlgPolicyEPNS_4pairIixEERZ4mainE3$_0EENS2_IT0_bEES7_S7_T1_', symObjAddr: 0x5430, symBinAddr: 0x1000068A0, symSize: 0x2C0 }
  - { offset: 0x75D4, size: 0x8, addend: 0x0, symName: __ZNSt3__124__swap_bitmap_pos_withinB8ne180100INS_17_ClassicAlgPolicyEPNS_4pairIixEEEEvRT0_S6_RyS7_, symObjAddr: 0x6A30, symBinAddr: 0x100007EA0, symSize: 0x190 }
  - { offset: 0x76A1, size: 0x8, addend: 0x0, symName: '__ZNSt3__132__partition_with_equals_on_rightB8ne180100INS_17_ClassicAlgPolicyEPNS_4pairIixEERZ4mainE3$_0EENS2_IT0_bEES7_S7_T1_', symObjAddr: 0x56F0, symBinAddr: 0x100006B60, symSize: 0x1E0 }
  - { offset: 0x776E, size: 0x8, addend: 0x0, symName: '__ZNSt3__127__insertion_sort_incompleteB8ne180100INS_17_ClassicAlgPolicyERZ4mainE3$_0PNS_4pairIixEEEEbT1_S7_T0_', symObjAddr: 0x58D0, symBinAddr: 0x100006D40, symSize: 0x290 }
  - { offset: 0x7865, size: 0x8, addend: 0x0, symName: __ZNSt3__117__floyd_sift_downB8ne180100INS_17_ClassicAlgPolicyERNS_7greaterIiEENS_11__wrap_iterIPiEEEET1_S8_OT0_NS_15iterator_traitsIS8_E15difference_typeE, symObjAddr: 0x7740, symBinAddr: 0x100008BB0, symSize: 0x130 }
  - { offset: 0x7DD8, size: 0x8, addend: 0x0, symName: __ZNSt3__1neB8ne180100IPiEEbRKNS_11__wrap_iterIT_EES6_, symObjAddr: 0x250, symBinAddr: 0x1000016C0, symSize: 0x30 }
  - { offset: 0x8CE9, size: 0x8, addend: 0x0, symName: '__ZNSt3__14sortB8ne180100INS_11__wrap_iterIPNS_4pairIixEEEEZ4mainE3$_0EEvT_S7_T0_', symObjAddr: 0x10C0, symBinAddr: 0x100002530, symSize: 0x40 }
  - { offset: 0x8D43, size: 0x8, addend: 0x0, symName: __ZNSt3__1neB8ne180100IPNS_4pairIixEEEEbRKNS_11__wrap_iterIT_EES8_, symObjAddr: 0x1160, symBinAddr: 0x1000025D0, symSize: 0x30 }
  - { offset: 0x8D86, size: 0x8, addend: 0x0, symName: __ZNSt3__14endlB8ne180100IcNS_11char_traitsIcEEEERNS_13basic_ostreamIT_T0_EES7_, symObjAddr: 0x1260, symBinAddr: 0x1000026D0, symSize: 0x50 }
  - { offset: 0x8DC6, size: 0x8, addend: 0x0, symName: __ZNSt3__112__to_addressB8ne180100IiEEPT_S2_, symObjAddr: 0x1540, symBinAddr: 0x1000029B0, symSize: 0x10 }
  - { offset: 0x8DFB, size: 0x8, addend: 0x0, symName: __ZNSt3__112__destroy_atB8ne180100IiLi0EEEvPT_, symObjAddr: 0x1550, symBinAddr: 0x1000029C0, symSize: 0x10 }
  - { offset: 0x8E32, size: 0x8, addend: 0x0, symName: __ZNSt3__119__libcpp_deallocateB8ne180100EPvmm, symObjAddr: 0x15A0, symBinAddr: 0x100002A10, symSize: 0x60 }
  - { offset: 0x8E97, size: 0x8, addend: 0x0, symName: __ZNSt3__124__is_overaligned_for_newB8ne180100Em, symObjAddr: 0x1600, symBinAddr: 0x100002A70, symSize: 0x20 }
  - { offset: 0x8EC5, size: 0x8, addend: 0x0, symName: __ZNSt3__127__do_deallocate_handle_sizeB8ne180100IJSt11align_val_tEEEvPvmDpT_, symObjAddr: 0x1620, symBinAddr: 0x100002A90, symSize: 0x30 }
  - { offset: 0x8F18, size: 0x8, addend: 0x0, symName: __ZNSt3__127__do_deallocate_handle_sizeB8ne180100IJEEEvPvmDpT_, symObjAddr: 0x1650, symBinAddr: 0x100002AC0, symSize: 0x20 }
  - { offset: 0x8F56, size: 0x8, addend: 0x0, symName: __ZNSt3__124__libcpp_operator_deleteB8ne180100IJPvSt11align_val_tEEEvDpT_, symObjAddr: 0x1670, symBinAddr: 0x100002AE0, symSize: 0x30 }
  - { offset: 0x8F9F, size: 0x8, addend: 0x0, symName: __ZNSt3__124__libcpp_operator_deleteB8ne180100IJPvEEEvDpT_, symObjAddr: 0x16A0, symBinAddr: 0x100002B10, symSize: 0x20 }
  - { offset: 0x8FD4, size: 0x8, addend: 0x0, symName: __ZNSt3__1eqB8ne180100IPiEEbRKNS_11__wrap_iterIT_EES6_, symObjAddr: 0x17C0, symBinAddr: 0x100002C30, symSize: 0x40 }
  - { offset: 0x9017, size: 0x8, addend: 0x0, symName: __ZNSt3__114__construct_atB8ne180100IiJiEPiEEPT_S3_DpOT0_, symObjAddr: 0x1AC0, symBinAddr: 0x100002F30, symSize: 0x30 }
  - { offset: 0x906A, size: 0x8, addend: 0x0, symName: __ZNSt3__112construct_atB8ne180100IiJiEPiEEPT_S3_DpOT0_, symObjAddr: 0x1AF0, symBinAddr: 0x100002F60, symSize: 0x20 }
  - { offset: 0x90BD, size: 0x8, addend: 0x0, symName: __ZNSt3__13maxB8ne180100ImEERKT_S3_S3_, symObjAddr: 0x1DE0, symBinAddr: 0x100003250, symSize: 0x30 }
  - { offset: 0x9100, size: 0x8, addend: 0x0, symName: __ZNSt3__13minB8ne180100ImEERKT_S3_S3_, symObjAddr: 0x1E10, symBinAddr: 0x100003280, symSize: 0x30 }
  - { offset: 0x932D, size: 0x8, addend: 0x0, symName: __ZNSt3__13minB8ne180100ImNS_6__lessIvvEEEERKT_S5_S5_T0_, symObjAddr: 0x1E90, symBinAddr: 0x100003300, symSize: 0x50 }
  - { offset: 0x95B8, size: 0x8, addend: 0x0, symName: __ZNSt3__120__throw_length_errorB8ne180100EPKc, symObjAddr: 0x1F70, symBinAddr: 0x1000033E0, symSize: 0x70 }
  - { offset: 0x95E0, size: 0x8, addend: 0x0, symName: __ZNSt3__13maxB8ne180100ImNS_6__lessIvvEEEERKT_S5_S5_T0_, symObjAddr: 0x2050, symBinAddr: 0x1000034C0, symSize: 0x50 }
  - { offset: 0x963A, size: 0x8, addend: 0x0, symName: __ZNSt3__119__allocate_at_leastB8ne180100INS_9allocatorIiEEEENS_19__allocation_resultINS_16allocator_traitsIT_E7pointerEEERS5_m, symObjAddr: 0x21A0, symBinAddr: 0x100003610, symSize: 0x40 }
  - { offset: 0x967D, size: 0x8, addend: 0x0, symName: __ZNSt3__117__libcpp_allocateB8ne180100Emm, symObjAddr: 0x2330, symBinAddr: 0x1000037A0, symSize: 0x60 }
  - { offset: 0x96D7, size: 0x8, addend: 0x0, symName: __ZNSt3__121__libcpp_operator_newB8ne180100IJmSt11align_val_tEEEPvDpT_, symObjAddr: 0x2390, symBinAddr: 0x100003800, symSize: 0x30 }
  - { offset: 0x9724, size: 0x8, addend: 0x0, symName: __ZNSt3__121__libcpp_operator_newB8ne180100IJmEEEPvDpT_, symObjAddr: 0x23C0, symBinAddr: 0x100003830, symSize: 0x20 }
  - { offset: 0x975D, size: 0x8, addend: 0x0, symName: __ZNSt3__142__uninitialized_allocator_move_if_noexceptB8ne180100INS_9allocatorIiEENS_16reverse_iteratorIPiEES5_ivEET1_RT_T0_S9_S6_, symObjAddr: 0x2440, symBinAddr: 0x1000038B0, symSize: 0x70 }
  - { offset: 0x97D9, size: 0x8, addend: 0x0, symName: __ZNSt3__14swapB8ne180100IPiEENS_9enable_ifIXaasr21is_move_constructibleIT_EE5valuesr18is_move_assignableIS3_EE5valueEvE4typeERS3_S6_, symObjAddr: 0x2500, symBinAddr: 0x100003970, symSize: 0x40 }
  - { offset: 0x982A, size: 0x8, addend: 0x0, symName: __ZNSt3__14moveB8ne180100INS_16reverse_iteratorIPiEES3_EET0_T_S5_S4_, symObjAddr: 0x2550, symBinAddr: 0x1000039C0, symSize: 0x80 }
  - { offset: 0x9884, size: 0x8, addend: 0x0, symName: __ZNSt3__16__moveB8ne180100INS_17_ClassicAlgPolicyENS_16reverse_iteratorIPiEES4_S4_EENS_4pairIT0_T2_EES6_T1_S7_, symObjAddr: 0x25D0, symBinAddr: 0x100003A40, symSize: 0x90 }
  - { offset: 0x98F0, size: 0x8, addend: 0x0, symName: __ZNSt3__123__dispatch_copy_or_moveB8ne180100INS_17_ClassicAlgPolicyENS_11__move_loopIS1_EENS_14__move_trivialENS_16reverse_iteratorIPiEES7_S7_EENS_4pairIT2_T4_EES9_T3_SA_, symObjAddr: 0x2660, symBinAddr: 0x100003AD0, symSize: 0x90 }
  - { offset: 0x996E, size: 0x8, addend: 0x0, symName: __ZNSt3__121__unwrap_and_dispatchB8ne180100INS_10__overloadINS_11__move_loopINS_17_ClassicAlgPolicyEEENS_14__move_trivialEEENS_16reverse_iteratorIPiEES9_S9_Li0EEENS_4pairIT0_T2_EESB_T1_SC_, symObjAddr: 0x26F0, symBinAddr: 0x100003B60, symSize: 0x210 }
  - { offset: 0x99FD, size: 0x8, addend: 0x0, symName: __ZNSt3__114__unwrap_rangeB8ne180100INS_16reverse_iteratorIPiEES3_EEDaT_T0_, symObjAddr: 0x2900, symBinAddr: 0x100003D70, symSize: 0x60 }
  - { offset: 0x9B78, size: 0x8, addend: 0x0, symName: __ZNSt3__113__unwrap_iterB8ne180100INS_16reverse_iteratorIPiEENS_18__unwrap_iter_implIS3_Lb0EEELi0EEEDTclsrT0_8__unwrapclsr3stdE7declvalIT_EEEES7_, symObjAddr: 0x2A00, symBinAddr: 0x100003E70, symSize: 0x40 }
  - { offset: 0x9BBC, size: 0x8, addend: 0x0, symName: __ZNSt3__19make_pairB8ne180100INS_16reverse_iteratorIPiEES3_EENS_4pairINS_18__unwrap_ref_decayIT_E4typeENS5_IT0_E4typeEEEOS6_OS9_, symObjAddr: 0x2A40, symBinAddr: 0x100003EB0, symSize: 0x30 }
  - { offset: 0x9C0B, size: 0x8, addend: 0x0, symName: __ZNSt3__114__rewrap_rangeB8ne180100INS_16reverse_iteratorIPiEES3_S3_EET0_S4_T1_, symObjAddr: 0x2A70, symBinAddr: 0x100003EE0, symSize: 0x60 }
  - { offset: 0x9C60, size: 0x8, addend: 0x0, symName: __ZNSt3__113__rewrap_iterB8ne180100INS_16reverse_iteratorIPiEES3_NS_18__unwrap_iter_implIS3_Lb0EEEEET_S6_T0_, symObjAddr: 0x2AD0, symBinAddr: 0x100003F40, symSize: 0x70 }
  - { offset: 0x9D05, size: 0x8, addend: 0x0, symName: __ZNSt3__1neB8ne180100IPiS1_EEbRKNS_16reverse_iteratorIT_EERKNS2_IT0_EE, symObjAddr: 0x2C40, symBinAddr: 0x1000040B0, symSize: 0x40 }
  - { offset: 0x9F1E, size: 0x8, addend: 0x0, symName: __ZNSt3__112__to_addressB8ne180100INS_4pairIixEEEEPT_S4_, symObjAddr: 0x3300, symBinAddr: 0x100004770, symSize: 0x10 }
  - { offset: 0x9F53, size: 0x8, addend: 0x0, symName: __ZNSt3__114__construct_atB8ne180100INS_4pairIixEEJS2_EPS2_EEPT_S5_DpOT0_, symObjAddr: 0x3370, symBinAddr: 0x1000047E0, symSize: 0x30 }
  - { offset: 0x9FA6, size: 0x8, addend: 0x0, symName: __ZNSt3__112construct_atB8ne180100INS_4pairIixEEJS2_EPS2_EEPT_S5_DpOT0_, symObjAddr: 0x33A0, symBinAddr: 0x100004810, symSize: 0x30 }
  - { offset: 0x9FF9, size: 0x8, addend: 0x0, symName: __ZNSt3__119__allocate_at_leastB8ne180100INS_9allocatorINS_4pairIixEEEEEENS_19__allocation_resultINS_16allocator_traitsIT_E7pointerEEERS7_m, symObjAddr: 0x38A0, symBinAddr: 0x100004D10, symSize: 0x40 }
  - { offset: 0xA03C, size: 0x8, addend: 0x0, symName: __ZNSt3__142__uninitialized_allocator_move_if_noexceptB8ne180100INS_9allocatorINS_4pairIixEEEENS_16reverse_iteratorIPS3_EES7_S7_EET2_RT_T0_T1_S8_, symObjAddr: 0x3A40, symBinAddr: 0x100004EB0, symSize: 0x180 }
  - { offset: 0xA0DB, size: 0x8, addend: 0x0, symName: __ZNSt3__14swapB8ne180100IPNS_4pairIixEEEENS_9enable_ifIXaasr21is_move_constructibleIT_EE5valuesr18is_move_assignableIS5_EE5valueEvE4typeERS5_S8_, symObjAddr: 0x3C10, symBinAddr: 0x100005080, symSize: 0x40 }
  - { offset: 0xA12C, size: 0x8, addend: 0x0, symName: __ZNSt3__122__make_exception_guardB8ne180100INS_29_AllocatorDestroyRangeReverseINS_9allocatorINS_4pairIixEEEENS_16reverse_iteratorIPS4_EEEEEENS_28__exception_guard_exceptionsIT_EESB_, symObjAddr: 0x3C60, symBinAddr: 0x1000050D0, symSize: 0x60 }
  - { offset: 0xA161, size: 0x8, addend: 0x0, symName: __ZNSt3__1neB8ne180100IPNS_4pairIixEES3_EEbRKNS_16reverse_iteratorIT_EERKNS4_IT0_EE, symObjAddr: 0x3D00, symBinAddr: 0x100005170, symSize: 0x40 }
  - { offset: 0xA1AD, size: 0x8, addend: 0x0, symName: __ZNSt3__112__to_addressB8ne180100INS_16reverse_iteratorIPNS_4pairIixEEEEvEEu7__decayIDTclsr19__to_address_helperIT_EE6__callclsr3stdE7declvalIRKS6_EEEEES8_, symObjAddr: 0x3D40, symBinAddr: 0x1000051B0, symSize: 0x20 }
  - { offset: 0xA20C, size: 0x8, addend: 0x0, symName: __ZNSt3__14prevB8ne180100IPNS_4pairIixEELi0EEET_S4_NS_15iterator_traitsIS4_E15difference_typeE, symObjAddr: 0x3F10, symBinAddr: 0x100005380, symSize: 0x30 }
  - { offset: 0xA255, size: 0x8, addend: 0x0, symName: __ZNSt3__121__convert_to_integralB8ne180100El, symObjAddr: 0x3F70, symBinAddr: 0x1000053E0, symSize: 0x10 }
  - { offset: 0xA281, size: 0x8, addend: 0x0, symName: __ZNSt3__19__advanceB8ne180100IPNS_4pairIixEEEEvRT_NS_15iterator_traitsIS4_E15difference_typeENS_26random_access_iterator_tagE, symObjAddr: 0x3F80, symBinAddr: 0x1000053F0, symSize: 0x20 }
  - { offset: 0xA2CA, size: 0x8, addend: 0x0, symName: __ZNSt3__119__allocator_destroyB8ne180100INS_9allocatorINS_4pairIixEEEENS_16reverse_iteratorINS5_IPS3_EEEES8_EEvRT_T0_T1_, symObjAddr: 0x40D0, symBinAddr: 0x100005540, symSize: 0x70 }
  - { offset: 0xA32D, size: 0x8, addend: 0x0, symName: __ZNSt3__1neB8ne180100INS_16reverse_iteratorIPNS_4pairIixEEEES5_EEbRKNS1_IT_EERKNS1_IT0_EE, symObjAddr: 0x4170, symBinAddr: 0x1000055E0, symSize: 0x50 }
  - { offset: 0xA379, size: 0x8, addend: 0x0, symName: __ZNSt3__112__to_addressB8ne180100INS_16reverse_iteratorINS1_IPNS_4pairIixEEEEEEvEEu7__decayIDTclsr19__to_address_helperIT_EE6__callclsr3stdE7declvalIRKS7_EEEEES9_, symObjAddr: 0x41E0, symBinAddr: 0x100005650, symSize: 0x20 }
  - { offset: 0xA3AF, size: 0x8, addend: 0x0, symName: __ZNSt3__112__destroy_atB8ne180100INS_4pairIixEELi0EEEvPT_, symObjAddr: 0x4250, symBinAddr: 0x1000056C0, symSize: 0x10 }
  - { offset: 0xA40F, size: 0x8, addend: 0x0, symName: __ZNSt3__14prevB8ne180100INS_16reverse_iteratorIPNS_4pairIixEEEELi0EEET_S6_NS_15iterator_traitsIS6_E15difference_typeE, symObjAddr: 0x42F0, symBinAddr: 0x100005760, symSize: 0x40 }
  - { offset: 0xA458, size: 0x8, addend: 0x0, symName: __ZNSt3__19__advanceB8ne180100INS_16reverse_iteratorIPNS_4pairIixEEEEEEvRT_NS_15iterator_traitsIS6_E15difference_typeENS_26random_access_iterator_tagE, symObjAddr: 0x4360, symBinAddr: 0x1000057D0, symSize: 0x30 }
  - { offset: 0xA4A1, size: 0x8, addend: 0x0, symName: '__ZNSt3__111__sort_implB8ne180100INS_17_ClassicAlgPolicyENS_11__wrap_iterIPNS_4pairIixEEEEZ4mainE3$_0EEvT0_S8_RT1_', symObjAddr: 0x46A0, symBinAddr: 0x100005B10, symSize: 0xB0 }
  - { offset: 0xA504, size: 0x8, addend: 0x0, symName: __ZNSt3__123__debug_randomize_rangeB8ne180100INS_17_ClassicAlgPolicyENS_11__wrap_iterIPNS_4pairIixEEEES6_EEvT0_T1_, symObjAddr: 0x4750, symBinAddr: 0x100005BC0, symSize: 0x10 }
  - { offset: 0xA555, size: 0x8, addend: 0x0, symName: '__ZNSt3__115__sort_dispatchB8ne180100INS_17_ClassicAlgPolicyEPNS_4pairIixEEZ4mainE3$_0EEvT0_S6_RT1_', symObjAddr: 0x4760, symBinAddr: 0x100005BD0, symSize: 0x50 }
  - { offset: 0xA5D3, size: 0x8, addend: 0x0, symName: __ZNSt3__113__unwrap_iterB8ne180100INS_11__wrap_iterIPNS_4pairIixEEEENS_18__unwrap_iter_implIS5_Lb1EEELi0EEEDTclsrT0_8__unwrapclsr3stdE7declvalIT_EEEES9_, symObjAddr: 0x47B0, symBinAddr: 0x100005C20, symSize: 0x30 }
  - { offset: 0xA617, size: 0x8, addend: 0x0, symName: '__ZNSt3__135__check_strict_weak_ordering_sortedB8ne180100IPNS_4pairIixEEZ4mainE3$_0EEvT_S5_RT0_', symObjAddr: 0x47E0, symBinAddr: 0x100005C50, symSize: 0x20 }
  - { offset: 0xA66D, size: 0x8, addend: 0x0, symName: __ZNSt3__17__log2iB8ne180100IlEET_S1_, symObjAddr: 0x4800, symBinAddr: 0x100005C70, symSize: 0x50 }
  - { offset: 0xA6A4, size: 0x8, addend: 0x0, symName: __ZNSt3__112__libcpp_clzB8ne180100Em, symObjAddr: 0x4C90, symBinAddr: 0x100006100, symSize: 0x20 }
  - { offset: 0xA6D0, size: 0x8, addend: 0x0, symName: '__ZNSt3__124__sort3_maybe_branchlessB8ne180100INS_17_ClassicAlgPolicyERZ4mainE3$_0PNS_4pairIixEELi0EEEvT1_S7_S7_T0_', symObjAddr: 0x4D40, symBinAddr: 0x1000061B0, symSize: 0x40 }
  - { offset: 0xA743, size: 0x8, addend: 0x0, symName: '__ZNSt3__124__sort4_maybe_branchlessB8ne180100INS_17_ClassicAlgPolicyERZ4mainE3$_0PNS_4pairIixEELi0EEEvT1_S7_S7_S7_T0_', symObjAddr: 0x4D80, symBinAddr: 0x1000061F0, symSize: 0x40 }
  - { offset: 0xA7C4, size: 0x8, addend: 0x0, symName: '__ZNSt3__124__sort5_maybe_branchlessB8ne180100INS_17_ClassicAlgPolicyERZ4mainE3$_0PNS_4pairIixEELi0EEEvT1_S7_S7_S7_S7_T0_', symObjAddr: 0x4DC0, symBinAddr: 0x100006230, symSize: 0x50 }
  - { offset: 0xA85A, size: 0x8, addend: 0x0, symName: '__ZNSt3__116__insertion_sortB8ne180100INS_17_ClassicAlgPolicyERZ4mainE3$_0PNS_4pairIixEEEEvT1_S7_T0_', symObjAddr: 0x4E10, symBinAddr: 0x100006280, symSize: 0x130 }
  - { offset: 0xA921, size: 0x8, addend: 0x0, symName: '__ZNSt3__114__partial_sortB8ne180100INS_17_ClassicAlgPolicyERZ4mainE3$_0PNS_4pairIixEES6_EET1_S7_S7_T2_RT0_', symObjAddr: 0x5050, symBinAddr: 0x1000064C0, symSize: 0x90 }
  - { offset: 0xA9A9, size: 0x8, addend: 0x0, symName: '__ZNSt3__17__sort3B8ne180100INS_17_ClassicAlgPolicyERZ4mainE3$_0PNS_4pairIixEEEEjT1_S7_S7_T0_', symObjAddr: 0x50E0, symBinAddr: 0x100006550, symSize: 0x140 }
  - { offset: 0xAA28, size: 0x8, addend: 0x0, symName: __ZNSt3__19iter_swapB8ne180100IPNS_4pairIixEES3_EEvT_T0_, symObjAddr: 0x5B60, symBinAddr: 0x100006FD0, symSize: 0x30 }
  - { offset: 0xAA70, size: 0x8, addend: 0x0, symName: __ZNSt3__14swapB8ne180100IixLi0EEEvRNS_4pairIT_T0_EES5_, symObjAddr: 0x5B90, symBinAddr: 0x100007000, symSize: 0x30 }
  - { offset: 0xAAC1, size: 0x8, addend: 0x0, symName: __ZNSt3__14swapB8ne180100IiEENS_9enable_ifIXaasr21is_move_constructibleIT_EE5valuesr18is_move_assignableIS2_EE5valueEvE4typeERS2_S5_, symObjAddr: 0x5C00, symBinAddr: 0x100007070, symSize: 0x30 }
  - { offset: 0xAB12, size: 0x8, addend: 0x0, symName: __ZNSt3__14swapB8ne180100IxEENS_9enable_ifIXaasr21is_move_constructibleIT_EE5valuesr18is_move_assignableIS2_EE5valueEvE4typeERS2_S5_, symObjAddr: 0x5C30, symBinAddr: 0x1000070A0, symSize: 0x40 }
  - { offset: 0xAB63, size: 0x8, addend: 0x0, symName: '__ZNSt3__17__sort4B8ne180100INS_17_ClassicAlgPolicyERZ4mainE3$_0PNS_4pairIixEEEEvT1_S7_S7_S7_T0_', symObjAddr: 0x5C70, symBinAddr: 0x1000070E0, symSize: 0xD0 }
  - { offset: 0xABDE, size: 0x8, addend: 0x0, symName: '__ZNSt3__17__sort5B8ne180100INS_17_ClassicAlgPolicyERZ4mainE3$_0PNS_4pairIixEEEEvT1_S7_S7_S7_S7_T0_', symObjAddr: 0x5D40, symBinAddr: 0x1000071B0, symSize: 0x100 }
  - { offset: 0xAC72, size: 0x8, addend: 0x0, symName: __ZNSt3__123__debug_randomize_rangeB8ne180100INS_17_ClassicAlgPolicyEPNS_4pairIixEES4_EEvT0_T1_, symObjAddr: 0x5EC0, symBinAddr: 0x100007330, symSize: 0x10 }
  - { offset: 0xACC3, size: 0x8, addend: 0x0, symName: '__ZNSt3__119__partial_sort_implB8ne180100INS_17_ClassicAlgPolicyERZ4mainE3$_0PNS_4pairIixEES6_EET1_S7_S7_T2_OT0_', symObjAddr: 0x5ED0, symBinAddr: 0x100007340, symSize: 0xF0 }
  - { offset: 0xAD59, size: 0x8, addend: 0x0, symName: '__ZNSt3__111__make_heapB8ne180100INS_17_ClassicAlgPolicyERZ4mainE3$_0PNS_4pairIixEEEEvT1_S7_OT0_', symObjAddr: 0x5FC0, symBinAddr: 0x100007430, symSize: 0xA0 }
  - { offset: 0xADFB, size: 0x8, addend: 0x0, symName: '__ZNSt3__111__sort_heapB8ne180100INS_17_ClassicAlgPolicyERZ4mainE3$_0PNS_4pairIixEEEEvT1_S7_OT0_', symObjAddr: 0x6240, symBinAddr: 0x1000076B0, symSize: 0x90 }
  - { offset: 0xAE9D, size: 0x8, addend: 0x0, symName: '__ZNSt3__110__pop_heapB8ne180100INS_17_ClassicAlgPolicyEZ4mainE3$_0PNS_4pairIixEEEEvT1_S6_RT0_NS_15iterator_traitsIS6_E15difference_typeE', symObjAddr: 0x62D0, symBinAddr: 0x100007740, symSize: 0xE0 }
  - { offset: 0xAF4D, size: 0x8, addend: 0x0, symName: '__ZNSt3__19__sift_upB8ne180100INS_17_ClassicAlgPolicyERZ4mainE3$_0PNS_4pairIixEEEEvT1_S7_OT0_NS_15iterator_traitsIS7_E15difference_typeE', symObjAddr: 0x64B0, symBinAddr: 0x100007920, symSize: 0x120 }
  - { offset: 0xAFFD, size: 0x8, addend: 0x0, symName: '__ZNSt3__122__populate_left_bitsetB8ne180100IRZ4mainE3$_0PNS_4pairIixEES4_EEvT0_T_RT1_Ry', symObjAddr: 0x65D0, symBinAddr: 0x100007A40, symSize: 0x90 }
  - { offset: 0xB0B8, size: 0x8, addend: 0x0, symName: '__ZNSt3__123__populate_right_bitsetB8ne180100IRZ4mainE3$_0PNS_4pairIixEES4_EEvT0_T_RT1_Ry', symObjAddr: 0x6660, symBinAddr: 0x100007AD0, symSize: 0x90 }
  - { offset: 0xB173, size: 0x8, addend: 0x0, symName: __ZNSt3__117__swap_bitmap_posB8ne180100INS_17_ClassicAlgPolicyEPNS_4pairIixEEEEvT0_S5_RyS6_, symObjAddr: 0x66F0, symBinAddr: 0x100007B60, symSize: 0xE0 }
  - { offset: 0xB214, size: 0x8, addend: 0x0, symName: '__ZNSt3__133__bitset_partition_partial_blocksB8ne180100INS_17_ClassicAlgPolicyERZ4mainE3$_0PNS_4pairIixEES5_EEvRT1_S8_T0_RT2_RySC_', symObjAddr: 0x67D0, symBinAddr: 0x100007C40, symSize: 0x260 }
  - { offset: 0xB39B, size: 0x8, addend: 0x0, symName: __ZNSt3__19make_pairB8ne180100IRPNS_4pairIixEERbEENS1_INS_18__unwrap_ref_decayIT_E4typeENS6_IT0_E4typeEEEOS7_OSA_, symObjAddr: 0x6BC0, symBinAddr: 0x100008030, symSize: 0x30 }
  - { offset: 0xB3EA, size: 0x8, addend: 0x0, symName: __ZNSt3__112__libcpp_ctzB8ne180100Ey, symObjAddr: 0x6BF0, symBinAddr: 0x100008060, symSize: 0x20 }
  - { offset: 0xB416, size: 0x8, addend: 0x0, symName: __ZNSt3__113__libcpp_blsrB8ne180100Ey, symObjAddr: 0x6C10, symBinAddr: 0x100008080, symSize: 0x20 }
  - { offset: 0xB442, size: 0x8, addend: 0x0, symName: __ZNSt3__112__libcpp_clzB8ne180100Ey, symObjAddr: 0x6C60, symBinAddr: 0x1000080D0, symSize: 0x20 }
  - { offset: 0xB595, size: 0x8, addend: 0x0, symName: __ZNSt3__112__to_addressB8ne180100INS_11__wrap_iterIPNS_4pairIixEEEEvEEu7__decayIDTclsr19__to_address_helperIT_EE6__callclsr3stdE7declvalIRKS6_EEEEES8_, symObjAddr: 0x6D00, symBinAddr: 0x100008170, symSize: 0x20 }
  - { offset: 0xB632, size: 0x8, addend: 0x0, symName: __ZNSt3__1eqB8ne180100IPNS_4pairIixEEEEbRKNS_11__wrap_iterIT_EES8_, symObjAddr: 0x6E20, symBinAddr: 0x100008290, symSize: 0x40 }
  - { offset: 0xB675, size: 0x8, addend: 0x0, symName: __ZNSt3__19push_heapB8ne180100INS_11__wrap_iterIPiEENS_7greaterIiEEEEvT_S6_T0_, symObjAddr: 0x70C0, symBinAddr: 0x100008530, symSize: 0x40 }
  - { offset: 0xB6CB, size: 0x8, addend: 0x0, symName: __ZNSt3__114__construct_atB8ne180100IiJRKiEPiEEPT_S5_DpOT0_, symObjAddr: 0x72A0, symBinAddr: 0x100008710, symSize: 0x30 }
  - { offset: 0xB71E, size: 0x8, addend: 0x0, symName: __ZNSt3__112construct_atB8ne180100IiJRKiEPiEEPT_S5_DpOT0_, symObjAddr: 0x72D0, symBinAddr: 0x100008740, symSize: 0x20 }
  - { offset: 0xB771, size: 0x8, addend: 0x0, symName: __ZNSt3__111__push_heapB8ne180100INS_17_ClassicAlgPolicyENS_11__wrap_iterIPiEENS_7greaterIiEEEEvT0_S7_RT1_, symObjAddr: 0x72F0, symBinAddr: 0x100008760, symSize: 0x50 }
  - { offset: 0xB7DE, size: 0x8, addend: 0x0, symName: __ZNSt3__1miB8ne180100IPiS1_EEDTmicldtfp_4baseEcldtfp0_4baseEERKNS_11__wrap_iterIT_EERKNS3_IT0_EE, symObjAddr: 0x7340, symBinAddr: 0x1000087B0, symSize: 0x40 }
  - { offset: 0xB82A, size: 0x8, addend: 0x0, symName: __ZNSt3__19__sift_upB8ne180100INS_17_ClassicAlgPolicyERNS_7greaterIiEENS_11__wrap_iterIPiEEEEvT1_S8_OT0_NS_15iterator_traitsIS8_E15difference_typeE, symObjAddr: 0x7380, symBinAddr: 0x1000087F0, symSize: 0x150 }
  - { offset: 0xB8DA, size: 0x8, addend: 0x0, symName: __ZNSt3__18pop_heapB8ne180100INS_11__wrap_iterIPiEENS_7greaterIiEEEEvT_S6_T0_, symObjAddr: 0x75B0, symBinAddr: 0x100008A20, symSize: 0x50 }
  - { offset: 0xB93E, size: 0x8, addend: 0x0, symName: __ZNSt3__110__pop_heapB8ne180100INS_17_ClassicAlgPolicyENS_7greaterIiEENS_11__wrap_iterIPiEEEEvT1_S7_RT0_NS_15iterator_traitsIS7_E15difference_typeE, symObjAddr: 0x7630, symBinAddr: 0x100008AA0, symSize: 0x110 }
  - { offset: 0xB9EE, size: 0x8, addend: 0x0, symName: __ZNSt3__122__make_exception_guardB8ne180100INS_6vectorIiNS_9allocatorIiEEE16__destroy_vectorEEENS_28__exception_guard_exceptionsIT_EES7_, symObjAddr: 0x7B30, symBinAddr: 0x100008FA0, symSize: 0x40 }
  - { offset: 0xBA23, size: 0x8, addend: 0x0, symName: __ZNSt3__130__uninitialized_allocator_copyB8ne180100INS_9allocatorIiEEPiS3_S3_EET2_RT_T0_T1_S4_, symObjAddr: 0x7D30, symBinAddr: 0x1000091A0, symSize: 0x80 }
  - { offset: 0xBAC0, size: 0x8, addend: 0x0, symName: __ZNSt3__114__unwrap_rangeB8ne180100IPiS1_EEDaT_T0_, symObjAddr: 0x7DB0, symBinAddr: 0x100009220, symSize: 0x40 }
  - { offset: 0xBB0C, size: 0x8, addend: 0x0, symName: __ZNSt3__135__uninitialized_allocator_copy_implB8ne180100INS_9allocatorIiEEiiiLPv0EEEPT2_RT_PT0_S9_S5_, symObjAddr: 0x7DF0, symBinAddr: 0x100009260, symSize: 0x30 }
  - { offset: 0xBB8D, size: 0x8, addend: 0x0, symName: __ZNSt3__113__unwrap_iterB8ne180100IPiNS_18__unwrap_iter_implIS1_Lb1EEELi0EEEDTclsrT0_8__unwrapclsr3stdE7declvalIT_EEEES5_, symObjAddr: 0x7E20, symBinAddr: 0x100009290, symSize: 0x20 }
  - { offset: 0xBBD1, size: 0x8, addend: 0x0, symName: __ZNSt3__113__rewrap_iterB8ne180100IPiS1_NS_18__unwrap_iter_implIS1_Lb1EEEEET_S4_T0_, symObjAddr: 0x7E40, symBinAddr: 0x1000092B0, symSize: 0x40 }
  - { offset: 0xBD71, size: 0x8, addend: 0x0, symName: __ZNSt3__14copyB8ne180100IPiS1_EET0_T_S3_S2_, symObjAddr: 0x7F30, symBinAddr: 0x1000093A0, symSize: 0x40 }
  - { offset: 0xBDCB, size: 0x8, addend: 0x0, symName: __ZNSt3__16__copyB8ne180100INS_17_ClassicAlgPolicyEPiS2_S2_EENS_4pairIT0_T2_EES4_T1_S5_, symObjAddr: 0x7F70, symBinAddr: 0x1000093E0, symSize: 0x40 }
  - { offset: 0xBE37, size: 0x8, addend: 0x0, symName: __ZNSt3__123__dispatch_copy_or_moveB8ne180100INS_17_ClassicAlgPolicyENS_11__copy_loopIS1_EENS_14__copy_trivialEPiS5_S5_EENS_4pairIT2_T4_EES7_T3_S8_, symObjAddr: 0x7FB0, symBinAddr: 0x100009420, symSize: 0x40 }
  - { offset: 0xBEB5, size: 0x8, addend: 0x0, symName: __ZNSt3__121__unwrap_and_dispatchB8ne180100INS_10__overloadINS_11__copy_loopINS_17_ClassicAlgPolicyEEENS_14__copy_trivialEEEPiS7_S7_Li0EEENS_4pairIT0_T2_EES9_T1_SA_, symObjAddr: 0x7FF0, symBinAddr: 0x100009460, symSize: 0xB0 }
  - { offset: 0xBF8A, size: 0x8, addend: 0x0, symName: __ZNSt3__19make_pairB8ne180100IPiS1_EENS_4pairINS_18__unwrap_ref_decayIT_E4typeENS3_IT0_E4typeEEEOS4_OS7_, symObjAddr: 0x80E0, symBinAddr: 0x100009550, symSize: 0x30 }
  - { offset: 0xBFD9, size: 0x8, addend: 0x0, symName: __ZNSt3__114__rewrap_rangeB8ne180100IPiS1_S1_EET0_S2_T1_, symObjAddr: 0x8110, symBinAddr: 0x100009580, symSize: 0x30 }
  - { offset: 0xC02E, size: 0x8, addend: 0x0, symName: __ZNSt3__119__copy_trivial_implB8ne180100IiiEENS_4pairIPT_PT0_EES3_S3_S5_, symObjAddr: 0x8140, symBinAddr: 0x1000095B0, symSize: 0x70 }
  - { offset: 0xC096, size: 0x8, addend: 0x0, symName: __ZNSt3__119__constexpr_memmoveB8ne180100IiiLi0EEEPT_S2_PT0_NS_15__element_countE, symObjAddr: 0x81B0, symBinAddr: 0x100009620, symSize: 0x50 }
  - { offset: 0xC104, size: 0x8, addend: 0x0, symName: __ZNSt3__19make_pairB8ne180100IRPiS1_EENS_4pairINS_18__unwrap_ref_decayIT_E4typeENS4_IT0_E4typeEEEOS5_OS8_, symObjAddr: 0x8200, symBinAddr: 0x100009670, symSize: 0x30 }
  - { offset: 0xC1A6, size: 0x8, addend: 0x0, symName: __ZNSt3__19use_facetB8ne180100INS_5ctypeIcEEEERKT_RKNS_6localeE, symObjAddr: 0x8530, symBinAddr: 0x1000099A0, symSize: 0x30 }
  - { offset: 0xD6C1, size: 0x8, addend: 0x0, symName: __ZSt28__throw_bad_array_new_lengthB8ne180100v, symObjAddr: 0x22F0, symBinAddr: 0x100003760, symSize: 0x40 }
  - { offset: 0xD8D0, size: 0x8, addend: 0x0, symName: _difficulty, symObjAddr: 0x297AD0, symBinAddr: 0x100254F80, symSize: 0x0 }
  - { offset: 0xD8F4, size: 0x8, addend: 0x0, symName: _enjoyment, symObjAddr: 0x2F9570, symBinAddr: 0x1002B6A20, symSize: 0x0 }
  - { offset: 0xD92A, size: 0x8, addend: 0x0, symName: _visited, symObjAddr: 0x3BCAA0, symBinAddr: 0x100379F50, symSize: 0x0 }
  - { offset: 0xD94E, size: 0x8, addend: 0x0, symName: _n, symObjAddr: 0x3D5148, symBinAddr: 0x1003925F8, symSize: 0x0 }
  - { offset: 0xD963, size: 0x8, addend: 0x0, symName: _m, symObjAddr: 0x3D514C, symBinAddr: 0x1003925FC, symSize: 0x0 }
  - { offset: 0xD978, size: 0x8, addend: 0x0, symName: _dp, symObjAddr: 0x3D5150, symBinAddr: 0x100392600, symSize: 0x0 }
  - { offset: 0xD9A2, size: 0x8, addend: 0x0, symName: _cur, symObjAddr: 0xC39A08, symBinAddr: 0x100BF6EB8, symSize: 0x0 }
  - { offset: 0xD9B7, size: 0x8, addend: 0x0, symName: _depth, symObjAddr: 0xC39A10, symBinAddr: 0x100BF6EC0, symSize: 0x0 }
  - { offset: 0xD9CC, size: 0x8, addend: 0x0, symName: _totalenjoyment, symObjAddr: 0xC9B4B0, symBinAddr: 0x100C58960, symSize: 0x0 }
  - { offset: 0xDCEC, size: 0x8, addend: 0x0, symName: __ZNSt3__16vectorIiNS_9allocatorIiEEE26__swap_out_circular_bufferERNS_14__split_bufferIiRS2_EE, symObjAddr: 0x1C20, symBinAddr: 0x100003090, symSize: 0x120 }
  - { offset: 0xDEC9, size: 0x8, addend: 0x0, symName: __ZNSt3__16vectorINS_4pairIixEENS_9allocatorIS2_EEE26__swap_out_circular_bufferERNS_14__split_bufferIS2_RS4_EE, symObjAddr: 0x34F0, symBinAddr: 0x100004960, symSize: 0x120 }
  - { offset: 0xDFA5, size: 0x8, addend: 0x0, symName: __ZNSt3__16vectorIiNS_9allocatorIiEEED1B8ne180100Ev, symObjAddr: 0x0, symBinAddr: 0x100001470, symSize: 0x20 }
  - { offset: 0xDFCE, size: 0x8, addend: 0x0, symName: __Z6dfsmaxii, symObjAddr: 0x20, symBinAddr: 0x100001490, symSize: 0x1D0 }
  - { offset: 0xE056, size: 0x8, addend: 0x0, symName: __ZNSt3__16vectorIiNS_9allocatorIiEEE5beginB8ne180100Ev, symObjAddr: 0x1F0, symBinAddr: 0x100001660, symSize: 0x30 }
  - { offset: 0xE07E, size: 0x8, addend: 0x0, symName: __ZNSt3__16vectorIiNS_9allocatorIiEEE3endB8ne180100Ev, symObjAddr: 0x220, symBinAddr: 0x100001690, symSize: 0x30 }
  - { offset: 0xE0A6, size: 0x8, addend: 0x0, symName: __ZNKSt3__111__wrap_iterIPiEdeB8ne180100Ev, symObjAddr: 0x280, symBinAddr: 0x1000016F0, symSize: 0x20 }
  - { offset: 0xE0CC, size: 0x8, addend: 0x0, symName: __ZNSt3__111__wrap_iterIPiEppB8ne180100Ev, symObjAddr: 0x2A0, symBinAddr: 0x100001710, symSize: 0x20 }
  - { offset: 0xE0F1, size: 0x8, addend: 0x0, symName: __Z12clearvisitedv, symObjAddr: 0x2C0, symBinAddr: 0x100001730, symSize: 0x40 }
  - { offset: 0xE127, size: 0x8, addend: 0x0, symName: __Z8dfsfill1iNSt3__114priority_queueIiNS_6vectorIiNS_9allocatorIiEEEENS_7greaterIiEEEE, symObjAddr: 0x300, symBinAddr: 0x100001770, symSize: 0x190 }
  - { offset: 0xE1F7, size: 0x8, addend: 0x0, symName: __ZNSt3__114priority_queueIiNS_6vectorIiNS_9allocatorIiEEEENS_7greaterIiEEE4pushERKi, symObjAddr: 0x490, symBinAddr: 0x100001900, symSize: 0x50 }
  - { offset: 0xE22E, size: 0x8, addend: 0x0, symName: __ZNKSt3__114priority_queueIiNS_6vectorIiNS_9allocatorIiEEEENS_7greaterIiEEE4sizeB8ne180100Ev, symObjAddr: 0x4E0, symBinAddr: 0x100001950, symSize: 0x20 }
  - { offset: 0xE254, size: 0x8, addend: 0x0, symName: __ZNSt3__114priority_queueIiNS_6vectorIiNS_9allocatorIiEEEENS_7greaterIiEEE3popEv, symObjAddr: 0x500, symBinAddr: 0x100001970, symSize: 0x50 }
  - { offset: 0xE27C, size: 0x8, addend: 0x0, symName: __ZNKSt3__114priority_queueIiNS_6vectorIiNS_9allocatorIiEEEENS_7greaterIiEEE3topB8ne180100Ev, symObjAddr: 0x550, symBinAddr: 0x1000019C0, symSize: 0x20 }
  - { offset: 0xE2A2, size: 0x8, addend: 0x0, symName: __ZNSt3__114priority_queueIiNS_6vectorIiNS_9allocatorIiEEEENS_7greaterIiEEEC1B8ne180100ERKS7_, symObjAddr: 0x570, symBinAddr: 0x1000019E0, symSize: 0x30 }
  - { offset: 0xE2DB, size: 0x8, addend: 0x0, symName: __ZNSt3__114priority_queueIiNS_6vectorIiNS_9allocatorIiEEEENS_7greaterIiEEED1Ev, symObjAddr: 0x5A0, symBinAddr: 0x100001A10, symSize: 0x20 }
  - { offset: 0xE308, size: 0x8, addend: 0x0, symName: _main, symObjAddr: 0x5C0, symBinAddr: 0x100001A30, symSize: 0x960 }
  - { offset: 0xE600, size: 0x8, addend: 0x0, symName: __ZNSt3__19basic_iosIcNS_11char_traitsIcEEE3tieB8ne180100EPNS_13basic_ostreamIcS2_EE, symObjAddr: 0xF20, symBinAddr: 0x100002390, symSize: 0x30 }
  - { offset: 0xE646, size: 0x8, addend: 0x0, symName: __ZNSt3__16vectorIiNS_9allocatorIiEEE9push_backB8ne180100EOi, symObjAddr: 0xF50, symBinAddr: 0x1000023C0, symSize: 0x80 }
  - { offset: 0xE68C, size: 0x8, addend: 0x0, symName: __ZNSt3__114priority_queueIiNS_6vectorIiNS_9allocatorIiEEEENS_7greaterIiEEEC1B8ne180100Ev, symObjAddr: 0xFD0, symBinAddr: 0x100002440, symSize: 0x20 }
  - { offset: 0xE6B6, size: 0x8, addend: 0x0, symName: __ZNSt3__16vectorINS_4pairIixEENS_9allocatorIS2_EEEC1B8ne180100Ev, symObjAddr: 0xFF0, symBinAddr: 0x100002460, symSize: 0x20 }
  - { offset: 0xE6E0, size: 0x8, addend: 0x0, symName: __ZNSt3__16vectorINS_4pairIixEENS_9allocatorIS2_EEE9push_backB8ne180100EOS2_, symObjAddr: 0x1010, symBinAddr: 0x100002480, symSize: 0x80 }
  - { offset: 0xE72B, size: 0x8, addend: 0x0, symName: __ZNSt3__14pairIixEC1B8ne180100IRxS3_Li0EEEOT_OT0_, symObjAddr: 0x1090, symBinAddr: 0x100002500, symSize: 0x30 }
  - { offset: 0xE789, size: 0x8, addend: 0x0, symName: __ZNSt3__16vectorINS_4pairIixEENS_9allocatorIS2_EEE5beginB8ne180100Ev, symObjAddr: 0x1100, symBinAddr: 0x100002570, symSize: 0x30 }
  - { offset: 0xE7B1, size: 0x8, addend: 0x0, symName: __ZNSt3__16vectorINS_4pairIixEENS_9allocatorIS2_EEE3endB8ne180100Ev, symObjAddr: 0x1130, symBinAddr: 0x1000025A0, symSize: 0x30 }
  - { offset: 0xE7D9, size: 0x8, addend: 0x0, symName: __ZNKSt3__111__wrap_iterIPNS_4pairIixEEEdeB8ne180100Ev, symObjAddr: 0x1190, symBinAddr: 0x100002600, symSize: 0x20 }
  - { offset: 0xE7FF, size: 0x8, addend: 0x0, symName: __ZNSt3__14pairIixEC1B8ne180100IRKiRiLi0EEEOT_OT0_, symObjAddr: 0x11B0, symBinAddr: 0x100002620, symSize: 0x30 }
  - { offset: 0xE85D, size: 0x8, addend: 0x0, symName: __ZNSt3__111__wrap_iterIPNS_4pairIixEEEppB8ne180100Ev, symObjAddr: 0x11E0, symBinAddr: 0x100002650, symSize: 0x20 }
  - { offset: 0xE883, size: 0x8, addend: 0x0, symName: __ZNKSt3__16vectorINS_4pairIixEENS_9allocatorIS2_EEE4sizeB8ne180100Ev, symObjAddr: 0x1200, symBinAddr: 0x100002670, symSize: 0x20 }
  - { offset: 0xE8A9, size: 0x8, addend: 0x0, symName: __ZNSt3__16vectorINS_4pairIixEENS_9allocatorIS2_EEEixB8ne180100Em, symObjAddr: 0x1220, symBinAddr: 0x100002690, symSize: 0x20 }
  - { offset: 0xE8E0, size: 0x8, addend: 0x0, symName: __ZNSt3__113basic_ostreamIcNS_11char_traitsIcEEElsB8ne180100EPFRS3_S4_E, symObjAddr: 0x1240, symBinAddr: 0x1000026B0, symSize: 0x20 }
  - { offset: 0xE914, size: 0x8, addend: 0x0, symName: __ZNSt3__16vectorINS_4pairIixEENS_9allocatorIS2_EEED1B8ne180100Ev, symObjAddr: 0x12B0, symBinAddr: 0x100002720, symSize: 0x20 }
  - { offset: 0xE93E, size: 0x8, addend: 0x0, symName: __ZNSt3__16vectorIiNS_9allocatorIiEEED2B8ne180100Ev, symObjAddr: 0x12D0, symBinAddr: 0x100002740, symSize: 0x40 }
  - { offset: 0xE968, size: 0x8, addend: 0x0, symName: __ZNSt3__16vectorIiNS_9allocatorIiEEE16__destroy_vectorC1B8ne180100ERS3_, symObjAddr: 0x1310, symBinAddr: 0x100002780, symSize: 0x30 }
  - { offset: 0xE9A1, size: 0x8, addend: 0x0, symName: __ZNSt3__16vectorIiNS_9allocatorIiEEE16__destroy_vectorclB8ne180100Ev, symObjAddr: 0x1350, symBinAddr: 0x1000027C0, symSize: 0x80 }
  - { offset: 0xE9C7, size: 0x8, addend: 0x0, symName: __ZNSt3__16vectorIiNS_9allocatorIiEEE16__destroy_vectorC2B8ne180100ERS3_, symObjAddr: 0x13D0, symBinAddr: 0x100002840, symSize: 0x20 }
  - { offset: 0xEA00, size: 0x8, addend: 0x0, symName: __ZNSt3__16vectorIiNS_9allocatorIiEEE7__clearB8ne180100Ev, symObjAddr: 0x13F0, symBinAddr: 0x100002860, symSize: 0x20 }
  - { offset: 0xEA26, size: 0x8, addend: 0x0, symName: __ZNKSt3__16vectorIiNS_9allocatorIiEEE17__annotate_deleteB8ne180100Ev, symObjAddr: 0x1410, symBinAddr: 0x100002880, symSize: 0x10 }
  - { offset: 0xEA4C, size: 0x8, addend: 0x0, symName: __ZNSt3__116allocator_traitsINS_9allocatorIiEEE10deallocateB8ne180100ERS2_Pim, symObjAddr: 0x1420, symBinAddr: 0x100002890, symSize: 0x30 }
  - { offset: 0xEA8E, size: 0x8, addend: 0x0, symName: __ZNSt3__16vectorIiNS_9allocatorIiEEE7__allocB8ne180100Ev, symObjAddr: 0x1450, symBinAddr: 0x1000028C0, symSize: 0x20 }
  - { offset: 0xEAB4, size: 0x8, addend: 0x0, symName: __ZNKSt3__16vectorIiNS_9allocatorIiEEE8capacityB8ne180100Ev, symObjAddr: 0x1470, symBinAddr: 0x1000028E0, symSize: 0x30 }
  - { offset: 0xEADA, size: 0x8, addend: 0x0, symName: __ZNSt3__16vectorIiNS_9allocatorIiEEE22__base_destruct_at_endB8ne180100EPi, symObjAddr: 0x14A0, symBinAddr: 0x100002910, symSize: 0x80 }
  - { offset: 0xEB1E, size: 0x8, addend: 0x0, symName: __ZNSt3__116allocator_traitsINS_9allocatorIiEEE7destroyB8ne180100IivvEEvRS2_PT_, symObjAddr: 0x1520, symBinAddr: 0x100002990, symSize: 0x20 }
  - { offset: 0xEB58, size: 0x8, addend: 0x0, symName: __ZNSt3__19allocatorIiE10deallocateB8ne180100EPim, symObjAddr: 0x1560, symBinAddr: 0x1000029D0, symSize: 0x40 }
  - { offset: 0xEB9A, size: 0x8, addend: 0x0, symName: __ZNSt3__117__compressed_pairIPiNS_9allocatorIiEEE6secondB8ne180100Ev, symObjAddr: 0x16C0, symBinAddr: 0x100002B30, symSize: 0x20 }
  - { offset: 0xEBC0, size: 0x8, addend: 0x0, symName: __ZNSt3__122__compressed_pair_elemINS_9allocatorIiEELi1ELb1EE5__getB8ne180100Ev, symObjAddr: 0x16E0, symBinAddr: 0x100002B50, symSize: 0x10 }
  - { offset: 0xEBE6, size: 0x8, addend: 0x0, symName: __ZNKSt3__16vectorIiNS_9allocatorIiEEE9__end_capB8ne180100Ev, symObjAddr: 0x16F0, symBinAddr: 0x100002B60, symSize: 0x20 }
  - { offset: 0xEC0C, size: 0x8, addend: 0x0, symName: __ZNKSt3__117__compressed_pairIPiNS_9allocatorIiEEE5firstB8ne180100Ev, symObjAddr: 0x1710, symBinAddr: 0x100002B80, symSize: 0x20 }
  - { offset: 0xEC32, size: 0x8, addend: 0x0, symName: __ZNKSt3__122__compressed_pair_elemIPiLi0ELb0EE5__getB8ne180100Ev, symObjAddr: 0x1730, symBinAddr: 0x100002BA0, symSize: 0x10 }
  - { offset: 0xEC58, size: 0x8, addend: 0x0, symName: __ZNSt3__16vectorIiNS_9allocatorIiEEE11__make_iterB8ne180100EPi, symObjAddr: 0x1740, symBinAddr: 0x100002BB0, symSize: 0x30 }
  - { offset: 0xEC8D, size: 0x8, addend: 0x0, symName: __ZNSt3__111__wrap_iterIPiEC1B8ne180100ES1_, symObjAddr: 0x1770, symBinAddr: 0x100002BE0, symSize: 0x30 }
  - { offset: 0xECC5, size: 0x8, addend: 0x0, symName: __ZNSt3__111__wrap_iterIPiEC2B8ne180100ES1_, symObjAddr: 0x17A0, symBinAddr: 0x100002C10, symSize: 0x20 }
  - { offset: 0xECFD, size: 0x8, addend: 0x0, symName: __ZNKSt3__111__wrap_iterIPiE4baseB8ne180100Ev, symObjAddr: 0x1800, symBinAddr: 0x100002C70, symSize: 0x20 }
  - { offset: 0xED23, size: 0x8, addend: 0x0, symName: __ZNSt3__114priority_queueIiNS_6vectorIiNS_9allocatorIiEEEENS_7greaterIiEEED2Ev, symObjAddr: 0x1820, symBinAddr: 0x100002C90, symSize: 0x20 }
  - { offset: 0xED50, size: 0x8, addend: 0x0, symName: __ZNSt3__16vectorIiNS_9allocatorIiEEE9__end_capB8ne180100Ev, symObjAddr: 0x1840, symBinAddr: 0x100002CB0, symSize: 0x20 }
  - { offset: 0xED7B, size: 0x8, addend: 0x0, symName: __ZNSt3__16vectorIiNS_9allocatorIiEEE22__construct_one_at_endB8ne180100IJiEEEvDpOT_, symObjAddr: 0x1860, symBinAddr: 0x100002CD0, symSize: 0x90 }
  - { offset: 0xEDCA, size: 0x8, addend: 0x0, symName: __ZNSt3__16vectorIiNS_9allocatorIiEEE21__push_back_slow_pathIiEEPiOT_, symObjAddr: 0x18F0, symBinAddr: 0x100002D60, symSize: 0xE0 }
  - { offset: 0xEE28, size: 0x8, addend: 0x0, symName: __ZNSt3__117__compressed_pairIPiNS_9allocatorIiEEE5firstB8ne180100Ev, symObjAddr: 0x19D0, symBinAddr: 0x100002E40, symSize: 0x20 }
  - { offset: 0xEE4E, size: 0x8, addend: 0x0, symName: __ZNSt3__122__compressed_pair_elemIPiLi0ELb0EE5__getB8ne180100Ev, symObjAddr: 0x19F0, symBinAddr: 0x100002E60, symSize: 0x10 }
  - { offset: 0xEE8D, size: 0x8, addend: 0x0, symName: __ZNSt3__16vectorIiNS_9allocatorIiEEE21_ConstructTransactionC1B8ne180100ERS3_m, symObjAddr: 0x1A00, symBinAddr: 0x100002E70, symSize: 0x30 }
  - { offset: 0xEED5, size: 0x8, addend: 0x0, symName: __ZNSt3__116allocator_traitsINS_9allocatorIiEEE9constructB8ne180100IiJiEvvEEvRS2_PT_DpOT0_, symObjAddr: 0x1A30, symBinAddr: 0x100002EA0, symSize: 0x30 }
  - { offset: 0xEF29, size: 0x8, addend: 0x0, symName: __ZNSt3__16vectorIiNS_9allocatorIiEEE21_ConstructTransactionD1B8ne180100Ev, symObjAddr: 0x1A60, symBinAddr: 0x100002ED0, symSize: 0x20 }
  - { offset: 0xEF53, size: 0x8, addend: 0x0, symName: __ZNSt3__16vectorIiNS_9allocatorIiEEE21_ConstructTransactionC2B8ne180100ERS3_m, symObjAddr: 0x1A80, symBinAddr: 0x100002EF0, symSize: 0x40 }
  - { offset: 0xEF9B, size: 0x8, addend: 0x0, symName: __ZNSt3__16vectorIiNS_9allocatorIiEEE21_ConstructTransactionD2B8ne180100Ev, symObjAddr: 0x1B10, symBinAddr: 0x100002F80, symSize: 0x20 }
  - { offset: 0xEFC5, size: 0x8, addend: 0x0, symName: __ZNKSt3__16vectorIiNS_9allocatorIiEEE11__recommendB8ne180100Em, symObjAddr: 0x1B30, symBinAddr: 0x100002FA0, symSize: 0x90 }
  - { offset: 0xF01A, size: 0x8, addend: 0x0, symName: __ZNKSt3__16vectorIiNS_9allocatorIiEEE4sizeB8ne180100Ev, symObjAddr: 0x1BC0, symBinAddr: 0x100003030, symSize: 0x20 }
  - { offset: 0xF040, size: 0x8, addend: 0x0, symName: __ZNSt3__114__split_bufferIiRNS_9allocatorIiEEEC1EmmS3_, symObjAddr: 0x1BE0, symBinAddr: 0x100003050, symSize: 0x40 }
  - { offset: 0xF096, size: 0x8, addend: 0x0, symName: __ZNSt3__114__split_bufferIiRNS_9allocatorIiEEED1Ev, symObjAddr: 0x1D40, symBinAddr: 0x1000031B0, symSize: 0x20 }
  - { offset: 0xF0C2, size: 0x8, addend: 0x0, symName: __ZNKSt3__16vectorIiNS_9allocatorIiEEE8max_sizeEv, symObjAddr: 0x1D60, symBinAddr: 0x1000031D0, symSize: 0x60 }
  - { offset: 0xF0EA, size: 0x8, addend: 0x0, symName: __ZNKSt3__16vectorIiNS_9allocatorIiEEE20__throw_length_errorB8ne180100Ev, symObjAddr: 0x1DC0, symBinAddr: 0x100003230, symSize: 0x20 }
  - { offset: 0xF11A, size: 0x8, addend: 0x0, symName: __ZNSt3__116allocator_traitsINS_9allocatorIiEEE8max_sizeB8ne180100IS2_vvEEmRKS2_, symObjAddr: 0x1E40, symBinAddr: 0x1000032B0, symSize: 0x20 }
  - { offset: 0xF145, size: 0x8, addend: 0x0, symName: __ZNKSt3__16vectorIiNS_9allocatorIiEEE7__allocB8ne180100Ev, symObjAddr: 0x1E60, symBinAddr: 0x1000032D0, symSize: 0x20 }
  - { offset: 0xF16B, size: 0x8, addend: 0x0, symName: __ZNSt3__114numeric_limitsIlE3maxB8ne180100Ev, symObjAddr: 0x1E80, symBinAddr: 0x1000032F0, symSize: 0x10 }
  - { offset: 0xF193, size: 0x8, addend: 0x0, symName: __ZNKSt3__16__lessIvvEclB8ne180100ImmEEbRKT_RKT0_, symObjAddr: 0x1EE0, symBinAddr: 0x100003350, symSize: 0x30 }
  - { offset: 0xF1E7, size: 0x8, addend: 0x0, symName: __ZNSt3__114numeric_limitsImE3maxB8ne180100Ev, symObjAddr: 0x1F10, symBinAddr: 0x100003380, symSize: 0x10 }
  - { offset: 0xF1FB, size: 0x8, addend: 0x0, symName: __ZNSt3__123__libcpp_numeric_limitsImLb1EE3maxB8ne180100Ev, symObjAddr: 0x1F20, symBinAddr: 0x100003390, symSize: 0x10 }
  - { offset: 0xF20F, size: 0x8, addend: 0x0, symName: __ZNKSt3__117__compressed_pairIPiNS_9allocatorIiEEE6secondB8ne180100Ev, symObjAddr: 0x1F30, symBinAddr: 0x1000033A0, symSize: 0x20 }
  - { offset: 0xF235, size: 0x8, addend: 0x0, symName: __ZNKSt3__122__compressed_pair_elemINS_9allocatorIiEELi1ELb1EE5__getB8ne180100Ev, symObjAddr: 0x1F50, symBinAddr: 0x1000033C0, symSize: 0x10 }
  - { offset: 0xF25B, size: 0x8, addend: 0x0, symName: __ZNSt3__123__libcpp_numeric_limitsIlLb1EE3maxB8ne180100Ev, symObjAddr: 0x1F60, symBinAddr: 0x1000033D0, symSize: 0x10 }
  - { offset: 0xF26F, size: 0x8, addend: 0x0, symName: __ZNSt12length_errorC1B8ne180100EPKc, symObjAddr: 0x1FE0, symBinAddr: 0x100003450, symSize: 0x30 }
  - { offset: 0xF2A7, size: 0x8, addend: 0x0, symName: __ZNSt12length_errorC2B8ne180100EPKc, symObjAddr: 0x2010, symBinAddr: 0x100003480, symSize: 0x40 }
  - { offset: 0xF2DF, size: 0x8, addend: 0x0, symName: __ZNSt3__114__split_bufferIiRNS_9allocatorIiEEEC2EmmS3_, symObjAddr: 0x20A0, symBinAddr: 0x100003510, symSize: 0xD0 }
  - { offset: 0xF357, size: 0x8, addend: 0x0, symName: __ZNSt3__117__compressed_pairIPiRNS_9allocatorIiEEEC1B8ne180100IDnS4_EEOT_OT0_, symObjAddr: 0x2170, symBinAddr: 0x1000035E0, symSize: 0x30 }
  - { offset: 0xF3AF, size: 0x8, addend: 0x0, symName: __ZNSt3__114__split_bufferIiRNS_9allocatorIiEEE7__allocB8ne180100Ev, symObjAddr: 0x21E0, symBinAddr: 0x100003650, symSize: 0x20 }
  - { offset: 0xF3D5, size: 0x8, addend: 0x0, symName: __ZNSt3__114__split_bufferIiRNS_9allocatorIiEEE9__end_capB8ne180100Ev, symObjAddr: 0x2200, symBinAddr: 0x100003670, symSize: 0x20 }
  - { offset: 0xF3FB, size: 0x8, addend: 0x0, symName: __ZNSt3__117__compressed_pairIPiRNS_9allocatorIiEEEC2B8ne180100IDnS4_EEOT_OT0_, symObjAddr: 0x2220, symBinAddr: 0x100003690, symSize: 0x40 }
  - { offset: 0xF453, size: 0x8, addend: 0x0, symName: __ZNSt3__122__compressed_pair_elemIPiLi0ELb0EEC2B8ne180100IDnvEEOT_, symObjAddr: 0x2260, symBinAddr: 0x1000036D0, symSize: 0x20 }
  - { offset: 0xF495, size: 0x8, addend: 0x0, symName: __ZNSt3__122__compressed_pair_elemIRNS_9allocatorIiEELi1ELb0EEC2B8ne180100IS3_vEEOT_, symObjAddr: 0x2280, symBinAddr: 0x1000036F0, symSize: 0x20 }
  - { offset: 0xF4D7, size: 0x8, addend: 0x0, symName: __ZNSt3__19allocatorIiE8allocateB8ne180100Em, symObjAddr: 0x22A0, symBinAddr: 0x100003710, symSize: 0x50 }
  - { offset: 0xF50B, size: 0x8, addend: 0x0, symName: __ZNSt3__117__compressed_pairIPiRNS_9allocatorIiEEE6secondB8ne180100Ev, symObjAddr: 0x23E0, symBinAddr: 0x100003850, symSize: 0x20 }
  - { offset: 0xF531, size: 0x8, addend: 0x0, symName: __ZNSt3__122__compressed_pair_elemIRNS_9allocatorIiEELi1ELb0EE5__getB8ne180100Ev, symObjAddr: 0x2400, symBinAddr: 0x100003870, symSize: 0x20 }
  - { offset: 0xF557, size: 0x8, addend: 0x0, symName: __ZNSt3__117__compressed_pairIPiRNS_9allocatorIiEEE5firstB8ne180100Ev, symObjAddr: 0x2420, symBinAddr: 0x100003890, symSize: 0x20 }
  - { offset: 0xF57D, size: 0x8, addend: 0x0, symName: __ZNSt3__116reverse_iteratorIPiEC1B8ne180100ES1_, symObjAddr: 0x24B0, symBinAddr: 0x100003920, symSize: 0x30 }
  - { offset: 0xF5B5, size: 0x8, addend: 0x0, symName: __ZNKSt3__116reverse_iteratorIPiE4baseB8ne180100Ev, symObjAddr: 0x24E0, symBinAddr: 0x100003950, symSize: 0x20 }
  - { offset: 0xF5DB, size: 0x8, addend: 0x0, symName: __ZNKSt3__16vectorIiNS_9allocatorIiEEE14__annotate_newB8ne180100Em, symObjAddr: 0x2540, symBinAddr: 0x1000039B0, symSize: 0x10 }
  - { offset: 0xF633, size: 0x8, addend: 0x0, symName: __ZNKSt3__111__move_loopINS_17_ClassicAlgPolicyEEclB8ne180100INS_16reverse_iteratorIPiEES6_S6_EENS_4pairIT_T1_EES8_T0_S9_, symObjAddr: 0x2960, symBinAddr: 0x100003DD0, symSize: 0xA0 }
  - { offset: 0xF69E, size: 0x8, addend: 0x0, symName: __ZNSt3__119__unwrap_range_implINS_16reverse_iteratorIPiEES3_E8__unwrapB8ne180100ES3_S3_, symObjAddr: 0x2B40, symBinAddr: 0x100003FB0, symSize: 0x90 }
  - { offset: 0xF6D4, size: 0x8, addend: 0x0, symName: __ZNSt3__14pairINS_16reverse_iteratorIPiEES3_EC1B8ne180100IS3_S3_Li0EEEOT_OT0_, symObjAddr: 0x2BD0, symBinAddr: 0x100004040, symSize: 0x30 }
  - { offset: 0xF732, size: 0x8, addend: 0x0, symName: __ZNSt3__14pairINS_16reverse_iteratorIPiEES3_EC2B8ne180100IS3_S3_Li0EEEOT_OT0_, symObjAddr: 0x2C00, symBinAddr: 0x100004070, symSize: 0x40 }
  - { offset: 0xF795, size: 0x8, addend: 0x0, symName: __ZNSt3__18_IterOpsINS_17_ClassicAlgPolicyEE11__iter_moveB8ne180100IRNS_16reverse_iteratorIPiEELi0EEEDTclsr3stdE4movedeclsr3stdE7declvalIRT_EEEEOS8_, symObjAddr: 0x2C80, symBinAddr: 0x1000040F0, symSize: 0x20 }
  - { offset: 0xF7C7, size: 0x8, addend: 0x0, symName: __ZNKSt3__116reverse_iteratorIPiEdeB8ne180100Ev, symObjAddr: 0x2CA0, symBinAddr: 0x100004110, symSize: 0x30 }
  - { offset: 0xF7FB, size: 0x8, addend: 0x0, symName: __ZNSt3__116reverse_iteratorIPiEppB8ne180100Ev, symObjAddr: 0x2CD0, symBinAddr: 0x100004140, symSize: 0x20 }
  - { offset: 0xF821, size: 0x8, addend: 0x0, symName: __ZNSt3__18_IterOpsINS_17_ClassicAlgPolicyEE25__validate_iter_referenceB8ne180100IRNS_16reverse_iteratorIPiEEEEvv, symObjAddr: 0x2CF0, symBinAddr: 0x100004160, symSize: 0x10 }
  - { offset: 0xF83F, size: 0x8, addend: 0x0, symName: __ZNSt3__118__unwrap_iter_implINS_16reverse_iteratorIPiEELb0EE8__unwrapB8ne180100ES3_, symObjAddr: 0x2D00, symBinAddr: 0x100004170, symSize: 0x20 }
  - { offset: 0xF862, size: 0x8, addend: 0x0, symName: __ZNSt3__119__unwrap_range_implINS_16reverse_iteratorIPiEES3_E8__rewrapB8ne180100ES3_S3_, symObjAddr: 0x2D20, symBinAddr: 0x100004190, symSize: 0x60 }
  - { offset: 0xF893, size: 0x8, addend: 0x0, symName: __ZNSt3__118__unwrap_iter_implINS_16reverse_iteratorIPiEELb0EE8__rewrapB8ne180100ES3_S3_, symObjAddr: 0x2D80, symBinAddr: 0x1000041F0, symSize: 0x30 }
  - { offset: 0xF8C0, size: 0x8, addend: 0x0, symName: __ZNSt3__116reverse_iteratorIPiEC2B8ne180100ES1_, symObjAddr: 0x2DB0, symBinAddr: 0x100004220, symSize: 0x30 }
  - { offset: 0xF8F8, size: 0x8, addend: 0x0, symName: __ZNSt3__114__split_bufferIiRNS_9allocatorIiEEED2Ev, symObjAddr: 0x2DE0, symBinAddr: 0x100004250, symSize: 0x70 }
  - { offset: 0xF924, size: 0x8, addend: 0x0, symName: __ZNSt3__114__split_bufferIiRNS_9allocatorIiEEE5clearB8ne180100Ev, symObjAddr: 0x2E50, symBinAddr: 0x1000042C0, symSize: 0x20 }
  - { offset: 0xF94A, size: 0x8, addend: 0x0, symName: __ZNKSt3__114__split_bufferIiRNS_9allocatorIiEEE8capacityB8ne180100Ev, symObjAddr: 0x2E70, symBinAddr: 0x1000042E0, symSize: 0x30 }
  - { offset: 0xF970, size: 0x8, addend: 0x0, symName: __ZNSt3__114__split_bufferIiRNS_9allocatorIiEEE17__destruct_at_endB8ne180100EPi, symObjAddr: 0x2EA0, symBinAddr: 0x100004310, symSize: 0x30 }
  - { offset: 0xF9A4, size: 0x8, addend: 0x0, symName: __ZNSt3__114__split_bufferIiRNS_9allocatorIiEEE17__destruct_at_endB8ne180100EPiNS_17integral_constantIbLb0EEE, symObjAddr: 0x2ED0, symBinAddr: 0x100004340, symSize: 0x80 }
  - { offset: 0xF9E4, size: 0x8, addend: 0x0, symName: __ZNKSt3__114__split_bufferIiRNS_9allocatorIiEEE9__end_capB8ne180100Ev, symObjAddr: 0x2F50, symBinAddr: 0x1000043C0, symSize: 0x20 }
  - { offset: 0xFA0A, size: 0x8, addend: 0x0, symName: __ZNKSt3__117__compressed_pairIPiRNS_9allocatorIiEEE5firstB8ne180100Ev, symObjAddr: 0x2F70, symBinAddr: 0x1000043E0, symSize: 0x20 }
  - { offset: 0xFA30, size: 0x8, addend: 0x0, symName: __ZNSt3__16vectorINS_4pairIixEENS_9allocatorIS2_EEEC2B8ne180100Ev, symObjAddr: 0x2F90, symBinAddr: 0x100004400, symSize: 0x50 }
  - { offset: 0xFA5F, size: 0x8, addend: 0x0, symName: __ZNSt3__117__compressed_pairIPNS_4pairIixEENS_9allocatorIS2_EEEC1B8ne180100IDnNS_18__default_init_tagEEEOT_OT0_, symObjAddr: 0x2FE0, symBinAddr: 0x100004450, symSize: 0x30 }
  - { offset: 0xFAB7, size: 0x8, addend: 0x0, symName: __ZNSt3__117__compressed_pairIPNS_4pairIixEENS_9allocatorIS2_EEEC2B8ne180100IDnNS_18__default_init_tagEEEOT_OT0_, symObjAddr: 0x3010, symBinAddr: 0x100004480, symSize: 0x40 }
  - { offset: 0xFB0F, size: 0x8, addend: 0x0, symName: __ZNSt3__122__compressed_pair_elemIPNS_4pairIixEELi0ELb0EEC2B8ne180100IDnvEEOT_, symObjAddr: 0x3050, symBinAddr: 0x1000044C0, symSize: 0x20 }
  - { offset: 0xFB51, size: 0x8, addend: 0x0, symName: __ZNSt3__122__compressed_pair_elemINS_9allocatorINS_4pairIixEEEELi1ELb1EEC2B8ne180100ENS_18__default_init_tagE, symObjAddr: 0x3070, symBinAddr: 0x1000044E0, symSize: 0x20 }
  - { offset: 0xFB85, size: 0x8, addend: 0x0, symName: __ZNSt3__19allocatorINS_4pairIixEEEC2B8ne180100Ev, symObjAddr: 0x3090, symBinAddr: 0x100004500, symSize: 0x20 }
  - { offset: 0xFBAF, size: 0x8, addend: 0x0, symName: __ZNSt3__116__non_trivial_ifILb1ENS_9allocatorINS_4pairIixEEEEEC2B8ne180100Ev, symObjAddr: 0x30B0, symBinAddr: 0x100004520, symSize: 0x10 }
  - { offset: 0xFBD9, size: 0x8, addend: 0x0, symName: __ZNSt3__16vectorINS_4pairIixEENS_9allocatorIS2_EEE9__end_capB8ne180100Ev, symObjAddr: 0x30C0, symBinAddr: 0x100004530, symSize: 0x20 }
  - { offset: 0xFBFF, size: 0x8, addend: 0x0, symName: __ZNSt3__16vectorINS_4pairIixEENS_9allocatorIS2_EEE22__construct_one_at_endB8ne180100IJS2_EEEvDpOT_, symObjAddr: 0x30E0, symBinAddr: 0x100004550, symSize: 0x90 }
  - { offset: 0xFC4E, size: 0x8, addend: 0x0, symName: __ZNSt3__16vectorINS_4pairIixEENS_9allocatorIS2_EEE21__push_back_slow_pathIS2_EEPS2_OT_, symObjAddr: 0x3170, symBinAddr: 0x1000045E0, symSize: 0xE0 }
  - { offset: 0xFCAC, size: 0x8, addend: 0x0, symName: __ZNSt3__117__compressed_pairIPNS_4pairIixEENS_9allocatorIS2_EEE5firstB8ne180100Ev, symObjAddr: 0x3250, symBinAddr: 0x1000046C0, symSize: 0x20 }
  - { offset: 0xFCD2, size: 0x8, addend: 0x0, symName: __ZNSt3__122__compressed_pair_elemIPNS_4pairIixEELi0ELb0EE5__getB8ne180100Ev, symObjAddr: 0x3270, symBinAddr: 0x1000046E0, symSize: 0x10 }
  - { offset: 0xFD11, size: 0x8, addend: 0x0, symName: __ZNSt3__16vectorINS_4pairIixEENS_9allocatorIS2_EEE21_ConstructTransactionC1B8ne180100ERS5_m, symObjAddr: 0x3280, symBinAddr: 0x1000046F0, symSize: 0x30 }
  - { offset: 0xFD59, size: 0x8, addend: 0x0, symName: __ZNSt3__116allocator_traitsINS_9allocatorINS_4pairIixEEEEE9constructB8ne180100IS3_JS3_EvvEEvRS4_PT_DpOT0_, symObjAddr: 0x32B0, symBinAddr: 0x100004720, symSize: 0x30 }
  - { offset: 0xFDAD, size: 0x8, addend: 0x0, symName: __ZNSt3__16vectorINS_4pairIixEENS_9allocatorIS2_EEE7__allocB8ne180100Ev, symObjAddr: 0x32E0, symBinAddr: 0x100004750, symSize: 0x20 }
  - { offset: 0xFDD3, size: 0x8, addend: 0x0, symName: __ZNSt3__16vectorINS_4pairIixEENS_9allocatorIS2_EEE21_ConstructTransactionD1B8ne180100Ev, symObjAddr: 0x3310, symBinAddr: 0x100004780, symSize: 0x20 }
  - { offset: 0xFDFD, size: 0x8, addend: 0x0, symName: __ZNSt3__16vectorINS_4pairIixEENS_9allocatorIS2_EEE21_ConstructTransactionC2B8ne180100ERS5_m, symObjAddr: 0x3330, symBinAddr: 0x1000047A0, symSize: 0x40 }
  - { offset: 0xFE45, size: 0x8, addend: 0x0, symName: __ZNSt3__117__compressed_pairIPNS_4pairIixEENS_9allocatorIS2_EEE6secondB8ne180100Ev, symObjAddr: 0x33D0, symBinAddr: 0x100004840, symSize: 0x20 }
  - { offset: 0xFE6B, size: 0x8, addend: 0x0, symName: __ZNSt3__122__compressed_pair_elemINS_9allocatorINS_4pairIixEEEELi1ELb1EE5__getB8ne180100Ev, symObjAddr: 0x33F0, symBinAddr: 0x100004860, symSize: 0x10 }
  - { offset: 0xFE91, size: 0x8, addend: 0x0, symName: __ZNSt3__16vectorINS_4pairIixEENS_9allocatorIS2_EEE21_ConstructTransactionD2B8ne180100Ev, symObjAddr: 0x3400, symBinAddr: 0x100004870, symSize: 0x20 }
  - { offset: 0xFEBB, size: 0x8, addend: 0x0, symName: __ZNKSt3__16vectorINS_4pairIixEENS_9allocatorIS2_EEE11__recommendB8ne180100Em, symObjAddr: 0x3420, symBinAddr: 0x100004890, symSize: 0x90 }
  - { offset: 0xFF10, size: 0x8, addend: 0x0, symName: __ZNSt3__114__split_bufferINS_4pairIixEERNS_9allocatorIS2_EEEC1EmmS5_, symObjAddr: 0x34B0, symBinAddr: 0x100004920, symSize: 0x40 }
  - { offset: 0xFF66, size: 0x8, addend: 0x0, symName: __ZNSt3__114__split_bufferINS_4pairIixEERNS_9allocatorIS2_EEED1Ev, symObjAddr: 0x3610, symBinAddr: 0x100004A80, symSize: 0x20 }
  - { offset: 0xFF92, size: 0x8, addend: 0x0, symName: __ZNKSt3__16vectorINS_4pairIixEENS_9allocatorIS2_EEE8max_sizeEv, symObjAddr: 0x3630, symBinAddr: 0x100004AA0, symSize: 0x60 }
  - { offset: 0xFFBA, size: 0x8, addend: 0x0, symName: __ZNKSt3__16vectorINS_4pairIixEENS_9allocatorIS2_EEE20__throw_length_errorB8ne180100Ev, symObjAddr: 0x3690, symBinAddr: 0x100004B00, symSize: 0x20 }
  - { offset: 0xFFE0, size: 0x8, addend: 0x0, symName: __ZNKSt3__16vectorINS_4pairIixEENS_9allocatorIS2_EEE8capacityB8ne180100Ev, symObjAddr: 0x36B0, symBinAddr: 0x100004B20, symSize: 0x30 }
  - { offset: 0x10010, size: 0x8, addend: 0x0, symName: __ZNSt3__116allocator_traitsINS_9allocatorINS_4pairIixEEEEE8max_sizeB8ne180100IS4_vvEEmRKS4_, symObjAddr: 0x36E0, symBinAddr: 0x100004B50, symSize: 0x20 }
  - { offset: 0x1003B, size: 0x8, addend: 0x0, symName: __ZNKSt3__16vectorINS_4pairIixEENS_9allocatorIS2_EEE7__allocB8ne180100Ev, symObjAddr: 0x3700, symBinAddr: 0x100004B70, symSize: 0x20 }
  - { offset: 0x10061, size: 0x8, addend: 0x0, symName: __ZNKSt3__117__compressed_pairIPNS_4pairIixEENS_9allocatorIS2_EEE6secondB8ne180100Ev, symObjAddr: 0x3720, symBinAddr: 0x100004B90, symSize: 0x20 }
  - { offset: 0x10087, size: 0x8, addend: 0x0, symName: __ZNKSt3__122__compressed_pair_elemINS_9allocatorINS_4pairIixEEEELi1ELb1EE5__getB8ne180100Ev, symObjAddr: 0x3740, symBinAddr: 0x100004BB0, symSize: 0x10 }
  - { offset: 0x100AD, size: 0x8, addend: 0x0, symName: __ZNKSt3__16vectorINS_4pairIixEENS_9allocatorIS2_EEE9__end_capB8ne180100Ev, symObjAddr: 0x3750, symBinAddr: 0x100004BC0, symSize: 0x20 }
  - { offset: 0x100D3, size: 0x8, addend: 0x0, symName: __ZNKSt3__117__compressed_pairIPNS_4pairIixEENS_9allocatorIS2_EEE5firstB8ne180100Ev, symObjAddr: 0x3770, symBinAddr: 0x100004BE0, symSize: 0x20 }
  - { offset: 0x100F9, size: 0x8, addend: 0x0, symName: __ZNKSt3__122__compressed_pair_elemIPNS_4pairIixEELi0ELb0EE5__getB8ne180100Ev, symObjAddr: 0x3790, symBinAddr: 0x100004C00, symSize: 0x10 }
  - { offset: 0x1011F, size: 0x8, addend: 0x0, symName: __ZNSt3__114__split_bufferINS_4pairIixEERNS_9allocatorIS2_EEEC2EmmS5_, symObjAddr: 0x37A0, symBinAddr: 0x100004C10, symSize: 0xD0 }
  - { offset: 0x10192, size: 0x8, addend: 0x0, symName: __ZNSt3__117__compressed_pairIPNS_4pairIixEERNS_9allocatorIS2_EEEC1B8ne180100IDnS6_EEOT_OT0_, symObjAddr: 0x3870, symBinAddr: 0x100004CE0, symSize: 0x30 }
  - { offset: 0x101EA, size: 0x8, addend: 0x0, symName: __ZNSt3__114__split_bufferINS_4pairIixEERNS_9allocatorIS2_EEE7__allocB8ne180100Ev, symObjAddr: 0x38E0, symBinAddr: 0x100004D50, symSize: 0x20 }
  - { offset: 0x10210, size: 0x8, addend: 0x0, symName: __ZNSt3__114__split_bufferINS_4pairIixEERNS_9allocatorIS2_EEE9__end_capB8ne180100Ev, symObjAddr: 0x3900, symBinAddr: 0x100004D70, symSize: 0x20 }
  - { offset: 0x10236, size: 0x8, addend: 0x0, symName: __ZNSt3__117__compressed_pairIPNS_4pairIixEERNS_9allocatorIS2_EEEC2B8ne180100IDnS6_EEOT_OT0_, symObjAddr: 0x3920, symBinAddr: 0x100004D90, symSize: 0x40 }
  - { offset: 0x1028E, size: 0x8, addend: 0x0, symName: __ZNSt3__122__compressed_pair_elemIRNS_9allocatorINS_4pairIixEEEELi1ELb0EEC2B8ne180100IS5_vEEOT_, symObjAddr: 0x3960, symBinAddr: 0x100004DD0, symSize: 0x20 }
  - { offset: 0x102D0, size: 0x8, addend: 0x0, symName: __ZNSt3__19allocatorINS_4pairIixEEE8allocateB8ne180100Em, symObjAddr: 0x3980, symBinAddr: 0x100004DF0, symSize: 0x50 }
  - { offset: 0x10304, size: 0x8, addend: 0x0, symName: __ZNSt3__117__compressed_pairIPNS_4pairIixEERNS_9allocatorIS2_EEE6secondB8ne180100Ev, symObjAddr: 0x39D0, symBinAddr: 0x100004E40, symSize: 0x20 }
  - { offset: 0x1032A, size: 0x8, addend: 0x0, symName: __ZNSt3__122__compressed_pair_elemIRNS_9allocatorINS_4pairIixEEEELi1ELb0EE5__getB8ne180100Ev, symObjAddr: 0x39F0, symBinAddr: 0x100004E60, symSize: 0x20 }
  - { offset: 0x10350, size: 0x8, addend: 0x0, symName: __ZNSt3__117__compressed_pairIPNS_4pairIixEERNS_9allocatorIS2_EEE5firstB8ne180100Ev, symObjAddr: 0x3A10, symBinAddr: 0x100004E80, symSize: 0x20 }
  - { offset: 0x10376, size: 0x8, addend: 0x0, symName: __ZNKSt3__16vectorINS_4pairIixEENS_9allocatorIS2_EEE17__annotate_deleteB8ne180100Ev, symObjAddr: 0x3A30, symBinAddr: 0x100004EA0, symSize: 0x10 }
  - { offset: 0x1039C, size: 0x8, addend: 0x0, symName: __ZNSt3__116reverse_iteratorIPNS_4pairIixEEEC1B8ne180100ES3_, symObjAddr: 0x3BC0, symBinAddr: 0x100005030, symSize: 0x30 }
  - { offset: 0x103D4, size: 0x8, addend: 0x0, symName: __ZNKSt3__116reverse_iteratorIPNS_4pairIixEEE4baseB8ne180100Ev, symObjAddr: 0x3BF0, symBinAddr: 0x100005060, symSize: 0x20 }
  - { offset: 0x103FA, size: 0x8, addend: 0x0, symName: __ZNKSt3__16vectorINS_4pairIixEENS_9allocatorIS2_EEE14__annotate_newB8ne180100Em, symObjAddr: 0x3C50, symBinAddr: 0x1000050C0, symSize: 0x10 }
  - { offset: 0x1042F, size: 0x8, addend: 0x0, symName: __ZNSt3__129_AllocatorDestroyRangeReverseINS_9allocatorINS_4pairIixEEEENS_16reverse_iteratorIPS3_EEEC1B8ne180100ERS4_RS7_SA_, symObjAddr: 0x3CC0, symBinAddr: 0x100005130, symSize: 0x40 }
  - { offset: 0x10486, size: 0x8, addend: 0x0, symName: __ZNKSt3__116reverse_iteratorIPNS_4pairIixEEEdeB8ne180100Ev, symObjAddr: 0x3D60, symBinAddr: 0x1000051D0, symSize: 0x30 }
  - { offset: 0x104BA, size: 0x8, addend: 0x0, symName: __ZNSt3__116reverse_iteratorIPNS_4pairIixEEEppB8ne180100Ev, symObjAddr: 0x3D90, symBinAddr: 0x100005200, symSize: 0x20 }
  - { offset: 0x104E0, size: 0x8, addend: 0x0, symName: __ZNSt3__128__exception_guard_exceptionsINS_29_AllocatorDestroyRangeReverseINS_9allocatorINS_4pairIixEEEENS_16reverse_iteratorIPS4_EEEEE10__completeB8ne180100Ev, symObjAddr: 0x3DB0, symBinAddr: 0x100005220, symSize: 0x20 }
  - { offset: 0x10506, size: 0x8, addend: 0x0, symName: __ZNSt3__128__exception_guard_exceptionsINS_29_AllocatorDestroyRangeReverseINS_9allocatorINS_4pairIixEEEENS_16reverse_iteratorIPS4_EEEEED1B8ne180100Ev, symObjAddr: 0x3DD0, symBinAddr: 0x100005240, symSize: 0x20 }
  - { offset: 0x10530, size: 0x8, addend: 0x0, symName: __ZNSt3__128__exception_guard_exceptionsINS_29_AllocatorDestroyRangeReverseINS_9allocatorINS_4pairIixEEEENS_16reverse_iteratorIPS4_EEEEEC1B8ne180100ES9_, symObjAddr: 0x3DF0, symBinAddr: 0x100005260, symSize: 0x40 }
  - { offset: 0x10568, size: 0x8, addend: 0x0, symName: __ZNSt3__128__exception_guard_exceptionsINS_29_AllocatorDestroyRangeReverseINS_9allocatorINS_4pairIixEEEENS_16reverse_iteratorIPS4_EEEEEC2B8ne180100ES9_, symObjAddr: 0x3E30, symBinAddr: 0x1000052A0, symSize: 0x30 }
  - { offset: 0x105A0, size: 0x8, addend: 0x0, symName: __ZNSt3__129_AllocatorDestroyRangeReverseINS_9allocatorINS_4pairIixEEEENS_16reverse_iteratorIPS3_EEEC2B8ne180100ERS4_RS7_SA_, symObjAddr: 0x3E60, symBinAddr: 0x1000052D0, symSize: 0x40 }
  - { offset: 0x105FC, size: 0x8, addend: 0x0, symName: __ZNSt3__119__to_address_helperINS_16reverse_iteratorIPNS_4pairIixEEEEvE6__callB8ne180100ERKS5_, symObjAddr: 0x3EA0, symBinAddr: 0x100005310, symSize: 0x40 }
  - { offset: 0x1061F, size: 0x8, addend: 0x0, symName: __ZNKSt3__116reverse_iteratorIPNS_4pairIixEEEptB8ne180100Ev, symObjAddr: 0x3EE0, symBinAddr: 0x100005350, symSize: 0x30 }
  - { offset: 0x10645, size: 0x8, addend: 0x0, symName: __ZNSt3__128__exception_guard_exceptionsINS_29_AllocatorDestroyRangeReverseINS_9allocatorINS_4pairIixEEEENS_16reverse_iteratorIPS4_EEEEED2B8ne180100Ev, symObjAddr: 0x3FA0, symBinAddr: 0x100005410, symSize: 0x40 }
  - { offset: 0x1066F, size: 0x8, addend: 0x0, symName: __ZNKSt3__129_AllocatorDestroyRangeReverseINS_9allocatorINS_4pairIixEEEENS_16reverse_iteratorIPS3_EEEclB8ne180100Ev, symObjAddr: 0x3FE0, symBinAddr: 0x100005450, symSize: 0xF0 }
  - { offset: 0x10696, size: 0x8, addend: 0x0, symName: __ZNSt3__116reverse_iteratorINS0_IPNS_4pairIixEEEEEC1B8ne180100ES4_, symObjAddr: 0x4140, symBinAddr: 0x1000055B0, symSize: 0x30 }
  - { offset: 0x106CE, size: 0x8, addend: 0x0, symName: __ZNSt3__116allocator_traitsINS_9allocatorINS_4pairIixEEEEE7destroyB8ne180100IS3_vvEEvRS4_PT_, symObjAddr: 0x41C0, symBinAddr: 0x100005630, symSize: 0x20 }
  - { offset: 0x10708, size: 0x8, addend: 0x0, symName: __ZNSt3__116reverse_iteratorINS0_IPNS_4pairIixEEEEEppB8ne180100Ev, symObjAddr: 0x4200, symBinAddr: 0x100005670, symSize: 0x30 }
  - { offset: 0x1072E, size: 0x8, addend: 0x0, symName: __ZNKSt3__116reverse_iteratorINS0_IPNS_4pairIixEEEEE4baseB8ne180100Ev, symObjAddr: 0x4230, symBinAddr: 0x1000056A0, symSize: 0x20 }
  - { offset: 0x10759, size: 0x8, addend: 0x0, symName: __ZNSt3__119__to_address_helperINS_16reverse_iteratorINS1_IPNS_4pairIixEEEEEEvE6__callB8ne180100ERKS6_, symObjAddr: 0x4260, symBinAddr: 0x1000056D0, symSize: 0x40 }
  - { offset: 0x1077C, size: 0x8, addend: 0x0, symName: __ZNKSt3__116reverse_iteratorINS0_IPNS_4pairIixEEEEEptB8ne180100Ev, symObjAddr: 0x42A0, symBinAddr: 0x100005710, symSize: 0x50 }
  - { offset: 0x107A2, size: 0x8, addend: 0x0, symName: __ZNSt3__116reverse_iteratorIPNS_4pairIixEEEpLB8ne180100El, symObjAddr: 0x4390, symBinAddr: 0x100005800, symSize: 0x30 }
  - { offset: 0x107D6, size: 0x8, addend: 0x0, symName: __ZNSt3__116reverse_iteratorIPNS_4pairIixEEEmmB8ne180100Ev, symObjAddr: 0x43C0, symBinAddr: 0x100005830, symSize: 0x20 }
  - { offset: 0x107FC, size: 0x8, addend: 0x0, symName: __ZNSt3__116reverse_iteratorINS0_IPNS_4pairIixEEEEEC2B8ne180100ES4_, symObjAddr: 0x43E0, symBinAddr: 0x100005850, symSize: 0x40 }
  - { offset: 0x10834, size: 0x8, addend: 0x0, symName: __ZNSt3__116reverse_iteratorIPNS_4pairIixEEEC2B8ne180100ES3_, symObjAddr: 0x4420, symBinAddr: 0x100005890, symSize: 0x30 }
  - { offset: 0x1086C, size: 0x8, addend: 0x0, symName: __ZNSt3__114__split_bufferINS_4pairIixEERNS_9allocatorIS2_EEED2Ev, symObjAddr: 0x4450, symBinAddr: 0x1000058C0, symSize: 0x70 }
  - { offset: 0x10898, size: 0x8, addend: 0x0, symName: __ZNSt3__114__split_bufferINS_4pairIixEERNS_9allocatorIS2_EEE5clearB8ne180100Ev, symObjAddr: 0x44C0, symBinAddr: 0x100005930, symSize: 0x20 }
  - { offset: 0x108BE, size: 0x8, addend: 0x0, symName: __ZNSt3__116allocator_traitsINS_9allocatorINS_4pairIixEEEEE10deallocateB8ne180100ERS4_PS3_m, symObjAddr: 0x44E0, symBinAddr: 0x100005950, symSize: 0x30 }
  - { offset: 0x10900, size: 0x8, addend: 0x0, symName: __ZNKSt3__114__split_bufferINS_4pairIixEERNS_9allocatorIS2_EEE8capacityB8ne180100Ev, symObjAddr: 0x4510, symBinAddr: 0x100005980, symSize: 0x30 }
  - { offset: 0x10926, size: 0x8, addend: 0x0, symName: __ZNSt3__114__split_bufferINS_4pairIixEERNS_9allocatorIS2_EEE17__destruct_at_endB8ne180100EPS2_, symObjAddr: 0x4540, symBinAddr: 0x1000059B0, symSize: 0x30 }
  - { offset: 0x1095A, size: 0x8, addend: 0x0, symName: __ZNSt3__114__split_bufferINS_4pairIixEERNS_9allocatorIS2_EEE17__destruct_at_endB8ne180100EPS2_NS_17integral_constantIbLb0EEE, symObjAddr: 0x4570, symBinAddr: 0x1000059E0, symSize: 0x80 }
  - { offset: 0x1099A, size: 0x8, addend: 0x0, symName: __ZNSt3__19allocatorINS_4pairIixEEE10deallocateB8ne180100EPS2_m, symObjAddr: 0x45F0, symBinAddr: 0x100005A60, symSize: 0x40 }
  - { offset: 0x109DC, size: 0x8, addend: 0x0, symName: __ZNKSt3__114__split_bufferINS_4pairIixEERNS_9allocatorIS2_EEE9__end_capB8ne180100Ev, symObjAddr: 0x4630, symBinAddr: 0x100005AA0, symSize: 0x20 }
  - { offset: 0x10A02, size: 0x8, addend: 0x0, symName: __ZNKSt3__117__compressed_pairIPNS_4pairIixEERNS_9allocatorIS2_EEE5firstB8ne180100Ev, symObjAddr: 0x4650, symBinAddr: 0x100005AC0, symSize: 0x20 }
  - { offset: 0x10A28, size: 0x8, addend: 0x0, symName: __ZNSt3__14pairIixEC2B8ne180100IRxS3_Li0EEEOT_OT0_, symObjAddr: 0x4670, symBinAddr: 0x100005AE0, symSize: 0x30 }
  - { offset: 0x10A90, size: 0x8, addend: 0x0, symName: '__ZZ4mainENK3$_0clERKNSt3__14pairIixEES4_', symObjAddr: 0x4CB0, symBinAddr: 0x100006120, symSize: 0x60 }
  - { offset: 0x10AD6, size: 0x8, addend: 0x0, symName: __ZNSt3__18_IterOpsINS_17_ClassicAlgPolicyEE9iter_swapB8ne180100IRPNS_4pairIixEES7_EEvOT_OT0_, symObjAddr: 0x4D10, symBinAddr: 0x100006180, symSize: 0x30 }
  - { offset: 0x10B1E, size: 0x8, addend: 0x0, symName: __ZNSt3__18_IterOpsINS_17_ClassicAlgPolicyEE9iter_swapB8ne180100IRPNS_4pairIixEES6_EEvOT_OT0_, symObjAddr: 0x5220, symBinAddr: 0x100006690, symSize: 0x30 }
  - { offset: 0x10B61, size: 0x8, addend: 0x0, symName: __ZNSt3__14pairIixE4swapB8ne180100ERS1_, symObjAddr: 0x5BC0, symBinAddr: 0x100007030, symSize: 0x40 }
  - { offset: 0x10B9B, size: 0x8, addend: 0x0, symName: __ZNSt3__18_IterOpsINS_17_ClassicAlgPolicyEE11__iter_moveB8ne180100IRPNS_4pairIixEELi0EEEDTclsr3stdE4movedeclsr3stdE7declvalIRT_EEEEOS8_, symObjAddr: 0x5E40, symBinAddr: 0x1000072B0, symSize: 0x20 }
  - { offset: 0x10BCD, size: 0x8, addend: 0x0, symName: __ZNSt3__14pairIixEaSB8ne180100EOS1_, symObjAddr: 0x5E60, symBinAddr: 0x1000072D0, symSize: 0x30 }
  - { offset: 0x10C02, size: 0x8, addend: 0x0, symName: __ZNSt3__18_IterOpsINS_17_ClassicAlgPolicyEE25__validate_iter_referenceB8ne180100IRPNS_4pairIixEEEEvv, symObjAddr: 0x5E90, symBinAddr: 0x100007300, symSize: 0x10 }
  - { offset: 0x10C20, size: 0x8, addend: 0x0, symName: __ZNSt3__18_IterOpsINS_17_ClassicAlgPolicyEE4nextB8ne180100IPNS_4pairIixEEEET_S7_S7_, symObjAddr: 0x5EA0, symBinAddr: 0x100007310, symSize: 0x20 }
  - { offset: 0x10C56, size: 0x8, addend: 0x0, symName: __ZNSt3__18_IterOpsINS_17_ClassicAlgPolicyEE9iter_swapB8ne180100IPNS_4pairIixEES6_EEvOT_OT0_, symObjAddr: 0x6C30, symBinAddr: 0x1000080A0, symSize: 0x30 }
  - { offset: 0x10CB7, size: 0x8, addend: 0x0, symName: __ZNSt3__14pairIPNS0_IixEEbEC1B8ne180100IRS2_RbLi0EEEOT_OT0_, symObjAddr: 0x6C80, symBinAddr: 0x1000080F0, symSize: 0x30 }
  - { offset: 0x10D15, size: 0x8, addend: 0x0, symName: __ZNSt3__14pairIPNS0_IixEEbEC2B8ne180100IRS2_RbLi0EEEOT_OT0_, symObjAddr: 0x6CB0, symBinAddr: 0x100008120, symSize: 0x30 }
  - { offset: 0x10D73, size: 0x8, addend: 0x0, symName: __ZNSt3__118__unwrap_iter_implINS_11__wrap_iterIPNS_4pairIixEEEELb1EE8__unwrapB8ne180100ES5_, symObjAddr: 0x6CE0, symBinAddr: 0x100008150, symSize: 0x20 }
  - { offset: 0x10DA0, size: 0x8, addend: 0x0, symName: __ZNSt3__119__to_address_helperINS_11__wrap_iterIPNS_4pairIixEEEEvE6__callB8ne180100ERKS5_, symObjAddr: 0x6D20, symBinAddr: 0x100008190, symSize: 0x30 }
  - { offset: 0x10DC3, size: 0x8, addend: 0x0, symName: __ZNSt3__114pointer_traitsINS_11__wrap_iterIPNS_4pairIixEEEEE10to_addressB8ne180100ES5_, symObjAddr: 0x6D50, symBinAddr: 0x1000081C0, symSize: 0x30 }
  - { offset: 0x10DE6, size: 0x8, addend: 0x0, symName: __ZNKSt3__111__wrap_iterIPNS_4pairIixEEE4baseB8ne180100Ev, symObjAddr: 0x6D80, symBinAddr: 0x1000081F0, symSize: 0x20 }
  - { offset: 0x10E0C, size: 0x8, addend: 0x0, symName: __ZNSt3__16vectorINS_4pairIixEENS_9allocatorIS2_EEE11__make_iterB8ne180100EPS2_, symObjAddr: 0x6DA0, symBinAddr: 0x100008210, symSize: 0x30 }
  - { offset: 0x10E41, size: 0x8, addend: 0x0, symName: __ZNSt3__111__wrap_iterIPNS_4pairIixEEEC1B8ne180100ES3_, symObjAddr: 0x6DD0, symBinAddr: 0x100008240, symSize: 0x30 }
  - { offset: 0x10E79, size: 0x8, addend: 0x0, symName: __ZNSt3__111__wrap_iterIPNS_4pairIixEEEC2B8ne180100ES3_, symObjAddr: 0x6E00, symBinAddr: 0x100008270, symSize: 0x20 }
  - { offset: 0x10EB1, size: 0x8, addend: 0x0, symName: __ZNSt3__14pairIixEC2B8ne180100IRKiRiLi0EEEOT_OT0_, symObjAddr: 0x6E60, symBinAddr: 0x1000082D0, symSize: 0x30 }
  - { offset: 0x10F0F, size: 0x8, addend: 0x0, symName: __ZNSt3__16vectorINS_4pairIixEENS_9allocatorIS2_EEED2B8ne180100Ev, symObjAddr: 0x6E90, symBinAddr: 0x100008300, symSize: 0x40 }
  - { offset: 0x10F39, size: 0x8, addend: 0x0, symName: __ZNSt3__16vectorINS_4pairIixEENS_9allocatorIS2_EEE16__destroy_vectorC1B8ne180100ERS5_, symObjAddr: 0x6ED0, symBinAddr: 0x100008340, symSize: 0x30 }
  - { offset: 0x10F72, size: 0x8, addend: 0x0, symName: __ZNSt3__16vectorINS_4pairIixEENS_9allocatorIS2_EEE16__destroy_vectorclB8ne180100Ev, symObjAddr: 0x6F00, symBinAddr: 0x100008370, symSize: 0x80 }
  - { offset: 0x10F98, size: 0x8, addend: 0x0, symName: __ZNSt3__16vectorINS_4pairIixEENS_9allocatorIS2_EEE16__destroy_vectorC2B8ne180100ERS5_, symObjAddr: 0x6F80, symBinAddr: 0x1000083F0, symSize: 0x20 }
  - { offset: 0x10FD1, size: 0x8, addend: 0x0, symName: __ZNSt3__16vectorINS_4pairIixEENS_9allocatorIS2_EEE7__clearB8ne180100Ev, symObjAddr: 0x6FA0, symBinAddr: 0x100008410, symSize: 0x20 }
  - { offset: 0x10FF7, size: 0x8, addend: 0x0, symName: __ZNSt3__16vectorINS_4pairIixEENS_9allocatorIS2_EEE22__base_destruct_at_endB8ne180100EPS2_, symObjAddr: 0x6FC0, symBinAddr: 0x100008430, symSize: 0x80 }
  - { offset: 0x1103B, size: 0x8, addend: 0x0, symName: __ZNSt3__16vectorIiNS_9allocatorIiEEE9push_backB8ne180100ERKi, symObjAddr: 0x7040, symBinAddr: 0x1000084B0, symSize: 0x80 }
  - { offset: 0x11081, size: 0x8, addend: 0x0, symName: __ZNSt3__16vectorIiNS_9allocatorIiEEE22__construct_one_at_endB8ne180100IJRKiEEEvDpOT_, symObjAddr: 0x7100, symBinAddr: 0x100008570, symSize: 0x90 }
  - { offset: 0x110D0, size: 0x8, addend: 0x0, symName: __ZNSt3__16vectorIiNS_9allocatorIiEEE21__push_back_slow_pathIRKiEEPiOT_, symObjAddr: 0x7190, symBinAddr: 0x100008600, symSize: 0xE0 }
  - { offset: 0x1112E, size: 0x8, addend: 0x0, symName: __ZNSt3__116allocator_traitsINS_9allocatorIiEEE9constructB8ne180100IiJRKiEvvEEvRS2_PT_DpOT0_, symObjAddr: 0x7270, symBinAddr: 0x1000086E0, symSize: 0x30 }
  - { offset: 0x11182, size: 0x8, addend: 0x0, symName: __ZNKSt3__111__wrap_iterIPiEplB8ne180100El, symObjAddr: 0x74D0, symBinAddr: 0x100008940, symSize: 0x40 }
  - { offset: 0x111C4, size: 0x8, addend: 0x0, symName: __ZNKSt3__17greaterIiEclB8ne180100ERKiS3_, symObjAddr: 0x7510, symBinAddr: 0x100008980, symSize: 0x30 }
  - { offset: 0x11208, size: 0x8, addend: 0x0, symName: __ZNSt3__111__wrap_iterIPiEmmB8ne180100Ev, symObjAddr: 0x7540, symBinAddr: 0x1000089B0, symSize: 0x20 }
  - { offset: 0x1122E, size: 0x8, addend: 0x0, symName: __ZNSt3__18_IterOpsINS_17_ClassicAlgPolicyEE11__iter_moveB8ne180100IRNS_11__wrap_iterIPiEELi0EEEDTclsr3stdE4movedeclsr3stdE7declvalIRT_EEEEOS8_, symObjAddr: 0x7560, symBinAddr: 0x1000089D0, symSize: 0x20 }
  - { offset: 0x11260, size: 0x8, addend: 0x0, symName: __ZNSt3__111__wrap_iterIPiEpLB8ne180100El, symObjAddr: 0x7580, symBinAddr: 0x1000089F0, symSize: 0x20 }
  - { offset: 0x11294, size: 0x8, addend: 0x0, symName: __ZNSt3__18_IterOpsINS_17_ClassicAlgPolicyEE25__validate_iter_referenceB8ne180100IRNS_11__wrap_iterIPiEEEEvv, symObjAddr: 0x75A0, symBinAddr: 0x100008A10, symSize: 0x10 }
  - { offset: 0x112B2, size: 0x8, addend: 0x0, symName: __ZNSt3__16vectorIiNS_9allocatorIiEEE8pop_backEv, symObjAddr: 0x7600, symBinAddr: 0x100008A70, symSize: 0x30 }
  - { offset: 0x112DA, size: 0x8, addend: 0x0, symName: __ZNSt3__16vectorIiNS_9allocatorIiEEE17__destruct_at_endB8ne180100EPi, symObjAddr: 0x7870, symBinAddr: 0x100008CE0, symSize: 0x50 }
  - { offset: 0x1131E, size: 0x8, addend: 0x0, symName: __ZNKSt3__16vectorIiNS_9allocatorIiEEE17__annotate_shrinkB8ne180100Em, symObjAddr: 0x78C0, symBinAddr: 0x100008D30, symSize: 0x10 }
  - { offset: 0x11353, size: 0x8, addend: 0x0, symName: __ZNKSt3__16vectorIiNS_9allocatorIiEEE5frontB8ne180100Ev, symObjAddr: 0x78D0, symBinAddr: 0x100008D40, symSize: 0x20 }
  - { offset: 0x11379, size: 0x8, addend: 0x0, symName: __ZNSt3__114priority_queueIiNS_6vectorIiNS_9allocatorIiEEEENS_7greaterIiEEEC2B8ne180100ERKS7_, symObjAddr: 0x78F0, symBinAddr: 0x100008D60, symSize: 0x30 }
  - { offset: 0x113B2, size: 0x8, addend: 0x0, symName: __ZNSt3__16vectorIiNS_9allocatorIiEEEC1ERKS3_, symObjAddr: 0x7920, symBinAddr: 0x100008D90, symSize: 0x30 }
  - { offset: 0x113ED, size: 0x8, addend: 0x0, symName: __ZNSt3__16vectorIiNS_9allocatorIiEEEC2ERKS3_, symObjAddr: 0x7950, symBinAddr: 0x100008DC0, symSize: 0xA0 }
  - { offset: 0x11428, size: 0x8, addend: 0x0, symName: __ZNSt3__116allocator_traitsINS_9allocatorIiEEE37select_on_container_copy_constructionB8ne180100IS2_vvEES2_RKS2_, symObjAddr: 0x79F0, symBinAddr: 0x100008E60, symSize: 0x10 }
  - { offset: 0x1145C, size: 0x8, addend: 0x0, symName: __ZNSt3__117__compressed_pairIPiNS_9allocatorIiEEEC1B8ne180100IDnS3_EEOT_OT0_, symObjAddr: 0x7A00, symBinAddr: 0x100008E70, symSize: 0x30 }
  - { offset: 0x114B4, size: 0x8, addend: 0x0, symName: __ZNSt3__16vectorIiNS_9allocatorIiEEE16__init_with_sizeB8ne180100IPiS5_EEvT_T0_m, symObjAddr: 0x7A30, symBinAddr: 0x100008EA0, symSize: 0xB0 }
  - { offset: 0x11528, size: 0x8, addend: 0x0, symName: __ZNSt3__117__compressed_pairIPiNS_9allocatorIiEEEC2B8ne180100IDnS3_EEOT_OT0_, symObjAddr: 0x7AE0, symBinAddr: 0x100008F50, symSize: 0x40 }
  - { offset: 0x11580, size: 0x8, addend: 0x0, symName: __ZNSt3__122__compressed_pair_elemINS_9allocatorIiEELi1ELb1EEC2B8ne180100IS2_vEEOT_, symObjAddr: 0x7B20, symBinAddr: 0x100008F90, symSize: 0x10 }
  - { offset: 0x115C2, size: 0x8, addend: 0x0, symName: __ZNSt3__16vectorIiNS_9allocatorIiEEE11__vallocateB8ne180100Em, symObjAddr: 0x7B70, symBinAddr: 0x100008FE0, symSize: 0xA0 }
  - { offset: 0x11606, size: 0x8, addend: 0x0, symName: __ZNSt3__16vectorIiNS_9allocatorIiEEE18__construct_at_endIPiS5_EEvT_T0_m, symObjAddr: 0x7C10, symBinAddr: 0x100009080, symSize: 0x90 }
  - { offset: 0x1167C, size: 0x8, addend: 0x0, symName: __ZNSt3__128__exception_guard_exceptionsINS_6vectorIiNS_9allocatorIiEEE16__destroy_vectorEE10__completeB8ne180100Ev, symObjAddr: 0x7CA0, symBinAddr: 0x100009110, symSize: 0x20 }
  - { offset: 0x116A2, size: 0x8, addend: 0x0, symName: __ZNSt3__128__exception_guard_exceptionsINS_6vectorIiNS_9allocatorIiEEE16__destroy_vectorEED1B8ne180100Ev, symObjAddr: 0x7CC0, symBinAddr: 0x100009130, symSize: 0x20 }
  - { offset: 0x116CC, size: 0x8, addend: 0x0, symName: __ZNSt3__128__exception_guard_exceptionsINS_6vectorIiNS_9allocatorIiEEE16__destroy_vectorEEC1B8ne180100ES5_, symObjAddr: 0x7CE0, symBinAddr: 0x100009150, symSize: 0x30 }
  - { offset: 0x11704, size: 0x8, addend: 0x0, symName: __ZNSt3__128__exception_guard_exceptionsINS_6vectorIiNS_9allocatorIiEEE16__destroy_vectorEEC2B8ne180100ES5_, symObjAddr: 0x7D10, symBinAddr: 0x100009180, symSize: 0x20 }
  - { offset: 0x11755, size: 0x8, addend: 0x0, symName: __ZNSt3__119__unwrap_range_implIPiS1_E8__unwrapB8ne180100ES1_S1_, symObjAddr: 0x7E80, symBinAddr: 0x1000092F0, symSize: 0x50 }
  - { offset: 0x1178B, size: 0x8, addend: 0x0, symName: __ZNSt3__14pairIPiS1_EC1B8ne180100IS1_S1_Li0EEEOT_OT0_, symObjAddr: 0x7ED0, symBinAddr: 0x100009340, symSize: 0x30 }
  - { offset: 0x117E9, size: 0x8, addend: 0x0, symName: __ZNSt3__14pairIPiS1_EC2B8ne180100IS1_S1_Li0EEEOT_OT0_, symObjAddr: 0x7F00, symBinAddr: 0x100009370, symSize: 0x30 }
  - { offset: 0x11851, size: 0x8, addend: 0x0, symName: __ZNKSt3__114__copy_trivialclB8ne180100IiiLi0EEENS_4pairIPT_PT0_EES4_S4_S6_, symObjAddr: 0x80A0, symBinAddr: 0x100009510, symSize: 0x40 }
  - { offset: 0x118B9, size: 0x8, addend: 0x0, symName: __ZNSt3__14pairIPiS1_EC1B8ne180100IRS1_S1_Li0EEEOT_OT0_, symObjAddr: 0x8230, symBinAddr: 0x1000096A0, symSize: 0x30 }
  - { offset: 0x11917, size: 0x8, addend: 0x0, symName: __ZNSt3__14pairIPiS1_EC2B8ne180100IRS1_S1_Li0EEEOT_OT0_, symObjAddr: 0x8260, symBinAddr: 0x1000096D0, symSize: 0x30 }
  - { offset: 0x11975, size: 0x8, addend: 0x0, symName: __ZNSt3__119__unwrap_range_implIPiS1_E8__rewrapB8ne180100ES1_S1_, symObjAddr: 0x8290, symBinAddr: 0x100009700, symSize: 0x30 }
  - { offset: 0x119A6, size: 0x8, addend: 0x0, symName: __ZNSt3__118__unwrap_iter_implIPiLb1EE8__unwrapB8ne180100ES1_, symObjAddr: 0x82C0, symBinAddr: 0x100009730, symSize: 0x20 }
  - { offset: 0x119C9, size: 0x8, addend: 0x0, symName: __ZNSt3__118__unwrap_iter_implIPiLb1EE8__rewrapB8ne180100ES1_S1_, symObjAddr: 0x82E0, symBinAddr: 0x100009750, symSize: 0x50 }
  - { offset: 0x119FA, size: 0x8, addend: 0x0, symName: __ZNSt3__128__exception_guard_exceptionsINS_6vectorIiNS_9allocatorIiEEE16__destroy_vectorEED2B8ne180100Ev, symObjAddr: 0x8330, symBinAddr: 0x1000097A0, symSize: 0x30 }
  - { offset: 0x11A24, size: 0x8, addend: 0x0, symName: __ZNSt3__114priority_queueIiNS_6vectorIiNS_9allocatorIiEEEENS_7greaterIiEEEC2B8ne180100Ev, symObjAddr: 0x8360, symBinAddr: 0x1000097D0, symSize: 0x20 }
  - { offset: 0x11A4E, size: 0x8, addend: 0x0, symName: __ZNSt3__16vectorIiNS_9allocatorIiEEEC1B8ne180100Ev, symObjAddr: 0x8380, symBinAddr: 0x1000097F0, symSize: 0x20 }
  - { offset: 0x11A78, size: 0x8, addend: 0x0, symName: __ZNSt3__16vectorIiNS_9allocatorIiEEEC2B8ne180100Ev, symObjAddr: 0x83A0, symBinAddr: 0x100009810, symSize: 0x50 }
  - { offset: 0x11AA2, size: 0x8, addend: 0x0, symName: __ZNSt3__117__compressed_pairIPiNS_9allocatorIiEEEC1B8ne180100IDnNS_18__default_init_tagEEEOT_OT0_, symObjAddr: 0x83F0, symBinAddr: 0x100009860, symSize: 0x30 }
  - { offset: 0x11AFA, size: 0x8, addend: 0x0, symName: __ZNSt3__117__compressed_pairIPiNS_9allocatorIiEEEC2B8ne180100IDnNS_18__default_init_tagEEEOT_OT0_, symObjAddr: 0x8420, symBinAddr: 0x100009890, symSize: 0x40 }
  - { offset: 0x11B52, size: 0x8, addend: 0x0, symName: __ZNSt3__122__compressed_pair_elemINS_9allocatorIiEELi1ELb1EEC2B8ne180100ENS_18__default_init_tagE, symObjAddr: 0x8460, symBinAddr: 0x1000098D0, symSize: 0x20 }
  - { offset: 0x11B86, size: 0x8, addend: 0x0, symName: __ZNSt3__19allocatorIiEC2B8ne180100Ev, symObjAddr: 0x8480, symBinAddr: 0x1000098F0, symSize: 0x20 }
  - { offset: 0x11BB0, size: 0x8, addend: 0x0, symName: __ZNSt3__116__non_trivial_ifILb1ENS_9allocatorIiEEEC2B8ne180100Ev, symObjAddr: 0x84A0, symBinAddr: 0x100009910, symSize: 0x10 }
  - { offset: 0x11BDA, size: 0x8, addend: 0x0, symName: __ZNKSt3__19basic_iosIcNS_11char_traitsIcEEE5widenB8ne180100Ec, symObjAddr: 0x84B0, symBinAddr: 0x100009920, symSize: 0x80 }
  - { offset: 0x11C4E, size: 0x8, addend: 0x0, symName: __ZNKSt3__15ctypeIcE5widenB8ne180100Ec, symObjAddr: 0x8560, symBinAddr: 0x1000099D0, symSize: 0x2B }
...
