---
triple:          'x86_64-apple-darwin'
binary-path:     d
relocations:
  - { offset: 0x66, size: 0x8, addend: 0x0, symName: __ZNSt3__16ranges5__cpo9iter_moveE, symObjAddr: 0x5BC9, symBinAddr: 0x100006D9D, symSize: 0x0 }
  - { offset: 0x6924, size: 0x8, addend: 0x0, symName: __ZNSt3__124__put_character_sequenceB8ne180100IcNS_11char_traitsIcEEEERNS_13basic_ostreamIT_T0_EES7_PKS4_m, symObjAddr: 0x4EA0, symBinAddr: 0x100005F90, symSize: 0x1F0 }
  - { offset: 0x7D5F, size: 0x8, addend: 0x0, symName: __ZNSt3__13maxB8ne180100IiEERKT_S3_S3_, symObjAddr: 0x6F0, symBinAddr: 0x1000017E0, symSize: 0x30 }
  - { offset: 0x7DA2, size: 0x8, addend: 0x0, symName: __ZNSt3__1lsB8ne180100INS_11char_traitsIcEEEERNS_13basic_ostreamIcT_EES6_PKc, symObjAddr: 0x750, symBinAddr: 0x100001840, symSize: 0x40 }
  - { offset: 0x7DE8, size: 0x8, addend: 0x0, symName: __ZNSt3__14endlB8ne180100IcNS_11char_traitsIcEEEERNS_13basic_ostreamIT_T0_EES7_, symObjAddr: 0x7B0, symBinAddr: 0x1000018A0, symSize: 0x50 }
  - { offset: 0x7E28, size: 0x8, addend: 0x0, symName: __ZNSt3__122__make_exception_guardB8ne180100INS_6vectorIiNS_9allocatorIiEEE16__destroy_vectorEEENS_28__exception_guard_exceptionsIT_EES7_, symObjAddr: 0x940, symBinAddr: 0x100001A30, symSize: 0x40 }
  - { offset: 0x7E5D, size: 0x8, addend: 0x0, symName: __ZNSt3__119__allocate_at_leastB8ne180100INS_9allocatorIiEEEENS_19__allocation_resultINS_16allocator_traitsIT_E7pointerEEERS5_m, symObjAddr: 0xCF0, symBinAddr: 0x100001DE0, symSize: 0x40 }
  - { offset: 0x7EA0, size: 0x8, addend: 0x0, symName: __ZNSt3__13minB8ne180100ImEERKT_S3_S3_, symObjAddr: 0xD80, symBinAddr: 0x100001E70, symSize: 0x30 }
  - { offset: 0x80CD, size: 0x8, addend: 0x0, symName: __ZNSt3__13minB8ne180100ImNS_6__lessIvvEEEERKT_S5_S5_T0_, symObjAddr: 0xE10, symBinAddr: 0x100001F00, symSize: 0x50 }
  - { offset: 0x8389, size: 0x8, addend: 0x0, symName: __ZNSt3__120__throw_length_errorB8ne180100EPKc, symObjAddr: 0xEF0, symBinAddr: 0x100001FE0, symSize: 0x70 }
  - { offset: 0x83B1, size: 0x8, addend: 0x0, symName: __ZNSt3__117__libcpp_allocateB8ne180100Emm, symObjAddr: 0x1060, symBinAddr: 0x100002150, symSize: 0x60 }
  - { offset: 0x840B, size: 0x8, addend: 0x0, symName: __ZNSt3__124__is_overaligned_for_newB8ne180100Em, symObjAddr: 0x10C0, symBinAddr: 0x1000021B0, symSize: 0x20 }
  - { offset: 0x8439, size: 0x8, addend: 0x0, symName: __ZNSt3__121__libcpp_operator_newB8ne180100IJmSt11align_val_tEEEPvDpT_, symObjAddr: 0x10E0, symBinAddr: 0x1000021D0, symSize: 0x30 }
  - { offset: 0x8486, size: 0x8, addend: 0x0, symName: __ZNSt3__121__libcpp_operator_newB8ne180100IJmEEEPvDpT_, symObjAddr: 0x1110, symBinAddr: 0x100002200, symSize: 0x20 }
  - { offset: 0x84BF, size: 0x8, addend: 0x0, symName: __ZNSt3__112__to_addressB8ne180100IiEEPT_S2_, symObjAddr: 0x11E0, symBinAddr: 0x1000022D0, symSize: 0x10 }
  - { offset: 0x84F4, size: 0x8, addend: 0x0, symName: __ZNSt3__114__construct_atB8ne180100IiJEPiEEPT_S3_DpOT0_, symObjAddr: 0x1250, symBinAddr: 0x100002340, symSize: 0x20 }
  - { offset: 0x8533, size: 0x8, addend: 0x0, symName: __ZNSt3__112construct_atB8ne180100IiJEPiEEPT_S3_DpOT0_, symObjAddr: 0x1270, symBinAddr: 0x100002360, symSize: 0x20 }
  - { offset: 0x8572, size: 0x8, addend: 0x0, symName: __ZNSt3__112__destroy_atB8ne180100IiLi0EEEvPT_, symObjAddr: 0x14A0, symBinAddr: 0x100002590, symSize: 0x10 }
  - { offset: 0x85A9, size: 0x8, addend: 0x0, symName: __ZNSt3__119__libcpp_deallocateB8ne180100EPvmm, symObjAddr: 0x14F0, symBinAddr: 0x1000025E0, symSize: 0x60 }
  - { offset: 0x860E, size: 0x8, addend: 0x0, symName: __ZNSt3__127__do_deallocate_handle_sizeB8ne180100IJSt11align_val_tEEEvPvmDpT_, symObjAddr: 0x1550, symBinAddr: 0x100002640, symSize: 0x30 }
  - { offset: 0x8661, size: 0x8, addend: 0x0, symName: __ZNSt3__127__do_deallocate_handle_sizeB8ne180100IJEEEvPvmDpT_, symObjAddr: 0x1580, symBinAddr: 0x100002670, symSize: 0x20 }
  - { offset: 0x869F, size: 0x8, addend: 0x0, symName: __ZNSt3__124__libcpp_operator_deleteB8ne180100IJPvSt11align_val_tEEEvDpT_, symObjAddr: 0x15A0, symBinAddr: 0x100002690, symSize: 0x30 }
  - { offset: 0x86E8, size: 0x8, addend: 0x0, symName: __ZNSt3__124__libcpp_operator_deleteB8ne180100IJPvEEEvDpT_, symObjAddr: 0x15D0, symBinAddr: 0x1000026C0, symSize: 0x20 }
  - { offset: 0x871D, size: 0x8, addend: 0x0, symName: __ZNSt3__13maxB8ne180100IiNS_6__lessIvvEEEERKT_S5_S5_T0_, symObjAddr: 0x1640, symBinAddr: 0x100002730, symSize: 0x50 }
  - { offset: 0x8777, size: 0x8, addend: 0x0, symName: __ZNSt3__1neB8ne180100ERKNS_16__deque_iteratorIiPiRiPS1_lLl1024EEES6_, symObjAddr: 0x1B20, symBinAddr: 0x100002C10, symSize: 0x30 }
  - { offset: 0x87B4, size: 0x8, addend: 0x0, symName: __ZNSt3__1eqB8ne180100ERKNS_16__deque_iteratorIiPiRiPS1_lLl1024EEES6_, symObjAddr: 0x1D60, symBinAddr: 0x100002E50, symSize: 0x30 }
  - { offset: 0x87F1, size: 0x8, addend: 0x0, symName: __ZNSt3__112__to_addressB8ne180100IPiEEPT_S3_, symObjAddr: 0x2010, symBinAddr: 0x100003100, symSize: 0x10 }
  - { offset: 0x8826, size: 0x8, addend: 0x0, symName: __ZNSt3__112__destroy_atB8ne180100IPiLi0EEEvPT_, symObjAddr: 0x2020, symBinAddr: 0x100003110, symSize: 0x10 }
  - { offset: 0x885D, size: 0x8, addend: 0x0, symName: __ZNSt3__13maxB8ne180100ImEERKT_S3_S3_, symObjAddr: 0x33D0, symBinAddr: 0x1000044C0, symSize: 0x30 }
  - { offset: 0x8C3D, size: 0x8, addend: 0x0, symName: __ZNSt3__14swapB8ne180100IPPiEENS_9enable_ifIXaasr21is_move_constructibleIT_EE5valuesr18is_move_assignableIS4_EE5valueEvE4typeERS4_S7_, symObjAddr: 0x3A00, symBinAddr: 0x100004AF0, symSize: 0x40 }
  - { offset: 0x8C8E, size: 0x8, addend: 0x0, symName: __ZNSt3__14moveB8ne180100IPPiS2_EET0_T_S4_S3_, symObjAddr: 0x3AC0, symBinAddr: 0x100004BB0, symSize: 0x40 }
  - { offset: 0x8CE8, size: 0x8, addend: 0x0, symName: __ZNSt3__16__moveB8ne180100INS_17_ClassicAlgPolicyEPPiS3_S3_EENS_4pairIT0_T2_EES5_T1_S6_, symObjAddr: 0x3BC0, symBinAddr: 0x100004CB0, symSize: 0x40 }
  - { offset: 0x8D54, size: 0x8, addend: 0x0, symName: __ZNSt3__123__dispatch_copy_or_moveB8ne180100INS_17_ClassicAlgPolicyENS_11__move_loopIS1_EENS_14__move_trivialEPPiS6_S6_EENS_4pairIT2_T4_EES8_T3_S9_, symObjAddr: 0x3C00, symBinAddr: 0x100004CF0, symSize: 0x40 }
  - { offset: 0x8DD2, size: 0x8, addend: 0x0, symName: __ZNSt3__121__unwrap_and_dispatchB8ne180100INS_10__overloadINS_11__move_loopINS_17_ClassicAlgPolicyEEENS_14__move_trivialEEEPPiS8_S8_Li0EEENS_4pairIT0_T2_EESA_T1_SB_, symObjAddr: 0x3C40, symBinAddr: 0x100004D30, symSize: 0xB0 }
  - { offset: 0x8E61, size: 0x8, addend: 0x0, symName: __ZNSt3__114__unwrap_rangeB8ne180100IPPiS2_EEDaT_T0_, symObjAddr: 0x3CF0, symBinAddr: 0x100004DE0, symSize: 0x40 }
  - { offset: 0x9025, size: 0x8, addend: 0x0, symName: __ZNSt3__113__unwrap_iterB8ne180100IPPiNS_18__unwrap_iter_implIS2_Lb1EEELi0EEEDTclsrT0_8__unwrapclsr3stdE7declvalIT_EEEES6_, symObjAddr: 0x3D70, symBinAddr: 0x100004E60, symSize: 0x20 }
  - { offset: 0x9069, size: 0x8, addend: 0x0, symName: __ZNSt3__19make_pairB8ne180100IPPiS2_EENS_4pairINS_18__unwrap_ref_decayIT_E4typeENS4_IT0_E4typeEEEOS5_OS8_, symObjAddr: 0x3D90, symBinAddr: 0x100004E80, symSize: 0x30 }
  - { offset: 0x90B8, size: 0x8, addend: 0x0, symName: __ZNSt3__114__rewrap_rangeB8ne180100IPPiS2_S2_EET0_S3_T1_, symObjAddr: 0x3DC0, symBinAddr: 0x100004EB0, symSize: 0x30 }
  - { offset: 0x910D, size: 0x8, addend: 0x0, symName: __ZNSt3__113__rewrap_iterB8ne180100IPPiS2_NS_18__unwrap_iter_implIS2_Lb1EEEEET_S5_T0_, symObjAddr: 0x3DF0, symBinAddr: 0x100004EE0, symSize: 0x40 }
  - { offset: 0x91B2, size: 0x8, addend: 0x0, symName: __ZNSt3__119__copy_trivial_implB8ne180100IPiS1_EENS_4pairIPT_PT0_EES4_S4_S6_, symObjAddr: 0x3EE0, symBinAddr: 0x100004FD0, symSize: 0x70 }
  - { offset: 0x921A, size: 0x8, addend: 0x0, symName: __ZNSt3__119__constexpr_memmoveB8ne180100IPiS1_Li0EEEPT_S3_PT0_NS_15__element_countE, symObjAddr: 0x3F50, symBinAddr: 0x100005040, symSize: 0x50 }
  - { offset: 0x9288, size: 0x8, addend: 0x0, symName: __ZNSt3__19make_pairB8ne180100IRPPiS2_EENS_4pairINS_18__unwrap_ref_decayIT_E4typeENS5_IT0_E4typeEEEOS6_OS9_, symObjAddr: 0x3FA0, symBinAddr: 0x100005090, symSize: 0x30 }
  - { offset: 0x932A, size: 0x8, addend: 0x0, symName: __ZNSt3__18distanceB8ne180100INS_13move_iteratorIPPiEEEENS_15iterator_traitsIT_E15difference_typeES6_S6_, symObjAddr: 0x41B0, symBinAddr: 0x1000052A0, symSize: 0x40 }
  - { offset: 0x936D, size: 0x8, addend: 0x0, symName: __ZNSt3__114__construct_atB8ne180100IPiJS1_EPS1_EEPT_S4_DpOT0_, symObjAddr: 0x4320, symBinAddr: 0x100005410, symSize: 0x30 }
  - { offset: 0x93C0, size: 0x8, addend: 0x0, symName: __ZNSt3__112construct_atB8ne180100IPiJS1_EPS1_EEPT_S4_DpOT0_, symObjAddr: 0x4350, symBinAddr: 0x100005440, symSize: 0x20 }
  - { offset: 0x9413, size: 0x8, addend: 0x0, symName: __ZNSt3__110__distanceB8ne180100INS_13move_iteratorIPPiEEEENS_15iterator_traitsIT_E15difference_typeES6_S6_NS_26random_access_iterator_tagE, symObjAddr: 0x43F0, symBinAddr: 0x1000054E0, symSize: 0x30 }
  - { offset: 0x9460, size: 0x8, addend: 0x0, symName: __ZNSt3__1miB8ne180100IPPiS2_EEDTmicldtfp_4baseEcldtfp0_4baseEERKNS_13move_iteratorIT_EERKNS4_IT0_EE, symObjAddr: 0x4420, symBinAddr: 0x100005510, symSize: 0x40 }
  - { offset: 0x94AF, size: 0x8, addend: 0x0, symName: __ZNSt3__114__construct_atB8ne180100IPiJRKS1_EPS1_EEPT_S6_DpOT0_, symObjAddr: 0x4490, symBinAddr: 0x100005580, symSize: 0x30 }
  - { offset: 0x9502, size: 0x8, addend: 0x0, symName: __ZNSt3__112construct_atB8ne180100IPiJRKS1_EPS1_EEPT_S6_DpOT0_, symObjAddr: 0x44C0, symBinAddr: 0x1000055B0, symSize: 0x20 }
  - { offset: 0x9555, size: 0x8, addend: 0x0, symName: __ZNSt3__113move_backwardB8ne180100IPPiS2_EET0_T_S4_S3_, symObjAddr: 0x44E0, symBinAddr: 0x1000055D0, symSize: 0x40 }
  - { offset: 0x95AF, size: 0x8, addend: 0x0, symName: __ZNSt3__115__move_backwardB8ne180100INS_17_ClassicAlgPolicyEPPiS3_S3_EENS_4pairIT0_T2_EES5_T1_S6_, symObjAddr: 0x4520, symBinAddr: 0x100005610, symSize: 0x40 }
  - { offset: 0x961B, size: 0x8, addend: 0x0, symName: __ZNSt3__123__dispatch_copy_or_moveB8ne180100INS_17_ClassicAlgPolicyENS_20__move_backward_loopIS1_EENS_23__move_backward_trivialEPPiS6_S6_EENS_4pairIT2_T4_EES8_T3_S9_, symObjAddr: 0x4560, symBinAddr: 0x100005650, symSize: 0x40 }
  - { offset: 0x9699, size: 0x8, addend: 0x0, symName: __ZNSt3__121__unwrap_and_dispatchB8ne180100INS_10__overloadINS_20__move_backward_loopINS_17_ClassicAlgPolicyEEENS_23__move_backward_trivialEEEPPiS8_S8_Li0EEENS_4pairIT0_T2_EESA_T1_SB_, symObjAddr: 0x45A0, symBinAddr: 0x100005690, symSize: 0xB0 }
  - { offset: 0x976E, size: 0x8, addend: 0x0, symName: __ZNSt3__128__copy_backward_trivial_implB8ne180100IPiS1_EENS_4pairIPT_PT0_EES4_S4_S6_, symObjAddr: 0x4690, symBinAddr: 0x100005780, symSize: 0x70 }
  - { offset: 0x97D6, size: 0x8, addend: 0x0, symName: __ZNSt3__19make_pairB8ne180100IRPPiS3_EENS_4pairINS_18__unwrap_ref_decayIT_E4typeENS5_IT0_E4typeEEEOS6_OS9_, symObjAddr: 0x4700, symBinAddr: 0x1000057F0, symSize: 0x30 }
  - { offset: 0x9825, size: 0x8, addend: 0x0, symName: __ZNSt3__13maxB8ne180100ImNS_6__lessIvvEEEERKT_S5_S5_T0_, symObjAddr: 0x4790, symBinAddr: 0x100005880, symSize: 0x50 }
  - { offset: 0x987F, size: 0x8, addend: 0x0, symName: __ZNSt3__119__allocate_at_leastB8ne180100INS_9allocatorIPiEEEENS_19__allocation_resultINS_16allocator_traitsIT_E7pointerEEERS6_m, symObjAddr: 0x48E0, symBinAddr: 0x1000059D0, symSize: 0x40 }
  - { offset: 0x98C2, size: 0x8, addend: 0x0, symName: __ZNSt3__114__construct_atB8ne180100IiJRKiEPiEEPT_S5_DpOT0_, symObjAddr: 0x4E50, symBinAddr: 0x100005F40, symSize: 0x30 }
  - { offset: 0x9915, size: 0x8, addend: 0x0, symName: __ZNSt3__112construct_atB8ne180100IiJRKiEPiEEPT_S5_DpOT0_, symObjAddr: 0x4E80, symBinAddr: 0x100005F70, symSize: 0x20 }
  - { offset: 0x9968, size: 0x8, addend: 0x0, symName: __ZNSt3__116__pad_and_outputB8ne180100IcNS_11char_traitsIcEEEENS_19ostreambuf_iteratorIT_T0_EES6_PKS4_S8_S8_RNS_8ios_baseES4_, symObjAddr: 0x50E0, symBinAddr: 0x1000061D0, symSize: 0x220 }
  - { offset: 0x9A38, size: 0x8, addend: 0x0, symName: __ZNSt3__112__to_addressB8ne180100IcEEPT_S2_, symObjAddr: 0x5600, symBinAddr: 0x1000066F0, symSize: 0x10 }
  - { offset: 0x9A6D, size: 0x8, addend: 0x0, symName: __ZNSt3__19use_facetB8ne180100INS_5ctypeIcEEEERKT_RKNS_6localeE, symObjAddr: 0x5890, symBinAddr: 0x100006980, symSize: 0x30 }
  - { offset: 0x9F3A, size: 0x8, addend: 0x0, symName: __ZNSt3__118__constexpr_strlenB8ne180100EPKc, symObjAddr: 0x5920, symBinAddr: 0x100006A10, symSize: 0x1B }
  - { offset: 0xAEC9, size: 0x8, addend: 0x0, symName: __ZSt28__throw_bad_array_new_lengthB8ne180100v, symObjAddr: 0x1020, symBinAddr: 0x100002110, symSize: 0x40 }
  - { offset: 0xB67F, size: 0x8, addend: 0x0, symName: _main, symObjAddr: 0x0, symBinAddr: 0x1000010F0, symSize: 0x620 }
  - { offset: 0xB769, size: 0x8, addend: 0x0, symName: __ZNSt3__16vectorIiNS_9allocatorIiEEEC1Em, symObjAddr: 0x620, symBinAddr: 0x100001710, symSize: 0x30 }
  - { offset: 0xB7A4, size: 0x8, addend: 0x0, symName: __ZNSt3__16vectorIiNS_9allocatorIiEEEixB8ne180100Em, symObjAddr: 0x650, symBinAddr: 0x100001740, symSize: 0x20 }
  - { offset: 0xB817, size: 0x8, addend: 0x0, symName: __ZNSt3__15stackIiNS_5dequeIiNS_9allocatorIiEEEEEC1B8ne180100Ev, symObjAddr: 0x670, symBinAddr: 0x100001760, symSize: 0x20 }
  - { offset: 0xB841, size: 0x8, addend: 0x0, symName: __ZNKSt3__15stackIiNS_5dequeIiNS_9allocatorIiEEEEE5emptyB8ne180100Ev, symObjAddr: 0x690, symBinAddr: 0x100001780, symSize: 0x20 }
  - { offset: 0xB867, size: 0x8, addend: 0x0, symName: __ZNSt3__15stackIiNS_5dequeIiNS_9allocatorIiEEEEE3topB8ne180100Ev, symObjAddr: 0x6B0, symBinAddr: 0x1000017A0, symSize: 0x20 }
  - { offset: 0xB88D, size: 0x8, addend: 0x0, symName: __ZNSt3__15stackIiNS_5dequeIiNS_9allocatorIiEEEEE3popB8ne180100Ev, symObjAddr: 0x6D0, symBinAddr: 0x1000017C0, symSize: 0x20 }
  - { offset: 0xB8B3, size: 0x8, addend: 0x0, symName: __ZNSt3__15stackIiNS_5dequeIiNS_9allocatorIiEEEEE4pushB8ne180100ERKi, symObjAddr: 0x720, symBinAddr: 0x100001810, symSize: 0x30 }
  - { offset: 0xB8E7, size: 0x8, addend: 0x0, symName: __ZNSt3__113basic_ostreamIcNS_11char_traitsIcEEElsB8ne180100EPFRS3_S4_E, symObjAddr: 0x790, symBinAddr: 0x100001880, symSize: 0x20 }
  - { offset: 0xB91B, size: 0x8, addend: 0x0, symName: __ZNSt3__15stackIiNS_5dequeIiNS_9allocatorIiEEEEED1Ev, symObjAddr: 0x800, symBinAddr: 0x1000018F0, symSize: 0x20 }
  - { offset: 0xB947, size: 0x8, addend: 0x0, symName: __ZNSt3__16vectorIiNS_9allocatorIiEEED1B8ne180100Ev, symObjAddr: 0x820, symBinAddr: 0x100001910, symSize: 0x20 }
  - { offset: 0xB971, size: 0x8, addend: 0x0, symName: __ZNSt3__16vectorIiNS_9allocatorIiEEEC2Em, symObjAddr: 0x840, symBinAddr: 0x100001930, symSize: 0xD0 }
  - { offset: 0xB9CB, size: 0x8, addend: 0x0, symName: __ZNSt3__117__compressed_pairIPiNS_9allocatorIiEEEC1B8ne180100IDnNS_18__default_init_tagEEEOT_OT0_, symObjAddr: 0x910, symBinAddr: 0x100001A00, symSize: 0x30 }
  - { offset: 0xBA23, size: 0x8, addend: 0x0, symName: __ZNSt3__16vectorIiNS_9allocatorIiEEE16__destroy_vectorC1B8ne180100ERS3_, symObjAddr: 0x980, symBinAddr: 0x100001A70, symSize: 0x30 }
  - { offset: 0xBA5C, size: 0x8, addend: 0x0, symName: __ZNSt3__16vectorIiNS_9allocatorIiEEE11__vallocateB8ne180100Em, symObjAddr: 0x9B0, symBinAddr: 0x100001AA0, symSize: 0xA0 }
  - { offset: 0xBAA0, size: 0x8, addend: 0x0, symName: __ZNSt3__16vectorIiNS_9allocatorIiEEE18__construct_at_endEm, symObjAddr: 0xA50, symBinAddr: 0x100001B40, symSize: 0xC0 }
  - { offset: 0xBB12, size: 0x8, addend: 0x0, symName: __ZNSt3__128__exception_guard_exceptionsINS_6vectorIiNS_9allocatorIiEEE16__destroy_vectorEE10__completeB8ne180100Ev, symObjAddr: 0xB10, symBinAddr: 0x100001C00, symSize: 0x20 }
  - { offset: 0xBB38, size: 0x8, addend: 0x0, symName: __ZNSt3__128__exception_guard_exceptionsINS_6vectorIiNS_9allocatorIiEEE16__destroy_vectorEED1B8ne180100Ev, symObjAddr: 0xB30, symBinAddr: 0x100001C20, symSize: 0x20 }
  - { offset: 0xBB62, size: 0x8, addend: 0x0, symName: __ZNSt3__117__compressed_pairIPiNS_9allocatorIiEEEC2B8ne180100IDnNS_18__default_init_tagEEEOT_OT0_, symObjAddr: 0xB50, symBinAddr: 0x100001C40, symSize: 0x40 }
  - { offset: 0xBBBA, size: 0x8, addend: 0x0, symName: __ZNSt3__122__compressed_pair_elemIPiLi0ELb0EEC2B8ne180100IDnvEEOT_, symObjAddr: 0xB90, symBinAddr: 0x100001C80, symSize: 0x20 }
  - { offset: 0xBBFC, size: 0x8, addend: 0x0, symName: __ZNSt3__122__compressed_pair_elemINS_9allocatorIiEELi1ELb1EEC2B8ne180100ENS_18__default_init_tagE, symObjAddr: 0xBB0, symBinAddr: 0x100001CA0, symSize: 0x20 }
  - { offset: 0xBC30, size: 0x8, addend: 0x0, symName: __ZNSt3__19allocatorIiEC2B8ne180100Ev, symObjAddr: 0xBD0, symBinAddr: 0x100001CC0, symSize: 0x20 }
  - { offset: 0xBC5A, size: 0x8, addend: 0x0, symName: __ZNSt3__116__non_trivial_ifILb1ENS_9allocatorIiEEEC2B8ne180100Ev, symObjAddr: 0xBF0, symBinAddr: 0x100001CE0, symSize: 0x10 }
  - { offset: 0xBC84, size: 0x8, addend: 0x0, symName: __ZNSt3__128__exception_guard_exceptionsINS_6vectorIiNS_9allocatorIiEEE16__destroy_vectorEEC1B8ne180100ES5_, symObjAddr: 0xC00, symBinAddr: 0x100001CF0, symSize: 0x30 }
  - { offset: 0xBCBC, size: 0x8, addend: 0x0, symName: __ZNSt3__128__exception_guard_exceptionsINS_6vectorIiNS_9allocatorIiEEE16__destroy_vectorEEC2B8ne180100ES5_, symObjAddr: 0xC30, symBinAddr: 0x100001D20, symSize: 0x20 }
  - { offset: 0xBCF4, size: 0x8, addend: 0x0, symName: __ZNSt3__16vectorIiNS_9allocatorIiEEE16__destroy_vectorC2B8ne180100ERS3_, symObjAddr: 0xC50, symBinAddr: 0x100001D40, symSize: 0x20 }
  - { offset: 0xBD2D, size: 0x8, addend: 0x0, symName: __ZNKSt3__16vectorIiNS_9allocatorIiEEE8max_sizeEv, symObjAddr: 0xC70, symBinAddr: 0x100001D60, symSize: 0x60 }
  - { offset: 0xBD55, size: 0x8, addend: 0x0, symName: __ZNKSt3__16vectorIiNS_9allocatorIiEEE20__throw_length_errorB8ne180100Ev, symObjAddr: 0xCD0, symBinAddr: 0x100001DC0, symSize: 0x20 }
  - { offset: 0xBD7B, size: 0x8, addend: 0x0, symName: __ZNSt3__16vectorIiNS_9allocatorIiEEE7__allocB8ne180100Ev, symObjAddr: 0xD30, symBinAddr: 0x100001E20, symSize: 0x20 }
  - { offset: 0xBDA1, size: 0x8, addend: 0x0, symName: __ZNSt3__16vectorIiNS_9allocatorIiEEE9__end_capB8ne180100Ev, symObjAddr: 0xD50, symBinAddr: 0x100001E40, symSize: 0x20 }
  - { offset: 0xBDC7, size: 0x8, addend: 0x0, symName: __ZNKSt3__16vectorIiNS_9allocatorIiEEE14__annotate_newB8ne180100Em, symObjAddr: 0xD70, symBinAddr: 0x100001E60, symSize: 0x10 }
  - { offset: 0xBE06, size: 0x8, addend: 0x0, symName: __ZNSt3__116allocator_traitsINS_9allocatorIiEEE8max_sizeB8ne180100IS2_vvEEmRKS2_, symObjAddr: 0xDB0, symBinAddr: 0x100001EA0, symSize: 0x20 }
  - { offset: 0xBE32, size: 0x8, addend: 0x0, symName: __ZNKSt3__16vectorIiNS_9allocatorIiEEE7__allocB8ne180100Ev, symObjAddr: 0xDD0, symBinAddr: 0x100001EC0, symSize: 0x20 }
  - { offset: 0xBE58, size: 0x8, addend: 0x0, symName: __ZNSt3__114numeric_limitsIlE3maxB8ne180100Ev, symObjAddr: 0xDF0, symBinAddr: 0x100001EE0, symSize: 0x10 }
  - { offset: 0xBE76, size: 0x8, addend: 0x0, symName: __ZNKSt3__16__lessIvvEclB8ne180100ImmEEbRKT_RKT0_, symObjAddr: 0xE60, symBinAddr: 0x100001F50, symSize: 0x30 }
  - { offset: 0xBECA, size: 0x8, addend: 0x0, symName: __ZNSt3__114numeric_limitsImE3maxB8ne180100Ev, symObjAddr: 0xE90, symBinAddr: 0x100001F80, symSize: 0x10 }
  - { offset: 0xBEDE, size: 0x8, addend: 0x0, symName: __ZNSt3__123__libcpp_numeric_limitsImLb1EE3maxB8ne180100Ev, symObjAddr: 0xEA0, symBinAddr: 0x100001F90, symSize: 0x10 }
  - { offset: 0xBEF2, size: 0x8, addend: 0x0, symName: __ZNKSt3__117__compressed_pairIPiNS_9allocatorIiEEE6secondB8ne180100Ev, symObjAddr: 0xEB0, symBinAddr: 0x100001FA0, symSize: 0x20 }
  - { offset: 0xBF18, size: 0x8, addend: 0x0, symName: __ZNKSt3__122__compressed_pair_elemINS_9allocatorIiEELi1ELb1EE5__getB8ne180100Ev, symObjAddr: 0xED0, symBinAddr: 0x100001FC0, symSize: 0x10 }
  - { offset: 0xBF3E, size: 0x8, addend: 0x0, symName: __ZNSt3__123__libcpp_numeric_limitsIlLb1EE3maxB8ne180100Ev, symObjAddr: 0xEE0, symBinAddr: 0x100001FD0, symSize: 0x10 }
  - { offset: 0xBF52, size: 0x8, addend: 0x0, symName: __ZNSt12length_errorC1B8ne180100EPKc, symObjAddr: 0xF60, symBinAddr: 0x100002050, symSize: 0x30 }
  - { offset: 0xBF8A, size: 0x8, addend: 0x0, symName: __ZNSt12length_errorC2B8ne180100EPKc, symObjAddr: 0xF90, symBinAddr: 0x100002080, symSize: 0x40 }
  - { offset: 0xBFC2, size: 0x8, addend: 0x0, symName: __ZNSt3__19allocatorIiE8allocateB8ne180100Em, symObjAddr: 0xFD0, symBinAddr: 0x1000020C0, symSize: 0x50 }
  - { offset: 0xBFF6, size: 0x8, addend: 0x0, symName: __ZNSt3__117__compressed_pairIPiNS_9allocatorIiEEE6secondB8ne180100Ev, symObjAddr: 0x1130, symBinAddr: 0x100002220, symSize: 0x20 }
  - { offset: 0xC01C, size: 0x8, addend: 0x0, symName: __ZNSt3__122__compressed_pair_elemINS_9allocatorIiEELi1ELb1EE5__getB8ne180100Ev, symObjAddr: 0x1150, symBinAddr: 0x100002240, symSize: 0x10 }
  - { offset: 0xC042, size: 0x8, addend: 0x0, symName: __ZNSt3__117__compressed_pairIPiNS_9allocatorIiEEE5firstB8ne180100Ev, symObjAddr: 0x1160, symBinAddr: 0x100002250, symSize: 0x20 }
  - { offset: 0xC068, size: 0x8, addend: 0x0, symName: __ZNSt3__122__compressed_pair_elemIPiLi0ELb0EE5__getB8ne180100Ev, symObjAddr: 0x1180, symBinAddr: 0x100002270, symSize: 0x10 }
  - { offset: 0xC0A7, size: 0x8, addend: 0x0, symName: __ZNSt3__16vectorIiNS_9allocatorIiEEE21_ConstructTransactionC1B8ne180100ERS3_m, symObjAddr: 0x1190, symBinAddr: 0x100002280, symSize: 0x30 }
  - { offset: 0xC0EF, size: 0x8, addend: 0x0, symName: __ZNSt3__116allocator_traitsINS_9allocatorIiEEE9constructB8ne180100IiJEvvEEvRS2_PT_DpOT0_, symObjAddr: 0x11C0, symBinAddr: 0x1000022B0, symSize: 0x20 }
  - { offset: 0xC12F, size: 0x8, addend: 0x0, symName: __ZNSt3__16vectorIiNS_9allocatorIiEEE21_ConstructTransactionD1B8ne180100Ev, symObjAddr: 0x11F0, symBinAddr: 0x1000022E0, symSize: 0x20 }
  - { offset: 0xC159, size: 0x8, addend: 0x0, symName: __ZNSt3__16vectorIiNS_9allocatorIiEEE21_ConstructTransactionC2B8ne180100ERS3_m, symObjAddr: 0x1210, symBinAddr: 0x100002300, symSize: 0x40 }
  - { offset: 0xC1A1, size: 0x8, addend: 0x0, symName: __ZNSt3__16vectorIiNS_9allocatorIiEEE21_ConstructTransactionD2B8ne180100Ev, symObjAddr: 0x1290, symBinAddr: 0x100002380, symSize: 0x20 }
  - { offset: 0xC1CB, size: 0x8, addend: 0x0, symName: __ZNSt3__128__exception_guard_exceptionsINS_6vectorIiNS_9allocatorIiEEE16__destroy_vectorEED2B8ne180100Ev, symObjAddr: 0x12B0, symBinAddr: 0x1000023A0, symSize: 0x40 }
  - { offset: 0xC1F5, size: 0x8, addend: 0x0, symName: __ZNSt3__16vectorIiNS_9allocatorIiEEE16__destroy_vectorclB8ne180100Ev, symObjAddr: 0x12F0, symBinAddr: 0x1000023E0, symSize: 0x80 }
  - { offset: 0xC21B, size: 0x8, addend: 0x0, symName: __ZNSt3__16vectorIiNS_9allocatorIiEEE7__clearB8ne180100Ev, symObjAddr: 0x1370, symBinAddr: 0x100002460, symSize: 0x20 }
  - { offset: 0xC241, size: 0x8, addend: 0x0, symName: __ZNKSt3__16vectorIiNS_9allocatorIiEEE17__annotate_deleteB8ne180100Ev, symObjAddr: 0x1390, symBinAddr: 0x100002480, symSize: 0x10 }
  - { offset: 0xC267, size: 0x8, addend: 0x0, symName: __ZNSt3__116allocator_traitsINS_9allocatorIiEEE10deallocateB8ne180100ERS2_Pim, symObjAddr: 0x13A0, symBinAddr: 0x100002490, symSize: 0x30 }
  - { offset: 0xC2A9, size: 0x8, addend: 0x0, symName: __ZNKSt3__16vectorIiNS_9allocatorIiEEE8capacityB8ne180100Ev, symObjAddr: 0x13D0, symBinAddr: 0x1000024C0, symSize: 0x30 }
  - { offset: 0xC2CF, size: 0x8, addend: 0x0, symName: __ZNSt3__16vectorIiNS_9allocatorIiEEE22__base_destruct_at_endB8ne180100EPi, symObjAddr: 0x1400, symBinAddr: 0x1000024F0, symSize: 0x80 }
  - { offset: 0xC313, size: 0x8, addend: 0x0, symName: __ZNSt3__116allocator_traitsINS_9allocatorIiEEE7destroyB8ne180100IivvEEvRS2_PT_, symObjAddr: 0x1480, symBinAddr: 0x100002570, symSize: 0x20 }
  - { offset: 0xC34E, size: 0x8, addend: 0x0, symName: __ZNSt3__19allocatorIiE10deallocateB8ne180100EPim, symObjAddr: 0x14B0, symBinAddr: 0x1000025A0, symSize: 0x40 }
  - { offset: 0xC390, size: 0x8, addend: 0x0, symName: __ZNKSt3__16vectorIiNS_9allocatorIiEEE9__end_capB8ne180100Ev, symObjAddr: 0x15F0, symBinAddr: 0x1000026E0, symSize: 0x20 }
  - { offset: 0xC3B6, size: 0x8, addend: 0x0, symName: __ZNKSt3__117__compressed_pairIPiNS_9allocatorIiEEE5firstB8ne180100Ev, symObjAddr: 0x1610, symBinAddr: 0x100002700, symSize: 0x20 }
  - { offset: 0xC3DC, size: 0x8, addend: 0x0, symName: __ZNKSt3__122__compressed_pair_elemIPiLi0ELb0EE5__getB8ne180100Ev, symObjAddr: 0x1630, symBinAddr: 0x100002720, symSize: 0x10 }
  - { offset: 0xC407, size: 0x8, addend: 0x0, symName: __ZNKSt3__16__lessIvvEclB8ne180100IiiEEbRKT_RKT0_, symObjAddr: 0x1690, symBinAddr: 0x100002780, symSize: 0x30 }
  - { offset: 0xC45B, size: 0x8, addend: 0x0, symName: __ZNSt3__15stackIiNS_5dequeIiNS_9allocatorIiEEEEED2Ev, symObjAddr: 0x16C0, symBinAddr: 0x1000027B0, symSize: 0x20 }
  - { offset: 0xC487, size: 0x8, addend: 0x0, symName: __ZNSt3__15dequeIiNS_9allocatorIiEEED1B8ne180100Ev, symObjAddr: 0x16E0, symBinAddr: 0x1000027D0, symSize: 0x20 }
  - { offset: 0xC4B1, size: 0x8, addend: 0x0, symName: __ZNSt3__15dequeIiNS_9allocatorIiEEED2B8ne180100Ev, symObjAddr: 0x1700, symBinAddr: 0x1000027F0, symSize: 0x90 }
  - { offset: 0xC507, size: 0x8, addend: 0x0, symName: __ZNSt3__15dequeIiNS_9allocatorIiEEE5clearEv, symObjAddr: 0x1790, symBinAddr: 0x100002880, symSize: 0x1A0 }
  - { offset: 0xC562, size: 0x8, addend: 0x0, symName: __ZNKSt3__15dequeIiNS_9allocatorIiEEE17__annotate_deleteB8ne180100Ev, symObjAddr: 0x1930, symBinAddr: 0x100002A20, symSize: 0x10 }
  - { offset: 0xC588, size: 0x8, addend: 0x0, symName: __ZNSt3__114__split_bufferIPiNS_9allocatorIS1_EEE5beginB8ne180100Ev, symObjAddr: 0x1940, symBinAddr: 0x100002A30, symSize: 0x20 }
  - { offset: 0xC5AE, size: 0x8, addend: 0x0, symName: __ZNSt3__114__split_bufferIPiNS_9allocatorIS1_EEE3endB8ne180100Ev, symObjAddr: 0x1960, symBinAddr: 0x100002A50, symSize: 0x20 }
  - { offset: 0xC5D4, size: 0x8, addend: 0x0, symName: __ZNSt3__15dequeIiNS_9allocatorIiEEE7__allocB8ne180100Ev, symObjAddr: 0x1980, symBinAddr: 0x100002A70, symSize: 0x20 }
  - { offset: 0xC5FA, size: 0x8, addend: 0x0, symName: __ZNSt3__114__split_bufferIPiNS_9allocatorIS1_EEED1Ev, symObjAddr: 0x19A0, symBinAddr: 0x100002A90, symSize: 0x20 }
  - { offset: 0xC626, size: 0x8, addend: 0x0, symName: __ZNSt3__15dequeIiNS_9allocatorIiEEE5beginB8ne180100Ev, symObjAddr: 0x19C0, symBinAddr: 0x100002AB0, symSize: 0xB0 }
  - { offset: 0xC65B, size: 0x8, addend: 0x0, symName: __ZNSt3__15dequeIiNS_9allocatorIiEEE3endB8ne180100Ev, symObjAddr: 0x1A70, symBinAddr: 0x100002B60, symSize: 0xB0 }
  - { offset: 0xC69F, size: 0x8, addend: 0x0, symName: __ZNKSt3__116__deque_iteratorIiPiRiPS1_lLl1024EEdeB8ne180100Ev, symObjAddr: 0x1B50, symBinAddr: 0x100002C40, symSize: 0x20 }
  - { offset: 0xC6C5, size: 0x8, addend: 0x0, symName: __ZNSt3__116__deque_iteratorIiPiRiPS1_lLl1024EEppB8ne180100Ev, symObjAddr: 0x1B70, symBinAddr: 0x100002C60, symSize: 0x60 }
  - { offset: 0xC6EB, size: 0x8, addend: 0x0, symName: __ZNSt3__15dequeIiNS_9allocatorIiEEE6__sizeB8ne180100Ev, symObjAddr: 0x1BD0, symBinAddr: 0x100002CC0, symSize: 0x20 }
  - { offset: 0xC711, size: 0x8, addend: 0x0, symName: __ZNKSt3__114__split_bufferIPiNS_9allocatorIS1_EEE4sizeB8ne180100Ev, symObjAddr: 0x1BF0, symBinAddr: 0x100002CE0, symSize: 0x20 }
  - { offset: 0xC737, size: 0x8, addend: 0x0, symName: __ZNSt3__114__split_bufferIPiNS_9allocatorIS1_EEE5frontB8ne180100Ev, symObjAddr: 0x1C10, symBinAddr: 0x100002D00, symSize: 0x20 }
  - { offset: 0xC75D, size: 0x8, addend: 0x0, symName: __ZNSt3__114__split_bufferIPiNS_9allocatorIS1_EEE9pop_frontB8ne180100Ev, symObjAddr: 0x1C30, symBinAddr: 0x100002D20, symSize: 0x30 }
  - { offset: 0xC783, size: 0x8, addend: 0x0, symName: __ZNKSt3__15dequeIiNS_9allocatorIiEEE14__annotate_newB8ne180100Em, symObjAddr: 0x1C60, symBinAddr: 0x100002D50, symSize: 0x10 }
  - { offset: 0xC7B8, size: 0x8, addend: 0x0, symName: __ZNKSt3__114__split_bufferIPiNS_9allocatorIS1_EEE5emptyB8ne180100Ev, symObjAddr: 0x1C70, symBinAddr: 0x100002D60, symSize: 0x20 }
  - { offset: 0xC7DE, size: 0x8, addend: 0x0, symName: __ZNSt3__116__deque_iteratorIiPiRiPS1_lLl1024EEC1B8ne180100ES3_S1_, symObjAddr: 0x1C90, symBinAddr: 0x100002D80, symSize: 0x30 }
  - { offset: 0xC826, size: 0x8, addend: 0x0, symName: __ZNSt3__116__deque_iteratorIiPiRiPS1_lLl1024EEC2B8ne180100ES3_S1_, symObjAddr: 0x1CC0, symBinAddr: 0x100002DB0, symSize: 0x30 }
  - { offset: 0xC86E, size: 0x8, addend: 0x0, symName: __ZNKSt3__15dequeIiNS_9allocatorIiEEE4sizeB8ne180100Ev, symObjAddr: 0x1CF0, symBinAddr: 0x100002DE0, symSize: 0x20 }
  - { offset: 0xC894, size: 0x8, addend: 0x0, symName: __ZNKSt3__15dequeIiNS_9allocatorIiEEE6__sizeB8ne180100Ev, symObjAddr: 0x1D10, symBinAddr: 0x100002E00, symSize: 0x20 }
  - { offset: 0xC8BA, size: 0x8, addend: 0x0, symName: __ZNKSt3__117__compressed_pairImNS_9allocatorIiEEE5firstB8ne180100Ev, symObjAddr: 0x1D30, symBinAddr: 0x100002E20, symSize: 0x20 }
  - { offset: 0xC8E0, size: 0x8, addend: 0x0, symName: __ZNKSt3__122__compressed_pair_elemImLi0ELb0EE5__getB8ne180100Ev, symObjAddr: 0x1D50, symBinAddr: 0x100002E40, symSize: 0x10 }
  - { offset: 0xC906, size: 0x8, addend: 0x0, symName: __ZNSt3__117__compressed_pairImNS_9allocatorIiEEE5firstB8ne180100Ev, symObjAddr: 0x1D90, symBinAddr: 0x100002E80, symSize: 0x20 }
  - { offset: 0xC92C, size: 0x8, addend: 0x0, symName: __ZNSt3__122__compressed_pair_elemImLi0ELb0EE5__getB8ne180100Ev, symObjAddr: 0x1DB0, symBinAddr: 0x100002EA0, symSize: 0x10 }
  - { offset: 0xC952, size: 0x8, addend: 0x0, symName: __ZNSt3__114__split_bufferIPiNS_9allocatorIS1_EEE19__destruct_at_beginB8ne180100EPS1_, symObjAddr: 0x1DC0, symBinAddr: 0x100002EB0, symSize: 0x30 }
  - { offset: 0xC986, size: 0x8, addend: 0x0, symName: __ZNSt3__114__split_bufferIPiNS_9allocatorIS1_EEE19__destruct_at_beginEPS1_NS_17integral_constantIbLb1EEE, symObjAddr: 0x1DF0, symBinAddr: 0x100002EE0, symSize: 0x20 }
  - { offset: 0xC9C6, size: 0x8, addend: 0x0, symName: __ZNSt3__117__compressed_pairImNS_9allocatorIiEEE6secondB8ne180100Ev, symObjAddr: 0x1E10, symBinAddr: 0x100002F00, symSize: 0x20 }
  - { offset: 0xC9EC, size: 0x8, addend: 0x0, symName: __ZNSt3__114__split_bufferIPiNS_9allocatorIS1_EEED2Ev, symObjAddr: 0x1E30, symBinAddr: 0x100002F20, symSize: 0x70 }
  - { offset: 0xCA18, size: 0x8, addend: 0x0, symName: __ZNSt3__114__split_bufferIPiNS_9allocatorIS1_EEE5clearB8ne180100Ev, symObjAddr: 0x1EA0, symBinAddr: 0x100002F90, symSize: 0x20 }
  - { offset: 0xCA3E, size: 0x8, addend: 0x0, symName: __ZNSt3__116allocator_traitsINS_9allocatorIPiEEE10deallocateB8ne180100ERS3_PS2_m, symObjAddr: 0x1EC0, symBinAddr: 0x100002FB0, symSize: 0x30 }
  - { offset: 0xCA80, size: 0x8, addend: 0x0, symName: __ZNSt3__114__split_bufferIPiNS_9allocatorIS1_EEE7__allocB8ne180100Ev, symObjAddr: 0x1EF0, symBinAddr: 0x100002FE0, symSize: 0x20 }
  - { offset: 0xCAA6, size: 0x8, addend: 0x0, symName: __ZNKSt3__114__split_bufferIPiNS_9allocatorIS1_EEE8capacityB8ne180100Ev, symObjAddr: 0x1F10, symBinAddr: 0x100003000, symSize: 0x30 }
  - { offset: 0xCACC, size: 0x8, addend: 0x0, symName: __ZNSt3__114__split_bufferIPiNS_9allocatorIS1_EEE17__destruct_at_endB8ne180100EPS1_, symObjAddr: 0x1F40, symBinAddr: 0x100003030, symSize: 0x30 }
  - { offset: 0xCB00, size: 0x8, addend: 0x0, symName: __ZNSt3__114__split_bufferIPiNS_9allocatorIS1_EEE17__destruct_at_endB8ne180100EPS1_NS_17integral_constantIbLb0EEE, symObjAddr: 0x1F70, symBinAddr: 0x100003060, symSize: 0x80 }
  - { offset: 0xCB40, size: 0x8, addend: 0x0, symName: __ZNSt3__116allocator_traitsINS_9allocatorIPiEEE7destroyB8ne180100IS2_vvEEvRS3_PT_, symObjAddr: 0x1FF0, symBinAddr: 0x1000030E0, symSize: 0x20 }
  - { offset: 0xCB7B, size: 0x8, addend: 0x0, symName: __ZNSt3__19allocatorIPiE10deallocateB8ne180100EPS1_m, symObjAddr: 0x2030, symBinAddr: 0x100003120, symSize: 0x40 }
  - { offset: 0xCBBD, size: 0x8, addend: 0x0, symName: __ZNSt3__117__compressed_pairIPPiNS_9allocatorIS1_EEE6secondB8ne180100Ev, symObjAddr: 0x2070, symBinAddr: 0x100003160, symSize: 0x20 }
  - { offset: 0xCBE3, size: 0x8, addend: 0x0, symName: __ZNSt3__122__compressed_pair_elemINS_9allocatorIPiEELi1ELb1EE5__getB8ne180100Ev, symObjAddr: 0x2090, symBinAddr: 0x100003180, symSize: 0x10 }
  - { offset: 0xCC09, size: 0x8, addend: 0x0, symName: __ZNKSt3__114__split_bufferIPiNS_9allocatorIS1_EEE9__end_capB8ne180100Ev, symObjAddr: 0x20A0, symBinAddr: 0x100003190, symSize: 0x20 }
  - { offset: 0xCC2F, size: 0x8, addend: 0x0, symName: __ZNKSt3__117__compressed_pairIPPiNS_9allocatorIS1_EEE5firstB8ne180100Ev, symObjAddr: 0x20C0, symBinAddr: 0x1000031B0, symSize: 0x20 }
  - { offset: 0xCC55, size: 0x8, addend: 0x0, symName: __ZNKSt3__122__compressed_pair_elemIPPiLi0ELb0EE5__getB8ne180100Ev, symObjAddr: 0x20E0, symBinAddr: 0x1000031D0, symSize: 0x10 }
  - { offset: 0xCC7B, size: 0x8, addend: 0x0, symName: __ZNSt3__16vectorIiNS_9allocatorIiEEED2B8ne180100Ev, symObjAddr: 0x20F0, symBinAddr: 0x1000031E0, symSize: 0x40 }
  - { offset: 0xCCA5, size: 0x8, addend: 0x0, symName: __ZNSt3__15stackIiNS_5dequeIiNS_9allocatorIiEEEEEC2B8ne180100Ev, symObjAddr: 0x2130, symBinAddr: 0x100003220, symSize: 0x20 }
  - { offset: 0xCCCF, size: 0x8, addend: 0x0, symName: __ZNSt3__15dequeIiNS_9allocatorIiEEEC1B8ne180100Ev, symObjAddr: 0x2150, symBinAddr: 0x100003240, symSize: 0x20 }
  - { offset: 0xCCF9, size: 0x8, addend: 0x0, symName: __ZNSt3__15dequeIiNS_9allocatorIiEEEC2B8ne180100Ev, symObjAddr: 0x2170, symBinAddr: 0x100003260, symSize: 0x60 }
  - { offset: 0xCD23, size: 0x8, addend: 0x0, symName: __ZNSt3__114__split_bufferIPiNS_9allocatorIS1_EEEC1B8ne180100Ev, symObjAddr: 0x21D0, symBinAddr: 0x1000032C0, symSize: 0x20 }
  - { offset: 0xCD52, size: 0x8, addend: 0x0, symName: __ZNSt3__117__compressed_pairImNS_9allocatorIiEEEC1B8ne180100IiNS_18__default_init_tagEEEOT_OT0_, symObjAddr: 0x21F0, symBinAddr: 0x1000032E0, symSize: 0x30 }
  - { offset: 0xCDAA, size: 0x8, addend: 0x0, symName: __ZNSt3__114__split_bufferIPiNS_9allocatorIS1_EEEC2B8ne180100Ev, symObjAddr: 0x2220, symBinAddr: 0x100003310, symSize: 0x60 }
  - { offset: 0xCDD4, size: 0x8, addend: 0x0, symName: __ZNSt3__117__compressed_pairIPPiNS_9allocatorIS1_EEEC1B8ne180100IDnNS_18__default_init_tagEEEOT_OT0_, symObjAddr: 0x2280, symBinAddr: 0x100003370, symSize: 0x30 }
  - { offset: 0xCE2C, size: 0x8, addend: 0x0, symName: __ZNSt3__117__compressed_pairIPPiNS_9allocatorIS1_EEEC2B8ne180100IDnNS_18__default_init_tagEEEOT_OT0_, symObjAddr: 0x22B0, symBinAddr: 0x1000033A0, symSize: 0x40 }
  - { offset: 0xCE84, size: 0x8, addend: 0x0, symName: __ZNSt3__122__compressed_pair_elemIPPiLi0ELb0EEC2B8ne180100IDnvEEOT_, symObjAddr: 0x22F0, symBinAddr: 0x1000033E0, symSize: 0x20 }
  - { offset: 0xCEC6, size: 0x8, addend: 0x0, symName: __ZNSt3__122__compressed_pair_elemINS_9allocatorIPiEELi1ELb1EEC2B8ne180100ENS_18__default_init_tagE, symObjAddr: 0x2310, symBinAddr: 0x100003400, symSize: 0x20 }
  - { offset: 0xCEFA, size: 0x8, addend: 0x0, symName: __ZNSt3__19allocatorIPiEC2B8ne180100Ev, symObjAddr: 0x2330, symBinAddr: 0x100003420, symSize: 0x20 }
  - { offset: 0xCF24, size: 0x8, addend: 0x0, symName: __ZNSt3__116__non_trivial_ifILb1ENS_9allocatorIPiEEEC2B8ne180100Ev, symObjAddr: 0x2350, symBinAddr: 0x100003440, symSize: 0x10 }
  - { offset: 0xCF4E, size: 0x8, addend: 0x0, symName: __ZNSt3__117__compressed_pairImNS_9allocatorIiEEEC2B8ne180100IiNS_18__default_init_tagEEEOT_OT0_, symObjAddr: 0x2360, symBinAddr: 0x100003450, symSize: 0x40 }
  - { offset: 0xCFA6, size: 0x8, addend: 0x0, symName: __ZNSt3__122__compressed_pair_elemImLi0ELb0EEC2B8ne180100IivEEOT_, symObjAddr: 0x23A0, symBinAddr: 0x100003490, symSize: 0x20 }
  - { offset: 0xCFE8, size: 0x8, addend: 0x0, symName: __ZNKSt3__15dequeIiNS_9allocatorIiEEE5emptyB8ne180100Ev, symObjAddr: 0x23C0, symBinAddr: 0x1000034B0, symSize: 0x30 }
  - { offset: 0xD00E, size: 0x8, addend: 0x0, symName: __ZNSt3__15dequeIiNS_9allocatorIiEEE4backEv, symObjAddr: 0x23F0, symBinAddr: 0x1000034E0, symSize: 0x60 }
  - { offset: 0xD045, size: 0x8, addend: 0x0, symName: __ZNSt3__15dequeIiNS_9allocatorIiEEE8pop_backEv, symObjAddr: 0x2450, symBinAddr: 0x100003540, symSize: 0xC0 }
  - { offset: 0xD0A9, size: 0x8, addend: 0x0, symName: __ZNKSt3__15dequeIiNS_9allocatorIiEEE22__annotate_shrink_backB8ne180100Emm, symObjAddr: 0x2510, symBinAddr: 0x100003600, symSize: 0x20 }
  - { offset: 0xD0ED, size: 0x8, addend: 0x0, symName: __ZNSt3__15dequeIiNS_9allocatorIiEEE25__maybe_remove_back_spareB8ne180100Eb, symObjAddr: 0x2530, symBinAddr: 0x100003620, symSize: 0xB0 }
  - { offset: 0xD122, size: 0x8, addend: 0x0, symName: __ZNKSt3__15dequeIiNS_9allocatorIiEEE19__back_spare_blocksB8ne180100Ev, symObjAddr: 0x25E0, symBinAddr: 0x1000036D0, symSize: 0x20 }
  - { offset: 0xD148, size: 0x8, addend: 0x0, symName: __ZNKSt3__15dequeIiNS_9allocatorIiEEE22__annotate_whole_blockB8ne180100EmNS3_22__asan_annotation_typeE, symObjAddr: 0x2600, symBinAddr: 0x1000036F0, symSize: 0x20 }
  - { offset: 0xD18C, size: 0x8, addend: 0x0, symName: __ZNSt3__114__split_bufferIPiNS_9allocatorIS1_EEE4backB8ne180100Ev, symObjAddr: 0x2620, symBinAddr: 0x100003710, symSize: 0x20 }
  - { offset: 0xD1B2, size: 0x8, addend: 0x0, symName: __ZNSt3__114__split_bufferIPiNS_9allocatorIS1_EEE8pop_backB8ne180100Ev, symObjAddr: 0x2640, symBinAddr: 0x100003730, symSize: 0x30 }
  - { offset: 0xD1D8, size: 0x8, addend: 0x0, symName: __ZNKSt3__15dequeIiNS_9allocatorIiEEE12__back_spareB8ne180100Ev, symObjAddr: 0x2670, symBinAddr: 0x100003760, symSize: 0x50 }
  - { offset: 0xD1FE, size: 0x8, addend: 0x0, symName: __ZNKSt3__15dequeIiNS_9allocatorIiEEE10__capacityB8ne180100Ev, symObjAddr: 0x26C0, symBinAddr: 0x1000037B0, symSize: 0x50 }
  - { offset: 0xD224, size: 0x8, addend: 0x0, symName: __ZNSt3__15dequeIiNS_9allocatorIiEEE9push_backERKi, symObjAddr: 0x2710, symBinAddr: 0x100003800, symSize: 0xA0 }
  - { offset: 0xD26A, size: 0x8, addend: 0x0, symName: __ZNSt3__15dequeIiNS_9allocatorIiEEE19__add_back_capacityEv, symObjAddr: 0x27B0, symBinAddr: 0x1000038A0, symSize: 0x3C0 }
  - { offset: 0xD31F, size: 0x8, addend: 0x0, symName: __ZNKSt3__15dequeIiNS_9allocatorIiEEE24__annotate_increase_backB8ne180100Em, symObjAddr: 0x2B70, symBinAddr: 0x100003C60, symSize: 0x10 }
  - { offset: 0xD354, size: 0x8, addend: 0x0, symName: __ZNSt3__116allocator_traitsINS_9allocatorIiEEE9constructB8ne180100IiJRKiEvvEEvRS2_PT_DpOT0_, symObjAddr: 0x2B80, symBinAddr: 0x100003C70, symSize: 0x30 }
  - { offset: 0xD3A9, size: 0x8, addend: 0x0, symName: __ZNKSt3__15dequeIiNS_9allocatorIiEEE13__front_spareB8ne180100Ev, symObjAddr: 0x2BB0, symBinAddr: 0x100003CA0, symSize: 0x20 }
  - { offset: 0xD3CF, size: 0x8, addend: 0x0, symName: __ZNSt3__114__split_bufferIPiNS_9allocatorIS1_EEE9push_backB8ne180100ERKS1_, symObjAddr: 0x2BD0, symBinAddr: 0x100003CC0, symSize: 0x290 }
  - { offset: 0xD447, size: 0x8, addend: 0x0, symName: __ZNKSt3__114__split_bufferIPiNS_9allocatorIS1_EEE12__back_spareB8ne180100Ev, symObjAddr: 0x2E60, symBinAddr: 0x100003F50, symSize: 0x40 }
  - { offset: 0xD46D, size: 0x8, addend: 0x0, symName: __ZNSt3__114__split_bufferIPiNS_9allocatorIS1_EEE9push_backEOS1_, symObjAddr: 0x2EA0, symBinAddr: 0x100003F90, symSize: 0x290 }
  - { offset: 0xD4E5, size: 0x8, addend: 0x0, symName: __ZNSt3__116allocator_traitsINS_9allocatorIiEEE8allocateB8ne180100ERS2_m, symObjAddr: 0x3130, symBinAddr: 0x100004220, symSize: 0x30 }
  - { offset: 0xD518, size: 0x8, addend: 0x0, symName: __ZNSt3__114__split_bufferIPiNS_9allocatorIS1_EEE10push_frontEOS1_, symObjAddr: 0x3160, symBinAddr: 0x100004250, symSize: 0x270 }
  - { offset: 0xD590, size: 0x8, addend: 0x0, symName: __ZNSt3__114__split_bufferIPiRNS_9allocatorIS1_EEEC1EmmS4_, symObjAddr: 0x3400, symBinAddr: 0x1000044F0, symSize: 0x40 }
  - { offset: 0xD5EB, size: 0x8, addend: 0x0, symName: __ZNSt3__122__allocator_destructorINS_9allocatorIiEEEC1B8ne180100ERS2_m, symObjAddr: 0x3440, symBinAddr: 0x100004530, symSize: 0x30 }
  - { offset: 0xD69A, size: 0x8, addend: 0x0, symName: __ZNSt3__110unique_ptrIPiNS_22__allocator_destructorINS_9allocatorIiEEEEEC1B8ne180100ILb1EvEES1_NS_16__dependent_typeINS_27__unique_ptr_deleter_sfinaeIS5_EEXT_EE20__good_rval_ref_typeE, symObjAddr: 0x3470, symBinAddr: 0x100004560, symSize: 0x30 }
  - { offset: 0xD6EB, size: 0x8, addend: 0x0, symName: __ZNSt3__114__split_bufferIPiRNS_9allocatorIS1_EEE9push_backEOS1_, symObjAddr: 0x34A0, symBinAddr: 0x100004590, symSize: 0x290 }
  - { offset: 0xD763, size: 0x8, addend: 0x0, symName: __ZNKSt3__110unique_ptrIPiNS_22__allocator_destructorINS_9allocatorIiEEEEE3getB8ne180100Ev, symObjAddr: 0x3730, symBinAddr: 0x100004820, symSize: 0x20 }
  - { offset: 0xD789, size: 0x8, addend: 0x0, symName: __ZNSt3__110unique_ptrIPiNS_22__allocator_destructorINS_9allocatorIiEEEEE7releaseB8ne180100Ev, symObjAddr: 0x3750, symBinAddr: 0x100004840, symSize: 0x40 }
  - { offset: 0xD7BE, size: 0x8, addend: 0x0, symName: __ZNSt3__114__split_bufferIPiRNS_9allocatorIS1_EEE10push_frontERKS1_, symObjAddr: 0x3790, symBinAddr: 0x100004880, symSize: 0x270 }
  - { offset: 0xD836, size: 0x8, addend: 0x0, symName: __ZNSt3__114__split_bufferIPiNS_9allocatorIS1_EEE9__end_capB8ne180100Ev, symObjAddr: 0x3A40, symBinAddr: 0x100004B30, symSize: 0x20 }
  - { offset: 0xD85C, size: 0x8, addend: 0x0, symName: __ZNSt3__114__split_bufferIPiRNS_9allocatorIS1_EEE9__end_capB8ne180100Ev, symObjAddr: 0x3A60, symBinAddr: 0x100004B50, symSize: 0x20 }
  - { offset: 0xD882, size: 0x8, addend: 0x0, symName: __ZNSt3__110unique_ptrIPiNS_22__allocator_destructorINS_9allocatorIiEEEEED1B8ne180100Ev, symObjAddr: 0x3A80, symBinAddr: 0x100004B70, symSize: 0x20 }
  - { offset: 0xD8AC, size: 0x8, addend: 0x0, symName: __ZNSt3__114__split_bufferIPiRNS_9allocatorIS1_EEED1Ev, symObjAddr: 0x3AA0, symBinAddr: 0x100004B90, symSize: 0x20 }
  - { offset: 0xD8D8, size: 0x8, addend: 0x0, symName: __ZNSt3__114__split_bufferIPiRNS_9allocatorIS1_EEE18__construct_at_endINS_13move_iteratorIPS1_EELi0EEEvT_SA_, symObjAddr: 0x3B00, symBinAddr: 0x100004BF0, symSize: 0x60 }
  - { offset: 0xD92B, size: 0x8, addend: 0x0, symName: __ZNSt3__113move_iteratorIPPiEC1B8ne180100ES2_, symObjAddr: 0x3B60, symBinAddr: 0x100004C50, symSize: 0x30 }
  - { offset: 0xD963, size: 0x8, addend: 0x0, symName: __ZNSt3__116allocator_traitsINS_9allocatorIPiEEE9constructB8ne180100IS2_JRKS2_EvvEEvRS3_PT_DpOT0_, symObjAddr: 0x3B90, symBinAddr: 0x100004C80, symSize: 0x30 }
  - { offset: 0xD9DB, size: 0x8, addend: 0x0, symName: __ZNKSt3__114__move_trivialclB8ne180100IPiS2_Li0EEENS_4pairIPT_PT0_EES5_S5_S7_, symObjAddr: 0x3D30, symBinAddr: 0x100004E20, symSize: 0x40 }
  - { offset: 0xDA43, size: 0x8, addend: 0x0, symName: __ZNSt3__119__unwrap_range_implIPPiS2_E8__unwrapB8ne180100ES2_S2_, symObjAddr: 0x3E30, symBinAddr: 0x100004F20, symSize: 0x50 }
  - { offset: 0xDA79, size: 0x8, addend: 0x0, symName: __ZNSt3__14pairIPPiS2_EC1B8ne180100IS2_S2_Li0EEEOT_OT0_, symObjAddr: 0x3E80, symBinAddr: 0x100004F70, symSize: 0x30 }
  - { offset: 0xDAD7, size: 0x8, addend: 0x0, symName: __ZNSt3__14pairIPPiS2_EC2B8ne180100IS2_S2_Li0EEEOT_OT0_, symObjAddr: 0x3EB0, symBinAddr: 0x100004FA0, symSize: 0x30 }
  - { offset: 0xDB35, size: 0x8, addend: 0x0, symName: __ZNSt3__14pairIPPiS2_EC1B8ne180100IRS2_S2_Li0EEEOT_OT0_, symObjAddr: 0x3FD0, symBinAddr: 0x1000050C0, symSize: 0x30 }
  - { offset: 0xDB93, size: 0x8, addend: 0x0, symName: __ZNSt3__14pairIPPiS2_EC2B8ne180100IRS2_S2_Li0EEEOT_OT0_, symObjAddr: 0x4000, symBinAddr: 0x1000050F0, symSize: 0x30 }
  - { offset: 0xDBF1, size: 0x8, addend: 0x0, symName: __ZNSt3__118__unwrap_iter_implIPPiLb1EE8__unwrapB8ne180100ES2_, symObjAddr: 0x4030, symBinAddr: 0x100005120, symSize: 0x20 }
  - { offset: 0xDC14, size: 0x8, addend: 0x0, symName: __ZNSt3__119__unwrap_range_implIPPiS2_E8__rewrapB8ne180100ES2_S2_, symObjAddr: 0x4050, symBinAddr: 0x100005140, symSize: 0x30 }
  - { offset: 0xDC45, size: 0x8, addend: 0x0, symName: __ZNSt3__118__unwrap_iter_implIPPiLb1EE8__rewrapB8ne180100ES2_S2_, symObjAddr: 0x4080, symBinAddr: 0x100005170, symSize: 0x50 }
  - { offset: 0xDC76, size: 0x8, addend: 0x0, symName: __ZNSt3__114__split_bufferIPiRNS_9allocatorIS1_EEE28__construct_at_end_with_sizeINS_13move_iteratorIPS1_EEEEvT_m, symObjAddr: 0x40D0, symBinAddr: 0x1000051C0, symSize: 0xE0 }
  - { offset: 0xDCDC, size: 0x8, addend: 0x0, symName: __ZNSt3__114__split_bufferIPiRNS_9allocatorIS1_EEE21_ConstructTransactionC1B8ne180100EPPS1_m, symObjAddr: 0x41F0, symBinAddr: 0x1000052E0, symSize: 0x30 }
  - { offset: 0xDD27, size: 0x8, addend: 0x0, symName: __ZNSt3__116allocator_traitsINS_9allocatorIPiEEE9constructB8ne180100IS2_JS2_EvvEEvRS3_PT_DpOT0_, symObjAddr: 0x4220, symBinAddr: 0x100005310, symSize: 0x30 }
  - { offset: 0xDD7C, size: 0x8, addend: 0x0, symName: __ZNSt3__114__split_bufferIPiRNS_9allocatorIS1_EEE7__allocB8ne180100Ev, symObjAddr: 0x4250, symBinAddr: 0x100005340, symSize: 0x20 }
  - { offset: 0xDDA2, size: 0x8, addend: 0x0, symName: __ZNKSt3__113move_iteratorIPPiEdeB8ne180100Ev, symObjAddr: 0x4270, symBinAddr: 0x100005360, symSize: 0x30 }
  - { offset: 0xDDC8, size: 0x8, addend: 0x0, symName: __ZNSt3__113move_iteratorIPPiEppB8ne180100Ev, symObjAddr: 0x42A0, symBinAddr: 0x100005390, symSize: 0x20 }
  - { offset: 0xDDEE, size: 0x8, addend: 0x0, symName: __ZNSt3__114__split_bufferIPiRNS_9allocatorIS1_EEE21_ConstructTransactionD1B8ne180100Ev, symObjAddr: 0x42C0, symBinAddr: 0x1000053B0, symSize: 0x20 }
  - { offset: 0xDE18, size: 0x8, addend: 0x0, symName: __ZNSt3__114__split_bufferIPiRNS_9allocatorIS1_EEE21_ConstructTransactionC2B8ne180100EPPS1_m, symObjAddr: 0x42E0, symBinAddr: 0x1000053D0, symSize: 0x40 }
  - { offset: 0xDE5E, size: 0x8, addend: 0x0, symName: __ZNSt3__117__compressed_pairIPPiRNS_9allocatorIS1_EEE6secondB8ne180100Ev, symObjAddr: 0x4370, symBinAddr: 0x100005460, symSize: 0x20 }
  - { offset: 0xDE84, size: 0x8, addend: 0x0, symName: __ZNSt3__122__compressed_pair_elemIRNS_9allocatorIPiEELi1ELb0EE5__getB8ne180100Ev, symObjAddr: 0x4390, symBinAddr: 0x100005480, symSize: 0x20 }
  - { offset: 0xDEAF, size: 0x8, addend: 0x0, symName: __ZNKSt3__16ranges11__iter_move4__fnclB8ne180100IRKPPiEEDTclsr3stdE4movedeclsr3stdE7forwardIT_Efp_EEEOS8_, symObjAddr: 0x43B0, symBinAddr: 0x1000054A0, symSize: 0x20 }
  - { offset: 0xDEEC, size: 0x8, addend: 0x0, symName: __ZNSt3__114__split_bufferIPiRNS_9allocatorIS1_EEE21_ConstructTransactionD2B8ne180100Ev, symObjAddr: 0x43D0, symBinAddr: 0x1000054C0, symSize: 0x20 }
  - { offset: 0xDF16, size: 0x8, addend: 0x0, symName: __ZNKRSt3__113move_iteratorIPPiE4baseB8ne180100Ev, symObjAddr: 0x4460, symBinAddr: 0x100005550, symSize: 0x10 }
  - { offset: 0xDF3C, size: 0x8, addend: 0x0, symName: __ZNSt3__113move_iteratorIPPiEC2B8ne180100ES2_, symObjAddr: 0x4470, symBinAddr: 0x100005560, symSize: 0x20 }
  - { offset: 0xDF7E, size: 0x8, addend: 0x0, symName: __ZNKSt3__123__move_backward_trivialclB8ne180100IPiS2_Li0EEENS_4pairIPT_PT0_EES5_S5_S7_, symObjAddr: 0x4650, symBinAddr: 0x100005740, symSize: 0x40 }
  - { offset: 0xDFE6, size: 0x8, addend: 0x0, symName: __ZNSt3__14pairIPPiS2_EC1B8ne180100IRS2_S5_Li0EEEOT_OT0_, symObjAddr: 0x4730, symBinAddr: 0x100005820, symSize: 0x30 }
  - { offset: 0xE044, size: 0x8, addend: 0x0, symName: __ZNSt3__14pairIPPiS2_EC2B8ne180100IRS2_S5_Li0EEEOT_OT0_, symObjAddr: 0x4760, symBinAddr: 0x100005850, symSize: 0x30 }
  - { offset: 0xE0A2, size: 0x8, addend: 0x0, symName: __ZNSt3__114__split_bufferIPiRNS_9allocatorIS1_EEEC2EmmS4_, symObjAddr: 0x47E0, symBinAddr: 0x1000058D0, symSize: 0xD0 }
  - { offset: 0xE115, size: 0x8, addend: 0x0, symName: __ZNSt3__117__compressed_pairIPPiRNS_9allocatorIS1_EEEC1B8ne180100IDnS5_EEOT_OT0_, symObjAddr: 0x48B0, symBinAddr: 0x1000059A0, symSize: 0x30 }
  - { offset: 0xE16D, size: 0x8, addend: 0x0, symName: __ZNSt3__117__compressed_pairIPPiRNS_9allocatorIS1_EEEC2B8ne180100IDnS5_EEOT_OT0_, symObjAddr: 0x4920, symBinAddr: 0x100005A10, symSize: 0x40 }
  - { offset: 0xE1C5, size: 0x8, addend: 0x0, symName: __ZNSt3__122__compressed_pair_elemIRNS_9allocatorIPiEELi1ELb0EEC2B8ne180100IS4_vEEOT_, symObjAddr: 0x4960, symBinAddr: 0x100005A50, symSize: 0x20 }
  - { offset: 0xE207, size: 0x8, addend: 0x0, symName: __ZNSt3__19allocatorIPiE8allocateB8ne180100Em, symObjAddr: 0x4980, symBinAddr: 0x100005A70, symSize: 0x50 }
  - { offset: 0xE245, size: 0x8, addend: 0x0, symName: __ZNSt3__116allocator_traitsINS_9allocatorIPiEEE8max_sizeB8ne180100IS3_vvEEmRKS3_, symObjAddr: 0x49D0, symBinAddr: 0x100005AC0, symSize: 0x20 }
  - { offset: 0xE271, size: 0x8, addend: 0x0, symName: __ZNSt3__122__allocator_destructorINS_9allocatorIiEEEC2B8ne180100ERS2_m, symObjAddr: 0x49F0, symBinAddr: 0x100005AE0, symSize: 0x30 }
  - { offset: 0xE2B7, size: 0x8, addend: 0x0, symName: __ZNSt3__110unique_ptrIPiNS_22__allocator_destructorINS_9allocatorIiEEEEEC2B8ne180100ILb1EvEES1_NS_16__dependent_typeINS_27__unique_ptr_deleter_sfinaeIS5_EEXT_EE20__good_rval_ref_typeE, symObjAddr: 0x4A20, symBinAddr: 0x100005B10, symSize: 0x40 }
  - { offset: 0xE308, size: 0x8, addend: 0x0, symName: __ZNSt3__117__compressed_pairIPiNS_22__allocator_destructorINS_9allocatorIiEEEEEC1B8ne180100IRS1_S5_EEOT_OT0_, symObjAddr: 0x4A60, symBinAddr: 0x100005B50, symSize: 0x30 }
  - { offset: 0xE360, size: 0x8, addend: 0x0, symName: __ZNSt3__117__compressed_pairIPiNS_22__allocator_destructorINS_9allocatorIiEEEEEC2B8ne180100IRS1_S5_EEOT_OT0_, symObjAddr: 0x4A90, symBinAddr: 0x100005B80, symSize: 0x40 }
  - { offset: 0xE3B8, size: 0x8, addend: 0x0, symName: __ZNSt3__122__compressed_pair_elemIPiLi0ELb0EEC2B8ne180100IRS1_vEEOT_, symObjAddr: 0x4AD0, symBinAddr: 0x100005BC0, symSize: 0x20 }
  - { offset: 0xE3FA, size: 0x8, addend: 0x0, symName: __ZNSt3__122__compressed_pair_elemINS_22__allocator_destructorINS_9allocatorIiEEEELi1ELb0EEC2B8ne180100IS4_vEEOT_, symObjAddr: 0x4AF0, symBinAddr: 0x100005BE0, symSize: 0x30 }
  - { offset: 0xE43C, size: 0x8, addend: 0x0, symName: __ZNKSt3__117__compressed_pairIPiNS_22__allocator_destructorINS_9allocatorIiEEEEE5firstB8ne180100Ev, symObjAddr: 0x4B20, symBinAddr: 0x100005C10, symSize: 0x20 }
  - { offset: 0xE462, size: 0x8, addend: 0x0, symName: __ZNSt3__117__compressed_pairIPiNS_22__allocator_destructorINS_9allocatorIiEEEEE5firstB8ne180100Ev, symObjAddr: 0x4B40, symBinAddr: 0x100005C30, symSize: 0x20 }
  - { offset: 0xE488, size: 0x8, addend: 0x0, symName: __ZNSt3__117__compressed_pairIPPiNS_9allocatorIS1_EEE5firstB8ne180100Ev, symObjAddr: 0x4B60, symBinAddr: 0x100005C50, symSize: 0x20 }
  - { offset: 0xE4AE, size: 0x8, addend: 0x0, symName: __ZNSt3__122__compressed_pair_elemIPPiLi0ELb0EE5__getB8ne180100Ev, symObjAddr: 0x4B80, symBinAddr: 0x100005C70, symSize: 0x10 }
  - { offset: 0xE4D4, size: 0x8, addend: 0x0, symName: __ZNSt3__117__compressed_pairIPPiRNS_9allocatorIS1_EEE5firstB8ne180100Ev, symObjAddr: 0x4B90, symBinAddr: 0x100005C80, symSize: 0x20 }
  - { offset: 0xE4FA, size: 0x8, addend: 0x0, symName: __ZNSt3__110unique_ptrIPiNS_22__allocator_destructorINS_9allocatorIiEEEEED2B8ne180100Ev, symObjAddr: 0x4BB0, symBinAddr: 0x100005CA0, symSize: 0x20 }
  - { offset: 0xE524, size: 0x8, addend: 0x0, symName: __ZNSt3__110unique_ptrIPiNS_22__allocator_destructorINS_9allocatorIiEEEEE5resetB8ne180100ES1_, symObjAddr: 0x4BD0, symBinAddr: 0x100005CC0, symSize: 0x70 }
  - { offset: 0xE568, size: 0x8, addend: 0x0, symName: __ZNSt3__117__compressed_pairIPiNS_22__allocator_destructorINS_9allocatorIiEEEEE6secondB8ne180100Ev, symObjAddr: 0x4C40, symBinAddr: 0x100005D30, symSize: 0x20 }
  - { offset: 0xE58E, size: 0x8, addend: 0x0, symName: __ZNSt3__122__allocator_destructorINS_9allocatorIiEEEclB8ne180100EPi, symObjAddr: 0x4C60, symBinAddr: 0x100005D50, symSize: 0x30 }
  - { offset: 0xE5C2, size: 0x8, addend: 0x0, symName: __ZNSt3__122__compressed_pair_elemINS_22__allocator_destructorINS_9allocatorIiEEEELi1ELb0EE5__getB8ne180100Ev, symObjAddr: 0x4C90, symBinAddr: 0x100005D80, symSize: 0x10 }
  - { offset: 0xE5E8, size: 0x8, addend: 0x0, symName: __ZNSt3__114__split_bufferIPiRNS_9allocatorIS1_EEED2Ev, symObjAddr: 0x4CA0, symBinAddr: 0x100005D90, symSize: 0x70 }
  - { offset: 0xE614, size: 0x8, addend: 0x0, symName: __ZNSt3__114__split_bufferIPiRNS_9allocatorIS1_EEE5clearB8ne180100Ev, symObjAddr: 0x4D10, symBinAddr: 0x100005E00, symSize: 0x20 }
  - { offset: 0xE63A, size: 0x8, addend: 0x0, symName: __ZNKSt3__114__split_bufferIPiRNS_9allocatorIS1_EEE8capacityB8ne180100Ev, symObjAddr: 0x4D30, symBinAddr: 0x100005E20, symSize: 0x30 }
  - { offset: 0xE660, size: 0x8, addend: 0x0, symName: __ZNSt3__114__split_bufferIPiRNS_9allocatorIS1_EEE17__destruct_at_endB8ne180100EPS1_, symObjAddr: 0x4D60, symBinAddr: 0x100005E50, symSize: 0x30 }
  - { offset: 0xE694, size: 0x8, addend: 0x0, symName: __ZNSt3__114__split_bufferIPiRNS_9allocatorIS1_EEE17__destruct_at_endB8ne180100EPS1_NS_17integral_constantIbLb0EEE, symObjAddr: 0x4D90, symBinAddr: 0x100005E80, symSize: 0x80 }
  - { offset: 0xE6D4, size: 0x8, addend: 0x0, symName: __ZNKSt3__114__split_bufferIPiRNS_9allocatorIS1_EEE9__end_capB8ne180100Ev, symObjAddr: 0x4E10, symBinAddr: 0x100005F00, symSize: 0x20 }
  - { offset: 0xE6FA, size: 0x8, addend: 0x0, symName: __ZNKSt3__117__compressed_pairIPPiRNS_9allocatorIS1_EEE5firstB8ne180100Ev, symObjAddr: 0x4E30, symBinAddr: 0x100005F20, symSize: 0x20 }
  - { offset: 0xE720, size: 0x8, addend: 0x0, symName: __ZNSt3__111char_traitsIcE6lengthB8ne180100EPKc, symObjAddr: 0x5090, symBinAddr: 0x100006180, symSize: 0x30 }
  - { offset: 0xE761, size: 0x8, addend: 0x0, symName: __ZNKSt3__113basic_ostreamIcNS_11char_traitsIcEEE6sentrycvbB8ne180100Ev, symObjAddr: 0x50C0, symBinAddr: 0x1000061B0, symSize: 0x20 }
  - { offset: 0xE787, size: 0x8, addend: 0x0, symName: __ZNSt3__119ostreambuf_iteratorIcNS_11char_traitsIcEEEC1B8ne180100ERNS_13basic_ostreamIcS2_EE, symObjAddr: 0x5300, symBinAddr: 0x1000063F0, symSize: 0x30 }
  - { offset: 0xE7BF, size: 0x8, addend: 0x0, symName: __ZNKSt3__18ios_base5flagsB8ne180100Ev, symObjAddr: 0x5330, symBinAddr: 0x100006420, symSize: 0x20 }
  - { offset: 0xE7E7, size: 0x8, addend: 0x0, symName: __ZNKSt3__19basic_iosIcNS_11char_traitsIcEEE4fillB8ne180100Ev, symObjAddr: 0x5350, symBinAddr: 0x100006440, symSize: 0x70 }
  - { offset: 0xE80F, size: 0x8, addend: 0x0, symName: __ZNKSt3__119ostreambuf_iteratorIcNS_11char_traitsIcEEE6failedB8ne180100Ev, symObjAddr: 0x53C0, symBinAddr: 0x1000064B0, symSize: 0x20 }
  - { offset: 0xE835, size: 0x8, addend: 0x0, symName: __ZNSt3__19basic_iosIcNS_11char_traitsIcEEE8setstateB8ne180100Ej, symObjAddr: 0x53E0, symBinAddr: 0x1000064D0, symSize: 0x30 }
  - { offset: 0xE86A, size: 0x8, addend: 0x0, symName: __ZNKSt3__18ios_base5widthB8ne180100Ev, symObjAddr: 0x5410, symBinAddr: 0x100006500, symSize: 0x20 }
  - { offset: 0xE892, size: 0x8, addend: 0x0, symName: __ZNSt3__115basic_streambufIcNS_11char_traitsIcEEE5sputnB8ne180100EPKcl, symObjAddr: 0x5430, symBinAddr: 0x100006520, symSize: 0x30 }
  - { offset: 0xE8D4, size: 0x8, addend: 0x0, symName: __ZNSt3__112basic_stringIcNS_11char_traitsIcEENS_9allocatorIcEEEC1B8ne180100Emc, symObjAddr: 0x5460, symBinAddr: 0x100006550, symSize: 0x30 }
  - { offset: 0xE91C, size: 0x8, addend: 0x0, symName: __ZNSt3__112basic_stringIcNS_11char_traitsIcEENS_9allocatorIcEEE4dataB8ne180100Ev, symObjAddr: 0x5490, symBinAddr: 0x100006580, symSize: 0x30 }
  - { offset: 0xE942, size: 0x8, addend: 0x0, symName: __ZNSt3__18ios_base5widthB8ne180100El, symObjAddr: 0x54C0, symBinAddr: 0x1000065B0, symSize: 0x30 }
  - { offset: 0xE988, size: 0x8, addend: 0x0, symName: __ZNSt3__112basic_stringIcNS_11char_traitsIcEENS_9allocatorIcEEEC2B8ne180100Emc, symObjAddr: 0x54F0, symBinAddr: 0x1000065E0, symSize: 0x50 }
  - { offset: 0xE9D0, size: 0x8, addend: 0x0, symName: __ZNSt3__117__compressed_pairINS_12basic_stringIcNS_11char_traitsIcEENS_9allocatorIcEEE5__repES5_EC1B8ne180100INS_18__default_init_tagESA_EEOT_OT0_, symObjAddr: 0x5540, symBinAddr: 0x100006630, symSize: 0x30 }
  - { offset: 0xEA28, size: 0x8, addend: 0x0, symName: __ZNSt3__117__compressed_pairINS_12basic_stringIcNS_11char_traitsIcEENS_9allocatorIcEEE5__repES5_EC2B8ne180100INS_18__default_init_tagESA_EEOT_OT0_, symObjAddr: 0x5570, symBinAddr: 0x100006660, symSize: 0x30 }
  - { offset: 0xEA80, size: 0x8, addend: 0x0, symName: __ZNSt3__122__compressed_pair_elemINS_12basic_stringIcNS_11char_traitsIcEENS_9allocatorIcEEE5__repELi0ELb0EEC2B8ne180100ENS_18__default_init_tagE, symObjAddr: 0x55A0, symBinAddr: 0x100006690, symSize: 0x10 }
  - { offset: 0xEAB4, size: 0x8, addend: 0x0, symName: __ZNSt3__122__compressed_pair_elemINS_9allocatorIcEELi1ELb1EEC2B8ne180100ENS_18__default_init_tagE, symObjAddr: 0x55B0, symBinAddr: 0x1000066A0, symSize: 0x20 }
  - { offset: 0xEAE8, size: 0x8, addend: 0x0, symName: __ZNSt3__19allocatorIcEC2B8ne180100Ev, symObjAddr: 0x55D0, symBinAddr: 0x1000066C0, symSize: 0x20 }
  - { offset: 0xEB12, size: 0x8, addend: 0x0, symName: __ZNSt3__116__non_trivial_ifILb1ENS_9allocatorIcEEEC2B8ne180100Ev, symObjAddr: 0x55F0, symBinAddr: 0x1000066E0, symSize: 0x10 }
  - { offset: 0xEB3C, size: 0x8, addend: 0x0, symName: __ZNSt3__112basic_stringIcNS_11char_traitsIcEENS_9allocatorIcEEE13__get_pointerB8ne180100Ev, symObjAddr: 0x5610, symBinAddr: 0x100006700, symSize: 0x50 }
  - { offset: 0xEB62, size: 0x8, addend: 0x0, symName: __ZNKSt3__112basic_stringIcNS_11char_traitsIcEENS_9allocatorIcEEE9__is_longB8ne180100Ev, symObjAddr: 0x5660, symBinAddr: 0x100006750, symSize: 0x30 }
  - { offset: 0xEB88, size: 0x8, addend: 0x0, symName: __ZNSt3__112basic_stringIcNS_11char_traitsIcEENS_9allocatorIcEEE18__get_long_pointerB8ne180100Ev, symObjAddr: 0x5690, symBinAddr: 0x100006780, symSize: 0x20 }
  - { offset: 0xEBAE, size: 0x8, addend: 0x0, symName: __ZNSt3__112basic_stringIcNS_11char_traitsIcEENS_9allocatorIcEEE19__get_short_pointerB8ne180100Ev, symObjAddr: 0x56B0, symBinAddr: 0x1000067A0, symSize: 0x30 }
  - { offset: 0xEBD4, size: 0x8, addend: 0x0, symName: __ZNKSt3__117__compressed_pairINS_12basic_stringIcNS_11char_traitsIcEENS_9allocatorIcEEE5__repES5_E5firstB8ne180100Ev, symObjAddr: 0x56E0, symBinAddr: 0x1000067D0, symSize: 0x20 }
  - { offset: 0xEBFA, size: 0x8, addend: 0x0, symName: __ZNKSt3__122__compressed_pair_elemINS_12basic_stringIcNS_11char_traitsIcEENS_9allocatorIcEEE5__repELi0ELb0EE5__getB8ne180100Ev, symObjAddr: 0x5700, symBinAddr: 0x1000067F0, symSize: 0x10 }
  - { offset: 0xEC20, size: 0x8, addend: 0x0, symName: __ZNSt3__117__compressed_pairINS_12basic_stringIcNS_11char_traitsIcEENS_9allocatorIcEEE5__repES5_E5firstB8ne180100Ev, symObjAddr: 0x5710, symBinAddr: 0x100006800, symSize: 0x20 }
  - { offset: 0xEC46, size: 0x8, addend: 0x0, symName: __ZNSt3__122__compressed_pair_elemINS_12basic_stringIcNS_11char_traitsIcEENS_9allocatorIcEEE5__repELi0ELb0EE5__getB8ne180100Ev, symObjAddr: 0x5730, symBinAddr: 0x100006820, symSize: 0x10 }
  - { offset: 0xEC6C, size: 0x8, addend: 0x0, symName: __ZNSt3__114pointer_traitsIPcE10pointer_toB8ne180100ERc, symObjAddr: 0x5740, symBinAddr: 0x100006830, symSize: 0x10 }
  - { offset: 0xEC8F, size: 0x8, addend: 0x0, symName: __ZNSt3__119ostreambuf_iteratorIcNS_11char_traitsIcEEEC2B8ne180100ERNS_13basic_ostreamIcS2_EE, symObjAddr: 0x5750, symBinAddr: 0x100006840, symSize: 0x50 }
  - { offset: 0xECC7, size: 0x8, addend: 0x0, symName: __ZNKSt3__19basic_iosIcNS_11char_traitsIcEEE5rdbufB8ne180100Ev, symObjAddr: 0x57A0, symBinAddr: 0x100006890, symSize: 0x20 }
  - { offset: 0xECEF, size: 0x8, addend: 0x0, symName: __ZNKSt3__18ios_base5rdbufB8ne180100Ev, symObjAddr: 0x57C0, symBinAddr: 0x1000068B0, symSize: 0x20 }
  - { offset: 0xED15, size: 0x8, addend: 0x0, symName: __ZNSt3__111char_traitsIcE11eq_int_typeB8ne180100Eii, symObjAddr: 0x57E0, symBinAddr: 0x1000068D0, symSize: 0x20 }
  - { offset: 0xED48, size: 0x8, addend: 0x0, symName: __ZNSt3__111char_traitsIcE3eofB8ne180100Ev, symObjAddr: 0x5800, symBinAddr: 0x1000068F0, symSize: 0x10 }
  - { offset: 0xED5C, size: 0x8, addend: 0x0, symName: __ZNKSt3__19basic_iosIcNS_11char_traitsIcEEE5widenB8ne180100Ec, symObjAddr: 0x5810, symBinAddr: 0x100006900, symSize: 0x80 }
  - { offset: 0xEDD0, size: 0x8, addend: 0x0, symName: __ZNKSt3__15ctypeIcE5widenB8ne180100Ec, symObjAddr: 0x58C0, symBinAddr: 0x1000069B0, symSize: 0x30 }
  - { offset: 0xEE05, size: 0x8, addend: 0x0, symName: __ZNSt3__18ios_base8setstateB8ne180100Ej, symObjAddr: 0x58F0, symBinAddr: 0x1000069E0, symSize: 0x30 }
...
