---
triple:          'x86_64-apple-darwin'
binary-path:     e
relocations:
  - { offset: 0x5C, size: 0x8, addend: 0x0, symName: __ZNSt3__119piecewise_constructE, symObjAddr: 0x41F4, symBinAddr: 0x100004E28, symSize: 0x0 }
  - { offset: 0x6373, size: 0x8, addend: 0x0, symName: __ZNSt3__124__put_character_sequenceB8ne180100IcNS_11char_traitsIcEEEERNS_13basic_ostreamIT_T0_EES7_PKS4_m, symObjAddr: 0x1E30, symBinAddr: 0x100002980, symSize: 0x1F0 }
  - { offset: 0x823B, size: 0x8, addend: 0x0, symName: __ZNSt3__1eqB8ne180100ERKNS_14__map_iteratorINS_15__tree_iteratorINS_12__value_typeINS_4pairIiiEEiEEPNS_11__tree_nodeIS5_PvEElEEEESD_, symObjAddr: 0x120, symBinAddr: 0x100000C70, symSize: 0x30 }
  - { offset: 0x8278, size: 0x8, addend: 0x0, symName: __ZNSt3__1lsB8ne180100INS_11char_traitsIcEEEERNS_13basic_ostreamIcT_EES6_PKc, symObjAddr: 0x1F0, symBinAddr: 0x100000D40, symSize: 0x40 }
  - { offset: 0x82BE, size: 0x8, addend: 0x0, symName: __ZNSt3__14endlB8ne180100IcNS_11char_traitsIcEEEERNS_13basic_ostreamIT_T0_EES7_, symObjAddr: 0x250, symBinAddr: 0x100000DA0, symSize: 0x50 }
  - { offset: 0x82FE, size: 0x8, addend: 0x0, symName: __ZNSt3__1neB8ne180100IPcEEbRKNS_11__wrap_iterIT_EES6_, symObjAddr: 0x710, symBinAddr: 0x100001260, symSize: 0x30 }
  - { offset: 0x8341, size: 0x8, addend: 0x0, symName: __ZNSt3__1lsB8ne180100INS_11char_traitsIcEEEERNS_13basic_ostreamIcT_EES6_c, symObjAddr: 0x760, symBinAddr: 0x1000012B0, symSize: 0x30 }
  - { offset: 0x8387, size: 0x8, addend: 0x0, symName: __ZNSt3__122__make_exception_guardB8ne180100INS_6vectorIcNS_9allocatorIcEEE16__destroy_vectorEEENS_28__exception_guard_exceptionsIT_EES7_, symObjAddr: 0x930, symBinAddr: 0x100001480, symSize: 0x40 }
  - { offset: 0x83BC, size: 0x8, addend: 0x0, symName: __ZNSt3__119__allocate_at_leastB8ne180100INS_9allocatorIcEEEENS_19__allocation_resultINS_16allocator_traitsIT_E7pointerEEERS5_m, symObjAddr: 0xCE0, symBinAddr: 0x100001830, symSize: 0x40 }
  - { offset: 0x83FF, size: 0x8, addend: 0x0, symName: __ZNSt3__13minB8ne180100ImEERKT_S3_S3_, symObjAddr: 0xD70, symBinAddr: 0x1000018C0, symSize: 0x30 }
  - { offset: 0x862C, size: 0x8, addend: 0x0, symName: __ZNSt3__13minB8ne180100ImNS_6__lessIvvEEEERKT_S5_S5_T0_, symObjAddr: 0xE00, symBinAddr: 0x100001950, symSize: 0x50 }
  - { offset: 0x88B7, size: 0x8, addend: 0x0, symName: __ZNSt3__120__throw_length_errorB8ne180100EPKc, symObjAddr: 0xEE0, symBinAddr: 0x100001A30, symSize: 0x70 }
  - { offset: 0x88DF, size: 0x8, addend: 0x0, symName: __ZNSt3__117__libcpp_allocateB8ne180100Emm, symObjAddr: 0x1050, symBinAddr: 0x100001BA0, symSize: 0x60 }
  - { offset: 0x8939, size: 0x8, addend: 0x0, symName: __ZNSt3__124__is_overaligned_for_newB8ne180100Em, symObjAddr: 0x10B0, symBinAddr: 0x100001C00, symSize: 0x20 }
  - { offset: 0x8967, size: 0x8, addend: 0x0, symName: __ZNSt3__121__libcpp_operator_newB8ne180100IJmSt11align_val_tEEEPvDpT_, symObjAddr: 0x10D0, symBinAddr: 0x100001C20, symSize: 0x30 }
  - { offset: 0x89B4, size: 0x8, addend: 0x0, symName: __ZNSt3__121__libcpp_operator_newB8ne180100IJmEEEPvDpT_, symObjAddr: 0x1100, symBinAddr: 0x100001C50, symSize: 0x20 }
  - { offset: 0x89ED, size: 0x8, addend: 0x0, symName: __ZNSt3__112__to_addressB8ne180100IcEEPT_S2_, symObjAddr: 0x11E0, symBinAddr: 0x100001D30, symSize: 0x10 }
  - { offset: 0x8A22, size: 0x8, addend: 0x0, symName: __ZNSt3__114__construct_atB8ne180100IcJRKcEPcEEPT_S5_DpOT0_, symObjAddr: 0x1250, symBinAddr: 0x100001DA0, symSize: 0x30 }
  - { offset: 0x8A75, size: 0x8, addend: 0x0, symName: __ZNSt3__112construct_atB8ne180100IcJRKcEPcEEPT_S5_DpOT0_, symObjAddr: 0x1280, symBinAddr: 0x100001DD0, symSize: 0x20 }
  - { offset: 0x8AC8, size: 0x8, addend: 0x0, symName: __ZNSt3__112__destroy_atB8ne180100IcLi0EEEvPT_, symObjAddr: 0x14B0, symBinAddr: 0x100002000, symSize: 0x10 }
  - { offset: 0x8AFF, size: 0x8, addend: 0x0, symName: __ZNSt3__119__libcpp_deallocateB8ne180100EPvmm, symObjAddr: 0x1500, symBinAddr: 0x100002050, symSize: 0x60 }
  - { offset: 0x8B64, size: 0x8, addend: 0x0, symName: __ZNSt3__127__do_deallocate_handle_sizeB8ne180100IJSt11align_val_tEEEvPvmDpT_, symObjAddr: 0x1560, symBinAddr: 0x1000020B0, symSize: 0x30 }
  - { offset: 0x8BB7, size: 0x8, addend: 0x0, symName: __ZNSt3__127__do_deallocate_handle_sizeB8ne180100IJEEEvPvmDpT_, symObjAddr: 0x1590, symBinAddr: 0x1000020E0, symSize: 0x20 }
  - { offset: 0x8BF5, size: 0x8, addend: 0x0, symName: __ZNSt3__124__libcpp_operator_deleteB8ne180100IJPvSt11align_val_tEEEvDpT_, symObjAddr: 0x15B0, symBinAddr: 0x100002100, symSize: 0x30 }
  - { offset: 0x8C3E, size: 0x8, addend: 0x0, symName: __ZNSt3__124__libcpp_operator_deleteB8ne180100IJPvEEEvDpT_, symObjAddr: 0x15E0, symBinAddr: 0x100002130, symSize: 0x20 }
  - { offset: 0x8C73, size: 0x8, addend: 0x0, symName: __ZNSt3__1eqB8ne180100IPcEEbRKNS_11__wrap_iterIT_EES6_, symObjAddr: 0x16D0, symBinAddr: 0x100002220, symSize: 0x40 }
  - { offset: 0x8CB6, size: 0x8, addend: 0x0, symName: __ZNSt3__1neB8ne180100ERKNS_15__tree_iteratorINS_12__value_typeINS_4pairIiiEEiEEPNS_11__tree_nodeIS4_PvEElEESB_, symObjAddr: 0x1960, symBinAddr: 0x1000024B0, symSize: 0x30 }
  - { offset: 0x8CF3, size: 0x8, addend: 0x0, symName: __ZNSt3__1ltB8ne180100ENS_15strong_orderingENS_20_CmpUnspecifiedParamE, symObjAddr: 0x1B30, symBinAddr: 0x100002680, symSize: 0x20 }
  - { offset: 0x8D29, size: 0x8, addend: 0x0, symName: __ZNSt3__1ssB8ne180100IiiiiEENS_26common_comparison_categoryIJDTclsr3stdE17__synth_three_wayclsr3stdE7declvalIRT_EEclsr3stdE7declvalIRT1_EEEEDTclsr3stdE17__synth_three_wayclsr3stdE7declvalIRT0_EEclsr3stdE7declvalIRT2_EEEEEE4typeERKNS_4pairIS2_S7_EERKNSE_IS4_S9_EE, symObjAddr: 0x1B50, symBinAddr: 0x1000026A0, symSize: 0x80 }
  - { offset: 0x8DC3, size: 0x8, addend: 0x0, symName: __ZNSt3__117__synth_three_wayB8ne180100IiiEEDaRKT_RKT0_, symObjAddr: 0x1C00, symBinAddr: 0x100002750, symSize: 0x70 }
  - { offset: 0x8E0F, size: 0x8, addend: 0x0, symName: __ZNSt3__1eqB8ne180100ENS_15strong_orderingENS_20_CmpUnspecifiedParamE, symObjAddr: 0x1C70, symBinAddr: 0x1000027C0, symSize: 0x20 }
  - { offset: 0x8E45, size: 0x8, addend: 0x0, symName: __ZNSt3__17launderB8ne180100IKNS_4pairIKNS1_IiiEEiEEEEPT_S7_, symObjAddr: 0x1CA0, symBinAddr: 0x1000027F0, symSize: 0x20 }
  - { offset: 0x8E7C, size: 0x8, addend: 0x0, symName: __ZNSt3__19__launderB8ne180100IKNS_4pairIKNS1_IiiEEiEEEEPT_S7_, symObjAddr: 0x1CC0, symBinAddr: 0x100002810, symSize: 0x10 }
  - { offset: 0x8EE6, size: 0x8, addend: 0x0, symName: __ZNSt3__1eqB8ne180100ERKNS_15__tree_iteratorINS_12__value_typeINS_4pairIiiEEiEEPNS_11__tree_nodeIS4_PvEElEESB_, symObjAddr: 0x1D90, symBinAddr: 0x1000028E0, symSize: 0x30 }
  - { offset: 0x8F23, size: 0x8, addend: 0x0, symName: __ZNSt3__116__pad_and_outputB8ne180100IcNS_11char_traitsIcEEEENS_19ostreambuf_iteratorIT_T0_EES6_PKS4_S8_S8_RNS_8ios_baseES4_, symObjAddr: 0x2070, symBinAddr: 0x100002BC0, symSize: 0x220 }
  - { offset: 0x8FF3, size: 0x8, addend: 0x0, symName: __ZNSt3__19use_facetB8ne180100INS_5ctypeIcEEEERKT_RKNS_6localeE, symObjAddr: 0x27C0, symBinAddr: 0x100003310, symSize: 0x30 }
  - { offset: 0x94C0, size: 0x8, addend: 0x0, symName: __ZNSt3__118__constexpr_strlenB8ne180100EPKc, symObjAddr: 0x2850, symBinAddr: 0x1000033A0, symSize: 0x20 }
  - { offset: 0x9523, size: 0x8, addend: 0x0, symName: __ZNSt3__116forward_as_tupleB8ne180100IJNS_4pairIiiEEEEENS_5tupleIJDpOT_EEES6_, symObjAddr: 0x2970, symBinAddr: 0x1000034C0, symSize: 0x30 }
  - { offset: 0x955C, size: 0x8, addend: 0x0, symName: __ZNSt3__116forward_as_tupleB8ne180100IJEEENS_5tupleIJDpOT_EEES4_, symObjAddr: 0x29A0, symBinAddr: 0x1000034F0, symSize: 0x10 }
  - { offset: 0x959E, size: 0x8, addend: 0x0, symName: __ZNSt3__114__construct_atB8ne180100INS_4pairIKNS1_IiiEEiEEJRKNS_21piecewise_construct_tENS_5tupleIJOS2_EEENS8_IJEEEEPS4_EEPT_SE_DpOT0_, symObjAddr: 0x31A0, symBinAddr: 0x100003CF0, symSize: 0x40 }
  - { offset: 0x9617, size: 0x8, addend: 0x0, symName: __ZNSt3__112construct_atB8ne180100INS_4pairIKNS1_IiiEEiEEJRKNS_21piecewise_construct_tENS_5tupleIJOS2_EEENS8_IJEEEEPS4_EEPT_SE_DpOT0_, symObjAddr: 0x31E0, symBinAddr: 0x100003D30, symSize: 0x40 }
  - { offset: 0x969B, size: 0x8, addend: 0x0, symName: __ZNSt3__13getB8ne180100ILm0EJONS_4pairIiiEEEEERNS_13tuple_elementIXT_ENS_5tupleIJDpT0_EEEE4typeERS8_, symObjAddr: 0x32D0, symBinAddr: 0x100003E20, symSize: 0x20 }
  - { offset: 0x96DE, size: 0x8, addend: 0x0, symName: __ZNSt3__127__tree_balance_after_insertB8ne180100IPNS_16__tree_node_baseIPvEEEEvT_S5_, symObjAddr: 0x3380, symBinAddr: 0x100003ED0, symSize: 0x320 }
  - { offset: 0x975A, size: 0x8, addend: 0x0, symName: __ZNSt3__120__tree_is_left_childB8ne180100IPNS_16__tree_node_baseIPvEEEEbT_, symObjAddr: 0x36E0, symBinAddr: 0x100004230, symSize: 0x30 }
  - { offset: 0x978F, size: 0x8, addend: 0x0, symName: __ZNSt3__118__tree_left_rotateB8ne180100IPNS_16__tree_node_baseIPvEEEEvT_, symObjAddr: 0x3710, symBinAddr: 0x100004260, symSize: 0xD0 }
  - { offset: 0x97CE, size: 0x8, addend: 0x0, symName: __ZNSt3__119__tree_right_rotateB8ne180100IPNS_16__tree_node_baseIPvEEEEvT_, symObjAddr: 0x37E0, symBinAddr: 0x100004330, symSize: 0xC0 }
  - { offset: 0x9810, size: 0x8, addend: 0x0, symName: __ZNSt3__112__destroy_atB8ne180100INS_4pairIKNS1_IiiEEiEELi0EEEvPT_, symObjAddr: 0x3A90, symBinAddr: 0x1000045E0, symSize: 0x10 }
  - { offset: 0x989E, size: 0x8, addend: 0x0, symName: __ZNSt3__17launderB8ne180100INS_4pairIKNS1_IiiEEiEEEEPT_S6_, symObjAddr: 0x3C30, symBinAddr: 0x100004780, symSize: 0x20 }
  - { offset: 0x98D5, size: 0x8, addend: 0x0, symName: __ZNSt3__19__launderB8ne180100INS_4pairIKNS1_IiiEEiEEEEPT_S6_, symObjAddr: 0x3C50, symBinAddr: 0x1000047A0, symSize: 0x10 }
  - { offset: 0xA969, size: 0x8, addend: 0x0, symName: __ZSt28__throw_bad_array_new_lengthB8ne180100v, symObjAddr: 0x1010, symBinAddr: 0x100001B60, symSize: 0x40 }
  - { offset: 0xB2E9, size: 0x8, addend: 0x0, symName: __Z5queryiiRNSt3__13mapINS_4pairIiiEEiNS_4lessIS2_EENS_9allocatorINS1_IKS2_iEEEEEE, symObjAddr: 0x0, symBinAddr: 0x100000B50, symSize: 0x120 }
  - { offset: 0xB332, size: 0x8, addend: 0x0, symName: __ZNSt3__13mapINS_4pairIiiEEiNS_4lessIS2_EENS_9allocatorINS1_IKS2_iEEEEE4findB8ne180100ERS6_, symObjAddr: 0x150, symBinAddr: 0x100000CA0, symSize: 0x40 }
  - { offset: 0xB36C, size: 0x8, addend: 0x0, symName: __ZNSt3__14pairIiiEC1B8ne180100IRiS3_Li0EEEOT_OT0_, symObjAddr: 0x190, symBinAddr: 0x100000CE0, symSize: 0x30 }
  - { offset: 0xB3CA, size: 0x8, addend: 0x0, symName: __ZNSt3__13mapINS_4pairIiiEEiNS_4lessIS2_EENS_9allocatorINS1_IKS2_iEEEEE3endB8ne180100Ev, symObjAddr: 0x1C0, symBinAddr: 0x100000D10, symSize: 0x30 }
  - { offset: 0xB3F0, size: 0x8, addend: 0x0, symName: __ZNSt3__113basic_ostreamIcNS_11char_traitsIcEEElsB8ne180100EPFRS3_S4_E, symObjAddr: 0x230, symBinAddr: 0x100000D80, symSize: 0x20 }
  - { offset: 0xB424, size: 0x8, addend: 0x0, symName: __ZNSt3__13mapINS_4pairIiiEEiNS_4lessIS2_EENS_9allocatorINS1_IKS2_iEEEEEixEOS2_, symObjAddr: 0x2A0, symBinAddr: 0x100000DF0, symSize: 0x70 }
  - { offset: 0xB45B, size: 0x8, addend: 0x0, symName: _main, symObjAddr: 0x310, symBinAddr: 0x100000E60, symSize: 0x330 }
  - { offset: 0xB592, size: 0x8, addend: 0x0, symName: __ZNSt3__13mapINS_4pairIiiEEiNS_4lessIS2_EENS_9allocatorINS1_IKS2_iEEEEEC1B8ne180100Ev, symObjAddr: 0x640, symBinAddr: 0x100001190, symSize: 0x20 }
  - { offset: 0xB5BC, size: 0x8, addend: 0x0, symName: __ZNSt3__16vectorIcNS_9allocatorIcEEEC1EmRKc, symObjAddr: 0x660, symBinAddr: 0x1000011B0, symSize: 0x30 }
  - { offset: 0xB606, size: 0x8, addend: 0x0, symName: __ZNSt3__16vectorIcNS_9allocatorIcEEEixB8ne180100Em, symObjAddr: 0x690, symBinAddr: 0x1000011E0, symSize: 0x20 }
  - { offset: 0xB63D, size: 0x8, addend: 0x0, symName: __ZNSt3__16vectorIcNS_9allocatorIcEEE5beginB8ne180100Ev, symObjAddr: 0x6B0, symBinAddr: 0x100001200, symSize: 0x30 }
  - { offset: 0xB665, size: 0x8, addend: 0x0, symName: __ZNSt3__16vectorIcNS_9allocatorIcEEE3endB8ne180100Ev, symObjAddr: 0x6E0, symBinAddr: 0x100001230, symSize: 0x30 }
  - { offset: 0xB68D, size: 0x8, addend: 0x0, symName: __ZNKSt3__111__wrap_iterIPcEdeB8ne180100Ev, symObjAddr: 0x740, symBinAddr: 0x100001290, symSize: 0x20 }
  - { offset: 0xB6B3, size: 0x8, addend: 0x0, symName: __ZNSt3__111__wrap_iterIPcEppB8ne180100Ev, symObjAddr: 0x790, symBinAddr: 0x1000012E0, symSize: 0x20 }
  - { offset: 0xB6D9, size: 0x8, addend: 0x0, symName: __ZNSt3__16vectorIcNS_9allocatorIcEEED1B8ne180100Ev, symObjAddr: 0x7B0, symBinAddr: 0x100001300, symSize: 0x20 }
  - { offset: 0xB703, size: 0x8, addend: 0x0, symName: __ZNSt3__13mapINS_4pairIiiEEiNS_4lessIS2_EENS_9allocatorINS1_IKS2_iEEEEED1B8ne180100Ev, symObjAddr: 0x7D0, symBinAddr: 0x100001320, symSize: 0x20 }
  - { offset: 0xB72D, size: 0x8, addend: 0x0, symName: __ZNSt3__14pairIiiEC2B8ne180100IRiS3_Li0EEEOT_OT0_, symObjAddr: 0x7F0, symBinAddr: 0x100001340, symSize: 0x30 }
  - { offset: 0xB78B, size: 0x8, addend: 0x0, symName: __ZNSt3__16vectorIcNS_9allocatorIcEEEC2EmRKc, symObjAddr: 0x820, symBinAddr: 0x100001370, symSize: 0xE0 }
  - { offset: 0xB7F4, size: 0x8, addend: 0x0, symName: __ZNSt3__117__compressed_pairIPcNS_9allocatorIcEEEC1B8ne180100IDnNS_18__default_init_tagEEEOT_OT0_, symObjAddr: 0x900, symBinAddr: 0x100001450, symSize: 0x30 }
  - { offset: 0xB84C, size: 0x8, addend: 0x0, symName: __ZNSt3__16vectorIcNS_9allocatorIcEEE16__destroy_vectorC1B8ne180100ERS3_, symObjAddr: 0x970, symBinAddr: 0x1000014C0, symSize: 0x30 }
  - { offset: 0xB885, size: 0x8, addend: 0x0, symName: __ZNSt3__16vectorIcNS_9allocatorIcEEE11__vallocateB8ne180100Em, symObjAddr: 0x9A0, symBinAddr: 0x1000014F0, symSize: 0xA0 }
  - { offset: 0xB8C9, size: 0x8, addend: 0x0, symName: __ZNSt3__16vectorIcNS_9allocatorIcEEE18__construct_at_endEmRKc, symObjAddr: 0xA40, symBinAddr: 0x100001590, symSize: 0xC0 }
  - { offset: 0xB94A, size: 0x8, addend: 0x0, symName: __ZNSt3__128__exception_guard_exceptionsINS_6vectorIcNS_9allocatorIcEEE16__destroy_vectorEE10__completeB8ne180100Ev, symObjAddr: 0xB00, symBinAddr: 0x100001650, symSize: 0x20 }
  - { offset: 0xB970, size: 0x8, addend: 0x0, symName: __ZNSt3__128__exception_guard_exceptionsINS_6vectorIcNS_9allocatorIcEEE16__destroy_vectorEED1B8ne180100Ev, symObjAddr: 0xB20, symBinAddr: 0x100001670, symSize: 0x20 }
  - { offset: 0xB99A, size: 0x8, addend: 0x0, symName: __ZNSt3__117__compressed_pairIPcNS_9allocatorIcEEEC2B8ne180100IDnNS_18__default_init_tagEEEOT_OT0_, symObjAddr: 0xB40, symBinAddr: 0x100001690, symSize: 0x40 }
  - { offset: 0xB9F2, size: 0x8, addend: 0x0, symName: __ZNSt3__122__compressed_pair_elemIPcLi0ELb0EEC2B8ne180100IDnvEEOT_, symObjAddr: 0xB80, symBinAddr: 0x1000016D0, symSize: 0x20 }
  - { offset: 0xBA34, size: 0x8, addend: 0x0, symName: __ZNSt3__122__compressed_pair_elemINS_9allocatorIcEELi1ELb1EEC2B8ne180100ENS_18__default_init_tagE, symObjAddr: 0xBA0, symBinAddr: 0x1000016F0, symSize: 0x20 }
  - { offset: 0xBA68, size: 0x8, addend: 0x0, symName: __ZNSt3__19allocatorIcEC2B8ne180100Ev, symObjAddr: 0xBC0, symBinAddr: 0x100001710, symSize: 0x20 }
  - { offset: 0xBA92, size: 0x8, addend: 0x0, symName: __ZNSt3__116__non_trivial_ifILb1ENS_9allocatorIcEEEC2B8ne180100Ev, symObjAddr: 0xBE0, symBinAddr: 0x100001730, symSize: 0x10 }
  - { offset: 0xBABC, size: 0x8, addend: 0x0, symName: __ZNSt3__128__exception_guard_exceptionsINS_6vectorIcNS_9allocatorIcEEE16__destroy_vectorEEC1B8ne180100ES5_, symObjAddr: 0xBF0, symBinAddr: 0x100001740, symSize: 0x30 }
  - { offset: 0xBAF4, size: 0x8, addend: 0x0, symName: __ZNSt3__128__exception_guard_exceptionsINS_6vectorIcNS_9allocatorIcEEE16__destroy_vectorEEC2B8ne180100ES5_, symObjAddr: 0xC20, symBinAddr: 0x100001770, symSize: 0x20 }
  - { offset: 0xBB2C, size: 0x8, addend: 0x0, symName: __ZNSt3__16vectorIcNS_9allocatorIcEEE16__destroy_vectorC2B8ne180100ERS3_, symObjAddr: 0xC40, symBinAddr: 0x100001790, symSize: 0x20 }
  - { offset: 0xBB65, size: 0x8, addend: 0x0, symName: __ZNKSt3__16vectorIcNS_9allocatorIcEEE8max_sizeEv, symObjAddr: 0xC60, symBinAddr: 0x1000017B0, symSize: 0x60 }
  - { offset: 0xBB8D, size: 0x8, addend: 0x0, symName: __ZNKSt3__16vectorIcNS_9allocatorIcEEE20__throw_length_errorB8ne180100Ev, symObjAddr: 0xCC0, symBinAddr: 0x100001810, symSize: 0x20 }
  - { offset: 0xBBB3, size: 0x8, addend: 0x0, symName: __ZNSt3__16vectorIcNS_9allocatorIcEEE7__allocB8ne180100Ev, symObjAddr: 0xD20, symBinAddr: 0x100001870, symSize: 0x20 }
  - { offset: 0xBBD9, size: 0x8, addend: 0x0, symName: __ZNSt3__16vectorIcNS_9allocatorIcEEE9__end_capB8ne180100Ev, symObjAddr: 0xD40, symBinAddr: 0x100001890, symSize: 0x20 }
  - { offset: 0xBBFF, size: 0x8, addend: 0x0, symName: __ZNKSt3__16vectorIcNS_9allocatorIcEEE14__annotate_newB8ne180100Em, symObjAddr: 0xD60, symBinAddr: 0x1000018B0, symSize: 0x10 }
  - { offset: 0xBC3E, size: 0x8, addend: 0x0, symName: __ZNSt3__116allocator_traitsINS_9allocatorIcEEE8max_sizeB8ne180100IS2_vvEEmRKS2_, symObjAddr: 0xDA0, symBinAddr: 0x1000018F0, symSize: 0x20 }
  - { offset: 0xBC6A, size: 0x8, addend: 0x0, symName: __ZNKSt3__16vectorIcNS_9allocatorIcEEE7__allocB8ne180100Ev, symObjAddr: 0xDC0, symBinAddr: 0x100001910, symSize: 0x20 }
  - { offset: 0xBC90, size: 0x8, addend: 0x0, symName: __ZNSt3__114numeric_limitsIlE3maxB8ne180100Ev, symObjAddr: 0xDE0, symBinAddr: 0x100001930, symSize: 0x10 }
  - { offset: 0xBCAE, size: 0x8, addend: 0x0, symName: __ZNKSt3__16__lessIvvEclB8ne180100ImmEEbRKT_RKT0_, symObjAddr: 0xE50, symBinAddr: 0x1000019A0, symSize: 0x30 }
  - { offset: 0xBD02, size: 0x8, addend: 0x0, symName: __ZNSt3__114numeric_limitsImE3maxB8ne180100Ev, symObjAddr: 0xE80, symBinAddr: 0x1000019D0, symSize: 0x10 }
  - { offset: 0xBD16, size: 0x8, addend: 0x0, symName: __ZNSt3__123__libcpp_numeric_limitsImLb1EE3maxB8ne180100Ev, symObjAddr: 0xE90, symBinAddr: 0x1000019E0, symSize: 0x10 }
  - { offset: 0xBD2A, size: 0x8, addend: 0x0, symName: __ZNKSt3__117__compressed_pairIPcNS_9allocatorIcEEE6secondB8ne180100Ev, symObjAddr: 0xEA0, symBinAddr: 0x1000019F0, symSize: 0x20 }
  - { offset: 0xBD50, size: 0x8, addend: 0x0, symName: __ZNKSt3__122__compressed_pair_elemINS_9allocatorIcEELi1ELb1EE5__getB8ne180100Ev, symObjAddr: 0xEC0, symBinAddr: 0x100001A10, symSize: 0x10 }
  - { offset: 0xBD76, size: 0x8, addend: 0x0, symName: __ZNSt3__123__libcpp_numeric_limitsIlLb1EE3maxB8ne180100Ev, symObjAddr: 0xED0, symBinAddr: 0x100001A20, symSize: 0x10 }
  - { offset: 0xBD8A, size: 0x8, addend: 0x0, symName: __ZNSt12length_errorC1B8ne180100EPKc, symObjAddr: 0xF50, symBinAddr: 0x100001AA0, symSize: 0x30 }
  - { offset: 0xBDC2, size: 0x8, addend: 0x0, symName: __ZNSt12length_errorC2B8ne180100EPKc, symObjAddr: 0xF80, symBinAddr: 0x100001AD0, symSize: 0x40 }
  - { offset: 0xBDFA, size: 0x8, addend: 0x0, symName: __ZNSt3__19allocatorIcE8allocateB8ne180100Em, symObjAddr: 0xFC0, symBinAddr: 0x100001B10, symSize: 0x50 }
  - { offset: 0xBE2E, size: 0x8, addend: 0x0, symName: __ZNSt3__117__compressed_pairIPcNS_9allocatorIcEEE6secondB8ne180100Ev, symObjAddr: 0x1120, symBinAddr: 0x100001C70, symSize: 0x20 }
  - { offset: 0xBE54, size: 0x8, addend: 0x0, symName: __ZNSt3__122__compressed_pair_elemINS_9allocatorIcEELi1ELb1EE5__getB8ne180100Ev, symObjAddr: 0x1140, symBinAddr: 0x100001C90, symSize: 0x10 }
  - { offset: 0xBE7A, size: 0x8, addend: 0x0, symName: __ZNSt3__117__compressed_pairIPcNS_9allocatorIcEEE5firstB8ne180100Ev, symObjAddr: 0x1150, symBinAddr: 0x100001CA0, symSize: 0x20 }
  - { offset: 0xBEA0, size: 0x8, addend: 0x0, symName: __ZNSt3__122__compressed_pair_elemIPcLi0ELb0EE5__getB8ne180100Ev, symObjAddr: 0x1170, symBinAddr: 0x100001CC0, symSize: 0x10 }
  - { offset: 0xBEDF, size: 0x8, addend: 0x0, symName: __ZNSt3__16vectorIcNS_9allocatorIcEEE21_ConstructTransactionC1B8ne180100ERS3_m, symObjAddr: 0x1180, symBinAddr: 0x100001CD0, symSize: 0x30 }
  - { offset: 0xBF27, size: 0x8, addend: 0x0, symName: __ZNSt3__116allocator_traitsINS_9allocatorIcEEE9constructB8ne180100IcJRKcEvvEEvRS2_PT_DpOT0_, symObjAddr: 0x11B0, symBinAddr: 0x100001D00, symSize: 0x30 }
  - { offset: 0xBF7C, size: 0x8, addend: 0x0, symName: __ZNSt3__16vectorIcNS_9allocatorIcEEE21_ConstructTransactionD1B8ne180100Ev, symObjAddr: 0x11F0, symBinAddr: 0x100001D40, symSize: 0x20 }
  - { offset: 0xBFA6, size: 0x8, addend: 0x0, symName: __ZNSt3__16vectorIcNS_9allocatorIcEEE21_ConstructTransactionC2B8ne180100ERS3_m, symObjAddr: 0x1210, symBinAddr: 0x100001D60, symSize: 0x40 }
  - { offset: 0xBFEE, size: 0x8, addend: 0x0, symName: __ZNSt3__16vectorIcNS_9allocatorIcEEE21_ConstructTransactionD2B8ne180100Ev, symObjAddr: 0x12A0, symBinAddr: 0x100001DF0, symSize: 0x20 }
  - { offset: 0xC018, size: 0x8, addend: 0x0, symName: __ZNSt3__128__exception_guard_exceptionsINS_6vectorIcNS_9allocatorIcEEE16__destroy_vectorEED2B8ne180100Ev, symObjAddr: 0x12C0, symBinAddr: 0x100001E10, symSize: 0x40 }
  - { offset: 0xC042, size: 0x8, addend: 0x0, symName: __ZNSt3__16vectorIcNS_9allocatorIcEEE16__destroy_vectorclB8ne180100Ev, symObjAddr: 0x1300, symBinAddr: 0x100001E50, symSize: 0x80 }
  - { offset: 0xC068, size: 0x8, addend: 0x0, symName: __ZNSt3__16vectorIcNS_9allocatorIcEEE7__clearB8ne180100Ev, symObjAddr: 0x1380, symBinAddr: 0x100001ED0, symSize: 0x20 }
  - { offset: 0xC08E, size: 0x8, addend: 0x0, symName: __ZNKSt3__16vectorIcNS_9allocatorIcEEE17__annotate_deleteB8ne180100Ev, symObjAddr: 0x13A0, symBinAddr: 0x100001EF0, symSize: 0x10 }
  - { offset: 0xC0B4, size: 0x8, addend: 0x0, symName: __ZNSt3__116allocator_traitsINS_9allocatorIcEEE10deallocateB8ne180100ERS2_Pcm, symObjAddr: 0x13B0, symBinAddr: 0x100001F00, symSize: 0x30 }
  - { offset: 0xC0F6, size: 0x8, addend: 0x0, symName: __ZNKSt3__16vectorIcNS_9allocatorIcEEE8capacityB8ne180100Ev, symObjAddr: 0x13E0, symBinAddr: 0x100001F30, symSize: 0x30 }
  - { offset: 0xC11C, size: 0x8, addend: 0x0, symName: __ZNSt3__16vectorIcNS_9allocatorIcEEE22__base_destruct_at_endB8ne180100EPc, symObjAddr: 0x1410, symBinAddr: 0x100001F60, symSize: 0x80 }
  - { offset: 0xC160, size: 0x8, addend: 0x0, symName: __ZNSt3__116allocator_traitsINS_9allocatorIcEEE7destroyB8ne180100IcvvEEvRS2_PT_, symObjAddr: 0x1490, symBinAddr: 0x100001FE0, symSize: 0x20 }
  - { offset: 0xC19B, size: 0x8, addend: 0x0, symName: __ZNSt3__19allocatorIcE10deallocateB8ne180100EPcm, symObjAddr: 0x14C0, symBinAddr: 0x100002010, symSize: 0x40 }
  - { offset: 0xC1DD, size: 0x8, addend: 0x0, symName: __ZNKSt3__16vectorIcNS_9allocatorIcEEE9__end_capB8ne180100Ev, symObjAddr: 0x1600, symBinAddr: 0x100002150, symSize: 0x20 }
  - { offset: 0xC203, size: 0x8, addend: 0x0, symName: __ZNKSt3__117__compressed_pairIPcNS_9allocatorIcEEE5firstB8ne180100Ev, symObjAddr: 0x1620, symBinAddr: 0x100002170, symSize: 0x20 }
  - { offset: 0xC229, size: 0x8, addend: 0x0, symName: __ZNKSt3__122__compressed_pair_elemIPcLi0ELb0EE5__getB8ne180100Ev, symObjAddr: 0x1640, symBinAddr: 0x100002190, symSize: 0x10 }
  - { offset: 0xC24F, size: 0x8, addend: 0x0, symName: __ZNSt3__16vectorIcNS_9allocatorIcEEE11__make_iterB8ne180100EPc, symObjAddr: 0x1650, symBinAddr: 0x1000021A0, symSize: 0x30 }
  - { offset: 0xC284, size: 0x8, addend: 0x0, symName: __ZNSt3__111__wrap_iterIPcEC1B8ne180100ES1_, symObjAddr: 0x1680, symBinAddr: 0x1000021D0, symSize: 0x30 }
  - { offset: 0xC2BC, size: 0x8, addend: 0x0, symName: __ZNSt3__111__wrap_iterIPcEC2B8ne180100ES1_, symObjAddr: 0x16B0, symBinAddr: 0x100002200, symSize: 0x20 }
  - { offset: 0xC2F4, size: 0x8, addend: 0x0, symName: __ZNKSt3__111__wrap_iterIPcE4baseB8ne180100Ev, symObjAddr: 0x1710, symBinAddr: 0x100002260, symSize: 0x20 }
  - { offset: 0xC31A, size: 0x8, addend: 0x0, symName: __ZNSt3__16vectorIcNS_9allocatorIcEEED2B8ne180100Ev, symObjAddr: 0x1730, symBinAddr: 0x100002280, symSize: 0x40 }
  - { offset: 0xC344, size: 0x8, addend: 0x0, symName: __ZNSt3__16__treeINS_12__value_typeINS_4pairIiiEEiEENS_19__map_value_compareIS3_S4_NS_4lessIS3_EELb1EEENS_9allocatorIS4_EEE4findIS3_EENS_15__tree_iteratorIS4_PNS_11__tree_nodeIS4_PvEElEERKT_, symObjAddr: 0x1770, symBinAddr: 0x1000022C0, symSize: 0xE0 }
  - { offset: 0xC393, size: 0x8, addend: 0x0, symName: __ZNSt3__114__map_iteratorINS_15__tree_iteratorINS_12__value_typeINS_4pairIiiEEiEEPNS_11__tree_nodeIS5_PvEElEEEC1B8ne180100ESA_, symObjAddr: 0x1850, symBinAddr: 0x1000023A0, symSize: 0x30 }
  - { offset: 0xC3CC, size: 0x8, addend: 0x0, symName: __ZNSt3__16__treeINS_12__value_typeINS_4pairIiiEEiEENS_19__map_value_compareIS3_S4_NS_4lessIS3_EELb1EEENS_9allocatorIS4_EEE13__lower_boundIS3_EENS_15__tree_iteratorIS4_PNS_11__tree_nodeIS4_PvEElEERKT_SH_PNS_15__tree_end_nodeIPNS_16__tree_node_baseISF_EEEE, symObjAddr: 0x1880, symBinAddr: 0x1000023D0, symSize: 0x90 }
  - { offset: 0xC42A, size: 0x8, addend: 0x0, symName: __ZNKSt3__16__treeINS_12__value_typeINS_4pairIiiEEiEENS_19__map_value_compareIS3_S4_NS_4lessIS3_EELb1EEENS_9allocatorIS4_EEE6__rootB8ne180100Ev, symObjAddr: 0x1910, symBinAddr: 0x100002460, symSize: 0x20 }
  - { offset: 0xC450, size: 0x8, addend: 0x0, symName: __ZNSt3__16__treeINS_12__value_typeINS_4pairIiiEEiEENS_19__map_value_compareIS3_S4_NS_4lessIS3_EELb1EEENS_9allocatorIS4_EEE10__end_nodeB8ne180100Ev, symObjAddr: 0x1930, symBinAddr: 0x100002480, symSize: 0x30 }
  - { offset: 0xC476, size: 0x8, addend: 0x0, symName: __ZNSt3__16__treeINS_12__value_typeINS_4pairIiiEEiEENS_19__map_value_compareIS3_S4_NS_4lessIS3_EELb1EEENS_9allocatorIS4_EEE3endB8ne180100Ev, symObjAddr: 0x1990, symBinAddr: 0x1000024E0, symSize: 0x30 }
  - { offset: 0xC49C, size: 0x8, addend: 0x0, symName: __ZNSt3__16__treeINS_12__value_typeINS_4pairIiiEEiEENS_19__map_value_compareIS3_S4_NS_4lessIS3_EELb1EEENS_9allocatorIS4_EEE10value_compB8ne180100Ev, symObjAddr: 0x19C0, symBinAddr: 0x100002510, symSize: 0x20 }
  - { offset: 0xC4C2, size: 0x8, addend: 0x0, symName: __ZNKSt3__119__map_value_compareINS_4pairIiiEENS_12__value_typeIS2_iEENS_4lessIS2_EELb1EEclB8ne180100ERKS2_RKS4_, symObjAddr: 0x19E0, symBinAddr: 0x100002530, symSize: 0x50 }
  - { offset: 0xC506, size: 0x8, addend: 0x0, symName: __ZNKSt3__115__tree_iteratorINS_12__value_typeINS_4pairIiiEEiEEPNS_11__tree_nodeIS4_PvEElEdeB8ne180100Ev, symObjAddr: 0x1A30, symBinAddr: 0x100002580, symSize: 0x20 }
  - { offset: 0xC52C, size: 0x8, addend: 0x0, symName: __ZNKSt3__119__map_value_compareINS_4pairIiiEENS_12__value_typeIS2_iEENS_4lessIS2_EELb1EEclB8ne180100ERKS4_RKS2_, symObjAddr: 0x1A50, symBinAddr: 0x1000025A0, symSize: 0x40 }
  - { offset: 0xC570, size: 0x8, addend: 0x0, symName: __ZNSt3__115__tree_iteratorINS_12__value_typeINS_4pairIiiEEiEEPNS_11__tree_nodeIS4_PvEElEC1B8ne180100EPNS_15__tree_end_nodeIPNS_16__tree_node_baseIS6_EEEE, symObjAddr: 0x1A90, symBinAddr: 0x1000025E0, symSize: 0x30 }
  - { offset: 0xC5A9, size: 0x8, addend: 0x0, symName: __ZNKSt3__14lessINS_4pairIiiEEEclB8ne180100ERKS2_S5_, symObjAddr: 0x1AC0, symBinAddr: 0x100002610, symSize: 0x50 }
  - { offset: 0xC5ED, size: 0x8, addend: 0x0, symName: __ZNKSt3__112__value_typeINS_4pairIiiEEiE11__get_valueB8ne180100Ev, symObjAddr: 0x1B10, symBinAddr: 0x100002660, symSize: 0x20 }
  - { offset: 0xC622, size: 0x8, addend: 0x0, symName: __ZNSt3__120_CmpUnspecifiedParamC1B8ne180100EMS0_i, symObjAddr: 0x1BD0, symBinAddr: 0x100002720, symSize: 0x30 }
  - { offset: 0xC656, size: 0x8, addend: 0x0, symName: __ZNSt3__120_CmpUnspecifiedParamC2B8ne180100EMS0_i, symObjAddr: 0x1C90, symBinAddr: 0x1000027E0, symSize: 0x10 }
  - { offset: 0xC68A, size: 0x8, addend: 0x0, symName: __ZNSt3__115__tree_iteratorINS_12__value_typeINS_4pairIiiEEiEEPNS_11__tree_nodeIS4_PvEElEC2B8ne180100EPNS_15__tree_end_nodeIPNS_16__tree_node_baseIS6_EEEE, symObjAddr: 0x1CD0, symBinAddr: 0x100002820, symSize: 0x20 }
  - { offset: 0xC6C3, size: 0x8, addend: 0x0, symName: __ZNKSt3__16__treeINS_12__value_typeINS_4pairIiiEEiEENS_19__map_value_compareIS3_S4_NS_4lessIS3_EELb1EEENS_9allocatorIS4_EEE10__end_nodeB8ne180100Ev, symObjAddr: 0x1CF0, symBinAddr: 0x100002840, symSize: 0x30 }
  - { offset: 0xC6E9, size: 0x8, addend: 0x0, symName: __ZNSt3__114pointer_traitsIPNS_15__tree_end_nodeIPNS_16__tree_node_baseIPvEEEEE10pointer_toB8ne180100ERS6_, symObjAddr: 0x1D20, symBinAddr: 0x100002870, symSize: 0x10 }
  - { offset: 0xC70C, size: 0x8, addend: 0x0, symName: __ZNKSt3__117__compressed_pairINS_15__tree_end_nodeIPNS_16__tree_node_baseIPvEEEENS_9allocatorINS_11__tree_nodeINS_12__value_typeINS_4pairIiiEEiEES3_EEEEE5firstB8ne180100Ev, symObjAddr: 0x1D30, symBinAddr: 0x100002880, symSize: 0x20 }
  - { offset: 0xC732, size: 0x8, addend: 0x0, symName: __ZNKSt3__122__compressed_pair_elemINS_15__tree_end_nodeIPNS_16__tree_node_baseIPvEEEELi0ELb0EE5__getB8ne180100Ev, symObjAddr: 0x1D50, symBinAddr: 0x1000028A0, symSize: 0x10 }
  - { offset: 0xC758, size: 0x8, addend: 0x0, symName: __ZNSt3__117__compressed_pairINS_15__tree_end_nodeIPNS_16__tree_node_baseIPvEEEENS_9allocatorINS_11__tree_nodeINS_12__value_typeINS_4pairIiiEEiEES3_EEEEE5firstB8ne180100Ev, symObjAddr: 0x1D60, symBinAddr: 0x1000028B0, symSize: 0x20 }
  - { offset: 0xC77E, size: 0x8, addend: 0x0, symName: __ZNSt3__122__compressed_pair_elemINS_15__tree_end_nodeIPNS_16__tree_node_baseIPvEEEELi0ELb0EE5__getB8ne180100Ev, symObjAddr: 0x1D80, symBinAddr: 0x1000028D0, symSize: 0x10 }
  - { offset: 0xC7A4, size: 0x8, addend: 0x0, symName: __ZNSt3__117__compressed_pairImNS_19__map_value_compareINS_4pairIiiEENS_12__value_typeIS3_iEENS_4lessIS3_EELb1EEEE6secondB8ne180100Ev, symObjAddr: 0x1DC0, symBinAddr: 0x100002910, symSize: 0x20 }
  - { offset: 0xC7CA, size: 0x8, addend: 0x0, symName: __ZNSt3__122__compressed_pair_elemINS_19__map_value_compareINS_4pairIiiEENS_12__value_typeIS3_iEENS_4lessIS3_EELb1EEELi1ELb1EE5__getB8ne180100Ev, symObjAddr: 0x1DE0, symBinAddr: 0x100002930, symSize: 0x10 }
  - { offset: 0xC7F0, size: 0x8, addend: 0x0, symName: __ZNKSt3__115__tree_iteratorINS_12__value_typeINS_4pairIiiEEiEEPNS_11__tree_nodeIS4_PvEElE8__get_npB8ne180100Ev, symObjAddr: 0x1DF0, symBinAddr: 0x100002940, symSize: 0x20 }
  - { offset: 0xC816, size: 0x8, addend: 0x0, symName: __ZNSt3__114__map_iteratorINS_15__tree_iteratorINS_12__value_typeINS_4pairIiiEEiEEPNS_11__tree_nodeIS5_PvEElEEEC2B8ne180100ESA_, symObjAddr: 0x1E10, symBinAddr: 0x100002960, symSize: 0x20 }
  - { offset: 0xC84F, size: 0x8, addend: 0x0, symName: __ZNSt3__111char_traitsIcE6lengthB8ne180100EPKc, symObjAddr: 0x2020, symBinAddr: 0x100002B70, symSize: 0x30 }
  - { offset: 0xC890, size: 0x8, addend: 0x0, symName: __ZNKSt3__113basic_ostreamIcNS_11char_traitsIcEEE6sentrycvbB8ne180100Ev, symObjAddr: 0x2050, symBinAddr: 0x100002BA0, symSize: 0x20 }
  - { offset: 0xC8B6, size: 0x8, addend: 0x0, symName: __ZNSt3__119ostreambuf_iteratorIcNS_11char_traitsIcEEEC1B8ne180100ERNS_13basic_ostreamIcS2_EE, symObjAddr: 0x2290, symBinAddr: 0x100002DE0, symSize: 0x30 }
  - { offset: 0xC8EE, size: 0x8, addend: 0x0, symName: __ZNKSt3__18ios_base5flagsB8ne180100Ev, symObjAddr: 0x22C0, symBinAddr: 0x100002E10, symSize: 0x20 }
  - { offset: 0xC916, size: 0x8, addend: 0x0, symName: __ZNKSt3__19basic_iosIcNS_11char_traitsIcEEE4fillB8ne180100Ev, symObjAddr: 0x22E0, symBinAddr: 0x100002E30, symSize: 0x70 }
  - { offset: 0xC93E, size: 0x8, addend: 0x0, symName: __ZNKSt3__119ostreambuf_iteratorIcNS_11char_traitsIcEEE6failedB8ne180100Ev, symObjAddr: 0x2350, symBinAddr: 0x100002EA0, symSize: 0x20 }
  - { offset: 0xC964, size: 0x8, addend: 0x0, symName: __ZNSt3__19basic_iosIcNS_11char_traitsIcEEE8setstateB8ne180100Ej, symObjAddr: 0x2370, symBinAddr: 0x100002EC0, symSize: 0x30 }
  - { offset: 0xC999, size: 0x8, addend: 0x0, symName: __ZNKSt3__18ios_base5widthB8ne180100Ev, symObjAddr: 0x23A0, symBinAddr: 0x100002EF0, symSize: 0x20 }
  - { offset: 0xC9C1, size: 0x8, addend: 0x0, symName: __ZNSt3__115basic_streambufIcNS_11char_traitsIcEEE5sputnB8ne180100EPKcl, symObjAddr: 0x23C0, symBinAddr: 0x100002F10, symSize: 0x30 }
  - { offset: 0xCA03, size: 0x8, addend: 0x0, symName: __ZNSt3__112basic_stringIcNS_11char_traitsIcEENS_9allocatorIcEEEC1B8ne180100Emc, symObjAddr: 0x23F0, symBinAddr: 0x100002F40, symSize: 0x30 }
  - { offset: 0xCA4B, size: 0x8, addend: 0x0, symName: __ZNSt3__112basic_stringIcNS_11char_traitsIcEENS_9allocatorIcEEE4dataB8ne180100Ev, symObjAddr: 0x2420, symBinAddr: 0x100002F70, symSize: 0x30 }
  - { offset: 0xCA71, size: 0x8, addend: 0x0, symName: __ZNSt3__18ios_base5widthB8ne180100El, symObjAddr: 0x2450, symBinAddr: 0x100002FA0, symSize: 0x30 }
  - { offset: 0xCAB7, size: 0x8, addend: 0x0, symName: __ZNSt3__112basic_stringIcNS_11char_traitsIcEENS_9allocatorIcEEEC2B8ne180100Emc, symObjAddr: 0x2480, symBinAddr: 0x100002FD0, symSize: 0x50 }
  - { offset: 0xCAFF, size: 0x8, addend: 0x0, symName: __ZNSt3__117__compressed_pairINS_12basic_stringIcNS_11char_traitsIcEENS_9allocatorIcEEE5__repES5_EC1B8ne180100INS_18__default_init_tagESA_EEOT_OT0_, symObjAddr: 0x24D0, symBinAddr: 0x100003020, symSize: 0x30 }
  - { offset: 0xCB57, size: 0x8, addend: 0x0, symName: __ZNSt3__117__compressed_pairINS_12basic_stringIcNS_11char_traitsIcEENS_9allocatorIcEEE5__repES5_EC2B8ne180100INS_18__default_init_tagESA_EEOT_OT0_, symObjAddr: 0x2500, symBinAddr: 0x100003050, symSize: 0x30 }
  - { offset: 0xCBAF, size: 0x8, addend: 0x0, symName: __ZNSt3__122__compressed_pair_elemINS_12basic_stringIcNS_11char_traitsIcEENS_9allocatorIcEEE5__repELi0ELb0EEC2B8ne180100ENS_18__default_init_tagE, symObjAddr: 0x2530, symBinAddr: 0x100003080, symSize: 0x10 }
  - { offset: 0xCBE3, size: 0x8, addend: 0x0, symName: __ZNSt3__112basic_stringIcNS_11char_traitsIcEENS_9allocatorIcEEE13__get_pointerB8ne180100Ev, symObjAddr: 0x2540, symBinAddr: 0x100003090, symSize: 0x50 }
  - { offset: 0xCC09, size: 0x8, addend: 0x0, symName: __ZNKSt3__112basic_stringIcNS_11char_traitsIcEENS_9allocatorIcEEE9__is_longB8ne180100Ev, symObjAddr: 0x2590, symBinAddr: 0x1000030E0, symSize: 0x30 }
  - { offset: 0xCC2F, size: 0x8, addend: 0x0, symName: __ZNSt3__112basic_stringIcNS_11char_traitsIcEENS_9allocatorIcEEE18__get_long_pointerB8ne180100Ev, symObjAddr: 0x25C0, symBinAddr: 0x100003110, symSize: 0x20 }
  - { offset: 0xCC55, size: 0x8, addend: 0x0, symName: __ZNSt3__112basic_stringIcNS_11char_traitsIcEENS_9allocatorIcEEE19__get_short_pointerB8ne180100Ev, symObjAddr: 0x25E0, symBinAddr: 0x100003130, symSize: 0x30 }
  - { offset: 0xCC7B, size: 0x8, addend: 0x0, symName: __ZNKSt3__117__compressed_pairINS_12basic_stringIcNS_11char_traitsIcEENS_9allocatorIcEEE5__repES5_E5firstB8ne180100Ev, symObjAddr: 0x2610, symBinAddr: 0x100003160, symSize: 0x20 }
  - { offset: 0xCCA1, size: 0x8, addend: 0x0, symName: __ZNKSt3__122__compressed_pair_elemINS_12basic_stringIcNS_11char_traitsIcEENS_9allocatorIcEEE5__repELi0ELb0EE5__getB8ne180100Ev, symObjAddr: 0x2630, symBinAddr: 0x100003180, symSize: 0x10 }
  - { offset: 0xCCC7, size: 0x8, addend: 0x0, symName: __ZNSt3__117__compressed_pairINS_12basic_stringIcNS_11char_traitsIcEENS_9allocatorIcEEE5__repES5_E5firstB8ne180100Ev, symObjAddr: 0x2640, symBinAddr: 0x100003190, symSize: 0x20 }
  - { offset: 0xCCED, size: 0x8, addend: 0x0, symName: __ZNSt3__122__compressed_pair_elemINS_12basic_stringIcNS_11char_traitsIcEENS_9allocatorIcEEE5__repELi0ELb0EE5__getB8ne180100Ev, symObjAddr: 0x2660, symBinAddr: 0x1000031B0, symSize: 0x10 }
  - { offset: 0xCD13, size: 0x8, addend: 0x0, symName: __ZNSt3__114pointer_traitsIPcE10pointer_toB8ne180100ERc, symObjAddr: 0x2670, symBinAddr: 0x1000031C0, symSize: 0x10 }
  - { offset: 0xCD36, size: 0x8, addend: 0x0, symName: __ZNSt3__119ostreambuf_iteratorIcNS_11char_traitsIcEEEC2B8ne180100ERNS_13basic_ostreamIcS2_EE, symObjAddr: 0x2680, symBinAddr: 0x1000031D0, symSize: 0x50 }
  - { offset: 0xCD6E, size: 0x8, addend: 0x0, symName: __ZNKSt3__19basic_iosIcNS_11char_traitsIcEEE5rdbufB8ne180100Ev, symObjAddr: 0x26D0, symBinAddr: 0x100003220, symSize: 0x20 }
  - { offset: 0xCD96, size: 0x8, addend: 0x0, symName: __ZNKSt3__18ios_base5rdbufB8ne180100Ev, symObjAddr: 0x26F0, symBinAddr: 0x100003240, symSize: 0x20 }
  - { offset: 0xCDBC, size: 0x8, addend: 0x0, symName: __ZNSt3__111char_traitsIcE11eq_int_typeB8ne180100Eii, symObjAddr: 0x2710, symBinAddr: 0x100003260, symSize: 0x20 }
  - { offset: 0xCDEF, size: 0x8, addend: 0x0, symName: __ZNSt3__111char_traitsIcE3eofB8ne180100Ev, symObjAddr: 0x2730, symBinAddr: 0x100003280, symSize: 0x10 }
  - { offset: 0xCE03, size: 0x8, addend: 0x0, symName: __ZNKSt3__19basic_iosIcNS_11char_traitsIcEEE5widenB8ne180100Ec, symObjAddr: 0x2740, symBinAddr: 0x100003290, symSize: 0x80 }
  - { offset: 0xCE7C, size: 0x8, addend: 0x0, symName: __ZNKSt3__15ctypeIcE5widenB8ne180100Ec, symObjAddr: 0x27F0, symBinAddr: 0x100003340, symSize: 0x30 }
  - { offset: 0xCEB1, size: 0x8, addend: 0x0, symName: __ZNSt3__18ios_base8setstateB8ne180100Ej, symObjAddr: 0x2820, symBinAddr: 0x100003370, symSize: 0x30 }
  - { offset: 0xCEFC, size: 0x8, addend: 0x0, symName: __ZNSt3__16__treeINS_12__value_typeINS_4pairIiiEEiEENS_19__map_value_compareIS3_S4_NS_4lessIS3_EELb1EEENS_9allocatorIS4_EEE25__emplace_unique_key_argsIS3_JRKNS_21piecewise_construct_tENS_5tupleIJOS3_EEENSG_IJEEEEEENS2_INS_15__tree_iteratorIS4_PNS_11__tree_nodeIS4_PvEElEEbEERKT_DpOT0_, symObjAddr: 0x2870, symBinAddr: 0x1000033C0, symSize: 0x100 }
  - { offset: 0xCFDB, size: 0x8, addend: 0x0, symName: __ZNKSt3__115__tree_iteratorINS_12__value_typeINS_4pairIiiEEiEEPNS_11__tree_nodeIS4_PvEElEptB8ne180100Ev, symObjAddr: 0x29B0, symBinAddr: 0x100003500, symSize: 0x30 }
  - { offset: 0xD001, size: 0x8, addend: 0x0, symName: __ZNSt3__112__value_typeINS_4pairIiiEEiE11__get_valueB8ne180100Ev, symObjAddr: 0x29E0, symBinAddr: 0x100003530, symSize: 0x20 }
  - { offset: 0xD027, size: 0x8, addend: 0x0, symName: __ZNSt3__16__treeINS_12__value_typeINS_4pairIiiEEiEENS_19__map_value_compareIS3_S4_NS_4lessIS3_EELb1EEENS_9allocatorIS4_EEE12__find_equalIS3_EERPNS_16__tree_node_baseIPvEERPNS_15__tree_end_nodeISG_EERKT_, symObjAddr: 0x2A00, symBinAddr: 0x100003550, symSize: 0x180 }
  - { offset: 0xD094, size: 0x8, addend: 0x0, symName: __ZNSt3__16__treeINS_12__value_typeINS_4pairIiiEEiEENS_19__map_value_compareIS3_S4_NS_4lessIS3_EELb1EEENS_9allocatorIS4_EEE16__construct_nodeIJRKNS_21piecewise_construct_tENS_5tupleIJOS3_EEENSG_IJEEEEEENS_10unique_ptrINS_11__tree_nodeIS4_PvEENS_22__tree_node_destructorINS9_ISN_EEEEEEDpOT_, symObjAddr: 0x2B80, symBinAddr: 0x1000036D0, symSize: 0x120 }
  - { offset: 0xD11D, size: 0x8, addend: 0x0, symName: __ZNSt3__16__treeINS_12__value_typeINS_4pairIiiEEiEENS_19__map_value_compareIS3_S4_NS_4lessIS3_EELb1EEENS_9allocatorIS4_EEE16__insert_node_atEPNS_15__tree_end_nodeIPNS_16__tree_node_baseIPvEEEERSG_SG_, symObjAddr: 0x2CA0, symBinAddr: 0x1000037F0, symSize: 0xC0 }
  - { offset: 0xD172, size: 0x8, addend: 0x0, symName: __ZNKSt3__110unique_ptrINS_11__tree_nodeINS_12__value_typeINS_4pairIiiEEiEEPvEENS_22__tree_node_destructorINS_9allocatorIS7_EEEEE3getB8ne180100Ev, symObjAddr: 0x2D60, symBinAddr: 0x1000038B0, symSize: 0x20 }
  - { offset: 0xD198, size: 0x8, addend: 0x0, symName: __ZNSt3__110unique_ptrINS_11__tree_nodeINS_12__value_typeINS_4pairIiiEEiEEPvEENS_22__tree_node_destructorINS_9allocatorIS7_EEEEE7releaseB8ne180100Ev, symObjAddr: 0x2D80, symBinAddr: 0x1000038D0, symSize: 0x40 }
  - { offset: 0xD1CD, size: 0x8, addend: 0x0, symName: __ZNSt3__110unique_ptrINS_11__tree_nodeINS_12__value_typeINS_4pairIiiEEiEEPvEENS_22__tree_node_destructorINS_9allocatorIS7_EEEEED1B8ne180100Ev, symObjAddr: 0x2DC0, symBinAddr: 0x100003910, symSize: 0x20 }
  - { offset: 0xD1F7, size: 0x8, addend: 0x0, symName: __ZNSt3__115__tree_iteratorINS_12__value_typeINS_4pairIiiEEiEEPNS_11__tree_nodeIS4_PvEElEC1B8ne180100ES8_, symObjAddr: 0x2DE0, symBinAddr: 0x100003930, symSize: 0x30 }
  - { offset: 0xD23A, size: 0x8, addend: 0x0, symName: __ZNSt3__14pairINS_15__tree_iteratorINS_12__value_typeINS0_IiiEEiEEPNS_11__tree_nodeIS4_PvEElEEbEC1B8ne180100IS9_RbLi0EEEOT_OT0_, symObjAddr: 0x2E10, symBinAddr: 0x100003960, symSize: 0x30 }
  - { offset: 0xD298, size: 0x8, addend: 0x0, symName: __ZNKSt3__16__treeINS_12__value_typeINS_4pairIiiEEiEENS_19__map_value_compareIS3_S4_NS_4lessIS3_EELb1EEENS_9allocatorIS4_EEE10__root_ptrB8ne180100Ev, symObjAddr: 0x2E40, symBinAddr: 0x100003990, symSize: 0x20 }
  - { offset: 0xD2BE, size: 0x8, addend: 0x0, symName: __ZNSt3__16__treeINS_12__value_typeINS_4pairIiiEEiEENS_19__map_value_compareIS3_S4_NS_4lessIS3_EELb1EEENS_9allocatorIS4_EEE12__node_allocB8ne180100Ev, symObjAddr: 0x2E60, symBinAddr: 0x1000039B0, symSize: 0x20 }
  - { offset: 0xD2E4, size: 0x8, addend: 0x0, symName: __ZNSt3__116allocator_traitsINS_9allocatorINS_11__tree_nodeINS_12__value_typeINS_4pairIiiEEiEEPvEEEEE8allocateB8ne180100ERS9_m, symObjAddr: 0x2E80, symBinAddr: 0x1000039D0, symSize: 0x30 }
  - { offset: 0xD317, size: 0x8, addend: 0x0, symName: __ZNSt3__122__tree_node_destructorINS_9allocatorINS_11__tree_nodeINS_12__value_typeINS_4pairIiiEEiEEPvEEEEEC1B8ne180100ERS9_b, symObjAddr: 0x2EB0, symBinAddr: 0x100003A00, symSize: 0x40 }
  - { offset: 0xD364, size: 0x8, addend: 0x0, symName: __ZNSt3__110unique_ptrINS_11__tree_nodeINS_12__value_typeINS_4pairIiiEEiEEPvEENS_22__tree_node_destructorINS_9allocatorIS7_EEEEEC1B8ne180100ILb1EvEEPS7_NS_16__dependent_typeINS_27__unique_ptr_deleter_sfinaeISB_EEXT_EE20__good_rval_ref_typeE, symObjAddr: 0x2EF0, symBinAddr: 0x100003A40, symSize: 0x30 }
  - { offset: 0xD3B5, size: 0x8, addend: 0x0, symName: __ZNSt3__116allocator_traitsINS_9allocatorINS_11__tree_nodeINS_12__value_typeINS_4pairIiiEEiEEPvEEEEE9constructB8ne180100INS4_IKS5_iEEJRKNS_21piecewise_construct_tENS_5tupleIJOS5_EEENSH_IJEEEEvvEEvRS9_PT_DpOT0_, symObjAddr: 0x2F20, symBinAddr: 0x100003A70, symSize: 0x40 }
  - { offset: 0xD432, size: 0x8, addend: 0x0, symName: __ZNSt3__122__tree_key_value_typesINS_12__value_typeINS_4pairIiiEEiEEE9__get_ptrB8ne180100ERS4_, symObjAddr: 0x2F60, symBinAddr: 0x100003AB0, symSize: 0x20 }
  - { offset: 0xD456, size: 0x8, addend: 0x0, symName: __ZNKSt3__110unique_ptrINS_11__tree_nodeINS_12__value_typeINS_4pairIiiEEiEEPvEENS_22__tree_node_destructorINS_9allocatorIS7_EEEEEptB8ne180100Ev, symObjAddr: 0x2F80, symBinAddr: 0x100003AD0, symSize: 0x20 }
  - { offset: 0xD47C, size: 0x8, addend: 0x0, symName: __ZNSt3__110unique_ptrINS_11__tree_nodeINS_12__value_typeINS_4pairIiiEEiEEPvEENS_22__tree_node_destructorINS_9allocatorIS7_EEEEE11get_deleterB8ne180100Ev, symObjAddr: 0x2FA0, symBinAddr: 0x100003AF0, symSize: 0x20 }
  - { offset: 0xD4A2, size: 0x8, addend: 0x0, symName: __ZNSt3__117__compressed_pairINS_15__tree_end_nodeIPNS_16__tree_node_baseIPvEEEENS_9allocatorINS_11__tree_nodeINS_12__value_typeINS_4pairIiiEEiEES3_EEEEE6secondB8ne180100Ev, symObjAddr: 0x2FC0, symBinAddr: 0x100003B10, symSize: 0x20 }
  - { offset: 0xD4C8, size: 0x8, addend: 0x0, symName: __ZNSt3__122__compressed_pair_elemINS_9allocatorINS_11__tree_nodeINS_12__value_typeINS_4pairIiiEEiEEPvEEEELi1ELb1EE5__getB8ne180100Ev, symObjAddr: 0x2FE0, symBinAddr: 0x100003B30, symSize: 0x10 }
  - { offset: 0xD4EE, size: 0x8, addend: 0x0, symName: __ZNSt3__19allocatorINS_11__tree_nodeINS_12__value_typeINS_4pairIiiEEiEEPvEEE8allocateB8ne180100Em, symObjAddr: 0x2FF0, symBinAddr: 0x100003B40, symSize: 0x50 }
  - { offset: 0xD52C, size: 0x8, addend: 0x0, symName: __ZNSt3__116allocator_traitsINS_9allocatorINS_11__tree_nodeINS_12__value_typeINS_4pairIiiEEiEEPvEEEEE8max_sizeB8ne180100IS9_vvEEmRKS9_, symObjAddr: 0x3040, symBinAddr: 0x100003B90, symSize: 0x30 }
  - { offset: 0xD558, size: 0x8, addend: 0x0, symName: __ZNSt3__122__tree_node_destructorINS_9allocatorINS_11__tree_nodeINS_12__value_typeINS_4pairIiiEEiEEPvEEEEEC2B8ne180100ERS9_b, symObjAddr: 0x3070, symBinAddr: 0x100003BC0, symSize: 0x30 }
  - { offset: 0xD5A0, size: 0x8, addend: 0x0, symName: __ZNSt3__110unique_ptrINS_11__tree_nodeINS_12__value_typeINS_4pairIiiEEiEEPvEENS_22__tree_node_destructorINS_9allocatorIS7_EEEEEC2B8ne180100ILb1EvEEPS7_NS_16__dependent_typeINS_27__unique_ptr_deleter_sfinaeISB_EEXT_EE20__good_rval_ref_typeE, symObjAddr: 0x30A0, symBinAddr: 0x100003BF0, symSize: 0x40 }
  - { offset: 0xD5F1, size: 0x8, addend: 0x0, symName: __ZNSt3__117__compressed_pairIPNS_11__tree_nodeINS_12__value_typeINS_4pairIiiEEiEEPvEENS_22__tree_node_destructorINS_9allocatorIS7_EEEEEC1B8ne180100IRS8_SC_EEOT_OT0_, symObjAddr: 0x30E0, symBinAddr: 0x100003C30, symSize: 0x30 }
  - { offset: 0xD649, size: 0x8, addend: 0x0, symName: __ZNSt3__117__compressed_pairIPNS_11__tree_nodeINS_12__value_typeINS_4pairIiiEEiEEPvEENS_22__tree_node_destructorINS_9allocatorIS7_EEEEEC2B8ne180100IRS8_SC_EEOT_OT0_, symObjAddr: 0x3110, symBinAddr: 0x100003C60, symSize: 0x40 }
  - { offset: 0xD6A1, size: 0x8, addend: 0x0, symName: __ZNSt3__122__compressed_pair_elemIPNS_11__tree_nodeINS_12__value_typeINS_4pairIiiEEiEEPvEELi0ELb0EEC2B8ne180100IRS8_vEEOT_, symObjAddr: 0x3150, symBinAddr: 0x100003CA0, symSize: 0x20 }
  - { offset: 0xD6E3, size: 0x8, addend: 0x0, symName: __ZNSt3__122__compressed_pair_elemINS_22__tree_node_destructorINS_9allocatorINS_11__tree_nodeINS_12__value_typeINS_4pairIiiEEiEEPvEEEEEELi1ELb0EEC2B8ne180100ISB_vEEOT_, symObjAddr: 0x3170, symBinAddr: 0x100003CC0, symSize: 0x30 }
  - { offset: 0xD725, size: 0x8, addend: 0x0, symName: __ZNSt3__14pairIKNS0_IiiEEiEC1B8ne180100IJOS1_EJEEENS_21piecewise_construct_tENS_5tupleIJDpT_EEENS7_IJDpT0_EEE, symObjAddr: 0x3220, symBinAddr: 0x100003D70, symSize: 0x40 }
  - { offset: 0xD78C, size: 0x8, addend: 0x0, symName: __ZNSt3__14pairIKNS0_IiiEEiEC1B8ne180100IJOS1_EJEJLm0EEJEEENS_21piecewise_construct_tERNS_5tupleIJDpT_EEERNS7_IJDpT0_EEENS_15__tuple_indicesIJXspT1_EEEENSG_IJXspT2_EEEE, symObjAddr: 0x3260, symBinAddr: 0x100003DB0, symSize: 0x30 }
  - { offset: 0xD81C, size: 0x8, addend: 0x0, symName: __ZNSt3__14pairIKNS0_IiiEEiEC2B8ne180100IJOS1_EJEJLm0EEJEEENS_21piecewise_construct_tERNS_5tupleIJDpT_EEERNS7_IJDpT0_EEENS_15__tuple_indicesIJXspT1_EEEENSG_IJXspT2_EEEE, symObjAddr: 0x3290, symBinAddr: 0x100003DE0, symSize: 0x40 }
  - { offset: 0xD8AC, size: 0x8, addend: 0x0, symName: __ZNSt3__112__tuple_leafILm0EONS_4pairIiiEELb0EE3getB8ne180100Ev, symObjAddr: 0x32F0, symBinAddr: 0x100003E40, symSize: 0x20 }
  - { offset: 0xD8D2, size: 0x8, addend: 0x0, symName: __ZNKSt3__117__compressed_pairIPNS_11__tree_nodeINS_12__value_typeINS_4pairIiiEEiEEPvEENS_22__tree_node_destructorINS_9allocatorIS7_EEEEE5firstB8ne180100Ev, symObjAddr: 0x3310, symBinAddr: 0x100003E60, symSize: 0x20 }
  - { offset: 0xD8F8, size: 0x8, addend: 0x0, symName: __ZNKSt3__122__compressed_pair_elemIPNS_11__tree_nodeINS_12__value_typeINS_4pairIiiEEiEEPvEELi0ELb0EE5__getB8ne180100Ev, symObjAddr: 0x3330, symBinAddr: 0x100003E80, symSize: 0x10 }
  - { offset: 0xD91E, size: 0x8, addend: 0x0, symName: __ZNSt3__117__compressed_pairIPNS_11__tree_nodeINS_12__value_typeINS_4pairIiiEEiEEPvEENS_22__tree_node_destructorINS_9allocatorIS7_EEEEE6secondB8ne180100Ev, symObjAddr: 0x3340, symBinAddr: 0x100003E90, symSize: 0x20 }
  - { offset: 0xD944, size: 0x8, addend: 0x0, symName: __ZNSt3__122__compressed_pair_elemINS_22__tree_node_destructorINS_9allocatorINS_11__tree_nodeINS_12__value_typeINS_4pairIiiEEiEEPvEEEEEELi1ELb0EE5__getB8ne180100Ev, symObjAddr: 0x3360, symBinAddr: 0x100003EB0, symSize: 0x10 }
  - { offset: 0xD96A, size: 0x8, addend: 0x0, symName: __ZNSt3__16__treeINS_12__value_typeINS_4pairIiiEEiEENS_19__map_value_compareIS3_S4_NS_4lessIS3_EELb1EEENS_9allocatorIS4_EEE12__begin_nodeB8ne180100Ev, symObjAddr: 0x3370, symBinAddr: 0x100003EC0, symSize: 0x10 }
  - { offset: 0xD990, size: 0x8, addend: 0x0, symName: __ZNSt3__16__treeINS_12__value_typeINS_4pairIiiEEiEENS_19__map_value_compareIS3_S4_NS_4lessIS3_EELb1EEENS_9allocatorIS4_EEE4sizeB8ne180100Ev, symObjAddr: 0x36A0, symBinAddr: 0x1000041F0, symSize: 0x20 }
  - { offset: 0xD9B6, size: 0x8, addend: 0x0, symName: __ZNKSt3__116__tree_node_baseIPvE15__parent_unsafeB8ne180100Ev, symObjAddr: 0x36C0, symBinAddr: 0x100004210, symSize: 0x20 }
  - { offset: 0xD9DC, size: 0x8, addend: 0x0, symName: __ZNSt3__116__tree_node_baseIPvE12__set_parentB8ne180100EPS2_, symObjAddr: 0x38A0, symBinAddr: 0x1000043F0, symSize: 0x20 }
  - { offset: 0xDA11, size: 0x8, addend: 0x0, symName: __ZNSt3__117__compressed_pairImNS_19__map_value_compareINS_4pairIiiEENS_12__value_typeIS3_iEENS_4lessIS3_EELb1EEEE5firstB8ne180100Ev, symObjAddr: 0x38C0, symBinAddr: 0x100004410, symSize: 0x20 }
  - { offset: 0xDA37, size: 0x8, addend: 0x0, symName: __ZNSt3__122__compressed_pair_elemImLi0ELb0EE5__getB8ne180100Ev, symObjAddr: 0x38E0, symBinAddr: 0x100004430, symSize: 0x10 }
  - { offset: 0xDA5D, size: 0x8, addend: 0x0, symName: __ZNSt3__117__compressed_pairIPNS_11__tree_nodeINS_12__value_typeINS_4pairIiiEEiEEPvEENS_22__tree_node_destructorINS_9allocatorIS7_EEEEE5firstB8ne180100Ev, symObjAddr: 0x38F0, symBinAddr: 0x100004440, symSize: 0x20 }
  - { offset: 0xDA83, size: 0x8, addend: 0x0, symName: __ZNSt3__122__compressed_pair_elemIPNS_11__tree_nodeINS_12__value_typeINS_4pairIiiEEiEEPvEELi0ELb0EE5__getB8ne180100Ev, symObjAddr: 0x3910, symBinAddr: 0x100004460, symSize: 0x10 }
  - { offset: 0xDAA9, size: 0x8, addend: 0x0, symName: __ZNSt3__110unique_ptrINS_11__tree_nodeINS_12__value_typeINS_4pairIiiEEiEEPvEENS_22__tree_node_destructorINS_9allocatorIS7_EEEEED2B8ne180100Ev, symObjAddr: 0x3920, symBinAddr: 0x100004470, symSize: 0x20 }
  - { offset: 0xDAD3, size: 0x8, addend: 0x0, symName: __ZNSt3__110unique_ptrINS_11__tree_nodeINS_12__value_typeINS_4pairIiiEEiEEPvEENS_22__tree_node_destructorINS_9allocatorIS7_EEEEE5resetB8ne180100EPS7_, symObjAddr: 0x3940, symBinAddr: 0x100004490, symSize: 0x70 }
  - { offset: 0xDB17, size: 0x8, addend: 0x0, symName: __ZNSt3__122__tree_node_destructorINS_9allocatorINS_11__tree_nodeINS_12__value_typeINS_4pairIiiEEiEEPvEEEEEclB8ne180100EPS8_, symObjAddr: 0x39B0, symBinAddr: 0x100004500, symSize: 0x90 }
  - { offset: 0xDB4C, size: 0x8, addend: 0x0, symName: __ZNSt3__116allocator_traitsINS_9allocatorINS_11__tree_nodeINS_12__value_typeINS_4pairIiiEEiEEPvEEEEE7destroyB8ne180100INS4_IKS5_iEEvvEEvRS9_PT_, symObjAddr: 0x3A40, symBinAddr: 0x100004590, symSize: 0x20 }
  - { offset: 0xDB87, size: 0x8, addend: 0x0, symName: __ZNSt3__116allocator_traitsINS_9allocatorINS_11__tree_nodeINS_12__value_typeINS_4pairIiiEEiEEPvEEEEE10deallocateB8ne180100ERS9_PS8_m, symObjAddr: 0x3A60, symBinAddr: 0x1000045B0, symSize: 0x30 }
  - { offset: 0xDBC9, size: 0x8, addend: 0x0, symName: __ZNSt3__19allocatorINS_11__tree_nodeINS_12__value_typeINS_4pairIiiEEiEEPvEEE10deallocateB8ne180100EPS7_m, symObjAddr: 0x3AA0, symBinAddr: 0x1000045F0, symSize: 0x50 }
  - { offset: 0xDC0B, size: 0x8, addend: 0x0, symName: __ZNSt3__115__tree_iteratorINS_12__value_typeINS_4pairIiiEEiEEPNS_11__tree_nodeIS4_PvEElEC2B8ne180100ES8_, symObjAddr: 0x3AF0, symBinAddr: 0x100004640, symSize: 0x20 }
  - { offset: 0xDC44, size: 0x8, addend: 0x0, symName: __ZNSt3__14pairINS_15__tree_iteratorINS_12__value_typeINS0_IiiEEiEEPNS_11__tree_nodeIS4_PvEElEEbEC2B8ne180100IS9_RbLi0EEEOT_OT0_, symObjAddr: 0x3B10, symBinAddr: 0x100004660, symSize: 0x30 }
  - { offset: 0xDCA2, size: 0x8, addend: 0x0, symName: __ZNSt3__15tupleIJONS_4pairIiiEEEEC1B8ne180100IJS2_ELi0EEEDpOT_, symObjAddr: 0x3B40, symBinAddr: 0x100004690, symSize: 0x30 }
  - { offset: 0xDCEC, size: 0x8, addend: 0x0, symName: __ZNSt3__15tupleIJONS_4pairIiiEEEEC2B8ne180100IJS2_ELi0EEEDpOT_, symObjAddr: 0x3B70, symBinAddr: 0x1000046C0, symSize: 0x30 }
  - { offset: 0xDD36, size: 0x8, addend: 0x0, symName: __ZNSt3__112__tuple_implINS_15__tuple_indicesIJLm0EEEEJONS_4pairIiiEEEEC1B8ne180100IJLm0EEJS5_EJEJEJS4_EEENS1_IJXspT_EEEENS_13__tuple_typesIJDpT0_EEENS1_IJXspT1_EEEENS9_IJDpT2_EEEDpOT3_, symObjAddr: 0x3BA0, symBinAddr: 0x1000046F0, symSize: 0x30 }
  - { offset: 0xDDCB, size: 0x8, addend: 0x0, symName: __ZNSt3__112__tuple_implINS_15__tuple_indicesIJLm0EEEEJONS_4pairIiiEEEEC2B8ne180100IJLm0EEJS5_EJEJEJS4_EEENS1_IJXspT_EEEENS_13__tuple_typesIJDpT0_EEENS1_IJXspT1_EEEENS9_IJDpT2_EEEDpOT3_, symObjAddr: 0x3BD0, symBinAddr: 0x100004720, symSize: 0x30 }
  - { offset: 0xDE60, size: 0x8, addend: 0x0, symName: __ZNSt3__112__tuple_leafILm0EONS_4pairIiiEELb0EEC2B8ne180100IS2_vEEOT_, symObjAddr: 0x3C00, symBinAddr: 0x100004750, symSize: 0x20 }
  - { offset: 0xDEA3, size: 0x8, addend: 0x0, symName: __ZNSt3__114pointer_traitsIPNS_12__value_typeINS_4pairIiiEEiEEE10pointer_toB8ne180100ERS4_, symObjAddr: 0x3C20, symBinAddr: 0x100004770, symSize: 0x10 }
  - { offset: 0xDEC6, size: 0x8, addend: 0x0, symName: __ZNSt3__13mapINS_4pairIiiEEiNS_4lessIS2_EENS_9allocatorINS1_IKS2_iEEEEEC2B8ne180100Ev, symObjAddr: 0x3C60, symBinAddr: 0x1000047B0, symSize: 0x30 }
  - { offset: 0xDEF0, size: 0x8, addend: 0x0, symName: __ZNSt3__119__map_value_compareINS_4pairIiiEENS_12__value_typeIS2_iEENS_4lessIS2_EELb1EEC1B8ne180100ES6_, symObjAddr: 0x3C90, symBinAddr: 0x1000047E0, symSize: 0x20 }
  - { offset: 0xDF29, size: 0x8, addend: 0x0, symName: __ZNSt3__16__treeINS_12__value_typeINS_4pairIiiEEiEENS_19__map_value_compareIS3_S4_NS_4lessIS3_EELb1EEENS_9allocatorIS4_EEEC1ERKS8_, symObjAddr: 0x3CB0, symBinAddr: 0x100004800, symSize: 0x30 }
  - { offset: 0xDF64, size: 0x8, addend: 0x0, symName: __ZNSt3__119__map_value_compareINS_4pairIiiEENS_12__value_typeIS2_iEENS_4lessIS2_EELb1EEC2B8ne180100ES6_, symObjAddr: 0x3CE0, symBinAddr: 0x100004830, symSize: 0x10 }
  - { offset: 0xDF9D, size: 0x8, addend: 0x0, symName: __ZNSt3__16__treeINS_12__value_typeINS_4pairIiiEEiEENS_19__map_value_compareIS3_S4_NS_4lessIS3_EELb1EEENS_9allocatorIS4_EEEC2ERKS8_, symObjAddr: 0x3CF0, symBinAddr: 0x100004840, symSize: 0x80 }
  - { offset: 0xDFD8, size: 0x8, addend: 0x0, symName: __ZNSt3__117__compressed_pairINS_15__tree_end_nodeIPNS_16__tree_node_baseIPvEEEENS_9allocatorINS_11__tree_nodeINS_12__value_typeINS_4pairIiiEEiEES3_EEEEEC1B8ne180100ILb1EvEEv, symObjAddr: 0x3D70, symBinAddr: 0x1000048C0, symSize: 0x20 }
  - { offset: 0xE012, size: 0x8, addend: 0x0, symName: __ZNSt3__117__compressed_pairImNS_19__map_value_compareINS_4pairIiiEENS_12__value_typeIS3_iEENS_4lessIS3_EELb1EEEEC1B8ne180100IiRKS8_EEOT_OT0_, symObjAddr: 0x3D90, symBinAddr: 0x1000048E0, symSize: 0x30 }
  - { offset: 0xE06A, size: 0x8, addend: 0x0, symName: __ZNSt3__117__compressed_pairINS_15__tree_end_nodeIPNS_16__tree_node_baseIPvEEEENS_9allocatorINS_11__tree_nodeINS_12__value_typeINS_4pairIiiEEiEES3_EEEEEC2B8ne180100ILb1EvEEv, symObjAddr: 0x3DC0, symBinAddr: 0x100004910, symSize: 0x30 }
  - { offset: 0xE09F, size: 0x8, addend: 0x0, symName: __ZNSt3__122__compressed_pair_elemINS_15__tree_end_nodeIPNS_16__tree_node_baseIPvEEEELi0ELb0EEC2B8ne180100ENS_16__value_init_tagE, symObjAddr: 0x3DF0, symBinAddr: 0x100004940, symSize: 0x20 }
  - { offset: 0xE0D3, size: 0x8, addend: 0x0, symName: __ZNSt3__122__compressed_pair_elemINS_9allocatorINS_11__tree_nodeINS_12__value_typeINS_4pairIiiEEiEEPvEEEELi1ELb1EEC2B8ne180100ENS_16__value_init_tagE, symObjAddr: 0x3E10, symBinAddr: 0x100004960, symSize: 0x20 }
  - { offset: 0xE107, size: 0x8, addend: 0x0, symName: __ZNSt3__115__tree_end_nodeIPNS_16__tree_node_baseIPvEEEC1B8ne180100Ev, symObjAddr: 0x3E30, symBinAddr: 0x100004980, symSize: 0x20 }
  - { offset: 0xE131, size: 0x8, addend: 0x0, symName: __ZNSt3__115__tree_end_nodeIPNS_16__tree_node_baseIPvEEEC2B8ne180100Ev, symObjAddr: 0x3E50, symBinAddr: 0x1000049A0, symSize: 0x20 }
  - { offset: 0xE15B, size: 0x8, addend: 0x0, symName: __ZNSt3__19allocatorINS_11__tree_nodeINS_12__value_typeINS_4pairIiiEEiEEPvEEEC2B8ne180100Ev, symObjAddr: 0x3E70, symBinAddr: 0x1000049C0, symSize: 0x20 }
  - { offset: 0xE185, size: 0x8, addend: 0x0, symName: __ZNSt3__116__non_trivial_ifILb1ENS_9allocatorINS_11__tree_nodeINS_12__value_typeINS_4pairIiiEEiEEPvEEEEEC2B8ne180100Ev, symObjAddr: 0x3E90, symBinAddr: 0x1000049E0, symSize: 0x10 }
  - { offset: 0xE1AF, size: 0x8, addend: 0x0, symName: __ZNSt3__117__compressed_pairImNS_19__map_value_compareINS_4pairIiiEENS_12__value_typeIS3_iEENS_4lessIS3_EELb1EEEEC2B8ne180100IiRKS8_EEOT_OT0_, symObjAddr: 0x3EA0, symBinAddr: 0x1000049F0, symSize: 0x40 }
  - { offset: 0xE207, size: 0x8, addend: 0x0, symName: __ZNSt3__122__compressed_pair_elemImLi0ELb0EEC2B8ne180100IivEEOT_, symObjAddr: 0x3EE0, symBinAddr: 0x100004A30, symSize: 0x20 }
  - { offset: 0xE249, size: 0x8, addend: 0x0, symName: __ZNSt3__122__compressed_pair_elemINS_19__map_value_compareINS_4pairIiiEENS_12__value_typeIS3_iEENS_4lessIS3_EELb1EEELi1ELb1EEC2B8ne180100IRKS8_vEEOT_, symObjAddr: 0x3F00, symBinAddr: 0x100004A50, symSize: 0x10 }
  - { offset: 0xE28B, size: 0x8, addend: 0x0, symName: __ZNSt3__13mapINS_4pairIiiEEiNS_4lessIS2_EENS_9allocatorINS1_IKS2_iEEEEED2B8ne180100Ev, symObjAddr: 0x3F10, symBinAddr: 0x100004A60, symSize: 0x20 }
  - { offset: 0xE2B5, size: 0x8, addend: 0x0, symName: __ZNSt3__16__treeINS_12__value_typeINS_4pairIiiEEiEENS_19__map_value_compareIS3_S4_NS_4lessIS3_EELb1EEENS_9allocatorIS4_EEED1Ev, symObjAddr: 0x3F30, symBinAddr: 0x100004A80, symSize: 0x20 }
  - { offset: 0xE2E1, size: 0x8, addend: 0x0, symName: __ZNSt3__16__treeINS_12__value_typeINS_4pairIiiEEiEENS_19__map_value_compareIS3_S4_NS_4lessIS3_EELb1EEENS_9allocatorIS4_EEED2Ev, symObjAddr: 0x3F50, symBinAddr: 0x100004AA0, symSize: 0x30 }
  - { offset: 0xE30D, size: 0x8, addend: 0x0, symName: __ZNSt3__16__treeINS_12__value_typeINS_4pairIiiEEiEENS_19__map_value_compareIS3_S4_NS_4lessIS3_EELb1EEENS_9allocatorIS4_EEE7destroyEPNS_11__tree_nodeIS4_PvEE, symObjAddr: 0x3F80, symBinAddr: 0x100004AD0, symSize: 0xA1 }
...
