---
triple:          'x86_64-apple-darwin'
binary-path:     c
relocations:
  - { offsetInCU: 0x6D2C, offset: 0x6D2C, size: 0x8, addend: 0x0, symName: __ZNSt3__124__put_character_sequenceB8ue170006IcNS_11char_traitsIcEEEERNS_13basic_ostreamIT_T0_EES7_PKS4_m, symObjAddr: 0x4780, symBinAddr: 0x100004FF0, symSize: 0x1F0 }
  - { offsetInCU: 0x8AA9, offset: 0x8AA9, size: 0x8, addend: 0x0, symName: __ZNSt3__1lsB8ue170006INS_11char_traitsIcEEEERNS_13basic_ostreamIcT_EES6_c, symObjAddr: 0x80, symBinAddr: 0x1000008F0, symSize: 0x30 }
  - { offsetInCU: 0x8AEF, offset: 0x8AEF, size: 0x8, addend: 0x0, symName: __ZNSt3__1lsB8ue170006INS_11char_traitsIcEEEERNS_13basic_ostreamIcT_EES6_PKc, symObjAddr: 0xB0, symBinAddr: 0x100000920, symSize: 0x40 }
  - { offsetInCU: 0x8B35, offset: 0x8B35, size: 0x8, addend: 0x0, symName: __ZNSt3__14iotaB8ue170006INS_11__wrap_iterIPiEEiEEvT_S4_T0_, symObjAddr: 0x480, symBinAddr: 0x100000CF0, symSize: 0x60 }
  - { offsetInCU: 0x8B8B, offset: 0x8B8B, size: 0x8, addend: 0x0, symName: __ZNSt3__1neB8ue170006IPNS_5arrayIiLm2EEEEEbRKNS_11__wrap_iterIT_EES8_, symObjAddr: 0x740, symBinAddr: 0x100000FB0, symSize: 0x30 }
  - { offsetInCU: 0x8BCE, offset: 0x8BCE, size: 0x8, addend: 0x0, symName: __ZNSt3__13getB8ue170006ILm0EiLm2EEEOT0_ONS_5arrayIS1_XT1_EEE, symObjAddr: 0x790, symBinAddr: 0x100001000, symSize: 0x10 }
  - { offsetInCU: 0x8C19, offset: 0x8C19, size: 0x8, addend: 0x0, symName: __ZNSt3__13getB8ue170006ILm1EiLm2EEEOT0_ONS_5arrayIS1_XT1_EEE, symObjAddr: 0x7A0, symBinAddr: 0x100001010, symSize: 0x20 }
  - { offsetInCU: 0x8C64, offset: 0x8C64, size: 0x8, addend: 0x0, symName: __ZNSt3__122__make_exception_guardB8ue170006INS_6vectorIiNS_9allocatorIiEEE16__destroy_vectorEEENS_28__exception_guard_exceptionsIT_EES7_, symObjAddr: 0xB00, symBinAddr: 0x100001370, symSize: 0x40 }
  - { offsetInCU: 0x8C99, offset: 0x8C99, size: 0x8, addend: 0x0, symName: __ZNSt3__119__allocate_at_leastB8ue170006INS_9allocatorIiEEEENS_19__allocation_resultINS_16allocator_traitsIT_E7pointerEEERS5_m, symObjAddr: 0xEB0, symBinAddr: 0x100001720, symSize: 0x40 }
  - { offsetInCU: 0x8CDC, offset: 0x8CDC, size: 0x8, addend: 0x0, symName: __ZNSt3__13minB8ue170006ImEERKT_S3_S3_, symObjAddr: 0xFE0, symBinAddr: 0x100001850, symSize: 0x30 }
  - { offsetInCU: 0x8F09, offset: 0x8F09, size: 0x8, addend: 0x0, symName: __ZNSt3__13minB8ue170006ImNS_6__lessIvvEEEERKT_S5_S5_T0_, symObjAddr: 0x1060, symBinAddr: 0x1000018D0, symSize: 0x50 }
  - { offsetInCU: 0x9194, offset: 0x9194, size: 0x8, addend: 0x0, symName: __ZNSt3__120__throw_length_errorB8ue170006EPKc, symObjAddr: 0x1140, symBinAddr: 0x1000019B0, symSize: 0x70 }
  - { offsetInCU: 0x91BE, offset: 0x91BE, size: 0x8, addend: 0x0, symName: __ZNSt3__117__libcpp_allocateB8ue170006Emm, symObjAddr: 0x12B0, symBinAddr: 0x100001B20, symSize: 0x60 }
  - { offsetInCU: 0x9218, offset: 0x9218, size: 0x8, addend: 0x0, symName: __ZNSt3__124__is_overaligned_for_newB8ue170006Em, symObjAddr: 0x1310, symBinAddr: 0x100001B80, symSize: 0x20 }
  - { offsetInCU: 0x9246, offset: 0x9246, size: 0x8, addend: 0x0, symName: __ZNSt3__121__libcpp_operator_newB8ue170006IJmSt11align_val_tEEEPvDpT_, symObjAddr: 0x1330, symBinAddr: 0x100001BA0, symSize: 0x30 }
  - { offsetInCU: 0x9293, offset: 0x9293, size: 0x8, addend: 0x0, symName: __ZNSt3__121__libcpp_operator_newB8ue170006IJmEEEPvDpT_, symObjAddr: 0x1360, symBinAddr: 0x100001BD0, symSize: 0x20 }
  - { offsetInCU: 0x92CC, offset: 0x92CC, size: 0x8, addend: 0x0, symName: __ZNSt3__112__to_addressB8ue170006IiEEPT_S2_, symObjAddr: 0x1450, symBinAddr: 0x100001CC0, symSize: 0x10 }
  - { offsetInCU: 0x9326, offset: 0x9326, size: 0x8, addend: 0x0, symName: __ZNSt3__112construct_atB8ue170006IiJEPiEEPT_S3_DpOT0_, symObjAddr: 0x1560, symBinAddr: 0x100001DD0, symSize: 0x20 }
  - { offsetInCU: 0x9382, offset: 0x9382, size: 0x8, addend: 0x0, symName: __ZNSt3__110destroy_atB8ue170006IiLi0EEEvPT_, symObjAddr: 0x1800, symBinAddr: 0x100002070, symSize: 0x20 }
  - { offsetInCU: 0x93B9, offset: 0x93B9, size: 0x8, addend: 0x0, symName: __ZNSt3__112__destroy_atB8ue170006IiLi0EEEvPT_, symObjAddr: 0x1820, symBinAddr: 0x100002090, symSize: 0x10 }
  - { offsetInCU: 0x93F0, offset: 0x93F0, size: 0x8, addend: 0x0, symName: __ZNSt3__119__libcpp_deallocateB8ue170006EPvmm, symObjAddr: 0x1890, symBinAddr: 0x100002100, symSize: 0x60 }
  - { offsetInCU: 0x9455, offset: 0x9455, size: 0x8, addend: 0x0, symName: __ZNSt3__127__do_deallocate_handle_sizeB8ue170006IJSt11align_val_tEEEvPvmDpT_, symObjAddr: 0x18F0, symBinAddr: 0x100002160, symSize: 0x30 }
  - { offsetInCU: 0x94A8, offset: 0x94A8, size: 0x8, addend: 0x0, symName: __ZNSt3__127__do_deallocate_handle_sizeB8ue170006IJEEEvPvmDpT_, symObjAddr: 0x1920, symBinAddr: 0x100002190, symSize: 0x20 }
  - { offsetInCU: 0x94E6, offset: 0x94E6, size: 0x8, addend: 0x0, symName: __ZNSt3__124__libcpp_operator_deleteB8ue170006IJPvSt11align_val_tEEEvDpT_, symObjAddr: 0x1940, symBinAddr: 0x1000021B0, symSize: 0x30 }
  - { offsetInCU: 0x952F, offset: 0x952F, size: 0x8, addend: 0x0, symName: __ZNSt3__124__libcpp_operator_deleteB8ue170006IJPvEEEvDpT_, symObjAddr: 0x1970, symBinAddr: 0x1000021E0, symSize: 0x20 }
  - { offsetInCU: 0x9564, offset: 0x9564, size: 0x8, addend: 0x0, symName: __ZNSt3__1neB8ue170006IPiEEbRKNS_11__wrap_iterIT_EES6_, symObjAddr: 0x1990, symBinAddr: 0x100002200, symSize: 0x30 }
  - { offsetInCU: 0x95A7, offset: 0x95A7, size: 0x8, addend: 0x0, symName: __ZNSt3__1eqB8ue170006IPiEEbRKNS_11__wrap_iterIT_EES6_, symObjAddr: 0x1A00, symBinAddr: 0x100002270, symSize: 0x40 }
  - { offsetInCU: 0x95EA, offset: 0x95EA, size: 0x8, addend: 0x0, symName: __ZNSt3__112__to_addressB8ue170006INS_5arrayIiLm2EEEEEPT_S4_, symObjAddr: 0x1DF0, symBinAddr: 0x100002660, symSize: 0x10 }
  - { offsetInCU: 0x9644, offset: 0x9644, size: 0x8, addend: 0x0, symName: __ZNSt3__112construct_atB8ue170006INS_5arrayIiLm2EEEJS2_EPS2_EEPT_S5_DpOT0_, symObjAddr: 0x1E60, symBinAddr: 0x1000026D0, symSize: 0x30 }
  - { offsetInCU: 0x96B4, offset: 0x96B4, size: 0x8, addend: 0x0, symName: __ZNSt3__13maxB8ue170006ImEERKT_S3_S3_, symObjAddr: 0x21D0, symBinAddr: 0x100002A40, symSize: 0x30 }
  - { offsetInCU: 0x96F7, offset: 0x96F7, size: 0x8, addend: 0x0, symName: __ZNSt3__13maxB8ue170006ImNS_6__lessIvvEEEERKT_S5_S5_T0_, symObjAddr: 0x22C0, symBinAddr: 0x100002B30, symSize: 0x50 }
  - { offsetInCU: 0x9751, offset: 0x9751, size: 0x8, addend: 0x0, symName: __ZNSt3__119__allocate_at_leastB8ue170006INS_9allocatorINS_5arrayIiLm2EEEEEEENS_19__allocation_resultINS_16allocator_traitsIT_E7pointerEEERS7_m, symObjAddr: 0x2410, symBinAddr: 0x100002C80, symSize: 0x40 }
  - { offsetInCU: 0x9794, offset: 0x9794, size: 0x8, addend: 0x0, symName: __ZNSt3__142__uninitialized_allocator_move_if_noexceptB8ue170006INS_9allocatorINS_5arrayIiLm2EEEEENS_16reverse_iteratorIPS3_EES7_S3_vEET1_RT_T0_SB_S8_, symObjAddr: 0x2650, symBinAddr: 0x100002EC0, symSize: 0x70 }
  - { offsetInCU: 0x9810, offset: 0x9810, size: 0x8, addend: 0x0, symName: __ZNSt3__14swapB8ue170006IPNS_5arrayIiLm2EEEEENS_9enable_ifIXaasr21is_move_constructibleIT_EE5valuesr18is_move_assignableIS5_EE5valueEvE4typeERS5_S8_, symObjAddr: 0x2710, symBinAddr: 0x100002F80, symSize: 0x40 }
  - { offsetInCU: 0x9861, offset: 0x9861, size: 0x8, addend: 0x0, symName: __ZNSt3__14moveB8ue170006INS_16reverse_iteratorIPNS_5arrayIiLm2EEEEES5_EET0_T_S7_S6_, symObjAddr: 0x2840, symBinAddr: 0x1000030B0, symSize: 0x80 }
  - { offsetInCU: 0x98BB, offset: 0x98BB, size: 0x8, addend: 0x0, symName: __ZNSt3__16__moveB8ue170006INS_17_ClassicAlgPolicyENS_16reverse_iteratorIPNS_5arrayIiLm2EEEEES6_S6_EENS_4pairIT0_T2_EES8_T1_S9_, symObjAddr: 0x28C0, symBinAddr: 0x100003130, symSize: 0x90 }
  - { offsetInCU: 0x9927, offset: 0x9927, size: 0x8, addend: 0x0, symName: __ZNSt3__123__dispatch_copy_or_moveB8ue170006INS_17_ClassicAlgPolicyENS_11__move_loopIS1_EENS_14__move_trivialENS_16reverse_iteratorIPNS_5arrayIiLm2EEEEES9_S9_EENS_4pairIT2_T4_EESB_T3_SC_, symObjAddr: 0x2950, symBinAddr: 0x1000031C0, symSize: 0x90 }
  - { offsetInCU: 0x99A5, offset: 0x99A5, size: 0x8, addend: 0x0, symName: __ZNSt3__121__unwrap_and_dispatchB8ue170006INS_10__overloadINS_11__move_loopINS_17_ClassicAlgPolicyEEENS_14__move_trivialEEENS_16reverse_iteratorIPNS_5arrayIiLm2EEEEESB_SB_Li0EEENS_4pairIT0_T2_EESD_T1_SE_, symObjAddr: 0x29E0, symBinAddr: 0x100003250, symSize: 0x210 }
  - { offsetInCU: 0x9A34, offset: 0x9A34, size: 0x8, addend: 0x0, symName: __ZNSt3__114__unwrap_rangeB8ue170006INS_16reverse_iteratorIPNS_5arrayIiLm2EEEEES5_EEDaT_T0_, symObjAddr: 0x2BF0, symBinAddr: 0x100003460, symSize: 0x60 }
  - { offsetInCU: 0x9BEE, offset: 0x9BEE, size: 0x8, addend: 0x0, symName: __ZNSt3__113__unwrap_iterB8ue170006INS_16reverse_iteratorIPNS_5arrayIiLm2EEEEENS_18__unwrap_iter_implIS5_Lb0EEELi0EEEDTclsrT0_8__unwrapclsr3stdE7declvalIT_EEEES9_, symObjAddr: 0x2CF0, symBinAddr: 0x100003560, symSize: 0x40 }
  - { offsetInCU: 0x9C32, offset: 0x9C32, size: 0x8, addend: 0x0, symName: __ZNSt3__19make_pairB8ue170006INS_16reverse_iteratorIPNS_5arrayIiLm2EEEEES5_EENS_4pairINS_18__unwrap_ref_decayIT_E4typeENS7_IT0_E4typeEEEOS8_OSB_, symObjAddr: 0x2D30, symBinAddr: 0x1000035A0, symSize: 0x30 }
  - { offsetInCU: 0x9C81, offset: 0x9C81, size: 0x8, addend: 0x0, symName: __ZNSt3__114__rewrap_rangeB8ue170006INS_16reverse_iteratorIPNS_5arrayIiLm2EEEEES5_S5_EET0_S6_T1_, symObjAddr: 0x2D60, symBinAddr: 0x1000035D0, symSize: 0x60 }
  - { offsetInCU: 0x9CD6, offset: 0x9CD6, size: 0x8, addend: 0x0, symName: __ZNSt3__113__rewrap_iterB8ue170006INS_16reverse_iteratorIPNS_5arrayIiLm2EEEEES5_NS_18__unwrap_iter_implIS5_Lb0EEEEET_S8_T0_, symObjAddr: 0x2DC0, symBinAddr: 0x100003630, symSize: 0x70 }
  - { offsetInCU: 0x9D7B, offset: 0x9D7B, size: 0x8, addend: 0x0, symName: __ZNSt3__1neB8ue170006IPNS_5arrayIiLm2EEES3_EEbRKNS_16reverse_iteratorIT_EERKNS4_IT0_EE, symObjAddr: 0x2F30, symBinAddr: 0x1000037A0, symSize: 0x40 }
  - { offsetInCU: 0x9EAC, offset: 0x9EAC, size: 0x8, addend: 0x0, symName: __ZNSt3__110destroy_atB8ue170006INS_5arrayIiLm2EEELi0EEEvPT_, symObjAddr: 0x3290, symBinAddr: 0x100003B00, symSize: 0x20 }
  - { offsetInCU: 0x9EE3, offset: 0x9EE3, size: 0x8, addend: 0x0, symName: __ZNSt3__112__destroy_atB8ue170006INS_5arrayIiLm2EEELi0EEEvPT_, symObjAddr: 0x32B0, symBinAddr: 0x100003B20, symSize: 0x10 }
  - { offsetInCU: 0x9F1A, offset: 0x9F1A, size: 0x8, addend: 0x0, symName: __ZNSt3__112construct_atB8ue170006IiJRKiEPiEEPT_S5_DpOT0_, symObjAddr: 0x3520, symBinAddr: 0x100003D90, symSize: 0x30 }
  - { offsetInCU: 0x9F8A, offset: 0x9F8A, size: 0x8, addend: 0x0, symName: __ZNSt3__142__uninitialized_allocator_move_if_noexceptB8ue170006INS_9allocatorIiEENS_16reverse_iteratorIPiEES5_ivEET1_RT_T0_S9_S6_, symObjAddr: 0x3970, symBinAddr: 0x1000041E0, symSize: 0x70 }
  - { offsetInCU: 0xA006, offset: 0xA006, size: 0x8, addend: 0x0, symName: __ZNSt3__14swapB8ue170006IPiEENS_9enable_ifIXaasr21is_move_constructibleIT_EE5valuesr18is_move_assignableIS3_EE5valueEvE4typeERS3_S6_, symObjAddr: 0x3A30, symBinAddr: 0x1000042A0, symSize: 0x40 }
  - { offsetInCU: 0xA057, offset: 0xA057, size: 0x8, addend: 0x0, symName: __ZNSt3__14moveB8ue170006INS_16reverse_iteratorIPiEES3_EET0_T_S5_S4_, symObjAddr: 0x3A70, symBinAddr: 0x1000042E0, symSize: 0x80 }
  - { offsetInCU: 0xA0B1, offset: 0xA0B1, size: 0x8, addend: 0x0, symName: __ZNSt3__16__moveB8ue170006INS_17_ClassicAlgPolicyENS_16reverse_iteratorIPiEES4_S4_EENS_4pairIT0_T2_EES6_T1_S7_, symObjAddr: 0x3AF0, symBinAddr: 0x100004360, symSize: 0x90 }
  - { offsetInCU: 0xA11D, offset: 0xA11D, size: 0x8, addend: 0x0, symName: __ZNSt3__123__dispatch_copy_or_moveB8ue170006INS_17_ClassicAlgPolicyENS_11__move_loopIS1_EENS_14__move_trivialENS_16reverse_iteratorIPiEES7_S7_EENS_4pairIT2_T4_EES9_T3_SA_, symObjAddr: 0x3B80, symBinAddr: 0x1000043F0, symSize: 0x90 }
  - { offsetInCU: 0xA19B, offset: 0xA19B, size: 0x8, addend: 0x0, symName: __ZNSt3__121__unwrap_and_dispatchB8ue170006INS_10__overloadINS_11__move_loopINS_17_ClassicAlgPolicyEEENS_14__move_trivialEEENS_16reverse_iteratorIPiEES9_S9_Li0EEENS_4pairIT0_T2_EESB_T1_SC_, symObjAddr: 0x3C10, symBinAddr: 0x100004480, symSize: 0x210 }
  - { offsetInCU: 0xA22A, offset: 0xA22A, size: 0x8, addend: 0x0, symName: __ZNSt3__114__unwrap_rangeB8ue170006INS_16reverse_iteratorIPiEES3_EEDaT_T0_, symObjAddr: 0x3E20, symBinAddr: 0x100004690, symSize: 0x60 }
  - { offsetInCU: 0xA34A, offset: 0xA34A, size: 0x8, addend: 0x0, symName: __ZNSt3__113__unwrap_iterB8ue170006INS_16reverse_iteratorIPiEENS_18__unwrap_iter_implIS3_Lb0EEELi0EEEDTclsrT0_8__unwrapclsr3stdE7declvalIT_EEEES7_, symObjAddr: 0x3F20, symBinAddr: 0x100004790, symSize: 0x40 }
  - { offsetInCU: 0xA38E, offset: 0xA38E, size: 0x8, addend: 0x0, symName: __ZNSt3__19make_pairB8ue170006INS_16reverse_iteratorIPiEES3_EENS_4pairINS_18__unwrap_ref_decayIT_E4typeENS5_IT0_E4typeEEEOS6_OS9_, symObjAddr: 0x3F60, symBinAddr: 0x1000047D0, symSize: 0x30 }
  - { offsetInCU: 0xA3DD, offset: 0xA3DD, size: 0x8, addend: 0x0, symName: __ZNSt3__114__rewrap_rangeB8ue170006INS_16reverse_iteratorIPiEES3_S3_EET0_S4_T1_, symObjAddr: 0x3F90, symBinAddr: 0x100004800, symSize: 0x60 }
  - { offsetInCU: 0xA432, offset: 0xA432, size: 0x8, addend: 0x0, symName: __ZNSt3__113__rewrap_iterB8ue170006INS_16reverse_iteratorIPiEES3_NS_18__unwrap_iter_implIS3_Lb0EEEEET_S6_T0_, symObjAddr: 0x3FF0, symBinAddr: 0x100004860, symSize: 0x70 }
  - { offsetInCU: 0xA4D7, offset: 0xA4D7, size: 0x8, addend: 0x0, symName: __ZNSt3__1neB8ue170006IPiS1_EEbRKNS_16reverse_iteratorIT_EERKNS2_IT0_EE, symObjAddr: 0x4160, symBinAddr: 0x1000049D0, symSize: 0x40 }
  - { offsetInCU: 0xA58F, offset: 0xA58F, size: 0x8, addend: 0x0, symName: __ZNSt3__1eqB8ue170006IPNS_5arrayIiLm2EEEEEbRKNS_11__wrap_iterIT_EES8_, symObjAddr: 0x4530, symBinAddr: 0x100004DA0, symSize: 0x40 }
  - { offsetInCU: 0xA5D2, offset: 0xA5D2, size: 0x8, addend: 0x0, symName: __ZNSt3__116__pad_and_outputB8ue170006IcNS_11char_traitsIcEEEENS_19ostreambuf_iteratorIT_T0_EES6_PKS4_S8_S8_RNS_8ios_baseES4_, symObjAddr: 0x49C0, symBinAddr: 0x100005230, symSize: 0x220 }
  - { offsetInCU: 0xA6A2, offset: 0xA6A2, size: 0x8, addend: 0x0, symName: __ZNSt3__112__to_addressB8ue170006IcEEPT_S2_, symObjAddr: 0x4EE0, symBinAddr: 0x100005750, symSize: 0x10 }
  - { offsetInCU: 0xA6D7, offset: 0xA6D7, size: 0x8, addend: 0x0, symName: __ZNSt3__19use_facetB8ue170006INS_5ctypeIcEEEERKT_RKNS_6localeE, symObjAddr: 0x5170, symBinAddr: 0x1000059E0, symSize: 0x30 }
  - { offsetInCU: 0xABA4, offset: 0xABA4, size: 0x8, addend: 0x0, symName: __ZNSt3__118__constexpr_strlenB8ue170006EPKc, symObjAddr: 0x5200, symBinAddr: 0x100005A70, symSize: 0x1B }
  - { offsetInCU: 0xAF8D, offset: 0xAF8D, size: 0x8, addend: 0x0, symName: __ZSt28__throw_bad_array_new_lengthB8ue170006v, symObjAddr: 0x1270, symBinAddr: 0x100001AE0, symSize: 0x40 }
  - { offsetInCU: 0xB647, offset: 0xB647, size: 0x8, addend: 0x0, symName: __ZNSt3__16vectorINS_5arrayIiLm2EEENS_9allocatorIS2_EEE26__swap_out_circular_bufferERNS_14__split_bufferIS2_RS4_EE, symObjAddr: 0x1FE0, symBinAddr: 0x100002850, symSize: 0x120 }
  - { offsetInCU: 0xB69C, offset: 0xB69C, size: 0x8, addend: 0x0, symName: __ZNSt3__16vectorIiNS_9allocatorIiEEE26__swap_out_circular_bufferERNS_14__split_bufferIiRS2_EE, symObjAddr: 0x3630, symBinAddr: 0x100003EA0, symSize: 0x120 }
  - { offsetInCU: 0xDBAA, offset: 0xDBAA, size: 0x8, addend: 0x0, symName: __Z5queryii, symObjAddr: 0x0, symBinAddr: 0x100000870, symSize: 0x80 }
  - { offsetInCU: 0xDBF2, offset: 0xDBF2, size: 0x8, addend: 0x0, symName: __Z5solvev, symObjAddr: 0xF0, symBinAddr: 0x100000960, symSize: 0x340 }
  - { offsetInCU: 0xDD40, offset: 0xDD40, size: 0x8, addend: 0x0, symName: __ZNSt3__16vectorINS_5arrayIiLm2EEENS_9allocatorIS2_EEEC1B8ue170006Ev, symObjAddr: 0x430, symBinAddr: 0x100000CA0, symSize: 0x20 }
  - { offsetInCU: 0xDD69, offset: 0xDD69, size: 0x8, addend: 0x0, symName: __ZNSt3__16vectorIiNS_9allocatorIiEEEC1Em, symObjAddr: 0x450, symBinAddr: 0x100000CC0, symSize: 0x30 }
  - { offsetInCU: 0xDDA3, offset: 0xDDA3, size: 0x8, addend: 0x0, symName: __ZNSt3__16vectorIiNS_9allocatorIiEEE5beginB8ue170006Ev, symObjAddr: 0x4E0, symBinAddr: 0x100000D50, symSize: 0x30 }
  - { offsetInCU: 0xDDC9, offset: 0xDDC9, size: 0x8, addend: 0x0, symName: __ZNSt3__16vectorIiNS_9allocatorIiEEE3endB8ue170006Ev, symObjAddr: 0x510, symBinAddr: 0x100000D80, symSize: 0x30 }
  - { offsetInCU: 0xDDEF, offset: 0xDDEF, size: 0x8, addend: 0x0, symName: __ZNSt3__16vectorIiNS_9allocatorIiEEEixB8ue170006Em, symObjAddr: 0x540, symBinAddr: 0x100000DB0, symSize: 0x20 }
  - { offsetInCU: 0xDE2E, offset: 0xDE2E, size: 0x8, addend: 0x0, symName: '__ZZ5solvevENK3$_0clEii', symObjAddr: 0x560, symBinAddr: 0x100000DD0, symSize: 0x180 }
  - { offsetInCU: 0xDEEA, offset: 0xDEEA, size: 0x8, addend: 0x0, symName: __ZNSt3__16vectorINS_5arrayIiLm2EEENS_9allocatorIS2_EEE5beginB8ue170006Ev, symObjAddr: 0x6E0, symBinAddr: 0x100000F50, symSize: 0x30 }
  - { offsetInCU: 0xDF10, offset: 0xDF10, size: 0x8, addend: 0x0, symName: __ZNSt3__16vectorINS_5arrayIiLm2EEENS_9allocatorIS2_EEE3endB8ue170006Ev, symObjAddr: 0x710, symBinAddr: 0x100000F80, symSize: 0x30 }
  - { offsetInCU: 0xDF36, offset: 0xDF36, size: 0x8, addend: 0x0, symName: __ZNKSt3__111__wrap_iterIPNS_5arrayIiLm2EEEEdeB8ue170006Ev, symObjAddr: 0x770, symBinAddr: 0x100000FE0, symSize: 0x20 }
  - { offsetInCU: 0xDF5B, offset: 0xDF5B, size: 0x8, addend: 0x0, symName: __ZNSt3__111__wrap_iterIPNS_5arrayIiLm2EEEEppB8ue170006Ev, symObjAddr: 0x7C0, symBinAddr: 0x100001030, symSize: 0x20 }
  - { offsetInCU: 0xDF80, offset: 0xDF80, size: 0x8, addend: 0x0, symName: __ZNSt3__16vectorIiNS_9allocatorIiEEED1B8ue170006Ev, symObjAddr: 0x7E0, symBinAddr: 0x100001050, symSize: 0x20 }
  - { offsetInCU: 0xDFA9, offset: 0xDFA9, size: 0x8, addend: 0x0, symName: __ZNSt3__16vectorINS_5arrayIiLm2EEENS_9allocatorIS2_EEED1B8ue170006Ev, symObjAddr: 0x800, symBinAddr: 0x100001070, symSize: 0x20 }
  - { offsetInCU: 0xDFD2, offset: 0xDFD2, size: 0x8, addend: 0x0, symName: _main, symObjAddr: 0x820, symBinAddr: 0x100001090, symSize: 0x70 }
  - { offsetInCU: 0xDFFB, offset: 0xDFFB, size: 0x8, addend: 0x0, symName: __ZNSt3__19basic_iosIcNS_11char_traitsIcEEE3tieB8ue170006EPNS_13basic_ostreamIcS2_EE, symObjAddr: 0x890, symBinAddr: 0x100001100, symSize: 0x30 }
  - { offsetInCU: 0xE03F, offset: 0xE03F, size: 0x8, addend: 0x0, symName: __ZNSt3__16vectorINS_5arrayIiLm2EEENS_9allocatorIS2_EEEC2B8ue170006Ev, symObjAddr: 0x8C0, symBinAddr: 0x100001130, symSize: 0x50 }
  - { offsetInCU: 0xE072, offset: 0xE072, size: 0x8, addend: 0x0, symName: __ZNSt3__117__compressed_pairIPNS_5arrayIiLm2EEENS_9allocatorIS2_EEEC1B8ue170006IDnNS_18__default_init_tagEEEOT_OT0_, symObjAddr: 0x910, symBinAddr: 0x100001180, symSize: 0x30 }
  - { offsetInCU: 0xE0C9, offset: 0xE0C9, size: 0x8, addend: 0x0, symName: __ZNSt3__117__compressed_pairIPNS_5arrayIiLm2EEENS_9allocatorIS2_EEEC2B8ue170006IDnNS_18__default_init_tagEEEOT_OT0_, symObjAddr: 0x950, symBinAddr: 0x1000011C0, symSize: 0x40 }
  - { offsetInCU: 0xE120, offset: 0xE120, size: 0x8, addend: 0x0, symName: __ZNSt3__122__compressed_pair_elemIPNS_5arrayIiLm2EEELi0ELb0EEC2B8ue170006IDnvEEOT_, symObjAddr: 0x990, symBinAddr: 0x100001200, symSize: 0x20 }
  - { offsetInCU: 0xE161, offset: 0xE161, size: 0x8, addend: 0x0, symName: __ZNSt3__122__compressed_pair_elemINS_9allocatorINS_5arrayIiLm2EEEEELi1ELb1EEC2B8ue170006ENS_18__default_init_tagE, symObjAddr: 0x9B0, symBinAddr: 0x100001220, symSize: 0x20 }
  - { offsetInCU: 0xE195, offset: 0xE195, size: 0x8, addend: 0x0, symName: __ZNSt3__19allocatorINS_5arrayIiLm2EEEEC2B8ue170006Ev, symObjAddr: 0x9D0, symBinAddr: 0x100001240, symSize: 0x20 }
  - { offsetInCU: 0xE1BE, offset: 0xE1BE, size: 0x8, addend: 0x0, symName: __ZNSt3__116__non_trivial_ifILb1ENS_9allocatorINS_5arrayIiLm2EEEEEEC2B8ue170006Ev, symObjAddr: 0x9F0, symBinAddr: 0x100001260, symSize: 0x10 }
  - { offsetInCU: 0xE1E7, offset: 0xE1E7, size: 0x8, addend: 0x0, symName: __ZNSt3__16vectorIiNS_9allocatorIiEEEC2Em, symObjAddr: 0xA00, symBinAddr: 0x100001270, symSize: 0xD0 }
  - { offsetInCU: 0xE236, offset: 0xE236, size: 0x8, addend: 0x0, symName: __ZNSt3__117__compressed_pairIPiNS_9allocatorIiEEEC1B8ue170006IDnNS_18__default_init_tagEEEOT_OT0_, symObjAddr: 0xAD0, symBinAddr: 0x100001340, symSize: 0x30 }
  - { offsetInCU: 0xE28D, offset: 0xE28D, size: 0x8, addend: 0x0, symName: __ZNSt3__16vectorIiNS_9allocatorIiEEE16__destroy_vectorC1B8ue170006ERS3_, symObjAddr: 0xB40, symBinAddr: 0x1000013B0, symSize: 0x30 }
  - { offsetInCU: 0xE2C5, offset: 0xE2C5, size: 0x8, addend: 0x0, symName: __ZNSt3__16vectorIiNS_9allocatorIiEEE11__vallocateB8ue170006Em, symObjAddr: 0xB70, symBinAddr: 0x1000013E0, symSize: 0xA0 }
  - { offsetInCU: 0xE308, offset: 0xE308, size: 0x8, addend: 0x0, symName: __ZNSt3__16vectorIiNS_9allocatorIiEEE18__construct_at_endEm, symObjAddr: 0xC10, symBinAddr: 0x100001480, symSize: 0xC0 }
  - { offsetInCU: 0xE378, offset: 0xE378, size: 0x8, addend: 0x0, symName: __ZNSt3__128__exception_guard_exceptionsINS_6vectorIiNS_9allocatorIiEEE16__destroy_vectorEE10__completeB8ue170006Ev, symObjAddr: 0xCD0, symBinAddr: 0x100001540, symSize: 0x20 }
  - { offsetInCU: 0xE39D, offset: 0xE39D, size: 0x8, addend: 0x0, symName: __ZNSt3__128__exception_guard_exceptionsINS_6vectorIiNS_9allocatorIiEEE16__destroy_vectorEED1B8ue170006Ev, symObjAddr: 0xCF0, symBinAddr: 0x100001560, symSize: 0x20 }
  - { offsetInCU: 0xE3C6, offset: 0xE3C6, size: 0x8, addend: 0x0, symName: __ZNSt3__117__compressed_pairIPiNS_9allocatorIiEEEC2B8ue170006IDnNS_18__default_init_tagEEEOT_OT0_, symObjAddr: 0xD10, symBinAddr: 0x100001580, symSize: 0x40 }
  - { offsetInCU: 0xE41D, offset: 0xE41D, size: 0x8, addend: 0x0, symName: __ZNSt3__122__compressed_pair_elemIPiLi0ELb0EEC2B8ue170006IDnvEEOT_, symObjAddr: 0xD50, symBinAddr: 0x1000015C0, symSize: 0x20 }
  - { offsetInCU: 0xE45E, offset: 0xE45E, size: 0x8, addend: 0x0, symName: __ZNSt3__122__compressed_pair_elemINS_9allocatorIiEELi1ELb1EEC2B8ue170006ENS_18__default_init_tagE, symObjAddr: 0xD70, symBinAddr: 0x1000015E0, symSize: 0x20 }
  - { offsetInCU: 0xE492, offset: 0xE492, size: 0x8, addend: 0x0, symName: __ZNSt3__19allocatorIiEC2B8ue170006Ev, symObjAddr: 0xD90, symBinAddr: 0x100001600, symSize: 0x20 }
  - { offsetInCU: 0xE4BB, offset: 0xE4BB, size: 0x8, addend: 0x0, symName: __ZNSt3__116__non_trivial_ifILb1ENS_9allocatorIiEEEC2B8ue170006Ev, symObjAddr: 0xDB0, symBinAddr: 0x100001620, symSize: 0x10 }
  - { offsetInCU: 0xE4E4, offset: 0xE4E4, size: 0x8, addend: 0x0, symName: __ZNSt3__128__exception_guard_exceptionsINS_6vectorIiNS_9allocatorIiEEE16__destroy_vectorEEC1B8ue170006ES5_, symObjAddr: 0xDC0, symBinAddr: 0x100001630, symSize: 0x30 }
  - { offsetInCU: 0xE51B, offset: 0xE51B, size: 0x8, addend: 0x0, symName: __ZNSt3__128__exception_guard_exceptionsINS_6vectorIiNS_9allocatorIiEEE16__destroy_vectorEEC2B8ue170006ES5_, symObjAddr: 0xDF0, symBinAddr: 0x100001660, symSize: 0x20 }
  - { offsetInCU: 0xE552, offset: 0xE552, size: 0x8, addend: 0x0, symName: __ZNSt3__16vectorIiNS_9allocatorIiEEE16__destroy_vectorC2B8ue170006ERS3_, symObjAddr: 0xE10, symBinAddr: 0x100001680, symSize: 0x20 }
  - { offsetInCU: 0xE58A, offset: 0xE58A, size: 0x8, addend: 0x0, symName: __ZNKSt3__16vectorIiNS_9allocatorIiEEE8max_sizeEv, symObjAddr: 0xE30, symBinAddr: 0x1000016A0, symSize: 0x60 }
  - { offsetInCU: 0xE5B0, offset: 0xE5B0, size: 0x8, addend: 0x0, symName: __ZNKSt3__16vectorIiNS_9allocatorIiEEE20__throw_length_errorB8ue170006Ev, symObjAddr: 0xE90, symBinAddr: 0x100001700, symSize: 0x20 }
  - { offsetInCU: 0xE5D5, offset: 0xE5D5, size: 0x8, addend: 0x0, symName: __ZNSt3__16vectorIiNS_9allocatorIiEEE7__allocB8ue170006Ev, symObjAddr: 0xEF0, symBinAddr: 0x100001760, symSize: 0x20 }
  - { offsetInCU: 0xE5FA, offset: 0xE5FA, size: 0x8, addend: 0x0, symName: __ZNSt3__16vectorIiNS_9allocatorIiEEE9__end_capB8ue170006Ev, symObjAddr: 0xF10, symBinAddr: 0x100001780, symSize: 0x20 }
  - { offsetInCU: 0xE61F, offset: 0xE61F, size: 0x8, addend: 0x0, symName: __ZNKSt3__16vectorIiNS_9allocatorIiEEE14__annotate_newB8ue170006Em, symObjAddr: 0xF30, symBinAddr: 0x1000017A0, symSize: 0xB0 }
  - { offsetInCU: 0xE65D, offset: 0xE65D, size: 0x8, addend: 0x0, symName: __ZNSt3__116allocator_traitsINS_9allocatorIiEEE8max_sizeB8ue170006IS2_vvEEmRKS2_, symObjAddr: 0x1010, symBinAddr: 0x100001880, symSize: 0x20 }
  - { offsetInCU: 0xE688, offset: 0xE688, size: 0x8, addend: 0x0, symName: __ZNKSt3__16vectorIiNS_9allocatorIiEEE7__allocB8ue170006Ev, symObjAddr: 0x1030, symBinAddr: 0x1000018A0, symSize: 0x20 }
  - { offsetInCU: 0xE6AD, offset: 0xE6AD, size: 0x8, addend: 0x0, symName: __ZNSt3__114numeric_limitsIlE3maxB8ue170006Ev, symObjAddr: 0x1050, symBinAddr: 0x1000018C0, symSize: 0x10 }
  - { offsetInCU: 0xE6D5, offset: 0xE6D5, size: 0x8, addend: 0x0, symName: __ZNKSt3__16__lessIvvEclB8ue170006ImmEEbRKT_RKT0_, symObjAddr: 0x10B0, symBinAddr: 0x100001920, symSize: 0x30 }
  - { offsetInCU: 0xE728, offset: 0xE728, size: 0x8, addend: 0x0, symName: __ZNSt3__114numeric_limitsImE3maxB8ue170006Ev, symObjAddr: 0x10E0, symBinAddr: 0x100001950, symSize: 0x10 }
  - { offsetInCU: 0xE73C, offset: 0xE73C, size: 0x8, addend: 0x0, symName: __ZNSt3__123__libcpp_numeric_limitsImLb1EE3maxB8ue170006Ev, symObjAddr: 0x10F0, symBinAddr: 0x100001960, symSize: 0x10 }
  - { offsetInCU: 0xE750, offset: 0xE750, size: 0x8, addend: 0x0, symName: __ZNKSt3__117__compressed_pairIPiNS_9allocatorIiEEE6secondB8ue170006Ev, symObjAddr: 0x1100, symBinAddr: 0x100001970, symSize: 0x20 }
  - { offsetInCU: 0xE775, offset: 0xE775, size: 0x8, addend: 0x0, symName: __ZNKSt3__122__compressed_pair_elemINS_9allocatorIiEELi1ELb1EE5__getB8ue170006Ev, symObjAddr: 0x1120, symBinAddr: 0x100001990, symSize: 0x10 }
  - { offsetInCU: 0xE79A, offset: 0xE79A, size: 0x8, addend: 0x0, symName: __ZNSt3__123__libcpp_numeric_limitsIlLb1EE3maxB8ue170006Ev, symObjAddr: 0x1130, symBinAddr: 0x1000019A0, symSize: 0x10 }
  - { offsetInCU: 0xE7AE, offset: 0xE7AE, size: 0x8, addend: 0x0, symName: __ZNSt12length_errorC1B8ue170006EPKc, symObjAddr: 0x11B0, symBinAddr: 0x100001A20, symSize: 0x30 }
  - { offsetInCU: 0xE7E5, offset: 0xE7E5, size: 0x8, addend: 0x0, symName: __ZNSt12length_errorC2B8ue170006EPKc, symObjAddr: 0x11E0, symBinAddr: 0x100001A50, symSize: 0x40 }
  - { offsetInCU: 0xE81C, offset: 0xE81C, size: 0x8, addend: 0x0, symName: __ZNSt3__19allocatorIiE8allocateB8ue170006Em, symObjAddr: 0x1220, symBinAddr: 0x100001A90, symSize: 0x50 }
  - { offsetInCU: 0xE84F, offset: 0xE84F, size: 0x8, addend: 0x0, symName: __ZNSt3__117__compressed_pairIPiNS_9allocatorIiEEE6secondB8ue170006Ev, symObjAddr: 0x1380, symBinAddr: 0x100001BF0, symSize: 0x20 }
  - { offsetInCU: 0xE874, offset: 0xE874, size: 0x8, addend: 0x0, symName: __ZNSt3__122__compressed_pair_elemINS_9allocatorIiEELi1ELb1EE5__getB8ue170006Ev, symObjAddr: 0x13A0, symBinAddr: 0x100001C10, symSize: 0x10 }
  - { offsetInCU: 0xE899, offset: 0xE899, size: 0x8, addend: 0x0, symName: __ZNSt3__117__compressed_pairIPiNS_9allocatorIiEEE5firstB8ue170006Ev, symObjAddr: 0x13B0, symBinAddr: 0x100001C20, symSize: 0x20 }
  - { offsetInCU: 0xE8BE, offset: 0xE8BE, size: 0x8, addend: 0x0, symName: __ZNSt3__122__compressed_pair_elemIPiLi0ELb0EE5__getB8ue170006Ev, symObjAddr: 0x13D0, symBinAddr: 0x100001C40, symSize: 0x10 }
  - { offsetInCU: 0xE8E3, offset: 0xE8E3, size: 0x8, addend: 0x0, symName: __ZNKSt3__16vectorIiNS_9allocatorIiEEE31__annotate_contiguous_containerB8ue170006EPKvS5_S5_S5_, symObjAddr: 0x13E0, symBinAddr: 0x100001C50, symSize: 0x20 }
  - { offsetInCU: 0xE934, offset: 0xE934, size: 0x8, addend: 0x0, symName: __ZNKSt3__16vectorIiNS_9allocatorIiEEE4dataB8ue170006Ev, symObjAddr: 0x1400, symBinAddr: 0x100001C70, symSize: 0x20 }
  - { offsetInCU: 0xE959, offset: 0xE959, size: 0x8, addend: 0x0, symName: __ZNKSt3__16vectorIiNS_9allocatorIiEEE8capacityB8ue170006Ev, symObjAddr: 0x1420, symBinAddr: 0x100001C90, symSize: 0x30 }
  - { offsetInCU: 0xE97E, offset: 0xE97E, size: 0x8, addend: 0x0, symName: __ZNKSt3__16vectorIiNS_9allocatorIiEEE9__end_capB8ue170006Ev, symObjAddr: 0x1460, symBinAddr: 0x100001CD0, symSize: 0x20 }
  - { offsetInCU: 0xE9A3, offset: 0xE9A3, size: 0x8, addend: 0x0, symName: __ZNKSt3__117__compressed_pairIPiNS_9allocatorIiEEE5firstB8ue170006Ev, symObjAddr: 0x1480, symBinAddr: 0x100001CF0, symSize: 0x20 }
  - { offsetInCU: 0xE9C8, offset: 0xE9C8, size: 0x8, addend: 0x0, symName: __ZNKSt3__122__compressed_pair_elemIPiLi0ELb0EE5__getB8ue170006Ev, symObjAddr: 0x14A0, symBinAddr: 0x100001D10, symSize: 0x10 }
  - { offsetInCU: 0xEA06, offset: 0xEA06, size: 0x8, addend: 0x0, symName: __ZNSt3__16vectorIiNS_9allocatorIiEEE21_ConstructTransactionC1B8ue170006ERS3_m, symObjAddr: 0x14B0, symBinAddr: 0x100001D20, symSize: 0x30 }
  - { offsetInCU: 0xEA4D, offset: 0xEA4D, size: 0x8, addend: 0x0, symName: __ZNSt3__116allocator_traitsINS_9allocatorIiEEE9constructB8ue170006IiJEvvEEvRS2_PT_DpOT0_, symObjAddr: 0x14E0, symBinAddr: 0x100001D50, symSize: 0x20 }
  - { offsetInCU: 0xEA8C, offset: 0xEA8C, size: 0x8, addend: 0x0, symName: __ZNSt3__16vectorIiNS_9allocatorIiEEE21_ConstructTransactionD1B8ue170006Ev, symObjAddr: 0x1500, symBinAddr: 0x100001D70, symSize: 0x20 }
  - { offsetInCU: 0xEAB5, offset: 0xEAB5, size: 0x8, addend: 0x0, symName: __ZNSt3__16vectorIiNS_9allocatorIiEEE21_ConstructTransactionC2B8ue170006ERS3_m, symObjAddr: 0x1520, symBinAddr: 0x100001D90, symSize: 0x40 }
  - { offsetInCU: 0xEAFC, offset: 0xEAFC, size: 0x8, addend: 0x0, symName: __ZNSt3__16vectorIiNS_9allocatorIiEEE21_ConstructTransactionD2B8ue170006Ev, symObjAddr: 0x1580, symBinAddr: 0x100001DF0, symSize: 0x20 }
  - { offsetInCU: 0xEB25, offset: 0xEB25, size: 0x8, addend: 0x0, symName: __ZNSt3__128__exception_guard_exceptionsINS_6vectorIiNS_9allocatorIiEEE16__destroy_vectorEED2B8ue170006Ev, symObjAddr: 0x15A0, symBinAddr: 0x100001E10, symSize: 0x40 }
  - { offsetInCU: 0xEB4E, offset: 0xEB4E, size: 0x8, addend: 0x0, symName: __ZNSt3__16vectorIiNS_9allocatorIiEEE16__destroy_vectorclB8ue170006Ev, symObjAddr: 0x15E0, symBinAddr: 0x100001E50, symSize: 0x80 }
  - { offsetInCU: 0xEB73, offset: 0xEB73, size: 0x8, addend: 0x0, symName: __ZNSt3__16vectorIiNS_9allocatorIiEEE7__clearB8ue170006Ev, symObjAddr: 0x1660, symBinAddr: 0x100001ED0, symSize: 0x20 }
  - { offsetInCU: 0xEB98, offset: 0xEB98, size: 0x8, addend: 0x0, symName: __ZNKSt3__16vectorIiNS_9allocatorIiEEE17__annotate_deleteB8ue170006Ev, symObjAddr: 0x1680, symBinAddr: 0x100001EF0, symSize: 0xB0 }
  - { offsetInCU: 0xEBBD, offset: 0xEBBD, size: 0x8, addend: 0x0, symName: __ZNSt3__116allocator_traitsINS_9allocatorIiEEE10deallocateB8ue170006ERS2_Pim, symObjAddr: 0x1730, symBinAddr: 0x100001FA0, symSize: 0x30 }
  - { offsetInCU: 0xEBFF, offset: 0xEBFF, size: 0x8, addend: 0x0, symName: __ZNSt3__16vectorIiNS_9allocatorIiEEE22__base_destruct_at_endB8ue170006EPi, symObjAddr: 0x1760, symBinAddr: 0x100001FD0, symSize: 0x80 }
  - { offsetInCU: 0xEC42, offset: 0xEC42, size: 0x8, addend: 0x0, symName: __ZNSt3__116allocator_traitsINS_9allocatorIiEEE7destroyB8ue170006IivvEEvRS2_PT_, symObjAddr: 0x17E0, symBinAddr: 0x100002050, symSize: 0x20 }
  - { offsetInCU: 0xEC7C, offset: 0xEC7C, size: 0x8, addend: 0x0, symName: __ZNKSt3__16vectorIiNS_9allocatorIiEEE4sizeB8ue170006Ev, symObjAddr: 0x1830, symBinAddr: 0x1000020A0, symSize: 0x20 }
  - { offsetInCU: 0xECA1, offset: 0xECA1, size: 0x8, addend: 0x0, symName: __ZNSt3__19allocatorIiE10deallocateB8ue170006EPim, symObjAddr: 0x1850, symBinAddr: 0x1000020C0, symSize: 0x40 }
  - { offsetInCU: 0xECE2, offset: 0xECE2, size: 0x8, addend: 0x0, symName: __ZNKSt3__111__wrap_iterIPiEdeB8ue170006Ev, symObjAddr: 0x19C0, symBinAddr: 0x100002230, symSize: 0x20 }
  - { offsetInCU: 0xED07, offset: 0xED07, size: 0x8, addend: 0x0, symName: __ZNSt3__111__wrap_iterIPiEppB8ue170006Ev, symObjAddr: 0x19E0, symBinAddr: 0x100002250, symSize: 0x20 }
  - { offsetInCU: 0xED2C, offset: 0xED2C, size: 0x8, addend: 0x0, symName: __ZNKSt3__111__wrap_iterIPiE4baseB8ue170006Ev, symObjAddr: 0x1A40, symBinAddr: 0x1000022B0, symSize: 0x20 }
  - { offsetInCU: 0xED51, offset: 0xED51, size: 0x8, addend: 0x0, symName: __ZNSt3__16vectorIiNS_9allocatorIiEEE11__make_iterB8ue170006EPi, symObjAddr: 0x1A60, symBinAddr: 0x1000022D0, symSize: 0x30 }
  - { offsetInCU: 0xED85, offset: 0xED85, size: 0x8, addend: 0x0, symName: __ZNSt3__111__wrap_iterIPiEC1B8ue170006ES1_, symObjAddr: 0x1A90, symBinAddr: 0x100002300, symSize: 0x30 }
  - { offsetInCU: 0xEDBC, offset: 0xEDBC, size: 0x8, addend: 0x0, symName: __ZNSt3__111__wrap_iterIPiEC2B8ue170006ES1_, symObjAddr: 0x1AC0, symBinAddr: 0x100002330, symSize: 0x20 }
  - { offsetInCU: 0xEDF3, offset: 0xEDF3, size: 0x8, addend: 0x0, symName: __ZNSt3__16vectorINS_5arrayIiLm2EEENS_9allocatorIS2_EEE9push_backB8ue170006EOS2_, symObjAddr: 0x1AE0, symBinAddr: 0x100002350, symSize: 0x60 }
  - { offsetInCU: 0xEE28, offset: 0xEE28, size: 0x8, addend: 0x0, symName: __ZNSt3__16vectorIiNS_9allocatorIiEEEC1B8ue170006Ev, symObjAddr: 0x1B40, symBinAddr: 0x1000023B0, symSize: 0x20 }
  - { offsetInCU: 0xEE51, offset: 0xEE51, size: 0x8, addend: 0x0, symName: __ZNSt3__16vectorIiNS_9allocatorIiEEE9push_backB8ue170006ERKi, symObjAddr: 0x1B60, symBinAddr: 0x1000023D0, symSize: 0x60 }
  - { offsetInCU: 0xEE86, offset: 0xEE86, size: 0x8, addend: 0x0, symName: __ZNSt3__16vectorINS_5arrayIiLm2EEENS_9allocatorIS2_EEE9__end_capB8ue170006Ev, symObjAddr: 0x1BC0, symBinAddr: 0x100002430, symSize: 0x20 }
  - { offsetInCU: 0xEEB0, offset: 0xEEB0, size: 0x8, addend: 0x0, symName: __ZNSt3__16vectorINS_5arrayIiLm2EEENS_9allocatorIS2_EEE22__construct_one_at_endB8ue170006IJS2_EEEvDpOT_, symObjAddr: 0x1BE0, symBinAddr: 0x100002450, symSize: 0x90 }
  - { offsetInCU: 0xEEFE, offset: 0xEEFE, size: 0x8, addend: 0x0, symName: __ZNSt3__16vectorINS_5arrayIiLm2EEENS_9allocatorIS2_EEE21__push_back_slow_pathIS2_EEvOT_, symObjAddr: 0x1C70, symBinAddr: 0x1000024E0, symSize: 0xD0 }
  - { offsetInCU: 0xEF5A, offset: 0xEF5A, size: 0x8, addend: 0x0, symName: __ZNSt3__117__compressed_pairIPNS_5arrayIiLm2EEENS_9allocatorIS2_EEE5firstB8ue170006Ev, symObjAddr: 0x1D40, symBinAddr: 0x1000025B0, symSize: 0x20 }
  - { offsetInCU: 0xEF7F, offset: 0xEF7F, size: 0x8, addend: 0x0, symName: __ZNSt3__122__compressed_pair_elemIPNS_5arrayIiLm2EEELi0ELb0EE5__getB8ue170006Ev, symObjAddr: 0x1D60, symBinAddr: 0x1000025D0, symSize: 0x10 }
  - { offsetInCU: 0xEFBD, offset: 0xEFBD, size: 0x8, addend: 0x0, symName: __ZNSt3__16vectorINS_5arrayIiLm2EEENS_9allocatorIS2_EEE21_ConstructTransactionC1B8ue170006ERS5_m, symObjAddr: 0x1D70, symBinAddr: 0x1000025E0, symSize: 0x30 }
  - { offsetInCU: 0xF004, offset: 0xF004, size: 0x8, addend: 0x0, symName: __ZNSt3__116allocator_traitsINS_9allocatorINS_5arrayIiLm2EEEEEE9constructB8ue170006IS3_JS3_EvvEEvRS4_PT_DpOT0_, symObjAddr: 0x1DA0, symBinAddr: 0x100002610, symSize: 0x30 }
  - { offsetInCU: 0xF058, offset: 0xF058, size: 0x8, addend: 0x0, symName: __ZNSt3__16vectorINS_5arrayIiLm2EEENS_9allocatorIS2_EEE7__allocB8ue170006Ev, symObjAddr: 0x1DD0, symBinAddr: 0x100002640, symSize: 0x20 }
  - { offsetInCU: 0xF07D, offset: 0xF07D, size: 0x8, addend: 0x0, symName: __ZNSt3__16vectorINS_5arrayIiLm2EEENS_9allocatorIS2_EEE21_ConstructTransactionD1B8ue170006Ev, symObjAddr: 0x1E00, symBinAddr: 0x100002670, symSize: 0x20 }
  - { offsetInCU: 0xF0A6, offset: 0xF0A6, size: 0x8, addend: 0x0, symName: __ZNSt3__16vectorINS_5arrayIiLm2EEENS_9allocatorIS2_EEE21_ConstructTransactionC2B8ue170006ERS5_m, symObjAddr: 0x1E20, symBinAddr: 0x100002690, symSize: 0x40 }
  - { offsetInCU: 0xF0ED, offset: 0xF0ED, size: 0x8, addend: 0x0, symName: __ZNSt3__117__compressed_pairIPNS_5arrayIiLm2EEENS_9allocatorIS2_EEE6secondB8ue170006Ev, symObjAddr: 0x1E90, symBinAddr: 0x100002700, symSize: 0x20 }
  - { offsetInCU: 0xF112, offset: 0xF112, size: 0x8, addend: 0x0, symName: __ZNSt3__122__compressed_pair_elemINS_9allocatorINS_5arrayIiLm2EEEEELi1ELb1EE5__getB8ue170006Ev, symObjAddr: 0x1EB0, symBinAddr: 0x100002720, symSize: 0x10 }
  - { offsetInCU: 0xF137, offset: 0xF137, size: 0x8, addend: 0x0, symName: __ZNSt3__16vectorINS_5arrayIiLm2EEENS_9allocatorIS2_EEE21_ConstructTransactionD2B8ue170006Ev, symObjAddr: 0x1EC0, symBinAddr: 0x100002730, symSize: 0x20 }
  - { offsetInCU: 0xF160, offset: 0xF160, size: 0x8, addend: 0x0, symName: __ZNKSt3__16vectorINS_5arrayIiLm2EEENS_9allocatorIS2_EEE11__recommendB8ue170006Em, symObjAddr: 0x1EE0, symBinAddr: 0x100002750, symSize: 0xA0 }
  - { offsetInCU: 0xF1B3, offset: 0xF1B3, size: 0x8, addend: 0x0, symName: __ZNKSt3__16vectorINS_5arrayIiLm2EEENS_9allocatorIS2_EEE4sizeB8ue170006Ev, symObjAddr: 0x1F80, symBinAddr: 0x1000027F0, symSize: 0x20 }
  - { offsetInCU: 0xF1D8, offset: 0xF1D8, size: 0x8, addend: 0x0, symName: __ZNSt3__114__split_bufferINS_5arrayIiLm2EEERNS_9allocatorIS2_EEEC1EmmS5_, symObjAddr: 0x1FA0, symBinAddr: 0x100002810, symSize: 0x40 }
  - { offsetInCU: 0xF22D, offset: 0xF22D, size: 0x8, addend: 0x0, symName: __ZNSt3__114__split_bufferINS_5arrayIiLm2EEERNS_9allocatorIS2_EEED1Ev, symObjAddr: 0x2100, symBinAddr: 0x100002970, symSize: 0x20 }
  - { offsetInCU: 0xF258, offset: 0xF258, size: 0x8, addend: 0x0, symName: __ZNKSt3__16vectorINS_5arrayIiLm2EEENS_9allocatorIS2_EEE8max_sizeEv, symObjAddr: 0x2120, symBinAddr: 0x100002990, symSize: 0x60 }
  - { offsetInCU: 0xF27E, offset: 0xF27E, size: 0x8, addend: 0x0, symName: __ZNKSt3__16vectorINS_5arrayIiLm2EEENS_9allocatorIS2_EEE20__throw_length_errorB8ue170006Ev, symObjAddr: 0x2180, symBinAddr: 0x1000029F0, symSize: 0x20 }
  - { offsetInCU: 0xF2A3, offset: 0xF2A3, size: 0x8, addend: 0x0, symName: __ZNKSt3__16vectorINS_5arrayIiLm2EEENS_9allocatorIS2_EEE8capacityB8ue170006Ev, symObjAddr: 0x21A0, symBinAddr: 0x100002A10, symSize: 0x30 }
  - { offsetInCU: 0xF2D2, offset: 0xF2D2, size: 0x8, addend: 0x0, symName: __ZNSt3__116allocator_traitsINS_9allocatorINS_5arrayIiLm2EEEEEE8max_sizeB8ue170006IS4_vvEEmRKS4_, symObjAddr: 0x2200, symBinAddr: 0x100002A70, symSize: 0x20 }
  - { offsetInCU: 0xF2FD, offset: 0xF2FD, size: 0x8, addend: 0x0, symName: __ZNKSt3__16vectorINS_5arrayIiLm2EEENS_9allocatorIS2_EEE7__allocB8ue170006Ev, symObjAddr: 0x2220, symBinAddr: 0x100002A90, symSize: 0x20 }
  - { offsetInCU: 0xF322, offset: 0xF322, size: 0x8, addend: 0x0, symName: __ZNKSt3__117__compressed_pairIPNS_5arrayIiLm2EEENS_9allocatorIS2_EEE6secondB8ue170006Ev, symObjAddr: 0x2240, symBinAddr: 0x100002AB0, symSize: 0x20 }
  - { offsetInCU: 0xF347, offset: 0xF347, size: 0x8, addend: 0x0, symName: __ZNKSt3__122__compressed_pair_elemINS_9allocatorINS_5arrayIiLm2EEEEELi1ELb1EE5__getB8ue170006Ev, symObjAddr: 0x2260, symBinAddr: 0x100002AD0, symSize: 0x10 }
  - { offsetInCU: 0xF36C, offset: 0xF36C, size: 0x8, addend: 0x0, symName: __ZNKSt3__16vectorINS_5arrayIiLm2EEENS_9allocatorIS2_EEE9__end_capB8ue170006Ev, symObjAddr: 0x2270, symBinAddr: 0x100002AE0, symSize: 0x20 }
  - { offsetInCU: 0xF391, offset: 0xF391, size: 0x8, addend: 0x0, symName: __ZNKSt3__117__compressed_pairIPNS_5arrayIiLm2EEENS_9allocatorIS2_EEE5firstB8ue170006Ev, symObjAddr: 0x2290, symBinAddr: 0x100002B00, symSize: 0x20 }
  - { offsetInCU: 0xF3B6, offset: 0xF3B6, size: 0x8, addend: 0x0, symName: __ZNKSt3__122__compressed_pair_elemIPNS_5arrayIiLm2EEELi0ELb0EE5__getB8ue170006Ev, symObjAddr: 0x22B0, symBinAddr: 0x100002B20, symSize: 0x10 }
  - { offsetInCU: 0xF3DB, offset: 0xF3DB, size: 0x8, addend: 0x0, symName: __ZNSt3__114__split_bufferINS_5arrayIiLm2EEERNS_9allocatorIS2_EEEC2EmmS5_, symObjAddr: 0x2310, symBinAddr: 0x100002B80, symSize: 0xD0 }
  - { offsetInCU: 0xF44D, offset: 0xF44D, size: 0x8, addend: 0x0, symName: __ZNSt3__117__compressed_pairIPNS_5arrayIiLm2EEERNS_9allocatorIS2_EEEC1B8ue170006IDnS6_EEOT_OT0_, symObjAddr: 0x23E0, symBinAddr: 0x100002C50, symSize: 0x30 }
  - { offsetInCU: 0xF4A4, offset: 0xF4A4, size: 0x8, addend: 0x0, symName: __ZNSt3__114__split_bufferINS_5arrayIiLm2EEERNS_9allocatorIS2_EEE7__allocB8ue170006Ev, symObjAddr: 0x2450, symBinAddr: 0x100002CC0, symSize: 0x20 }
  - { offsetInCU: 0xF4C9, offset: 0xF4C9, size: 0x8, addend: 0x0, symName: __ZNSt3__114__split_bufferINS_5arrayIiLm2EEERNS_9allocatorIS2_EEE9__end_capB8ue170006Ev, symObjAddr: 0x2470, symBinAddr: 0x100002CE0, symSize: 0x20 }
  - { offsetInCU: 0xF4EE, offset: 0xF4EE, size: 0x8, addend: 0x0, symName: __ZNSt3__117__compressed_pairIPNS_5arrayIiLm2EEERNS_9allocatorIS2_EEEC2B8ue170006IDnS6_EEOT_OT0_, symObjAddr: 0x2490, symBinAddr: 0x100002D00, symSize: 0x40 }
  - { offsetInCU: 0xF545, offset: 0xF545, size: 0x8, addend: 0x0, symName: __ZNSt3__122__compressed_pair_elemIRNS_9allocatorINS_5arrayIiLm2EEEEELi1ELb0EEC2B8ue170006IS5_vEEOT_, symObjAddr: 0x24D0, symBinAddr: 0x100002D40, symSize: 0x20 }
  - { offsetInCU: 0xF586, offset: 0xF586, size: 0x8, addend: 0x0, symName: __ZNSt3__19allocatorINS_5arrayIiLm2EEEE8allocateB8ue170006Em, symObjAddr: 0x24F0, symBinAddr: 0x100002D60, symSize: 0x50 }
  - { offsetInCU: 0xF5B9, offset: 0xF5B9, size: 0x8, addend: 0x0, symName: __ZNSt3__117__compressed_pairIPNS_5arrayIiLm2EEERNS_9allocatorIS2_EEE6secondB8ue170006Ev, symObjAddr: 0x2540, symBinAddr: 0x100002DB0, symSize: 0x20 }
  - { offsetInCU: 0xF5DE, offset: 0xF5DE, size: 0x8, addend: 0x0, symName: __ZNSt3__122__compressed_pair_elemIRNS_9allocatorINS_5arrayIiLm2EEEEELi1ELb0EE5__getB8ue170006Ev, symObjAddr: 0x2560, symBinAddr: 0x100002DD0, symSize: 0x20 }
  - { offsetInCU: 0xF603, offset: 0xF603, size: 0x8, addend: 0x0, symName: __ZNSt3__117__compressed_pairIPNS_5arrayIiLm2EEERNS_9allocatorIS2_EEE5firstB8ue170006Ev, symObjAddr: 0x2580, symBinAddr: 0x100002DF0, symSize: 0x20 }
  - { offsetInCU: 0xF628, offset: 0xF628, size: 0x8, addend: 0x0, symName: __ZNKSt3__16vectorINS_5arrayIiLm2EEENS_9allocatorIS2_EEE17__annotate_deleteB8ue170006Ev, symObjAddr: 0x25A0, symBinAddr: 0x100002E10, symSize: 0xB0 }
  - { offsetInCU: 0xF64D, offset: 0xF64D, size: 0x8, addend: 0x0, symName: __ZNSt3__116reverse_iteratorIPNS_5arrayIiLm2EEEEC1B8ue170006ES3_, symObjAddr: 0x26C0, symBinAddr: 0x100002F30, symSize: 0x30 }
  - { offsetInCU: 0xF684, offset: 0xF684, size: 0x8, addend: 0x0, symName: __ZNKSt3__116reverse_iteratorIPNS_5arrayIiLm2EEEE4baseB8ue170006Ev, symObjAddr: 0x26F0, symBinAddr: 0x100002F60, symSize: 0x20 }
  - { offsetInCU: 0xF6A9, offset: 0xF6A9, size: 0x8, addend: 0x0, symName: __ZNKSt3__16vectorINS_5arrayIiLm2EEENS_9allocatorIS2_EEE14__annotate_newB8ue170006Em, symObjAddr: 0x2750, symBinAddr: 0x100002FC0, symSize: 0xB0 }
  - { offsetInCU: 0xF6DD, offset: 0xF6DD, size: 0x8, addend: 0x0, symName: __ZNKSt3__16vectorINS_5arrayIiLm2EEENS_9allocatorIS2_EEE31__annotate_contiguous_containerB8ue170006EPKvS7_S7_S7_, symObjAddr: 0x2800, symBinAddr: 0x100003070, symSize: 0x20 }
  - { offsetInCU: 0xF72E, offset: 0xF72E, size: 0x8, addend: 0x0, symName: __ZNKSt3__16vectorINS_5arrayIiLm2EEENS_9allocatorIS2_EEE4dataB8ue170006Ev, symObjAddr: 0x2820, symBinAddr: 0x100003090, symSize: 0x20 }
  - { offsetInCU: 0xF776, offset: 0xF776, size: 0x8, addend: 0x0, symName: __ZNKSt3__111__move_loopINS_17_ClassicAlgPolicyEEclB8ue170006INS_16reverse_iteratorIPNS_5arrayIiLm2EEEEES8_S8_EENS_4pairIT_T1_EESA_T0_SB_, symObjAddr: 0x2C50, symBinAddr: 0x1000034C0, symSize: 0xA0 }
  - { offsetInCU: 0xF7E0, offset: 0xF7E0, size: 0x8, addend: 0x0, symName: __ZNSt3__119__unwrap_range_implINS_16reverse_iteratorIPNS_5arrayIiLm2EEEEES5_E8__unwrapB8ue170006ES5_S5_, symObjAddr: 0x2E30, symBinAddr: 0x1000036A0, symSize: 0x90 }
  - { offsetInCU: 0xF816, offset: 0xF816, size: 0x8, addend: 0x0, symName: __ZNSt3__14pairINS_16reverse_iteratorIPNS_5arrayIiLm2EEEEES5_EC1B8ue170006IS5_S5_LPv0EEEOT_OT0_, symObjAddr: 0x2EC0, symBinAddr: 0x100003730, symSize: 0x30 }
  - { offsetInCU: 0xF873, offset: 0xF873, size: 0x8, addend: 0x0, symName: __ZNSt3__14pairINS_16reverse_iteratorIPNS_5arrayIiLm2EEEEES5_EC2B8ue170006IS5_S5_LPv0EEEOT_OT0_, symObjAddr: 0x2EF0, symBinAddr: 0x100003760, symSize: 0x40 }
  - { offsetInCU: 0xF8D0, offset: 0xF8D0, size: 0x8, addend: 0x0, symName: __ZNSt3__18_IterOpsINS_17_ClassicAlgPolicyEE11__iter_moveB8ue170006IRNS_16reverse_iteratorIPNS_5arrayIiLm2EEEEEEENS_9enable_ifIXsr12is_referenceIDTdeclsr3stdE7declvalIRT_EEEEE5valueEDTclsr3stdE4movedeclsr3stdE7declvalISC_EEEEE4typeEOSB_, symObjAddr: 0x2F70, symBinAddr: 0x1000037E0, symSize: 0x20 }
  - { offsetInCU: 0xF8FC, offset: 0xF8FC, size: 0x8, addend: 0x0, symName: __ZNKSt3__116reverse_iteratorIPNS_5arrayIiLm2EEEEdeB8ue170006Ev, symObjAddr: 0x2F90, symBinAddr: 0x100003800, symSize: 0x30 }
  - { offsetInCU: 0xF92F, offset: 0xF92F, size: 0x8, addend: 0x0, symName: __ZNSt3__116reverse_iteratorIPNS_5arrayIiLm2EEEEppB8ue170006Ev, symObjAddr: 0x2FC0, symBinAddr: 0x100003830, symSize: 0x20 }
  - { offsetInCU: 0xF954, offset: 0xF954, size: 0x8, addend: 0x0, symName: __ZNSt3__18_IterOpsINS_17_ClassicAlgPolicyEE25__validate_iter_referenceB8ue170006IRNS_16reverse_iteratorIPNS_5arrayIiLm2EEEEEEEvv, symObjAddr: 0x2FE0, symBinAddr: 0x100003850, symSize: 0x10 }
  - { offsetInCU: 0xF972, offset: 0xF972, size: 0x8, addend: 0x0, symName: __ZNSt3__118__unwrap_iter_implINS_16reverse_iteratorIPNS_5arrayIiLm2EEEEELb0EE8__unwrapB8ue170006ES5_, symObjAddr: 0x2FF0, symBinAddr: 0x100003860, symSize: 0x20 }
  - { offsetInCU: 0xF995, offset: 0xF995, size: 0x8, addend: 0x0, symName: __ZNSt3__119__unwrap_range_implINS_16reverse_iteratorIPNS_5arrayIiLm2EEEEES5_E8__rewrapB8ue170006ES5_S5_, symObjAddr: 0x3010, symBinAddr: 0x100003880, symSize: 0x60 }
  - { offsetInCU: 0xF9C6, offset: 0xF9C6, size: 0x8, addend: 0x0, symName: __ZNSt3__118__unwrap_iter_implINS_16reverse_iteratorIPNS_5arrayIiLm2EEEEELb0EE8__rewrapB8ue170006ES5_S5_, symObjAddr: 0x3070, symBinAddr: 0x1000038E0, symSize: 0x30 }
  - { offsetInCU: 0xF9F4, offset: 0xF9F4, size: 0x8, addend: 0x0, symName: __ZNSt3__116reverse_iteratorIPNS_5arrayIiLm2EEEEC2B8ue170006ES3_, symObjAddr: 0x30A0, symBinAddr: 0x100003910, symSize: 0x30 }
  - { offsetInCU: 0xFA2B, offset: 0xFA2B, size: 0x8, addend: 0x0, symName: __ZNSt3__114__split_bufferINS_5arrayIiLm2EEERNS_9allocatorIS2_EEED2Ev, symObjAddr: 0x30D0, symBinAddr: 0x100003940, symSize: 0x70 }
  - { offsetInCU: 0xFA56, offset: 0xFA56, size: 0x8, addend: 0x0, symName: __ZNSt3__114__split_bufferINS_5arrayIiLm2EEERNS_9allocatorIS2_EEE5clearB8ue170006Ev, symObjAddr: 0x3140, symBinAddr: 0x1000039B0, symSize: 0x20 }
  - { offsetInCU: 0xFA7B, offset: 0xFA7B, size: 0x8, addend: 0x0, symName: __ZNSt3__116allocator_traitsINS_9allocatorINS_5arrayIiLm2EEEEEE10deallocateB8ue170006ERS4_PS3_m, symObjAddr: 0x3160, symBinAddr: 0x1000039D0, symSize: 0x30 }
  - { offsetInCU: 0xFABD, offset: 0xFABD, size: 0x8, addend: 0x0, symName: __ZNKSt3__114__split_bufferINS_5arrayIiLm2EEERNS_9allocatorIS2_EEE8capacityB8ue170006Ev, symObjAddr: 0x3190, symBinAddr: 0x100003A00, symSize: 0x30 }
  - { offsetInCU: 0xFAE2, offset: 0xFAE2, size: 0x8, addend: 0x0, symName: __ZNSt3__114__split_bufferINS_5arrayIiLm2EEERNS_9allocatorIS2_EEE17__destruct_at_endB8ue170006EPS2_, symObjAddr: 0x31C0, symBinAddr: 0x100003A30, symSize: 0x30 }
  - { offsetInCU: 0xFB15, offset: 0xFB15, size: 0x8, addend: 0x0, symName: __ZNSt3__114__split_bufferINS_5arrayIiLm2EEERNS_9allocatorIS2_EEE17__destruct_at_endB8ue170006EPS2_NS_17integral_constantIbLb0EEE, symObjAddr: 0x31F0, symBinAddr: 0x100003A60, symSize: 0x80 }
  - { offsetInCU: 0xFB54, offset: 0xFB54, size: 0x8, addend: 0x0, symName: __ZNSt3__116allocator_traitsINS_9allocatorINS_5arrayIiLm2EEEEEE7destroyB8ue170006IS3_vvEEvRS4_PT_, symObjAddr: 0x3270, symBinAddr: 0x100003AE0, symSize: 0x20 }
  - { offsetInCU: 0xFB8E, offset: 0xFB8E, size: 0x8, addend: 0x0, symName: __ZNSt3__19allocatorINS_5arrayIiLm2EEEE10deallocateB8ue170006EPS2_m, symObjAddr: 0x32C0, symBinAddr: 0x100003B30, symSize: 0x40 }
  - { offsetInCU: 0xFBCF, offset: 0xFBCF, size: 0x8, addend: 0x0, symName: __ZNKSt3__114__split_bufferINS_5arrayIiLm2EEERNS_9allocatorIS2_EEE9__end_capB8ue170006Ev, symObjAddr: 0x3300, symBinAddr: 0x100003B70, symSize: 0x20 }
  - { offsetInCU: 0xFBF4, offset: 0xFBF4, size: 0x8, addend: 0x0, symName: __ZNKSt3__117__compressed_pairIPNS_5arrayIiLm2EEERNS_9allocatorIS2_EEE5firstB8ue170006Ev, symObjAddr: 0x3320, symBinAddr: 0x100003B90, symSize: 0x20 }
  - { offsetInCU: 0xFC19, offset: 0xFC19, size: 0x8, addend: 0x0, symName: __ZNSt3__16vectorIiNS_9allocatorIiEEEC2B8ue170006Ev, symObjAddr: 0x3340, symBinAddr: 0x100003BB0, symSize: 0x50 }
  - { offsetInCU: 0xFC47, offset: 0xFC47, size: 0x8, addend: 0x0, symName: __ZNSt3__16vectorIiNS_9allocatorIiEEE22__construct_one_at_endB8ue170006IJRKiEEEvDpOT_, symObjAddr: 0x3390, symBinAddr: 0x100003C00, symSize: 0x90 }
  - { offsetInCU: 0xFC95, offset: 0xFC95, size: 0x8, addend: 0x0, symName: __ZNSt3__16vectorIiNS_9allocatorIiEEE21__push_back_slow_pathIRKiEEvOT_, symObjAddr: 0x3420, symBinAddr: 0x100003C90, symSize: 0xD0 }
  - { offsetInCU: 0xFCF1, offset: 0xFCF1, size: 0x8, addend: 0x0, symName: __ZNSt3__116allocator_traitsINS_9allocatorIiEEE9constructB8ue170006IiJRKiEvvEEvRS2_PT_DpOT0_, symObjAddr: 0x34F0, symBinAddr: 0x100003D60, symSize: 0x30 }
  - { offsetInCU: 0xFD45, offset: 0xFD45, size: 0x8, addend: 0x0, symName: __ZNKSt3__16vectorIiNS_9allocatorIiEEE11__recommendB8ue170006Em, symObjAddr: 0x3550, symBinAddr: 0x100003DC0, symSize: 0xA0 }
  - { offsetInCU: 0xFD98, offset: 0xFD98, size: 0x8, addend: 0x0, symName: __ZNSt3__114__split_bufferIiRNS_9allocatorIiEEEC1EmmS3_, symObjAddr: 0x35F0, symBinAddr: 0x100003E60, symSize: 0x40 }
  - { offsetInCU: 0xFDED, offset: 0xFDED, size: 0x8, addend: 0x0, symName: __ZNSt3__114__split_bufferIiRNS_9allocatorIiEEED1Ev, symObjAddr: 0x3750, symBinAddr: 0x100003FC0, symSize: 0x20 }
  - { offsetInCU: 0xFE18, offset: 0xFE18, size: 0x8, addend: 0x0, symName: __ZNSt3__114__split_bufferIiRNS_9allocatorIiEEEC2EmmS3_, symObjAddr: 0x3770, symBinAddr: 0x100003FE0, symSize: 0xD0 }
  - { offsetInCU: 0xFE8A, offset: 0xFE8A, size: 0x8, addend: 0x0, symName: __ZNSt3__117__compressed_pairIPiRNS_9allocatorIiEEEC1B8ue170006IDnS4_EEOT_OT0_, symObjAddr: 0x3840, symBinAddr: 0x1000040B0, symSize: 0x30 }
  - { offsetInCU: 0xFEE1, offset: 0xFEE1, size: 0x8, addend: 0x0, symName: __ZNSt3__114__split_bufferIiRNS_9allocatorIiEEE7__allocB8ue170006Ev, symObjAddr: 0x3870, symBinAddr: 0x1000040E0, symSize: 0x20 }
  - { offsetInCU: 0xFF06, offset: 0xFF06, size: 0x8, addend: 0x0, symName: __ZNSt3__114__split_bufferIiRNS_9allocatorIiEEE9__end_capB8ue170006Ev, symObjAddr: 0x3890, symBinAddr: 0x100004100, symSize: 0x20 }
  - { offsetInCU: 0xFF2B, offset: 0xFF2B, size: 0x8, addend: 0x0, symName: __ZNSt3__117__compressed_pairIPiRNS_9allocatorIiEEEC2B8ue170006IDnS4_EEOT_OT0_, symObjAddr: 0x38B0, symBinAddr: 0x100004120, symSize: 0x40 }
  - { offsetInCU: 0xFF82, offset: 0xFF82, size: 0x8, addend: 0x0, symName: __ZNSt3__122__compressed_pair_elemIRNS_9allocatorIiEELi1ELb0EEC2B8ue170006IS3_vEEOT_, symObjAddr: 0x38F0, symBinAddr: 0x100004160, symSize: 0x20 }
  - { offsetInCU: 0xFFC3, offset: 0xFFC3, size: 0x8, addend: 0x0, symName: __ZNSt3__117__compressed_pairIPiRNS_9allocatorIiEEE6secondB8ue170006Ev, symObjAddr: 0x3910, symBinAddr: 0x100004180, symSize: 0x20 }
  - { offsetInCU: 0xFFE8, offset: 0xFFE8, size: 0x8, addend: 0x0, symName: __ZNSt3__122__compressed_pair_elemIRNS_9allocatorIiEELi1ELb0EE5__getB8ue170006Ev, symObjAddr: 0x3930, symBinAddr: 0x1000041A0, symSize: 0x20 }
  - { offsetInCU: 0x1000D, offset: 0x1000D, size: 0x8, addend: 0x0, symName: __ZNSt3__117__compressed_pairIPiRNS_9allocatorIiEEE5firstB8ue170006Ev, symObjAddr: 0x3950, symBinAddr: 0x1000041C0, symSize: 0x20 }
  - { offsetInCU: 0x10032, offset: 0x10032, size: 0x8, addend: 0x0, symName: __ZNSt3__116reverse_iteratorIPiEC1B8ue170006ES1_, symObjAddr: 0x39E0, symBinAddr: 0x100004250, symSize: 0x30 }
  - { offsetInCU: 0x10069, offset: 0x10069, size: 0x8, addend: 0x0, symName: __ZNKSt3__116reverse_iteratorIPiE4baseB8ue170006Ev, symObjAddr: 0x3A10, symBinAddr: 0x100004280, symSize: 0x20 }
  - { offsetInCU: 0x100A7, offset: 0x100A7, size: 0x8, addend: 0x0, symName: __ZNKSt3__111__move_loopINS_17_ClassicAlgPolicyEEclB8ue170006INS_16reverse_iteratorIPiEES6_S6_EENS_4pairIT_T1_EES8_T0_S9_, symObjAddr: 0x3E80, symBinAddr: 0x1000046F0, symSize: 0xA0 }
  - { offsetInCU: 0x10111, offset: 0x10111, size: 0x8, addend: 0x0, symName: __ZNSt3__119__unwrap_range_implINS_16reverse_iteratorIPiEES3_E8__unwrapB8ue170006ES3_S3_, symObjAddr: 0x4060, symBinAddr: 0x1000048D0, symSize: 0x90 }
  - { offsetInCU: 0x10147, offset: 0x10147, size: 0x8, addend: 0x0, symName: __ZNSt3__14pairINS_16reverse_iteratorIPiEES3_EC1B8ue170006IS3_S3_LPv0EEEOT_OT0_, symObjAddr: 0x40F0, symBinAddr: 0x100004960, symSize: 0x30 }
  - { offsetInCU: 0x101A4, offset: 0x101A4, size: 0x8, addend: 0x0, symName: __ZNSt3__14pairINS_16reverse_iteratorIPiEES3_EC2B8ue170006IS3_S3_LPv0EEEOT_OT0_, symObjAddr: 0x4120, symBinAddr: 0x100004990, symSize: 0x40 }
  - { offsetInCU: 0x10206, offset: 0x10206, size: 0x8, addend: 0x0, symName: __ZNSt3__18_IterOpsINS_17_ClassicAlgPolicyEE11__iter_moveB8ue170006IRNS_16reverse_iteratorIPiEEEENS_9enable_ifIXsr12is_referenceIDTdeclsr3stdE7declvalIRT_EEEEE5valueEDTclsr3stdE4movedeclsr3stdE7declvalISA_EEEEE4typeEOS9_, symObjAddr: 0x41A0, symBinAddr: 0x100004A10, symSize: 0x20 }
  - { offsetInCU: 0x10232, offset: 0x10232, size: 0x8, addend: 0x0, symName: __ZNKSt3__116reverse_iteratorIPiEdeB8ue170006Ev, symObjAddr: 0x41C0, symBinAddr: 0x100004A30, symSize: 0x30 }
  - { offsetInCU: 0x10265, offset: 0x10265, size: 0x8, addend: 0x0, symName: __ZNSt3__116reverse_iteratorIPiEppB8ue170006Ev, symObjAddr: 0x41F0, symBinAddr: 0x100004A60, symSize: 0x20 }
  - { offsetInCU: 0x1028A, offset: 0x1028A, size: 0x8, addend: 0x0, symName: __ZNSt3__18_IterOpsINS_17_ClassicAlgPolicyEE25__validate_iter_referenceB8ue170006IRNS_16reverse_iteratorIPiEEEEvv, symObjAddr: 0x4210, symBinAddr: 0x100004A80, symSize: 0x10 }
  - { offsetInCU: 0x102A8, offset: 0x102A8, size: 0x8, addend: 0x0, symName: __ZNSt3__118__unwrap_iter_implINS_16reverse_iteratorIPiEELb0EE8__unwrapB8ue170006ES3_, symObjAddr: 0x4220, symBinAddr: 0x100004A90, symSize: 0x20 }
  - { offsetInCU: 0x102CB, offset: 0x102CB, size: 0x8, addend: 0x0, symName: __ZNSt3__119__unwrap_range_implINS_16reverse_iteratorIPiEES3_E8__rewrapB8ue170006ES3_S3_, symObjAddr: 0x4240, symBinAddr: 0x100004AB0, symSize: 0x60 }
  - { offsetInCU: 0x102FC, offset: 0x102FC, size: 0x8, addend: 0x0, symName: __ZNSt3__118__unwrap_iter_implINS_16reverse_iteratorIPiEELb0EE8__rewrapB8ue170006ES3_S3_, symObjAddr: 0x42A0, symBinAddr: 0x100004B10, symSize: 0x30 }
  - { offsetInCU: 0x1032A, offset: 0x1032A, size: 0x8, addend: 0x0, symName: __ZNSt3__116reverse_iteratorIPiEC2B8ue170006ES1_, symObjAddr: 0x42D0, symBinAddr: 0x100004B40, symSize: 0x30 }
  - { offsetInCU: 0x10361, offset: 0x10361, size: 0x8, addend: 0x0, symName: __ZNSt3__114__split_bufferIiRNS_9allocatorIiEEED2Ev, symObjAddr: 0x4300, symBinAddr: 0x100004B70, symSize: 0x70 }
  - { offsetInCU: 0x1038C, offset: 0x1038C, size: 0x8, addend: 0x0, symName: __ZNSt3__114__split_bufferIiRNS_9allocatorIiEEE5clearB8ue170006Ev, symObjAddr: 0x4370, symBinAddr: 0x100004BE0, symSize: 0x20 }
  - { offsetInCU: 0x103B1, offset: 0x103B1, size: 0x8, addend: 0x0, symName: __ZNKSt3__114__split_bufferIiRNS_9allocatorIiEEE8capacityB8ue170006Ev, symObjAddr: 0x4390, symBinAddr: 0x100004C00, symSize: 0x30 }
  - { offsetInCU: 0x103D6, offset: 0x103D6, size: 0x8, addend: 0x0, symName: __ZNSt3__114__split_bufferIiRNS_9allocatorIiEEE17__destruct_at_endB8ue170006EPi, symObjAddr: 0x43C0, symBinAddr: 0x100004C30, symSize: 0x30 }
  - { offsetInCU: 0x10409, offset: 0x10409, size: 0x8, addend: 0x0, symName: __ZNSt3__114__split_bufferIiRNS_9allocatorIiEEE17__destruct_at_endB8ue170006EPiNS_17integral_constantIbLb0EEE, symObjAddr: 0x43F0, symBinAddr: 0x100004C60, symSize: 0x80 }
  - { offsetInCU: 0x10448, offset: 0x10448, size: 0x8, addend: 0x0, symName: __ZNKSt3__114__split_bufferIiRNS_9allocatorIiEEE9__end_capB8ue170006Ev, symObjAddr: 0x4470, symBinAddr: 0x100004CE0, symSize: 0x20 }
  - { offsetInCU: 0x1046D, offset: 0x1046D, size: 0x8, addend: 0x0, symName: __ZNKSt3__117__compressed_pairIPiRNS_9allocatorIiEEE5firstB8ue170006Ev, symObjAddr: 0x4490, symBinAddr: 0x100004D00, symSize: 0x20 }
  - { offsetInCU: 0x10492, offset: 0x10492, size: 0x8, addend: 0x0, symName: __ZNSt3__16vectorINS_5arrayIiLm2EEENS_9allocatorIS2_EEE11__make_iterB8ue170006EPS2_, symObjAddr: 0x44B0, symBinAddr: 0x100004D20, symSize: 0x30 }
  - { offsetInCU: 0x104C6, offset: 0x104C6, size: 0x8, addend: 0x0, symName: __ZNSt3__111__wrap_iterIPNS_5arrayIiLm2EEEEC1B8ue170006ES3_, symObjAddr: 0x44E0, symBinAddr: 0x100004D50, symSize: 0x30 }
  - { offsetInCU: 0x104FD, offset: 0x104FD, size: 0x8, addend: 0x0, symName: __ZNSt3__111__wrap_iterIPNS_5arrayIiLm2EEEEC2B8ue170006ES3_, symObjAddr: 0x4510, symBinAddr: 0x100004D80, symSize: 0x20 }
  - { offsetInCU: 0x10534, offset: 0x10534, size: 0x8, addend: 0x0, symName: __ZNKSt3__111__wrap_iterIPNS_5arrayIiLm2EEEE4baseB8ue170006Ev, symObjAddr: 0x4570, symBinAddr: 0x100004DE0, symSize: 0x20 }
  - { offsetInCU: 0x10559, offset: 0x10559, size: 0x8, addend: 0x0, symName: __ZNSt3__16vectorIiNS_9allocatorIiEEED2B8ue170006Ev, symObjAddr: 0x4590, symBinAddr: 0x100004E00, symSize: 0x40 }
  - { offsetInCU: 0x10582, offset: 0x10582, size: 0x8, addend: 0x0, symName: __ZNSt3__16vectorINS_5arrayIiLm2EEENS_9allocatorIS2_EEED2B8ue170006Ev, symObjAddr: 0x45D0, symBinAddr: 0x100004E40, symSize: 0x40 }
  - { offsetInCU: 0x105AB, offset: 0x105AB, size: 0x8, addend: 0x0, symName: __ZNSt3__16vectorINS_5arrayIiLm2EEENS_9allocatorIS2_EEE16__destroy_vectorC1B8ue170006ERS5_, symObjAddr: 0x4610, symBinAddr: 0x100004E80, symSize: 0x30 }
  - { offsetInCU: 0x105E3, offset: 0x105E3, size: 0x8, addend: 0x0, symName: __ZNSt3__16vectorINS_5arrayIiLm2EEENS_9allocatorIS2_EEE16__destroy_vectorclB8ue170006Ev, symObjAddr: 0x4640, symBinAddr: 0x100004EB0, symSize: 0x80 }
  - { offsetInCU: 0x10608, offset: 0x10608, size: 0x8, addend: 0x0, symName: __ZNSt3__16vectorINS_5arrayIiLm2EEENS_9allocatorIS2_EEE16__destroy_vectorC2B8ue170006ERS5_, symObjAddr: 0x46C0, symBinAddr: 0x100004F30, symSize: 0x20 }
  - { offsetInCU: 0x10640, offset: 0x10640, size: 0x8, addend: 0x0, symName: __ZNSt3__16vectorINS_5arrayIiLm2EEENS_9allocatorIS2_EEE7__clearB8ue170006Ev, symObjAddr: 0x46E0, symBinAddr: 0x100004F50, symSize: 0x20 }
  - { offsetInCU: 0x10665, offset: 0x10665, size: 0x8, addend: 0x0, symName: __ZNSt3__16vectorINS_5arrayIiLm2EEENS_9allocatorIS2_EEE22__base_destruct_at_endB8ue170006EPS2_, symObjAddr: 0x4700, symBinAddr: 0x100004F70, symSize: 0x80 }
  - { offsetInCU: 0x106A8, offset: 0x106A8, size: 0x8, addend: 0x0, symName: __ZNSt3__111char_traitsIcE6lengthB8ue170006EPKc, symObjAddr: 0x4970, symBinAddr: 0x1000051E0, symSize: 0x30 }
  - { offsetInCU: 0x106E9, offset: 0x106E9, size: 0x8, addend: 0x0, symName: __ZNKSt3__113basic_ostreamIcNS_11char_traitsIcEEE6sentrycvbB8ue170006Ev, symObjAddr: 0x49A0, symBinAddr: 0x100005210, symSize: 0x20 }
  - { offsetInCU: 0x1070E, offset: 0x1070E, size: 0x8, addend: 0x0, symName: __ZNSt3__119ostreambuf_iteratorIcNS_11char_traitsIcEEEC1B8ue170006ERNS_13basic_ostreamIcS2_EE, symObjAddr: 0x4BE0, symBinAddr: 0x100005450, symSize: 0x30 }
  - { offsetInCU: 0x10745, offset: 0x10745, size: 0x8, addend: 0x0, symName: __ZNKSt3__18ios_base5flagsB8ue170006Ev, symObjAddr: 0x4C10, symBinAddr: 0x100005480, symSize: 0x20 }
  - { offsetInCU: 0x1076B, offset: 0x1076B, size: 0x8, addend: 0x0, symName: __ZNKSt3__19basic_iosIcNS_11char_traitsIcEEE4fillB8ue170006Ev, symObjAddr: 0x4C30, symBinAddr: 0x1000054A0, symSize: 0x70 }
  - { offsetInCU: 0x10791, offset: 0x10791, size: 0x8, addend: 0x0, symName: __ZNKSt3__119ostreambuf_iteratorIcNS_11char_traitsIcEEE6failedB8ue170006Ev, symObjAddr: 0x4CA0, symBinAddr: 0x100005510, symSize: 0x20 }
  - { offsetInCU: 0x107B6, offset: 0x107B6, size: 0x8, addend: 0x0, symName: __ZNSt3__19basic_iosIcNS_11char_traitsIcEEE8setstateB8ue170006Ej, symObjAddr: 0x4CC0, symBinAddr: 0x100005530, symSize: 0x30 }
  - { offsetInCU: 0x107EA, offset: 0x107EA, size: 0x8, addend: 0x0, symName: __ZNKSt3__18ios_base5widthB8ue170006Ev, symObjAddr: 0x4CF0, symBinAddr: 0x100005560, symSize: 0x20 }
  - { offsetInCU: 0x10810, offset: 0x10810, size: 0x8, addend: 0x0, symName: __ZNSt3__115basic_streambufIcNS_11char_traitsIcEEE5sputnB8ue170006EPKcl, symObjAddr: 0x4D10, symBinAddr: 0x100005580, symSize: 0x30 }
  - { offsetInCU: 0x10851, offset: 0x10851, size: 0x8, addend: 0x0, symName: __ZNSt3__112basic_stringIcNS_11char_traitsIcEENS_9allocatorIcEEEC1B8ue170006Emc, symObjAddr: 0x4D40, symBinAddr: 0x1000055B0, symSize: 0x30 }
  - { offsetInCU: 0x10898, offset: 0x10898, size: 0x8, addend: 0x0, symName: __ZNSt3__112basic_stringIcNS_11char_traitsIcEENS_9allocatorIcEEE4dataB8ue170006Ev, symObjAddr: 0x4D70, symBinAddr: 0x1000055E0, symSize: 0x30 }
  - { offsetInCU: 0x108BD, offset: 0x108BD, size: 0x8, addend: 0x0, symName: __ZNSt3__18ios_base5widthB8ue170006El, symObjAddr: 0x4DA0, symBinAddr: 0x100005610, symSize: 0x30 }
  - { offsetInCU: 0x10901, offset: 0x10901, size: 0x8, addend: 0x0, symName: __ZNSt3__112basic_stringIcNS_11char_traitsIcEENS_9allocatorIcEEEC2B8ue170006Emc, symObjAddr: 0x4DD0, symBinAddr: 0x100005640, symSize: 0x50 }
  - { offsetInCU: 0x10948, offset: 0x10948, size: 0x8, addend: 0x0, symName: __ZNSt3__117__compressed_pairINS_12basic_stringIcNS_11char_traitsIcEENS_9allocatorIcEEE5__repES5_EC1B8ue170006INS_18__default_init_tagESA_EEOT_OT0_, symObjAddr: 0x4E20, symBinAddr: 0x100005690, symSize: 0x30 }
  - { offsetInCU: 0x1099F, offset: 0x1099F, size: 0x8, addend: 0x0, symName: __ZNSt3__117__compressed_pairINS_12basic_stringIcNS_11char_traitsIcEENS_9allocatorIcEEE5__repES5_EC2B8ue170006INS_18__default_init_tagESA_EEOT_OT0_, symObjAddr: 0x4E50, symBinAddr: 0x1000056C0, symSize: 0x30 }
  - { offsetInCU: 0x109F6, offset: 0x109F6, size: 0x8, addend: 0x0, symName: __ZNSt3__122__compressed_pair_elemINS_12basic_stringIcNS_11char_traitsIcEENS_9allocatorIcEEE5__repELi0ELb0EEC2B8ue170006ENS_18__default_init_tagE, symObjAddr: 0x4E80, symBinAddr: 0x1000056F0, symSize: 0x10 }
  - { offsetInCU: 0x10A2A, offset: 0x10A2A, size: 0x8, addend: 0x0, symName: __ZNSt3__122__compressed_pair_elemINS_9allocatorIcEELi1ELb1EEC2B8ue170006ENS_18__default_init_tagE, symObjAddr: 0x4E90, symBinAddr: 0x100005700, symSize: 0x20 }
  - { offsetInCU: 0x10A5E, offset: 0x10A5E, size: 0x8, addend: 0x0, symName: __ZNSt3__19allocatorIcEC2B8ue170006Ev, symObjAddr: 0x4EB0, symBinAddr: 0x100005720, symSize: 0x20 }
  - { offsetInCU: 0x10A87, offset: 0x10A87, size: 0x8, addend: 0x0, symName: __ZNSt3__116__non_trivial_ifILb1ENS_9allocatorIcEEEC2B8ue170006Ev, symObjAddr: 0x4ED0, symBinAddr: 0x100005740, symSize: 0x10 }
  - { offsetInCU: 0x10AB0, offset: 0x10AB0, size: 0x8, addend: 0x0, symName: __ZNSt3__112basic_stringIcNS_11char_traitsIcEENS_9allocatorIcEEE13__get_pointerB8ue170006Ev, symObjAddr: 0x4EF0, symBinAddr: 0x100005760, symSize: 0x50 }
  - { offsetInCU: 0x10AD5, offset: 0x10AD5, size: 0x8, addend: 0x0, symName: __ZNKSt3__112basic_stringIcNS_11char_traitsIcEENS_9allocatorIcEEE9__is_longB8ue170006Ev, symObjAddr: 0x4F40, symBinAddr: 0x1000057B0, symSize: 0x30 }
  - { offsetInCU: 0x10AFA, offset: 0x10AFA, size: 0x8, addend: 0x0, symName: __ZNSt3__112basic_stringIcNS_11char_traitsIcEENS_9allocatorIcEEE18__get_long_pointerB8ue170006Ev, symObjAddr: 0x4F70, symBinAddr: 0x1000057E0, symSize: 0x20 }
  - { offsetInCU: 0x10B1F, offset: 0x10B1F, size: 0x8, addend: 0x0, symName: __ZNSt3__112basic_stringIcNS_11char_traitsIcEENS_9allocatorIcEEE19__get_short_pointerB8ue170006Ev, symObjAddr: 0x4F90, symBinAddr: 0x100005800, symSize: 0x30 }
  - { offsetInCU: 0x10B44, offset: 0x10B44, size: 0x8, addend: 0x0, symName: __ZNKSt3__117__compressed_pairINS_12basic_stringIcNS_11char_traitsIcEENS_9allocatorIcEEE5__repES5_E5firstB8ue170006Ev, symObjAddr: 0x4FC0, symBinAddr: 0x100005830, symSize: 0x20 }
  - { offsetInCU: 0x10B69, offset: 0x10B69, size: 0x8, addend: 0x0, symName: __ZNKSt3__122__compressed_pair_elemINS_12basic_stringIcNS_11char_traitsIcEENS_9allocatorIcEEE5__repELi0ELb0EE5__getB8ue170006Ev, symObjAddr: 0x4FE0, symBinAddr: 0x100005850, symSize: 0x10 }
  - { offsetInCU: 0x10B8E, offset: 0x10B8E, size: 0x8, addend: 0x0, symName: __ZNSt3__117__compressed_pairINS_12basic_stringIcNS_11char_traitsIcEENS_9allocatorIcEEE5__repES5_E5firstB8ue170006Ev, symObjAddr: 0x4FF0, symBinAddr: 0x100005860, symSize: 0x20 }
  - { offsetInCU: 0x10BB3, offset: 0x10BB3, size: 0x8, addend: 0x0, symName: __ZNSt3__122__compressed_pair_elemINS_12basic_stringIcNS_11char_traitsIcEENS_9allocatorIcEEE5__repELi0ELb0EE5__getB8ue170006Ev, symObjAddr: 0x5010, symBinAddr: 0x100005880, symSize: 0x10 }
  - { offsetInCU: 0x10BD8, offset: 0x10BD8, size: 0x8, addend: 0x0, symName: __ZNSt3__114pointer_traitsIPcE10pointer_toB8ue170006ERc, symObjAddr: 0x5020, symBinAddr: 0x100005890, symSize: 0x10 }
  - { offsetInCU: 0x10BFB, offset: 0x10BFB, size: 0x8, addend: 0x0, symName: __ZNSt3__119ostreambuf_iteratorIcNS_11char_traitsIcEEEC2B8ue170006ERNS_13basic_ostreamIcS2_EE, symObjAddr: 0x5030, symBinAddr: 0x1000058A0, symSize: 0x50 }
  - { offsetInCU: 0x10C32, offset: 0x10C32, size: 0x8, addend: 0x0, symName: __ZNKSt3__19basic_iosIcNS_11char_traitsIcEEE5rdbufB8ue170006Ev, symObjAddr: 0x5080, symBinAddr: 0x1000058F0, symSize: 0x20 }
  - { offsetInCU: 0x10C58, offset: 0x10C58, size: 0x8, addend: 0x0, symName: __ZNKSt3__18ios_base5rdbufB8ue170006Ev, symObjAddr: 0x50A0, symBinAddr: 0x100005910, symSize: 0x20 }
  - { offsetInCU: 0x10C7D, offset: 0x10C7D, size: 0x8, addend: 0x0, symName: __ZNSt3__111char_traitsIcE11eq_int_typeB8ue170006Eii, symObjAddr: 0x50C0, symBinAddr: 0x100005930, symSize: 0x20 }
  - { offsetInCU: 0x10CB0, offset: 0x10CB0, size: 0x8, addend: 0x0, symName: __ZNSt3__111char_traitsIcE3eofB8ue170006Ev, symObjAddr: 0x50E0, symBinAddr: 0x100005950, symSize: 0x10 }
  - { offsetInCU: 0x10CC4, offset: 0x10CC4, size: 0x8, addend: 0x0, symName: __ZNKSt3__19basic_iosIcNS_11char_traitsIcEEE5widenB8ue170006Ec, symObjAddr: 0x50F0, symBinAddr: 0x100005960, symSize: 0x80 }
  - { offsetInCU: 0x10D30, offset: 0x10D30, size: 0x8, addend: 0x0, symName: __ZNKSt3__15ctypeIcE5widenB8ue170006Ec, symObjAddr: 0x51A0, symBinAddr: 0x100005A10, symSize: 0x30 }
  - { offsetInCU: 0x10D64, offset: 0x10D64, size: 0x8, addend: 0x0, symName: __ZNSt3__18ios_base8setstateB8ue170006Ej, symObjAddr: 0x51D0, symBinAddr: 0x100005A40, symSize: 0x30 }
...
