---
triple:          'x86_64-apple-darwin'
binary-path:     e
relocations:
  - { offsetInCU: 0x61C7, offset: 0x61C7, size: 0x8, addend: 0x0, symName: __ZNSt3__111__introsortINS_17_ClassicAlgPolicyERPFbRK4CellS4_EPS2_Lb0EEEvT1_S9_T0_NS_15iterator_traitsIS9_E15difference_typeEb, symObjAddr: 0x32A0, symBinAddr: 0x1000044E0, symSize: 0x440 }
  - { offsetInCU: 0x62F5, offset: 0x62F5, size: 0x8, addend: 0x0, symName: __ZNSt3__126__insertion_sort_unguardedB8ue170006INS_17_ClassicAlgPolicyERPFbRK4CellS4_EPS2_EEvT1_S9_T0_, symObjAddr: 0x3930, symBinAddr: 0x100004B70, symSize: 0x110 }
  - { offsetInCU: 0x63E6, offset: 0x63E6, size: 0x8, addend: 0x0, symName: __ZNSt3__111__sift_downB8ue170006INS_17_ClassicAlgPolicyERPFbRK4CellS4_EPS2_EEvT1_OT0_NS_15iterator_traitsIS9_E15difference_typeES9_, symObjAddr: 0x49E0, symBinAddr: 0x100005C20, symSize: 0x1F0 }
  - { offsetInCU: 0x6493, offset: 0x6493, size: 0x8, addend: 0x0, symName: __ZNSt3__117__floyd_sift_downB8ue170006INS_17_ClassicAlgPolicyERPFbRK4CellS4_EPS2_EET1_S9_OT0_NS_15iterator_traitsIS9_E15difference_typeE, symObjAddr: 0x4D70, symBinAddr: 0x100005FB0, symSize: 0x100 }
  - { offsetInCU: 0x652B, offset: 0x652B, size: 0x8, addend: 0x0, symName: __ZNSt3__131__partition_with_equals_on_leftB8ue170006INS_17_ClassicAlgPolicyEP4CellRPFbRKS2_S5_EEET0_S9_S9_T1_, symObjAddr: 0x3C40, symBinAddr: 0x100004E80, symSize: 0x1F0 }
  - { offsetInCU: 0x65E6, offset: 0x65E6, size: 0x8, addend: 0x0, symName: __ZNSt3__118__bitset_partitionB8ue170006INS_17_ClassicAlgPolicyEP4CellRPFbRKS2_S5_EEENS_4pairIT0_bEESA_SA_T1_, symObjAddr: 0x3E30, symBinAddr: 0x100005070, symSize: 0x2D0 }
  - { offsetInCU: 0x66E3, offset: 0x66E3, size: 0x8, addend: 0x0, symName: __ZNSt3__124__swap_bitmap_pos_withinB8ue170006INS_17_ClassicAlgPolicyEP4CellEEvRT0_S5_RyS6_, symObjAddr: 0x53F0, symBinAddr: 0x100006630, symSize: 0x180 }
  - { offsetInCU: 0x67B0, offset: 0x67B0, size: 0x8, addend: 0x0, symName: __ZNSt3__132__partition_with_equals_on_rightB8ue170006INS_17_ClassicAlgPolicyEP4CellRPFbRKS2_S5_EEENS_4pairIT0_bEESA_SA_T1_, symObjAddr: 0x4100, symBinAddr: 0x100005340, symSize: 0x1E0 }
  - { offsetInCU: 0x687D, offset: 0x687D, size: 0x8, addend: 0x0, symName: __ZNSt3__127__insertion_sort_incompleteB8ue170006INS_17_ClassicAlgPolicyERPFbRK4CellS4_EPS2_EEbT1_S9_T0_, symObjAddr: 0x42E0, symBinAddr: 0x100005520, symSize: 0x2B0 }
  - { offsetInCU: 0x6974, offset: 0x6974, size: 0x8, addend: 0x0, symName: __ZNSt3__111__introsortINS_17_ClassicAlgPolicyERPFbiiEPiLb0EEEvT1_S6_T0_NS_15iterator_traitsIS6_E15difference_typeEb, symObjAddr: 0x5940, symBinAddr: 0x100006B80, symSize: 0x440 }
  - { offsetInCU: 0x6AA2, offset: 0x6AA2, size: 0x8, addend: 0x0, symName: __ZNSt3__126__insertion_sort_unguardedB8ue170006INS_17_ClassicAlgPolicyERPFbiiEPiEEvT1_S6_T0_, symObjAddr: 0x5FA0, symBinAddr: 0x1000071E0, symSize: 0x100 }
  - { offsetInCU: 0x6B92, offset: 0x6B92, size: 0x8, addend: 0x0, symName: __ZNSt3__111__sift_downB8ue170006INS_17_ClassicAlgPolicyERPFbiiEPiEEvT1_OT0_NS_15iterator_traitsIS6_E15difference_typeES6_, symObjAddr: 0x6FE0, symBinAddr: 0x100008220, symSize: 0x1E0 }
  - { offsetInCU: 0x6C3F, offset: 0x6C3F, size: 0x8, addend: 0x0, symName: __ZNSt3__117__floyd_sift_downB8ue170006INS_17_ClassicAlgPolicyERPFbiiEPiEET1_S6_OT0_NS_15iterator_traitsIS6_E15difference_typeE, symObjAddr: 0x7320, symBinAddr: 0x100008560, symSize: 0xF0 }
  - { offsetInCU: 0x6CD7, offset: 0x6CD7, size: 0x8, addend: 0x0, symName: __ZNSt3__131__partition_with_equals_on_leftB8ue170006INS_17_ClassicAlgPolicyEPiRPFbiiEEET0_S6_S6_T1_, symObjAddr: 0x62C0, symBinAddr: 0x100007500, symSize: 0x1D0 }
  - { offsetInCU: 0x6D92, offset: 0x6D92, size: 0x8, addend: 0x0, symName: __ZNSt3__118__bitset_partitionB8ue170006INS_17_ClassicAlgPolicyEPiRPFbiiEEENS_4pairIT0_bEES7_S7_T1_, symObjAddr: 0x6490, symBinAddr: 0x1000076D0, symSize: 0x2B0 }
  - { offsetInCU: 0x6E8D, offset: 0x6E8D, size: 0x8, addend: 0x0, symName: __ZNSt3__124__swap_bitmap_pos_withinB8ue170006INS_17_ClassicAlgPolicyEPiEEvRT0_S4_RyS5_, symObjAddr: 0x7990, symBinAddr: 0x100008BD0, symSize: 0x190 }
  - { offsetInCU: 0x6F5A, offset: 0x6F5A, size: 0x8, addend: 0x0, symName: __ZNSt3__132__partition_with_equals_on_rightB8ue170006INS_17_ClassicAlgPolicyEPiRPFbiiEEENS_4pairIT0_bEES7_S7_T1_, symObjAddr: 0x6740, symBinAddr: 0x100007980, symSize: 0x1D0 }
  - { offsetInCU: 0x7025, offset: 0x7025, size: 0x8, addend: 0x0, symName: __ZNSt3__127__insertion_sort_incompleteB8ue170006INS_17_ClassicAlgPolicyERPFbiiEPiEEbT1_S6_T0_, symObjAddr: 0x6910, symBinAddr: 0x100007B50, symSize: 0x290 }
  - { offsetInCU: 0x711B, offset: 0x711B, size: 0x8, addend: 0x0, symName: __ZNSt3__124__put_character_sequenceB8ue170006IcNS_11char_traitsIcEEEERNS_13basic_ostreamIT_T0_EES7_PKS4_m, symObjAddr: 0x7F10, symBinAddr: 0x100009150, symSize: 0x1F0 }
  - { offsetInCU: 0x8E98, offset: 0x8E98, size: 0x8, addend: 0x0, symName: __ZNSt3__13minB8ue170006IiEERKT_S3_S3_, symObjAddr: 0x500, symBinAddr: 0x100001740, symSize: 0x30 }
  - { offsetInCU: 0x8EDB, offset: 0x8EDB, size: 0x8, addend: 0x0, symName: __ZNSt3__13maxB8ue170006IiEERKT_S3_S3_, symObjAddr: 0x530, symBinAddr: 0x100001770, symSize: 0x30 }
  - { offsetInCU: 0x8F1E, offset: 0x8F1E, size: 0x8, addend: 0x0, symName: __ZNSt3__14sortB8ue170006INS_11__wrap_iterIP4CellEEPFbRKS2_S6_EEEvT_S9_T0_, symObjAddr: 0x5C0, symBinAddr: 0x100001800, symSize: 0x40 }
  - { offsetInCU: 0x8F78, offset: 0x8F78, size: 0x8, addend: 0x0, symName: __ZNSt3__14sortB8ue170006INS_11__wrap_iterIPiEEPFbiiEEEvT_S6_T0_, symObjAddr: 0x660, symBinAddr: 0x1000018A0, symSize: 0x40 }
  - { offsetInCU: 0x8FD2, offset: 0x8FD2, size: 0x8, addend: 0x0, symName: __ZNSt3__1lsB8ue170006INS_11char_traitsIcEEEERNS_13basic_ostreamIcT_EES6_c, symObjAddr: 0x720, symBinAddr: 0x100001960, symSize: 0x30 }
  - { offsetInCU: 0x9018, offset: 0x9018, size: 0x8, addend: 0x0, symName: __ZNSt3__122__make_exception_guardB8ue170006INS_6vectorIiNS_9allocatorIiEEE16__destroy_vectorEEENS_28__exception_guard_exceptionsIT_EES7_, symObjAddr: 0x890, symBinAddr: 0x100001AD0, symSize: 0x40 }
  - { offsetInCU: 0x904D, offset: 0x904D, size: 0x8, addend: 0x0, symName: __ZNSt3__119__allocate_at_leastB8ue170006INS_9allocatorIiEEEENS_19__allocation_resultINS_16allocator_traitsIT_E7pointerEEERS5_m, symObjAddr: 0xC40, symBinAddr: 0x100001E80, symSize: 0x40 }
  - { offsetInCU: 0x9090, offset: 0x9090, size: 0x8, addend: 0x0, symName: __ZNSt3__13minB8ue170006ImEERKT_S3_S3_, symObjAddr: 0xD70, symBinAddr: 0x100001FB0, symSize: 0x30 }
  - { offsetInCU: 0x92BD, offset: 0x92BD, size: 0x8, addend: 0x0, symName: __ZNSt3__13minB8ue170006ImNS_6__lessIvvEEEERKT_S5_S5_T0_, symObjAddr: 0xE00, symBinAddr: 0x100002040, symSize: 0x50 }
  - { offsetInCU: 0x9579, offset: 0x9579, size: 0x8, addend: 0x0, symName: __ZNSt3__120__throw_length_errorB8ue170006EPKc, symObjAddr: 0xEE0, symBinAddr: 0x100002120, symSize: 0x70 }
  - { offsetInCU: 0x95A3, offset: 0x95A3, size: 0x8, addend: 0x0, symName: __ZNSt3__117__libcpp_allocateB8ue170006Emm, symObjAddr: 0x1050, symBinAddr: 0x100002290, symSize: 0x60 }
  - { offsetInCU: 0x95FD, offset: 0x95FD, size: 0x8, addend: 0x0, symName: __ZNSt3__124__is_overaligned_for_newB8ue170006Em, symObjAddr: 0x10B0, symBinAddr: 0x1000022F0, symSize: 0x20 }
  - { offsetInCU: 0x962B, offset: 0x962B, size: 0x8, addend: 0x0, symName: __ZNSt3__121__libcpp_operator_newB8ue170006IJmSt11align_val_tEEEPvDpT_, symObjAddr: 0x10D0, symBinAddr: 0x100002310, symSize: 0x30 }
  - { offsetInCU: 0x9678, offset: 0x9678, size: 0x8, addend: 0x0, symName: __ZNSt3__121__libcpp_operator_newB8ue170006IJmEEEPvDpT_, symObjAddr: 0x1100, symBinAddr: 0x100002340, symSize: 0x20 }
  - { offsetInCU: 0x96B1, offset: 0x96B1, size: 0x8, addend: 0x0, symName: __ZNSt3__112__to_addressB8ue170006IiEEPT_S2_, symObjAddr: 0x11F0, symBinAddr: 0x100002430, symSize: 0x10 }
  - { offsetInCU: 0x970B, offset: 0x970B, size: 0x8, addend: 0x0, symName: __ZNSt3__112construct_atB8ue170006IiJEPiEEPT_S3_DpOT0_, symObjAddr: 0x1300, symBinAddr: 0x100002540, symSize: 0x20 }
  - { offsetInCU: 0x9767, offset: 0x9767, size: 0x8, addend: 0x0, symName: __ZNSt3__110destroy_atB8ue170006IiLi0EEEvPT_, symObjAddr: 0x15A0, symBinAddr: 0x1000027E0, symSize: 0x20 }
  - { offsetInCU: 0x979E, offset: 0x979E, size: 0x8, addend: 0x0, symName: __ZNSt3__112__destroy_atB8ue170006IiLi0EEEvPT_, symObjAddr: 0x15C0, symBinAddr: 0x100002800, symSize: 0x10 }
  - { offsetInCU: 0x97D5, offset: 0x97D5, size: 0x8, addend: 0x0, symName: __ZNSt3__119__libcpp_deallocateB8ue170006EPvmm, symObjAddr: 0x1630, symBinAddr: 0x100002870, symSize: 0x60 }
  - { offsetInCU: 0x983A, offset: 0x983A, size: 0x8, addend: 0x0, symName: __ZNSt3__127__do_deallocate_handle_sizeB8ue170006IJSt11align_val_tEEEvPvmDpT_, symObjAddr: 0x1690, symBinAddr: 0x1000028D0, symSize: 0x30 }
  - { offsetInCU: 0x988D, offset: 0x988D, size: 0x8, addend: 0x0, symName: __ZNSt3__127__do_deallocate_handle_sizeB8ue170006IJEEEvPvmDpT_, symObjAddr: 0x16C0, symBinAddr: 0x100002900, symSize: 0x20 }
  - { offsetInCU: 0x98CB, offset: 0x98CB, size: 0x8, addend: 0x0, symName: __ZNSt3__124__libcpp_operator_deleteB8ue170006IJPvSt11align_val_tEEEvDpT_, symObjAddr: 0x16E0, symBinAddr: 0x100002920, symSize: 0x30 }
  - { offsetInCU: 0x9914, offset: 0x9914, size: 0x8, addend: 0x0, symName: __ZNSt3__124__libcpp_operator_deleteB8ue170006IJPvEEEvDpT_, symObjAddr: 0x1710, symBinAddr: 0x100002950, symSize: 0x20 }
  - { offsetInCU: 0x9949, offset: 0x9949, size: 0x8, addend: 0x0, symName: __ZNSt3__13minB8ue170006IiNS_6__lessIvvEEEERKT_S5_S5_T0_, symObjAddr: 0x1860, symBinAddr: 0x100002AA0, symSize: 0x50 }
  - { offsetInCU: 0x99A3, offset: 0x99A3, size: 0x8, addend: 0x0, symName: __ZNSt3__13maxB8ue170006IiNS_6__lessIvvEEEERKT_S5_S5_T0_, symObjAddr: 0x18E0, symBinAddr: 0x100002B20, symSize: 0x50 }
  - { offsetInCU: 0x99FD, offset: 0x99FD, size: 0x8, addend: 0x0, symName: __ZNSt3__112__to_addressB8ue170006I4CellEEPT_S3_, symObjAddr: 0x1B60, symBinAddr: 0x100002DA0, symSize: 0x10 }
  - { offsetInCU: 0x9A57, offset: 0x9A57, size: 0x8, addend: 0x0, symName: __ZNSt3__112construct_atB8ue170006I4CellJS1_EPS1_EEPT_S4_DpOT0_, symObjAddr: 0x1BD0, symBinAddr: 0x100002E10, symSize: 0x30 }
  - { offsetInCU: 0x9AC7, offset: 0x9AC7, size: 0x8, addend: 0x0, symName: __ZNSt3__13maxB8ue170006ImEERKT_S3_S3_, symObjAddr: 0x1F60, symBinAddr: 0x1000031A0, symSize: 0x30 }
  - { offsetInCU: 0x9B0A, offset: 0x9B0A, size: 0x8, addend: 0x0, symName: __ZNSt3__13maxB8ue170006ImNS_6__lessIvvEEEERKT_S5_S5_T0_, symObjAddr: 0x2060, symBinAddr: 0x1000032A0, symSize: 0x50 }
  - { offsetInCU: 0x9B64, offset: 0x9B64, size: 0x8, addend: 0x0, symName: __ZNSt3__119__allocate_at_leastB8ue170006INS_9allocatorI4CellEEEENS_19__allocation_resultINS_16allocator_traitsIT_E7pointerEEERS6_m, symObjAddr: 0x21A0, symBinAddr: 0x1000033E0, symSize: 0x40 }
  - { offsetInCU: 0x9BA7, offset: 0x9BA7, size: 0x8, addend: 0x0, symName: __ZNSt3__142__uninitialized_allocator_move_if_noexceptB8ue170006INS_9allocatorI4CellEENS_16reverse_iteratorIPS2_EES6_S2_vEET1_RT_T0_SA_S7_, symObjAddr: 0x23E0, symBinAddr: 0x100003620, symSize: 0x70 }
  - { offsetInCU: 0x9C23, offset: 0x9C23, size: 0x8, addend: 0x0, symName: __ZNSt3__14swapB8ue170006IP4CellEENS_9enable_ifIXaasr21is_move_constructibleIT_EE5valuesr18is_move_assignableIS4_EE5valueEvE4typeERS4_S7_, symObjAddr: 0x24A0, symBinAddr: 0x1000036E0, symSize: 0x40 }
  - { offsetInCU: 0x9C74, offset: 0x9C74, size: 0x8, addend: 0x0, symName: __ZNSt3__14moveB8ue170006INS_16reverse_iteratorIP4CellEES4_EET0_T_S6_S5_, symObjAddr: 0x25C0, symBinAddr: 0x100003800, symSize: 0x80 }
  - { offsetInCU: 0x9CCE, offset: 0x9CCE, size: 0x8, addend: 0x0, symName: __ZNSt3__16__moveB8ue170006INS_17_ClassicAlgPolicyENS_16reverse_iteratorIP4CellEES5_S5_EENS_4pairIT0_T2_EES7_T1_S8_, symObjAddr: 0x2640, symBinAddr: 0x100003880, symSize: 0x90 }
  - { offsetInCU: 0x9D3A, offset: 0x9D3A, size: 0x8, addend: 0x0, symName: __ZNSt3__123__dispatch_copy_or_moveB8ue170006INS_17_ClassicAlgPolicyENS_11__move_loopIS1_EENS_14__move_trivialENS_16reverse_iteratorIP4CellEES8_S8_EENS_4pairIT2_T4_EESA_T3_SB_, symObjAddr: 0x26D0, symBinAddr: 0x100003910, symSize: 0x90 }
  - { offsetInCU: 0x9DB8, offset: 0x9DB8, size: 0x8, addend: 0x0, symName: __ZNSt3__121__unwrap_and_dispatchB8ue170006INS_10__overloadINS_11__move_loopINS_17_ClassicAlgPolicyEEENS_14__move_trivialEEENS_16reverse_iteratorIP4CellEESA_SA_Li0EEENS_4pairIT0_T2_EESC_T1_SD_, symObjAddr: 0x2760, symBinAddr: 0x1000039A0, symSize: 0x210 }
  - { offsetInCU: 0x9E47, offset: 0x9E47, size: 0x8, addend: 0x0, symName: __ZNSt3__114__unwrap_rangeB8ue170006INS_16reverse_iteratorIP4CellEES4_EEDaT_T0_, symObjAddr: 0x2970, symBinAddr: 0x100003BB0, symSize: 0x60 }
  - { offsetInCU: 0x9FC2, offset: 0x9FC2, size: 0x8, addend: 0x0, symName: __ZNSt3__113__unwrap_iterB8ue170006INS_16reverse_iteratorIP4CellEENS_18__unwrap_iter_implIS4_Lb0EEELi0EEEDTclsrT0_8__unwrapclsr3stdE7declvalIT_EEEES8_, symObjAddr: 0x2A70, symBinAddr: 0x100003CB0, symSize: 0x40 }
  - { offsetInCU: 0xA006, offset: 0xA006, size: 0x8, addend: 0x0, symName: __ZNSt3__19make_pairB8ue170006INS_16reverse_iteratorIP4CellEES4_EENS_4pairINS_18__unwrap_ref_decayIT_E4typeENS6_IT0_E4typeEEEOS7_OSA_, symObjAddr: 0x2AB0, symBinAddr: 0x100003CF0, symSize: 0x30 }
  - { offsetInCU: 0xA055, offset: 0xA055, size: 0x8, addend: 0x0, symName: __ZNSt3__114__rewrap_rangeB8ue170006INS_16reverse_iteratorIP4CellEES4_S4_EET0_S5_T1_, symObjAddr: 0x2AE0, symBinAddr: 0x100003D20, symSize: 0x60 }
  - { offsetInCU: 0xA0AA, offset: 0xA0AA, size: 0x8, addend: 0x0, symName: __ZNSt3__113__rewrap_iterB8ue170006INS_16reverse_iteratorIP4CellEES4_NS_18__unwrap_iter_implIS4_Lb0EEEEET_S7_T0_, symObjAddr: 0x2B40, symBinAddr: 0x100003D80, symSize: 0x70 }
  - { offsetInCU: 0xA14F, offset: 0xA14F, size: 0x8, addend: 0x0, symName: __ZNSt3__1neB8ue170006IP4CellS2_EEbRKNS_16reverse_iteratorIT_EERKNS3_IT0_EE, symObjAddr: 0x2CB0, symBinAddr: 0x100003EF0, symSize: 0x40 }
  - { offsetInCU: 0xA3E9, offset: 0xA3E9, size: 0x8, addend: 0x0, symName: __ZNSt3__110destroy_atB8ue170006I4CellLi0EEEvPT_, symObjAddr: 0x3020, symBinAddr: 0x100004260, symSize: 0x20 }
  - { offsetInCU: 0xA420, offset: 0xA420, size: 0x8, addend: 0x0, symName: __ZNSt3__112__destroy_atB8ue170006I4CellLi0EEEvPT_, symObjAddr: 0x3040, symBinAddr: 0x100004280, symSize: 0x10 }
  - { offsetInCU: 0xA457, offset: 0xA457, size: 0x8, addend: 0x0, symName: __ZNSt3__111__sort_implB8ue170006INS_17_ClassicAlgPolicyENS_11__wrap_iterIP4CellEEPFbRKS3_S7_EEEvT0_SA_RT1_, symObjAddr: 0x30E0, symBinAddr: 0x100004320, symSize: 0xB0 }
  - { offsetInCU: 0xA4BA, offset: 0xA4BA, size: 0x8, addend: 0x0, symName: __ZNSt3__123__debug_randomize_rangeB8ue170006INS_17_ClassicAlgPolicyENS_11__wrap_iterIP4CellEES5_EEvT0_T1_, symObjAddr: 0x3190, symBinAddr: 0x1000043D0, symSize: 0x10 }
  - { offsetInCU: 0xA50B, offset: 0xA50B, size: 0x8, addend: 0x0, symName: __ZNSt3__115__sort_dispatchB8ue170006INS_17_ClassicAlgPolicyEP4CellPFbRKS2_S5_EEEvT0_S8_RT1_, symObjAddr: 0x31A0, symBinAddr: 0x1000043E0, symSize: 0x60 }
  - { offsetInCU: 0xA589, offset: 0xA589, size: 0x8, addend: 0x0, symName: __ZNSt3__113__unwrap_iterB8ue170006INS_11__wrap_iterIP4CellEENS_18__unwrap_iter_implIS4_Lb1EEELi0EEEDTclsrT0_8__unwrapclsr3stdE7declvalIT_EEEES8_, symObjAddr: 0x3200, symBinAddr: 0x100004440, symSize: 0x30 }
  - { offsetInCU: 0xA5CD, offset: 0xA5CD, size: 0x8, addend: 0x0, symName: __ZNSt3__135__check_strict_weak_ordering_sortedB8ue170006IP4CellPFbRKS1_S4_EEEvT_S7_RT0_, symObjAddr: 0x3230, symBinAddr: 0x100004470, symSize: 0x20 }
  - { offsetInCU: 0xA623, offset: 0xA623, size: 0x8, addend: 0x0, symName: __ZNSt3__17__log2iB8ue170006IlEET_S1_, symObjAddr: 0x3250, symBinAddr: 0x100004490, symSize: 0x50 }
  - { offsetInCU: 0xA65A, offset: 0xA65A, size: 0x8, addend: 0x0, symName: __ZNSt3__112__libcpp_clzB8ue170006Em, symObjAddr: 0x36E0, symBinAddr: 0x100004920, symSize: 0x20 }
  - { offsetInCU: 0xA686, offset: 0xA686, size: 0x8, addend: 0x0, symName: __ZNSt3__124__sort3_maybe_branchlessB8ue170006INS_17_ClassicAlgPolicyERPFbRK4CellS4_EPS2_EENS_9enable_ifIXntsr21__use_branchless_sortIT0_T1_EE5valueEvE4typeESB_SB_SB_SA_, symObjAddr: 0x3730, symBinAddr: 0x100004970, symSize: 0x40 }
  - { offsetInCU: 0xA6F7, offset: 0xA6F7, size: 0x8, addend: 0x0, symName: __ZNSt3__124__sort4_maybe_branchlessB8ue170006INS_17_ClassicAlgPolicyERPFbRK4CellS4_EPS2_EENS_9enable_ifIXntsr21__use_branchless_sortIT0_T1_EE5valueEvE4typeESB_SB_SB_SB_SA_, symObjAddr: 0x3770, symBinAddr: 0x1000049B0, symSize: 0x40 }
  - { offsetInCU: 0xA776, offset: 0xA776, size: 0x8, addend: 0x0, symName: __ZNSt3__124__sort5_maybe_branchlessB8ue170006INS_17_ClassicAlgPolicyERPFbRK4CellS4_EPS2_EENS_9enable_ifIXntsr21__use_branchless_sortIT0_T1_EE5valueEvE4typeESB_SB_SB_SB_SB_SA_, symObjAddr: 0x37B0, symBinAddr: 0x1000049F0, symSize: 0x50 }
  - { offsetInCU: 0xA803, offset: 0xA803, size: 0x8, addend: 0x0, symName: __ZNSt3__116__insertion_sortB8ue170006INS_17_ClassicAlgPolicyERPFbRK4CellS4_EPS2_EEvT1_S9_T0_, symObjAddr: 0x3800, symBinAddr: 0x100004A40, symSize: 0x130 }
  - { offsetInCU: 0xA8C6, offset: 0xA8C6, size: 0x8, addend: 0x0, symName: __ZNSt3__114__partial_sortB8ue170006INS_17_ClassicAlgPolicyERPFbRK4CellS4_EPS2_S8_EET1_S9_S9_T2_RT0_, symObjAddr: 0x3A40, symBinAddr: 0x100004C80, symSize: 0x90 }
  - { offsetInCU: 0xA94E, offset: 0xA94E, size: 0x8, addend: 0x0, symName: __ZNSt3__17__sort3B8ue170006INS_17_ClassicAlgPolicyERPFbRK4CellS4_EPS2_EEjT1_S9_S9_T0_, symObjAddr: 0x3AD0, symBinAddr: 0x100004D10, symSize: 0x140 }
  - { offsetInCU: 0xA9CD, offset: 0xA9CD, size: 0x8, addend: 0x0, symName: __ZNSt3__19iter_swapB8ue170006IP4CellS2_EEvT_T0_, symObjAddr: 0x4590, symBinAddr: 0x1000057D0, symSize: 0x30 }
  - { offsetInCU: 0xAA15, offset: 0xAA15, size: 0x8, addend: 0x0, symName: __ZNSt3__14swapB8ue170006I4CellEENS_9enable_ifIXaasr21is_move_constructibleIT_EE5valuesr18is_move_assignableIS3_EE5valueEvE4typeERS3_S6_, symObjAddr: 0x45C0, symBinAddr: 0x100005800, symSize: 0x50 }
  - { offsetInCU: 0xAA66, offset: 0xAA66, size: 0x8, addend: 0x0, symName: __ZNSt3__17__sort4B8ue170006INS_17_ClassicAlgPolicyERPFbRK4CellS4_EPS2_EEvT1_S9_S9_S9_T0_, symObjAddr: 0x4610, symBinAddr: 0x100005850, symSize: 0xD0 }
  - { offsetInCU: 0xAAE1, offset: 0xAAE1, size: 0x8, addend: 0x0, symName: __ZNSt3__17__sort5B8ue170006INS_17_ClassicAlgPolicyERPFbRK4CellS4_EPS2_EEvT1_S9_S9_S9_S9_T0_, symObjAddr: 0x46E0, symBinAddr: 0x100005920, symSize: 0x100 }
  - { offsetInCU: 0xAB6A, offset: 0xAB6A, size: 0x8, addend: 0x0, symName: __ZNSt3__123__debug_randomize_rangeB8ue170006INS_17_ClassicAlgPolicyEP4CellS3_EEvT0_T1_, symObjAddr: 0x4830, symBinAddr: 0x100005A70, symSize: 0x10 }
  - { offsetInCU: 0xABBB, offset: 0xABBB, size: 0x8, addend: 0x0, symName: __ZNSt3__119__partial_sort_implB8ue170006INS_17_ClassicAlgPolicyERPFbRK4CellS4_EPS2_S8_EET1_S9_S9_T2_OT0_, symObjAddr: 0x4840, symBinAddr: 0x100005A80, symSize: 0x100 }
  - { offsetInCU: 0xAC51, offset: 0xAC51, size: 0x8, addend: 0x0, symName: __ZNSt3__111__make_heapB8ue170006INS_17_ClassicAlgPolicyERPFbRK4CellS4_EPS2_EEvT1_S9_OT0_, symObjAddr: 0x4940, symBinAddr: 0x100005B80, symSize: 0xA0 }
  - { offsetInCU: 0xACF3, offset: 0xACF3, size: 0x8, addend: 0x0, symName: __ZNSt3__111__sort_heapB8ue170006INS_17_ClassicAlgPolicyERPFbRK4CellS4_EPS2_EEvT1_S9_OT0_, symObjAddr: 0x4BD0, symBinAddr: 0x100005E10, symSize: 0xA0 }
  - { offsetInCU: 0xAD95, offset: 0xAD95, size: 0x8, addend: 0x0, symName: __ZNSt3__110__pop_heapB8ue170006INS_17_ClassicAlgPolicyEPFbRK4CellS4_EPS2_EEvT1_S8_RT0_NS_15iterator_traitsIS8_E15difference_typeE, symObjAddr: 0x4C70, symBinAddr: 0x100005EB0, symSize: 0x100 }
  - { offsetInCU: 0xAE45, offset: 0xAE45, size: 0x8, addend: 0x0, symName: __ZNSt3__19__sift_upB8ue170006INS_17_ClassicAlgPolicyERPFbRK4CellS4_EPS2_EEvT1_S9_OT0_NS_15iterator_traitsIS9_E15difference_typeE, symObjAddr: 0x4E70, symBinAddr: 0x1000060B0, symSize: 0x120 }
  - { offsetInCU: 0xAEF5, offset: 0xAEF5, size: 0x8, addend: 0x0, symName: __ZNSt3__122__populate_left_bitsetB8ue170006IRPFbRK4CellS3_EPS1_S1_EEvT0_T_RT1_Ry, symObjAddr: 0x4F90, symBinAddr: 0x1000061D0, symSize: 0x90 }
  - { offsetInCU: 0xAFB0, offset: 0xAFB0, size: 0x8, addend: 0x0, symName: __ZNSt3__123__populate_right_bitsetB8ue170006IRPFbRK4CellS3_EPS1_S1_EEvT0_T_RT1_Ry, symObjAddr: 0x5020, symBinAddr: 0x100006260, symSize: 0x90 }
  - { offsetInCU: 0xB06B, offset: 0xB06B, size: 0x8, addend: 0x0, symName: __ZNSt3__117__swap_bitmap_posB8ue170006INS_17_ClassicAlgPolicyEP4CellEEvT0_S4_RyS5_, symObjAddr: 0x50B0, symBinAddr: 0x1000062F0, symSize: 0xE0 }
  - { offsetInCU: 0xB10C, offset: 0xB10C, size: 0x8, addend: 0x0, symName: __ZNSt3__133__bitset_partition_partial_blocksB8ue170006INS_17_ClassicAlgPolicyERPFbRK4CellS4_EPS2_S2_EEvRT1_SA_T0_RT2_RySE_, symObjAddr: 0x5190, symBinAddr: 0x1000063D0, symSize: 0x260 }
  - { offsetInCU: 0xB293, offset: 0xB293, size: 0x8, addend: 0x0, symName: __ZNSt3__19make_pairB8ue170006IRP4CellRbEENS_4pairINS_18__unwrap_ref_decayIT_E4typeENS6_IT0_E4typeEEEOS7_OSA_, symObjAddr: 0x5570, symBinAddr: 0x1000067B0, symSize: 0x30 }
  - { offsetInCU: 0xB2E2, offset: 0xB2E2, size: 0x8, addend: 0x0, symName: __ZNSt3__112__libcpp_ctzB8ue170006Ey, symObjAddr: 0x55A0, symBinAddr: 0x1000067E0, symSize: 0x20 }
  - { offsetInCU: 0xB30E, offset: 0xB30E, size: 0x8, addend: 0x0, symName: __ZNSt3__113__libcpp_blsrB8ue170006Ey, symObjAddr: 0x55C0, symBinAddr: 0x100006800, symSize: 0x20 }
  - { offsetInCU: 0xB33A, offset: 0xB33A, size: 0x8, addend: 0x0, symName: __ZNSt3__112__libcpp_clzB8ue170006Ey, symObjAddr: 0x5610, symBinAddr: 0x100006850, symSize: 0x20 }
  - { offsetInCU: 0xB48D, offset: 0xB48D, size: 0x8, addend: 0x0, symName: __ZNSt3__112__to_addressB8ue170006INS_11__wrap_iterIP4CellEEvEEu7__decayIDTclsr19__to_address_helperIT_EE6__callclsr3stdE7declvalIRKS5_EEEEES7_, symObjAddr: 0x56B0, symBinAddr: 0x1000068F0, symSize: 0x20 }
  - { offsetInCU: 0xB52A, offset: 0xB52A, size: 0x8, addend: 0x0, symName: __ZNSt3__111__sort_implB8ue170006INS_17_ClassicAlgPolicyENS_11__wrap_iterIPiEEPFbiiEEEvT0_S7_RT1_, symObjAddr: 0x57D0, symBinAddr: 0x100006A10, symSize: 0xB0 }
  - { offsetInCU: 0xB58D, offset: 0xB58D, size: 0x8, addend: 0x0, symName: __ZNSt3__123__debug_randomize_rangeB8ue170006INS_17_ClassicAlgPolicyENS_11__wrap_iterIPiEES4_EEvT0_T1_, symObjAddr: 0x5880, symBinAddr: 0x100006AC0, symSize: 0x10 }
  - { offsetInCU: 0xB5DE, offset: 0xB5DE, size: 0x8, addend: 0x0, symName: __ZNSt3__115__sort_dispatchB8ue170006INS_17_ClassicAlgPolicyEPiPFbiiEEEvT0_S5_RT1_, symObjAddr: 0x5890, symBinAddr: 0x100006AD0, symSize: 0x60 }
  - { offsetInCU: 0xB65C, offset: 0xB65C, size: 0x8, addend: 0x0, symName: __ZNSt3__113__unwrap_iterB8ue170006INS_11__wrap_iterIPiEENS_18__unwrap_iter_implIS3_Lb1EEELi0EEEDTclsrT0_8__unwrapclsr3stdE7declvalIT_EEEES7_, symObjAddr: 0x58F0, symBinAddr: 0x100006B30, symSize: 0x30 }
  - { offsetInCU: 0xB6A0, offset: 0xB6A0, size: 0x8, addend: 0x0, symName: __ZNSt3__135__check_strict_weak_ordering_sortedB8ue170006IPiPFbiiEEEvT_S4_RT0_, symObjAddr: 0x5920, symBinAddr: 0x100006B60, symSize: 0x20 }
  - { offsetInCU: 0xB6F6, offset: 0xB6F6, size: 0x8, addend: 0x0, symName: __ZNSt3__124__sort3_maybe_branchlessB8ue170006INS_17_ClassicAlgPolicyERPFbiiEPiEENS_9enable_ifIXntsr21__use_branchless_sortIT0_T1_EE5valueEvE4typeES8_S8_S8_S7_, symObjAddr: 0x5DB0, symBinAddr: 0x100006FF0, symSize: 0x40 }
  - { offsetInCU: 0xB767, offset: 0xB767, size: 0x8, addend: 0x0, symName: __ZNSt3__124__sort4_maybe_branchlessB8ue170006INS_17_ClassicAlgPolicyERPFbiiEPiEENS_9enable_ifIXntsr21__use_branchless_sortIT0_T1_EE5valueEvE4typeES8_S8_S8_S8_S7_, symObjAddr: 0x5DF0, symBinAddr: 0x100007030, symSize: 0x40 }
  - { offsetInCU: 0xB7E6, offset: 0xB7E6, size: 0x8, addend: 0x0, symName: __ZNSt3__124__sort5_maybe_branchlessB8ue170006INS_17_ClassicAlgPolicyERPFbiiEPiEENS_9enable_ifIXntsr21__use_branchless_sortIT0_T1_EE5valueEvE4typeES8_S8_S8_S8_S8_S7_, symObjAddr: 0x5E30, symBinAddr: 0x100007070, symSize: 0x50 }
  - { offsetInCU: 0xB873, offset: 0xB873, size: 0x8, addend: 0x0, symName: __ZNSt3__116__insertion_sortB8ue170006INS_17_ClassicAlgPolicyERPFbiiEPiEEvT1_S6_T0_, symObjAddr: 0x5E80, symBinAddr: 0x1000070C0, symSize: 0x120 }
  - { offsetInCU: 0xB936, offset: 0xB936, size: 0x8, addend: 0x0, symName: __ZNSt3__114__partial_sortB8ue170006INS_17_ClassicAlgPolicyERPFbiiEPiS5_EET1_S6_S6_T2_RT0_, symObjAddr: 0x60A0, symBinAddr: 0x1000072E0, symSize: 0x90 }
  - { offsetInCU: 0xB9BE, offset: 0xB9BE, size: 0x8, addend: 0x0, symName: __ZNSt3__17__sort3B8ue170006INS_17_ClassicAlgPolicyERPFbiiEPiEEjT1_S6_S6_T0_, symObjAddr: 0x6130, symBinAddr: 0x100007370, symSize: 0x160 }
  - { offsetInCU: 0xBA3D, offset: 0xBA3D, size: 0x8, addend: 0x0, symName: __ZNSt3__19iter_swapB8ue170006IPiS1_EEvT_T0_, symObjAddr: 0x6BA0, symBinAddr: 0x100007DE0, symSize: 0x30 }
  - { offsetInCU: 0xBA85, offset: 0xBA85, size: 0x8, addend: 0x0, symName: __ZNSt3__14swapB8ue170006IiEENS_9enable_ifIXaasr21is_move_constructibleIT_EE5valuesr18is_move_assignableIS2_EE5valueEvE4typeERS2_S5_, symObjAddr: 0x6BD0, symBinAddr: 0x100007E10, symSize: 0x30 }
  - { offsetInCU: 0xBAD6, offset: 0xBAD6, size: 0x8, addend: 0x0, symName: __ZNSt3__17__sort4B8ue170006INS_17_ClassicAlgPolicyERPFbiiEPiEEvT1_S6_S6_S6_T0_, symObjAddr: 0x6C00, symBinAddr: 0x100007E40, symSize: 0xD0 }
  - { offsetInCU: 0xBB51, offset: 0xBB51, size: 0x8, addend: 0x0, symName: __ZNSt3__17__sort5B8ue170006INS_17_ClassicAlgPolicyERPFbiiEPiEEvT1_S6_S6_S6_S6_T0_, symObjAddr: 0x6CD0, symBinAddr: 0x100007F10, symSize: 0x110 }
  - { offsetInCU: 0xBBFE, offset: 0xBBFE, size: 0x8, addend: 0x0, symName: __ZNSt3__123__debug_randomize_rangeB8ue170006INS_17_ClassicAlgPolicyEPiS2_EEvT0_T1_, symObjAddr: 0x6E30, symBinAddr: 0x100008070, symSize: 0x10 }
  - { offsetInCU: 0xBC4F, offset: 0xBC4F, size: 0x8, addend: 0x0, symName: __ZNSt3__119__partial_sort_implB8ue170006INS_17_ClassicAlgPolicyERPFbiiEPiS5_EET1_S6_S6_T2_OT0_, symObjAddr: 0x6E40, symBinAddr: 0x100008080, symSize: 0x100 }
  - { offsetInCU: 0xBCE5, offset: 0xBCE5, size: 0x8, addend: 0x0, symName: __ZNSt3__111__make_heapB8ue170006INS_17_ClassicAlgPolicyERPFbiiEPiEEvT1_S6_OT0_, symObjAddr: 0x6F40, symBinAddr: 0x100008180, symSize: 0xA0 }
  - { offsetInCU: 0xBD87, offset: 0xBD87, size: 0x8, addend: 0x0, symName: __ZNSt3__111__sort_heapB8ue170006INS_17_ClassicAlgPolicyERPFbiiEPiEEvT1_S6_OT0_, symObjAddr: 0x71C0, symBinAddr: 0x100008400, symSize: 0x90 }
  - { offsetInCU: 0xBE29, offset: 0xBE29, size: 0x8, addend: 0x0, symName: __ZNSt3__110__pop_heapB8ue170006INS_17_ClassicAlgPolicyEPFbiiEPiEEvT1_S5_RT0_NS_15iterator_traitsIS5_E15difference_typeE, symObjAddr: 0x7250, symBinAddr: 0x100008490, symSize: 0xD0 }
  - { offsetInCU: 0xBED9, offset: 0xBED9, size: 0x8, addend: 0x0, symName: __ZNSt3__19__sift_upB8ue170006INS_17_ClassicAlgPolicyERPFbiiEPiEEvT1_S6_OT0_NS_15iterator_traitsIS6_E15difference_typeE, symObjAddr: 0x7410, symBinAddr: 0x100008650, symSize: 0x110 }
  - { offsetInCU: 0xBF89, offset: 0xBF89, size: 0x8, addend: 0x0, symName: __ZNSt3__122__populate_left_bitsetB8ue170006IRPFbiiEPiiEEvT0_T_RT1_Ry, symObjAddr: 0x7520, symBinAddr: 0x100008760, symSize: 0x90 }
  - { offsetInCU: 0xC044, offset: 0xC044, size: 0x8, addend: 0x0, symName: __ZNSt3__123__populate_right_bitsetB8ue170006IRPFbiiEPiiEEvT0_T_RT1_Ry, symObjAddr: 0x75B0, symBinAddr: 0x1000087F0, symSize: 0x90 }
  - { offsetInCU: 0xC0FF, offset: 0xC0FF, size: 0x8, addend: 0x0, symName: __ZNSt3__117__swap_bitmap_posB8ue170006INS_17_ClassicAlgPolicyEPiEEvT0_S3_RyS4_, symObjAddr: 0x7640, symBinAddr: 0x100008880, symSize: 0xE0 }
  - { offsetInCU: 0xC1A0, offset: 0xC1A0, size: 0x8, addend: 0x0, symName: __ZNSt3__133__bitset_partition_partial_blocksB8ue170006INS_17_ClassicAlgPolicyERPFbiiEPiiEEvRT1_S7_T0_RT2_RySB_, symObjAddr: 0x7720, symBinAddr: 0x100008960, symSize: 0x270 }
  - { offsetInCU: 0xC327, offset: 0xC327, size: 0x8, addend: 0x0, symName: __ZNSt3__19make_pairB8ue170006IRPiRbEENS_4pairINS_18__unwrap_ref_decayIT_E4typeENS5_IT0_E4typeEEEOS6_OS9_, symObjAddr: 0x7B20, symBinAddr: 0x100008D60, symSize: 0x30 }
  - { offsetInCU: 0xC49D, offset: 0xC49D, size: 0x8, addend: 0x0, symName: __ZNSt3__112__to_addressB8ue170006INS_11__wrap_iterIPiEEvEEu7__decayIDTclsr19__to_address_helperIT_EE6__callclsr3stdE7declvalIRKS4_EEEEES6_, symObjAddr: 0x7C00, symBinAddr: 0x100008E40, symSize: 0x20 }
  - { offsetInCU: 0xC53A, offset: 0xC53A, size: 0x8, addend: 0x0, symName: __ZNSt3__116__pad_and_outputB8ue170006IcNS_11char_traitsIcEEEENS_19ostreambuf_iteratorIT_T0_EES6_PKS4_S8_S8_RNS_8ios_baseES4_, symObjAddr: 0x8120, symBinAddr: 0x100009360, symSize: 0x220 }
  - { offsetInCU: 0xC60A, offset: 0xC60A, size: 0x8, addend: 0x0, symName: __ZNSt3__112__to_addressB8ue170006IcEEPT_S2_, symObjAddr: 0x8640, symBinAddr: 0x100009880, symSize: 0x10 }
  - { offsetInCU: 0xC63F, offset: 0xC63F, size: 0x8, addend: 0x0, symName: __ZNSt3__19use_facetB8ue170006INS_5ctypeIcEEEERKT_RKNS_6localeE, symObjAddr: 0x88D0, symBinAddr: 0x100009B10, symSize: 0x30 }
  - { offsetInCU: 0xCEC2, offset: 0xCEC2, size: 0x8, addend: 0x0, symName: __ZSt28__throw_bad_array_new_lengthB8ue170006v, symObjAddr: 0x1010, symBinAddr: 0x100002250, symSize: 0x40 }
  - { offsetInCU: 0xD4EB, offset: 0xD4EB, size: 0x8, addend: 0x0, symName: __ZNSt3__16vectorI4CellNS_9allocatorIS1_EEE26__swap_out_circular_bufferERNS_14__split_bufferIS1_RS3_EE, symObjAddr: 0x1D60, symBinAddr: 0x100002FA0, symSize: 0x120 }
  - { offsetInCU: 0xFA02, offset: 0xFA02, size: 0x8, addend: 0x0, symName: __Z15compareCoverageRK4CellS1_, symObjAddr: 0x0, symBinAddr: 0x100001240, symSize: 0x30 }
  - { offsetInCU: 0xFA3C, offset: 0xFA3C, size: 0x8, addend: 0x0, symName: __Z13compareHeightii, symObjAddr: 0x30, symBinAddr: 0x100001270, symSize: 0x20 }
  - { offsetInCU: 0xFA77, offset: 0xFA77, size: 0x8, addend: 0x0, symName: _main, symObjAddr: 0x50, symBinAddr: 0x100001290, symSize: 0x410 }
  - { offsetInCU: 0xFB8A, offset: 0xFB8A, size: 0x8, addend: 0x0, symName: __ZNSt3__19basic_iosIcNS_11char_traitsIcEEE3tieB8ue170006EPNS_13basic_ostreamIcS2_EE, symObjAddr: 0x460, symBinAddr: 0x1000016A0, symSize: 0x30 }
  - { offsetInCU: 0xFBCF, offset: 0xFBCF, size: 0x8, addend: 0x0, symName: __ZNSt3__16vectorIiNS_9allocatorIiEEEC1Em, symObjAddr: 0x490, symBinAddr: 0x1000016D0, symSize: 0x30 }
  - { offsetInCU: 0xFC0A, offset: 0xFC0A, size: 0x8, addend: 0x0, symName: __ZNSt3__16vectorIiNS_9allocatorIiEEEixB8ue170006Em, symObjAddr: 0x4C0, symBinAddr: 0x100001700, symSize: 0x20 }
  - { offsetInCU: 0xFC40, offset: 0xFC40, size: 0x8, addend: 0x0, symName: __ZNSt3__16vectorI4CellNS_9allocatorIS1_EEEC1B8ue170006Ev, symObjAddr: 0x4E0, symBinAddr: 0x100001720, symSize: 0x20 }
  - { offsetInCU: 0xFC6A, offset: 0xFC6A, size: 0x8, addend: 0x0, symName: __ZNSt3__16vectorI4CellNS_9allocatorIS1_EEE9push_backB8ue170006EOS1_, symObjAddr: 0x560, symBinAddr: 0x1000017A0, symSize: 0x60 }
  - { offsetInCU: 0xFCA0, offset: 0xFCA0, size: 0x8, addend: 0x0, symName: __ZNSt3__16vectorI4CellNS_9allocatorIS1_EEE5beginB8ue170006Ev, symObjAddr: 0x600, symBinAddr: 0x100001840, symSize: 0x30 }
  - { offsetInCU: 0xFCC7, offset: 0xFCC7, size: 0x8, addend: 0x0, symName: __ZNSt3__16vectorI4CellNS_9allocatorIS1_EEE3endB8ue170006Ev, symObjAddr: 0x630, symBinAddr: 0x100001870, symSize: 0x30 }
  - { offsetInCU: 0xFCEE, offset: 0xFCEE, size: 0x8, addend: 0x0, symName: __ZNSt3__16vectorIiNS_9allocatorIiEEE5beginB8ue170006Ev, symObjAddr: 0x6A0, symBinAddr: 0x1000018E0, symSize: 0x30 }
  - { offsetInCU: 0xFD15, offset: 0xFD15, size: 0x8, addend: 0x0, symName: __ZNSt3__16vectorIiNS_9allocatorIiEEE3endB8ue170006Ev, symObjAddr: 0x6D0, symBinAddr: 0x100001910, symSize: 0x30 }
  - { offsetInCU: 0xFD3C, offset: 0xFD3C, size: 0x8, addend: 0x0, symName: __ZNSt3__16vectorI4CellNS_9allocatorIS1_EEEixB8ue170006Em, symObjAddr: 0x700, symBinAddr: 0x100001940, symSize: 0x20 }
  - { offsetInCU: 0xFD72, offset: 0xFD72, size: 0x8, addend: 0x0, symName: __ZNSt3__16vectorI4CellNS_9allocatorIS1_EEED1B8ue170006Ev, symObjAddr: 0x750, symBinAddr: 0x100001990, symSize: 0x20 }
  - { offsetInCU: 0xFD9C, offset: 0xFD9C, size: 0x8, addend: 0x0, symName: __ZNSt3__16vectorIiNS_9allocatorIiEEED1B8ue170006Ev, symObjAddr: 0x770, symBinAddr: 0x1000019B0, symSize: 0x20 }
  - { offsetInCU: 0xFDC6, offset: 0xFDC6, size: 0x8, addend: 0x0, symName: __ZNSt3__16vectorIiNS_9allocatorIiEEEC2Em, symObjAddr: 0x790, symBinAddr: 0x1000019D0, symSize: 0xD0 }
  - { offsetInCU: 0xFE20, offset: 0xFE20, size: 0x8, addend: 0x0, symName: __ZNSt3__117__compressed_pairIPiNS_9allocatorIiEEEC1B8ue170006IDnNS_18__default_init_tagEEEOT_OT0_, symObjAddr: 0x860, symBinAddr: 0x100001AA0, symSize: 0x30 }
  - { offsetInCU: 0xFE78, offset: 0xFE78, size: 0x8, addend: 0x0, symName: __ZNSt3__16vectorIiNS_9allocatorIiEEE16__destroy_vectorC1B8ue170006ERS3_, symObjAddr: 0x8D0, symBinAddr: 0x100001B10, symSize: 0x30 }
  - { offsetInCU: 0xFEB1, offset: 0xFEB1, size: 0x8, addend: 0x0, symName: __ZNSt3__16vectorIiNS_9allocatorIiEEE11__vallocateB8ue170006Em, symObjAddr: 0x900, symBinAddr: 0x100001B40, symSize: 0xA0 }
  - { offsetInCU: 0xFEF5, offset: 0xFEF5, size: 0x8, addend: 0x0, symName: __ZNSt3__16vectorIiNS_9allocatorIiEEE18__construct_at_endEm, symObjAddr: 0x9A0, symBinAddr: 0x100001BE0, symSize: 0xC0 }
  - { offsetInCU: 0xFF66, offset: 0xFF66, size: 0x8, addend: 0x0, symName: __ZNSt3__128__exception_guard_exceptionsINS_6vectorIiNS_9allocatorIiEEE16__destroy_vectorEE10__completeB8ue170006Ev, symObjAddr: 0xA60, symBinAddr: 0x100001CA0, symSize: 0x20 }
  - { offsetInCU: 0xFF8C, offset: 0xFF8C, size: 0x8, addend: 0x0, symName: __ZNSt3__128__exception_guard_exceptionsINS_6vectorIiNS_9allocatorIiEEE16__destroy_vectorEED1B8ue170006Ev, symObjAddr: 0xA80, symBinAddr: 0x100001CC0, symSize: 0x20 }
  - { offsetInCU: 0xFFB6, offset: 0xFFB6, size: 0x8, addend: 0x0, symName: __ZNSt3__117__compressed_pairIPiNS_9allocatorIiEEEC2B8ue170006IDnNS_18__default_init_tagEEEOT_OT0_, symObjAddr: 0xAA0, symBinAddr: 0x100001CE0, symSize: 0x40 }
  - { offsetInCU: 0x1000E, offset: 0x1000E, size: 0x8, addend: 0x0, symName: __ZNSt3__122__compressed_pair_elemIPiLi0ELb0EEC2B8ue170006IDnvEEOT_, symObjAddr: 0xAE0, symBinAddr: 0x100001D20, symSize: 0x20 }
  - { offsetInCU: 0x10050, offset: 0x10050, size: 0x8, addend: 0x0, symName: __ZNSt3__122__compressed_pair_elemINS_9allocatorIiEELi1ELb1EEC2B8ue170006ENS_18__default_init_tagE, symObjAddr: 0xB00, symBinAddr: 0x100001D40, symSize: 0x20 }
  - { offsetInCU: 0x10085, offset: 0x10085, size: 0x8, addend: 0x0, symName: __ZNSt3__19allocatorIiEC2B8ue170006Ev, symObjAddr: 0xB20, symBinAddr: 0x100001D60, symSize: 0x20 }
  - { offsetInCU: 0x100AF, offset: 0x100AF, size: 0x8, addend: 0x0, symName: __ZNSt3__116__non_trivial_ifILb1ENS_9allocatorIiEEEC2B8ue170006Ev, symObjAddr: 0xB40, symBinAddr: 0x100001D80, symSize: 0x10 }
  - { offsetInCU: 0x100D9, offset: 0x100D9, size: 0x8, addend: 0x0, symName: __ZNSt3__128__exception_guard_exceptionsINS_6vectorIiNS_9allocatorIiEEE16__destroy_vectorEEC1B8ue170006ES5_, symObjAddr: 0xB50, symBinAddr: 0x100001D90, symSize: 0x30 }
  - { offsetInCU: 0x10111, offset: 0x10111, size: 0x8, addend: 0x0, symName: __ZNSt3__128__exception_guard_exceptionsINS_6vectorIiNS_9allocatorIiEEE16__destroy_vectorEEC2B8ue170006ES5_, symObjAddr: 0xB80, symBinAddr: 0x100001DC0, symSize: 0x20 }
  - { offsetInCU: 0x10149, offset: 0x10149, size: 0x8, addend: 0x0, symName: __ZNSt3__16vectorIiNS_9allocatorIiEEE16__destroy_vectorC2B8ue170006ERS3_, symObjAddr: 0xBA0, symBinAddr: 0x100001DE0, symSize: 0x20 }
  - { offsetInCU: 0x10182, offset: 0x10182, size: 0x8, addend: 0x0, symName: __ZNKSt3__16vectorIiNS_9allocatorIiEEE8max_sizeEv, symObjAddr: 0xBC0, symBinAddr: 0x100001E00, symSize: 0x60 }
  - { offsetInCU: 0x101A9, offset: 0x101A9, size: 0x8, addend: 0x0, symName: __ZNKSt3__16vectorIiNS_9allocatorIiEEE20__throw_length_errorB8ue170006Ev, symObjAddr: 0xC20, symBinAddr: 0x100001E60, symSize: 0x20 }
  - { offsetInCU: 0x101CF, offset: 0x101CF, size: 0x8, addend: 0x0, symName: __ZNSt3__16vectorIiNS_9allocatorIiEEE7__allocB8ue170006Ev, symObjAddr: 0xC80, symBinAddr: 0x100001EC0, symSize: 0x20 }
  - { offsetInCU: 0x101F5, offset: 0x101F5, size: 0x8, addend: 0x0, symName: __ZNSt3__16vectorIiNS_9allocatorIiEEE9__end_capB8ue170006Ev, symObjAddr: 0xCA0, symBinAddr: 0x100001EE0, symSize: 0x20 }
  - { offsetInCU: 0x1021B, offset: 0x1021B, size: 0x8, addend: 0x0, symName: __ZNKSt3__16vectorIiNS_9allocatorIiEEE14__annotate_newB8ue170006Em, symObjAddr: 0xCC0, symBinAddr: 0x100001F00, symSize: 0xB0 }
  - { offsetInCU: 0x1025A, offset: 0x1025A, size: 0x8, addend: 0x0, symName: __ZNSt3__116allocator_traitsINS_9allocatorIiEEE8max_sizeB8ue170006IS2_vvEEmRKS2_, symObjAddr: 0xDA0, symBinAddr: 0x100001FE0, symSize: 0x20 }
  - { offsetInCU: 0x10285, offset: 0x10285, size: 0x8, addend: 0x0, symName: __ZNKSt3__16vectorIiNS_9allocatorIiEEE7__allocB8ue170006Ev, symObjAddr: 0xDC0, symBinAddr: 0x100002000, symSize: 0x20 }
  - { offsetInCU: 0x102AB, offset: 0x102AB, size: 0x8, addend: 0x0, symName: __ZNSt3__114numeric_limitsIlE3maxB8ue170006Ev, symObjAddr: 0xDE0, symBinAddr: 0x100002020, symSize: 0x10 }
  - { offsetInCU: 0x102D3, offset: 0x102D3, size: 0x8, addend: 0x0, symName: __ZNKSt3__16__lessIvvEclB8ue170006ImmEEbRKT_RKT0_, symObjAddr: 0xE50, symBinAddr: 0x100002090, symSize: 0x30 }
  - { offsetInCU: 0x10327, offset: 0x10327, size: 0x8, addend: 0x0, symName: __ZNSt3__114numeric_limitsImE3maxB8ue170006Ev, symObjAddr: 0xE80, symBinAddr: 0x1000020C0, symSize: 0x10 }
  - { offsetInCU: 0x1033B, offset: 0x1033B, size: 0x8, addend: 0x0, symName: __ZNSt3__123__libcpp_numeric_limitsImLb1EE3maxB8ue170006Ev, symObjAddr: 0xE90, symBinAddr: 0x1000020D0, symSize: 0x10 }
  - { offsetInCU: 0x1034F, offset: 0x1034F, size: 0x8, addend: 0x0, symName: __ZNKSt3__117__compressed_pairIPiNS_9allocatorIiEEE6secondB8ue170006Ev, symObjAddr: 0xEA0, symBinAddr: 0x1000020E0, symSize: 0x20 }
  - { offsetInCU: 0x10375, offset: 0x10375, size: 0x8, addend: 0x0, symName: __ZNKSt3__122__compressed_pair_elemINS_9allocatorIiEELi1ELb1EE5__getB8ue170006Ev, symObjAddr: 0xEC0, symBinAddr: 0x100002100, symSize: 0x10 }
  - { offsetInCU: 0x1039B, offset: 0x1039B, size: 0x8, addend: 0x0, symName: __ZNSt3__123__libcpp_numeric_limitsIlLb1EE3maxB8ue170006Ev, symObjAddr: 0xED0, symBinAddr: 0x100002110, symSize: 0x10 }
  - { offsetInCU: 0x103AF, offset: 0x103AF, size: 0x8, addend: 0x0, symName: __ZNSt12length_errorC1B8ue170006EPKc, symObjAddr: 0xF50, symBinAddr: 0x100002190, symSize: 0x30 }
  - { offsetInCU: 0x103E7, offset: 0x103E7, size: 0x8, addend: 0x0, symName: __ZNSt12length_errorC2B8ue170006EPKc, symObjAddr: 0xF80, symBinAddr: 0x1000021C0, symSize: 0x40 }
  - { offsetInCU: 0x1041F, offset: 0x1041F, size: 0x8, addend: 0x0, symName: __ZNSt3__19allocatorIiE8allocateB8ue170006Em, symObjAddr: 0xFC0, symBinAddr: 0x100002200, symSize: 0x50 }
  - { offsetInCU: 0x10453, offset: 0x10453, size: 0x8, addend: 0x0, symName: __ZNSt3__117__compressed_pairIPiNS_9allocatorIiEEE6secondB8ue170006Ev, symObjAddr: 0x1120, symBinAddr: 0x100002360, symSize: 0x20 }
  - { offsetInCU: 0x10479, offset: 0x10479, size: 0x8, addend: 0x0, symName: __ZNSt3__122__compressed_pair_elemINS_9allocatorIiEELi1ELb1EE5__getB8ue170006Ev, symObjAddr: 0x1140, symBinAddr: 0x100002380, symSize: 0x10 }
  - { offsetInCU: 0x1049F, offset: 0x1049F, size: 0x8, addend: 0x0, symName: __ZNSt3__117__compressed_pairIPiNS_9allocatorIiEEE5firstB8ue170006Ev, symObjAddr: 0x1150, symBinAddr: 0x100002390, symSize: 0x20 }
  - { offsetInCU: 0x104C5, offset: 0x104C5, size: 0x8, addend: 0x0, symName: __ZNSt3__122__compressed_pair_elemIPiLi0ELb0EE5__getB8ue170006Ev, symObjAddr: 0x1170, symBinAddr: 0x1000023B0, symSize: 0x10 }
  - { offsetInCU: 0x104EB, offset: 0x104EB, size: 0x8, addend: 0x0, symName: __ZNKSt3__16vectorIiNS_9allocatorIiEEE31__annotate_contiguous_containerB8ue170006EPKvS5_S5_S5_, symObjAddr: 0x1180, symBinAddr: 0x1000023C0, symSize: 0x20 }
  - { offsetInCU: 0x1053D, offset: 0x1053D, size: 0x8, addend: 0x0, symName: __ZNKSt3__16vectorIiNS_9allocatorIiEEE4dataB8ue170006Ev, symObjAddr: 0x11A0, symBinAddr: 0x1000023E0, symSize: 0x20 }
  - { offsetInCU: 0x10563, offset: 0x10563, size: 0x8, addend: 0x0, symName: __ZNKSt3__16vectorIiNS_9allocatorIiEEE8capacityB8ue170006Ev, symObjAddr: 0x11C0, symBinAddr: 0x100002400, symSize: 0x30 }
  - { offsetInCU: 0x10589, offset: 0x10589, size: 0x8, addend: 0x0, symName: __ZNKSt3__16vectorIiNS_9allocatorIiEEE9__end_capB8ue170006Ev, symObjAddr: 0x1200, symBinAddr: 0x100002440, symSize: 0x20 }
  - { offsetInCU: 0x105AF, offset: 0x105AF, size: 0x8, addend: 0x0, symName: __ZNKSt3__117__compressed_pairIPiNS_9allocatorIiEEE5firstB8ue170006Ev, symObjAddr: 0x1220, symBinAddr: 0x100002460, symSize: 0x20 }
  - { offsetInCU: 0x105D5, offset: 0x105D5, size: 0x8, addend: 0x0, symName: __ZNKSt3__122__compressed_pair_elemIPiLi0ELb0EE5__getB8ue170006Ev, symObjAddr: 0x1240, symBinAddr: 0x100002480, symSize: 0x10 }
  - { offsetInCU: 0x10614, offset: 0x10614, size: 0x8, addend: 0x0, symName: __ZNSt3__16vectorIiNS_9allocatorIiEEE21_ConstructTransactionC1B8ue170006ERS3_m, symObjAddr: 0x1250, symBinAddr: 0x100002490, symSize: 0x30 }
  - { offsetInCU: 0x1065C, offset: 0x1065C, size: 0x8, addend: 0x0, symName: __ZNSt3__116allocator_traitsINS_9allocatorIiEEE9constructB8ue170006IiJEvvEEvRS2_PT_DpOT0_, symObjAddr: 0x1280, symBinAddr: 0x1000024C0, symSize: 0x20 }
  - { offsetInCU: 0x1069B, offset: 0x1069B, size: 0x8, addend: 0x0, symName: __ZNSt3__16vectorIiNS_9allocatorIiEEE21_ConstructTransactionD1B8ue170006Ev, symObjAddr: 0x12A0, symBinAddr: 0x1000024E0, symSize: 0x20 }
  - { offsetInCU: 0x106C5, offset: 0x106C5, size: 0x8, addend: 0x0, symName: __ZNSt3__16vectorIiNS_9allocatorIiEEE21_ConstructTransactionC2B8ue170006ERS3_m, symObjAddr: 0x12C0, symBinAddr: 0x100002500, symSize: 0x40 }
  - { offsetInCU: 0x1070D, offset: 0x1070D, size: 0x8, addend: 0x0, symName: __ZNSt3__16vectorIiNS_9allocatorIiEEE21_ConstructTransactionD2B8ue170006Ev, symObjAddr: 0x1320, symBinAddr: 0x100002560, symSize: 0x20 }
  - { offsetInCU: 0x10737, offset: 0x10737, size: 0x8, addend: 0x0, symName: __ZNSt3__128__exception_guard_exceptionsINS_6vectorIiNS_9allocatorIiEEE16__destroy_vectorEED2B8ue170006Ev, symObjAddr: 0x1340, symBinAddr: 0x100002580, symSize: 0x40 }
  - { offsetInCU: 0x10761, offset: 0x10761, size: 0x8, addend: 0x0, symName: __ZNSt3__16vectorIiNS_9allocatorIiEEE16__destroy_vectorclB8ue170006Ev, symObjAddr: 0x1380, symBinAddr: 0x1000025C0, symSize: 0x80 }
  - { offsetInCU: 0x10787, offset: 0x10787, size: 0x8, addend: 0x0, symName: __ZNSt3__16vectorIiNS_9allocatorIiEEE7__clearB8ue170006Ev, symObjAddr: 0x1400, symBinAddr: 0x100002640, symSize: 0x20 }
  - { offsetInCU: 0x107AD, offset: 0x107AD, size: 0x8, addend: 0x0, symName: __ZNKSt3__16vectorIiNS_9allocatorIiEEE17__annotate_deleteB8ue170006Ev, symObjAddr: 0x1420, symBinAddr: 0x100002660, symSize: 0xB0 }
  - { offsetInCU: 0x107D3, offset: 0x107D3, size: 0x8, addend: 0x0, symName: __ZNSt3__116allocator_traitsINS_9allocatorIiEEE10deallocateB8ue170006ERS2_Pim, symObjAddr: 0x14D0, symBinAddr: 0x100002710, symSize: 0x30 }
  - { offsetInCU: 0x10815, offset: 0x10815, size: 0x8, addend: 0x0, symName: __ZNSt3__16vectorIiNS_9allocatorIiEEE22__base_destruct_at_endB8ue170006EPi, symObjAddr: 0x1500, symBinAddr: 0x100002740, symSize: 0x80 }
  - { offsetInCU: 0x10859, offset: 0x10859, size: 0x8, addend: 0x0, symName: __ZNSt3__116allocator_traitsINS_9allocatorIiEEE7destroyB8ue170006IivvEEvRS2_PT_, symObjAddr: 0x1580, symBinAddr: 0x1000027C0, symSize: 0x20 }
  - { offsetInCU: 0x10893, offset: 0x10893, size: 0x8, addend: 0x0, symName: __ZNKSt3__16vectorIiNS_9allocatorIiEEE4sizeB8ue170006Ev, symObjAddr: 0x15D0, symBinAddr: 0x100002810, symSize: 0x20 }
  - { offsetInCU: 0x108B9, offset: 0x108B9, size: 0x8, addend: 0x0, symName: __ZNSt3__19allocatorIiE10deallocateB8ue170006EPim, symObjAddr: 0x15F0, symBinAddr: 0x100002830, symSize: 0x40 }
  - { offsetInCU: 0x108FB, offset: 0x108FB, size: 0x8, addend: 0x0, symName: __ZNSt3__16vectorI4CellNS_9allocatorIS1_EEEC2B8ue170006Ev, symObjAddr: 0x1730, symBinAddr: 0x100002970, symSize: 0x50 }
  - { offsetInCU: 0x10925, offset: 0x10925, size: 0x8, addend: 0x0, symName: __ZNSt3__117__compressed_pairIP4CellNS_9allocatorIS1_EEEC1B8ue170006IDnNS_18__default_init_tagEEEOT_OT0_, symObjAddr: 0x1780, symBinAddr: 0x1000029C0, symSize: 0x30 }
  - { offsetInCU: 0x1097D, offset: 0x1097D, size: 0x8, addend: 0x0, symName: __ZNSt3__117__compressed_pairIP4CellNS_9allocatorIS1_EEEC2B8ue170006IDnNS_18__default_init_tagEEEOT_OT0_, symObjAddr: 0x17B0, symBinAddr: 0x1000029F0, symSize: 0x40 }
  - { offsetInCU: 0x109D5, offset: 0x109D5, size: 0x8, addend: 0x0, symName: __ZNSt3__122__compressed_pair_elemIP4CellLi0ELb0EEC2B8ue170006IDnvEEOT_, symObjAddr: 0x17F0, symBinAddr: 0x100002A30, symSize: 0x20 }
  - { offsetInCU: 0x10A17, offset: 0x10A17, size: 0x8, addend: 0x0, symName: __ZNSt3__122__compressed_pair_elemINS_9allocatorI4CellEELi1ELb1EEC2B8ue170006ENS_18__default_init_tagE, symObjAddr: 0x1810, symBinAddr: 0x100002A50, symSize: 0x20 }
  - { offsetInCU: 0x10A4C, offset: 0x10A4C, size: 0x8, addend: 0x0, symName: __ZNSt3__19allocatorI4CellEC2B8ue170006Ev, symObjAddr: 0x1830, symBinAddr: 0x100002A70, symSize: 0x20 }
  - { offsetInCU: 0x10A76, offset: 0x10A76, size: 0x8, addend: 0x0, symName: __ZNSt3__116__non_trivial_ifILb1ENS_9allocatorI4CellEEEC2B8ue170006Ev, symObjAddr: 0x1850, symBinAddr: 0x100002A90, symSize: 0x10 }
  - { offsetInCU: 0x10AA5, offset: 0x10AA5, size: 0x8, addend: 0x0, symName: __ZNKSt3__16__lessIvvEclB8ue170006IiiEEbRKT_RKT0_, symObjAddr: 0x18B0, symBinAddr: 0x100002AF0, symSize: 0x30 }
  - { offsetInCU: 0x10AF9, offset: 0x10AF9, size: 0x8, addend: 0x0, symName: __ZNSt3__16vectorI4CellNS_9allocatorIS1_EEE9__end_capB8ue170006Ev, symObjAddr: 0x1930, symBinAddr: 0x100002B70, symSize: 0x20 }
  - { offsetInCU: 0x10B24, offset: 0x10B24, size: 0x8, addend: 0x0, symName: __ZNSt3__16vectorI4CellNS_9allocatorIS1_EEE22__construct_one_at_endB8ue170006IJS1_EEEvDpOT_, symObjAddr: 0x1950, symBinAddr: 0x100002B90, symSize: 0x90 }
  - { offsetInCU: 0x10B73, offset: 0x10B73, size: 0x8, addend: 0x0, symName: __ZNSt3__16vectorI4CellNS_9allocatorIS1_EEE21__push_back_slow_pathIS1_EEvOT_, symObjAddr: 0x19E0, symBinAddr: 0x100002C20, symSize: 0xD0 }
  - { offsetInCU: 0x10BD0, offset: 0x10BD0, size: 0x8, addend: 0x0, symName: __ZNSt3__117__compressed_pairIP4CellNS_9allocatorIS1_EEE5firstB8ue170006Ev, symObjAddr: 0x1AB0, symBinAddr: 0x100002CF0, symSize: 0x20 }
  - { offsetInCU: 0x10BF6, offset: 0x10BF6, size: 0x8, addend: 0x0, symName: __ZNSt3__122__compressed_pair_elemIP4CellLi0ELb0EE5__getB8ue170006Ev, symObjAddr: 0x1AD0, symBinAddr: 0x100002D10, symSize: 0x10 }
  - { offsetInCU: 0x10C35, offset: 0x10C35, size: 0x8, addend: 0x0, symName: __ZNSt3__16vectorI4CellNS_9allocatorIS1_EEE21_ConstructTransactionC1B8ue170006ERS4_m, symObjAddr: 0x1AE0, symBinAddr: 0x100002D20, symSize: 0x30 }
  - { offsetInCU: 0x10C7D, offset: 0x10C7D, size: 0x8, addend: 0x0, symName: __ZNSt3__116allocator_traitsINS_9allocatorI4CellEEE9constructB8ue170006IS2_JS2_EvvEEvRS3_PT_DpOT0_, symObjAddr: 0x1B10, symBinAddr: 0x100002D50, symSize: 0x30 }
  - { offsetInCU: 0x10CD1, offset: 0x10CD1, size: 0x8, addend: 0x0, symName: __ZNSt3__16vectorI4CellNS_9allocatorIS1_EEE7__allocB8ue170006Ev, symObjAddr: 0x1B40, symBinAddr: 0x100002D80, symSize: 0x20 }
  - { offsetInCU: 0x10CF7, offset: 0x10CF7, size: 0x8, addend: 0x0, symName: __ZNSt3__16vectorI4CellNS_9allocatorIS1_EEE21_ConstructTransactionD1B8ue170006Ev, symObjAddr: 0x1B70, symBinAddr: 0x100002DB0, symSize: 0x20 }
  - { offsetInCU: 0x10D21, offset: 0x10D21, size: 0x8, addend: 0x0, symName: __ZNSt3__16vectorI4CellNS_9allocatorIS1_EEE21_ConstructTransactionC2B8ue170006ERS4_m, symObjAddr: 0x1B90, symBinAddr: 0x100002DD0, symSize: 0x40 }
  - { offsetInCU: 0x10D69, offset: 0x10D69, size: 0x8, addend: 0x0, symName: __ZNSt3__117__compressed_pairIP4CellNS_9allocatorIS1_EEE6secondB8ue170006Ev, symObjAddr: 0x1C00, symBinAddr: 0x100002E40, symSize: 0x20 }
  - { offsetInCU: 0x10D8F, offset: 0x10D8F, size: 0x8, addend: 0x0, symName: __ZNSt3__122__compressed_pair_elemINS_9allocatorI4CellEELi1ELb1EE5__getB8ue170006Ev, symObjAddr: 0x1C20, symBinAddr: 0x100002E60, symSize: 0x10 }
  - { offsetInCU: 0x10DB5, offset: 0x10DB5, size: 0x8, addend: 0x0, symName: __ZNSt3__16vectorI4CellNS_9allocatorIS1_EEE21_ConstructTransactionD2B8ue170006Ev, symObjAddr: 0x1C30, symBinAddr: 0x100002E70, symSize: 0x20 }
  - { offsetInCU: 0x10DDF, offset: 0x10DDF, size: 0x8, addend: 0x0, symName: __ZNKSt3__16vectorI4CellNS_9allocatorIS1_EEE11__recommendB8ue170006Em, symObjAddr: 0x1C50, symBinAddr: 0x100002E90, symSize: 0xA0 }
  - { offsetInCU: 0x10E33, offset: 0x10E33, size: 0x8, addend: 0x0, symName: __ZNKSt3__16vectorI4CellNS_9allocatorIS1_EEE4sizeB8ue170006Ev, symObjAddr: 0x1CF0, symBinAddr: 0x100002F30, symSize: 0x30 }
  - { offsetInCU: 0x10E59, offset: 0x10E59, size: 0x8, addend: 0x0, symName: __ZNSt3__114__split_bufferI4CellRNS_9allocatorIS1_EEEC1EmmS4_, symObjAddr: 0x1D20, symBinAddr: 0x100002F60, symSize: 0x40 }
  - { offsetInCU: 0x10EAF, offset: 0x10EAF, size: 0x8, addend: 0x0, symName: __ZNSt3__114__split_bufferI4CellRNS_9allocatorIS1_EEED1Ev, symObjAddr: 0x1E80, symBinAddr: 0x1000030C0, symSize: 0x20 }
  - { offsetInCU: 0x10EDB, offset: 0x10EDB, size: 0x8, addend: 0x0, symName: __ZNKSt3__16vectorI4CellNS_9allocatorIS1_EEE8max_sizeEv, symObjAddr: 0x1EA0, symBinAddr: 0x1000030E0, symSize: 0x60 }
  - { offsetInCU: 0x10F02, offset: 0x10F02, size: 0x8, addend: 0x0, symName: __ZNKSt3__16vectorI4CellNS_9allocatorIS1_EEE20__throw_length_errorB8ue170006Ev, symObjAddr: 0x1F00, symBinAddr: 0x100003140, symSize: 0x20 }
  - { offsetInCU: 0x10F28, offset: 0x10F28, size: 0x8, addend: 0x0, symName: __ZNKSt3__16vectorI4CellNS_9allocatorIS1_EEE8capacityB8ue170006Ev, symObjAddr: 0x1F20, symBinAddr: 0x100003160, symSize: 0x40 }
  - { offsetInCU: 0x10F58, offset: 0x10F58, size: 0x8, addend: 0x0, symName: __ZNSt3__116allocator_traitsINS_9allocatorI4CellEEE8max_sizeB8ue170006IS3_vvEEmRKS3_, symObjAddr: 0x1F90, symBinAddr: 0x1000031D0, symSize: 0x30 }
  - { offsetInCU: 0x10F83, offset: 0x10F83, size: 0x8, addend: 0x0, symName: __ZNKSt3__16vectorI4CellNS_9allocatorIS1_EEE7__allocB8ue170006Ev, symObjAddr: 0x1FC0, symBinAddr: 0x100003200, symSize: 0x20 }
  - { offsetInCU: 0x10FA9, offset: 0x10FA9, size: 0x8, addend: 0x0, symName: __ZNKSt3__117__compressed_pairIP4CellNS_9allocatorIS1_EEE6secondB8ue170006Ev, symObjAddr: 0x1FE0, symBinAddr: 0x100003220, symSize: 0x20 }
  - { offsetInCU: 0x10FCF, offset: 0x10FCF, size: 0x8, addend: 0x0, symName: __ZNKSt3__122__compressed_pair_elemINS_9allocatorI4CellEELi1ELb1EE5__getB8ue170006Ev, symObjAddr: 0x2000, symBinAddr: 0x100003240, symSize: 0x10 }
  - { offsetInCU: 0x10FF5, offset: 0x10FF5, size: 0x8, addend: 0x0, symName: __ZNKSt3__16vectorI4CellNS_9allocatorIS1_EEE9__end_capB8ue170006Ev, symObjAddr: 0x2010, symBinAddr: 0x100003250, symSize: 0x20 }
  - { offsetInCU: 0x1101B, offset: 0x1101B, size: 0x8, addend: 0x0, symName: __ZNKSt3__117__compressed_pairIP4CellNS_9allocatorIS1_EEE5firstB8ue170006Ev, symObjAddr: 0x2030, symBinAddr: 0x100003270, symSize: 0x20 }
  - { offsetInCU: 0x11041, offset: 0x11041, size: 0x8, addend: 0x0, symName: __ZNKSt3__122__compressed_pair_elemIP4CellLi0ELb0EE5__getB8ue170006Ev, symObjAddr: 0x2050, symBinAddr: 0x100003290, symSize: 0x10 }
  - { offsetInCU: 0x11067, offset: 0x11067, size: 0x8, addend: 0x0, symName: __ZNSt3__114__split_bufferI4CellRNS_9allocatorIS1_EEEC2EmmS4_, symObjAddr: 0x20B0, symBinAddr: 0x1000032F0, symSize: 0xC0 }
  - { offsetInCU: 0x110DA, offset: 0x110DA, size: 0x8, addend: 0x0, symName: __ZNSt3__117__compressed_pairIP4CellRNS_9allocatorIS1_EEEC1B8ue170006IDnS5_EEOT_OT0_, symObjAddr: 0x2170, symBinAddr: 0x1000033B0, symSize: 0x30 }
  - { offsetInCU: 0x11132, offset: 0x11132, size: 0x8, addend: 0x0, symName: __ZNSt3__114__split_bufferI4CellRNS_9allocatorIS1_EEE7__allocB8ue170006Ev, symObjAddr: 0x21E0, symBinAddr: 0x100003420, symSize: 0x20 }
  - { offsetInCU: 0x11158, offset: 0x11158, size: 0x8, addend: 0x0, symName: __ZNSt3__114__split_bufferI4CellRNS_9allocatorIS1_EEE9__end_capB8ue170006Ev, symObjAddr: 0x2200, symBinAddr: 0x100003440, symSize: 0x20 }
  - { offsetInCU: 0x1117E, offset: 0x1117E, size: 0x8, addend: 0x0, symName: __ZNSt3__117__compressed_pairIP4CellRNS_9allocatorIS1_EEEC2B8ue170006IDnS5_EEOT_OT0_, symObjAddr: 0x2220, symBinAddr: 0x100003460, symSize: 0x40 }
  - { offsetInCU: 0x111D6, offset: 0x111D6, size: 0x8, addend: 0x0, symName: __ZNSt3__122__compressed_pair_elemIRNS_9allocatorI4CellEELi1ELb0EEC2B8ue170006IS4_vEEOT_, symObjAddr: 0x2260, symBinAddr: 0x1000034A0, symSize: 0x20 }
  - { offsetInCU: 0x11218, offset: 0x11218, size: 0x8, addend: 0x0, symName: __ZNSt3__19allocatorI4CellE8allocateB8ue170006Em, symObjAddr: 0x2280, symBinAddr: 0x1000034C0, symSize: 0x50 }
  - { offsetInCU: 0x1124C, offset: 0x1124C, size: 0x8, addend: 0x0, symName: __ZNSt3__117__compressed_pairIP4CellRNS_9allocatorIS1_EEE6secondB8ue170006Ev, symObjAddr: 0x22D0, symBinAddr: 0x100003510, symSize: 0x20 }
  - { offsetInCU: 0x11272, offset: 0x11272, size: 0x8, addend: 0x0, symName: __ZNSt3__122__compressed_pair_elemIRNS_9allocatorI4CellEELi1ELb0EE5__getB8ue170006Ev, symObjAddr: 0x22F0, symBinAddr: 0x100003530, symSize: 0x20 }
  - { offsetInCU: 0x11298, offset: 0x11298, size: 0x8, addend: 0x0, symName: __ZNSt3__117__compressed_pairIP4CellRNS_9allocatorIS1_EEE5firstB8ue170006Ev, symObjAddr: 0x2310, symBinAddr: 0x100003550, symSize: 0x20 }
  - { offsetInCU: 0x112BE, offset: 0x112BE, size: 0x8, addend: 0x0, symName: __ZNKSt3__16vectorI4CellNS_9allocatorIS1_EEE17__annotate_deleteB8ue170006Ev, symObjAddr: 0x2330, symBinAddr: 0x100003570, symSize: 0xB0 }
  - { offsetInCU: 0x112E4, offset: 0x112E4, size: 0x8, addend: 0x0, symName: __ZNSt3__116reverse_iteratorIP4CellEC1B8ue170006ES2_, symObjAddr: 0x2450, symBinAddr: 0x100003690, symSize: 0x30 }
  - { offsetInCU: 0x1131C, offset: 0x1131C, size: 0x8, addend: 0x0, symName: __ZNKSt3__116reverse_iteratorIP4CellE4baseB8ue170006Ev, symObjAddr: 0x2480, symBinAddr: 0x1000036C0, symSize: 0x20 }
  - { offsetInCU: 0x11342, offset: 0x11342, size: 0x8, addend: 0x0, symName: __ZNKSt3__16vectorI4CellNS_9allocatorIS1_EEE14__annotate_newB8ue170006Em, symObjAddr: 0x24E0, symBinAddr: 0x100003720, symSize: 0xA0 }
  - { offsetInCU: 0x11377, offset: 0x11377, size: 0x8, addend: 0x0, symName: __ZNKSt3__16vectorI4CellNS_9allocatorIS1_EEE31__annotate_contiguous_containerB8ue170006EPKvS6_S6_S6_, symObjAddr: 0x2580, symBinAddr: 0x1000037C0, symSize: 0x20 }
  - { offsetInCU: 0x113C9, offset: 0x113C9, size: 0x8, addend: 0x0, symName: __ZNKSt3__16vectorI4CellNS_9allocatorIS1_EEE4dataB8ue170006Ev, symObjAddr: 0x25A0, symBinAddr: 0x1000037E0, symSize: 0x20 }
  - { offsetInCU: 0x11412, offset: 0x11412, size: 0x8, addend: 0x0, symName: __ZNKSt3__111__move_loopINS_17_ClassicAlgPolicyEEclB8ue170006INS_16reverse_iteratorIP4CellEES7_S7_EENS_4pairIT_T1_EES9_T0_SA_, symObjAddr: 0x29D0, symBinAddr: 0x100003C10, symSize: 0xA0 }
  - { offsetInCU: 0x1147D, offset: 0x1147D, size: 0x8, addend: 0x0, symName: __ZNSt3__119__unwrap_range_implINS_16reverse_iteratorIP4CellEES4_E8__unwrapB8ue170006ES4_S4_, symObjAddr: 0x2BB0, symBinAddr: 0x100003DF0, symSize: 0x90 }
  - { offsetInCU: 0x114B3, offset: 0x114B3, size: 0x8, addend: 0x0, symName: __ZNSt3__14pairINS_16reverse_iteratorIP4CellEES4_EC1B8ue170006IS4_S4_LPv0EEEOT_OT0_, symObjAddr: 0x2C40, symBinAddr: 0x100003E80, symSize: 0x30 }
  - { offsetInCU: 0x11511, offset: 0x11511, size: 0x8, addend: 0x0, symName: __ZNSt3__14pairINS_16reverse_iteratorIP4CellEES4_EC2B8ue170006IS4_S4_LPv0EEEOT_OT0_, symObjAddr: 0x2C70, symBinAddr: 0x100003EB0, symSize: 0x40 }
  - { offsetInCU: 0x1156F, offset: 0x1156F, size: 0x8, addend: 0x0, symName: __ZNSt3__18_IterOpsINS_17_ClassicAlgPolicyEE11__iter_moveB8ue170006IRNS_16reverse_iteratorIP4CellEEEENS_9enable_ifIXsr12is_referenceIDTdeclsr3stdE7declvalIRT_EEEEE5valueEDTclsr3stdE4movedeclsr3stdE7declvalISB_EEEEE4typeEOSA_, symObjAddr: 0x2CF0, symBinAddr: 0x100003F30, symSize: 0x20 }
  - { offsetInCU: 0x1159B, offset: 0x1159B, size: 0x8, addend: 0x0, symName: __ZNKSt3__116reverse_iteratorIP4CellEdeB8ue170006Ev, symObjAddr: 0x2D10, symBinAddr: 0x100003F50, symSize: 0x30 }
  - { offsetInCU: 0x115CF, offset: 0x115CF, size: 0x8, addend: 0x0, symName: __ZNSt3__116reverse_iteratorIP4CellEppB8ue170006Ev, symObjAddr: 0x2D40, symBinAddr: 0x100003F80, symSize: 0x20 }
  - { offsetInCU: 0x115F5, offset: 0x115F5, size: 0x8, addend: 0x0, symName: __ZNSt3__18_IterOpsINS_17_ClassicAlgPolicyEE25__validate_iter_referenceB8ue170006IRNS_16reverse_iteratorIP4CellEEEEvv, symObjAddr: 0x2D60, symBinAddr: 0x100003FA0, symSize: 0x10 }
  - { offsetInCU: 0x11613, offset: 0x11613, size: 0x8, addend: 0x0, symName: __ZNSt3__118__unwrap_iter_implINS_16reverse_iteratorIP4CellEELb0EE8__unwrapB8ue170006ES4_, symObjAddr: 0x2D70, symBinAddr: 0x100003FB0, symSize: 0x20 }
  - { offsetInCU: 0x11636, offset: 0x11636, size: 0x8, addend: 0x0, symName: __ZNSt3__119__unwrap_range_implINS_16reverse_iteratorIP4CellEES4_E8__rewrapB8ue170006ES4_S4_, symObjAddr: 0x2D90, symBinAddr: 0x100003FD0, symSize: 0x60 }
  - { offsetInCU: 0x11667, offset: 0x11667, size: 0x8, addend: 0x0, symName: __ZNSt3__118__unwrap_iter_implINS_16reverse_iteratorIP4CellEELb0EE8__rewrapB8ue170006ES4_S4_, symObjAddr: 0x2DF0, symBinAddr: 0x100004030, symSize: 0x30 }
  - { offsetInCU: 0x11695, offset: 0x11695, size: 0x8, addend: 0x0, symName: __ZNSt3__116reverse_iteratorIP4CellEC2B8ue170006ES2_, symObjAddr: 0x2E20, symBinAddr: 0x100004060, symSize: 0x30 }
  - { offsetInCU: 0x116CD, offset: 0x116CD, size: 0x8, addend: 0x0, symName: __ZNSt3__114__split_bufferI4CellRNS_9allocatorIS1_EEED2Ev, symObjAddr: 0x2E50, symBinAddr: 0x100004090, symSize: 0x70 }
  - { offsetInCU: 0x116F9, offset: 0x116F9, size: 0x8, addend: 0x0, symName: __ZNSt3__114__split_bufferI4CellRNS_9allocatorIS1_EEE5clearB8ue170006Ev, symObjAddr: 0x2EC0, symBinAddr: 0x100004100, symSize: 0x20 }
  - { offsetInCU: 0x1171F, offset: 0x1171F, size: 0x8, addend: 0x0, symName: __ZNSt3__116allocator_traitsINS_9allocatorI4CellEEE10deallocateB8ue170006ERS3_PS2_m, symObjAddr: 0x2EE0, symBinAddr: 0x100004120, symSize: 0x30 }
  - { offsetInCU: 0x11761, offset: 0x11761, size: 0x8, addend: 0x0, symName: __ZNKSt3__114__split_bufferI4CellRNS_9allocatorIS1_EEE8capacityB8ue170006Ev, symObjAddr: 0x2F10, symBinAddr: 0x100004150, symSize: 0x40 }
  - { offsetInCU: 0x11787, offset: 0x11787, size: 0x8, addend: 0x0, symName: __ZNSt3__114__split_bufferI4CellRNS_9allocatorIS1_EEE17__destruct_at_endB8ue170006EPS1_, symObjAddr: 0x2F50, symBinAddr: 0x100004190, symSize: 0x30 }
  - { offsetInCU: 0x117BB, offset: 0x117BB, size: 0x8, addend: 0x0, symName: __ZNSt3__114__split_bufferI4CellRNS_9allocatorIS1_EEE17__destruct_at_endB8ue170006EPS1_NS_17integral_constantIbLb0EEE, symObjAddr: 0x2F80, symBinAddr: 0x1000041C0, symSize: 0x80 }
  - { offsetInCU: 0x117FB, offset: 0x117FB, size: 0x8, addend: 0x0, symName: __ZNSt3__116allocator_traitsINS_9allocatorI4CellEEE7destroyB8ue170006IS2_vvEEvRS3_PT_, symObjAddr: 0x3000, symBinAddr: 0x100004240, symSize: 0x20 }
  - { offsetInCU: 0x11835, offset: 0x11835, size: 0x8, addend: 0x0, symName: __ZNSt3__19allocatorI4CellE10deallocateB8ue170006EPS1_m, symObjAddr: 0x3050, symBinAddr: 0x100004290, symSize: 0x50 }
  - { offsetInCU: 0x11877, offset: 0x11877, size: 0x8, addend: 0x0, symName: __ZNKSt3__114__split_bufferI4CellRNS_9allocatorIS1_EEE9__end_capB8ue170006Ev, symObjAddr: 0x30A0, symBinAddr: 0x1000042E0, symSize: 0x20 }
  - { offsetInCU: 0x1189D, offset: 0x1189D, size: 0x8, addend: 0x0, symName: __ZNKSt3__117__compressed_pairIP4CellRNS_9allocatorIS1_EEE5firstB8ue170006Ev, symObjAddr: 0x30C0, symBinAddr: 0x100004300, symSize: 0x20 }
  - { offsetInCU: 0x118C3, offset: 0x118C3, size: 0x8, addend: 0x0, symName: __ZNSt3__18_IterOpsINS_17_ClassicAlgPolicyEE9iter_swapB8ue170006IRP4CellS6_EEvOT_OT0_, symObjAddr: 0x3700, symBinAddr: 0x100004940, symSize: 0x30 }
  - { offsetInCU: 0x1190B, offset: 0x1190B, size: 0x8, addend: 0x0, symName: __ZNSt3__18_IterOpsINS_17_ClassicAlgPolicyEE9iter_swapB8ue170006IRP4CellS5_EEvOT_OT0_, symObjAddr: 0x3C10, symBinAddr: 0x100004E50, symSize: 0x30 }
  - { offsetInCU: 0x1194E, offset: 0x1194E, size: 0x8, addend: 0x0, symName: __ZNSt3__18_IterOpsINS_17_ClassicAlgPolicyEE11__iter_moveB8ue170006IRP4CellEENS_9enable_ifIXsr12is_referenceIDTdeclsr3stdE7declvalIRT_EEEEE5valueEDTclsr3stdE4movedeclsr3stdE7declvalIS9_EEEEE4typeEOS8_, symObjAddr: 0x47E0, symBinAddr: 0x100005A20, symSize: 0x20 }
  - { offsetInCU: 0x1197A, offset: 0x1197A, size: 0x8, addend: 0x0, symName: __ZNSt3__18_IterOpsINS_17_ClassicAlgPolicyEE25__validate_iter_referenceB8ue170006IRP4CellEEvv, symObjAddr: 0x4800, symBinAddr: 0x100005A40, symSize: 0x10 }
  - { offsetInCU: 0x11998, offset: 0x11998, size: 0x8, addend: 0x0, symName: __ZNSt3__18_IterOpsINS_17_ClassicAlgPolicyEE4nextB8ue170006IP4CellEET_S6_S6_, symObjAddr: 0x4810, symBinAddr: 0x100005A50, symSize: 0x20 }
  - { offsetInCU: 0x119CF, offset: 0x119CF, size: 0x8, addend: 0x0, symName: __ZNSt3__18_IterOpsINS_17_ClassicAlgPolicyEE9iter_swapB8ue170006IP4CellS5_EEvOT_OT0_, symObjAddr: 0x55E0, symBinAddr: 0x100006820, symSize: 0x30 }
  - { offsetInCU: 0x11A30, offset: 0x11A30, size: 0x8, addend: 0x0, symName: __ZNSt3__14pairIP4CellbEC1B8ue170006IRS2_RbLPv0EEEOT_OT0_, symObjAddr: 0x5630, symBinAddr: 0x100006870, symSize: 0x30 }
  - { offsetInCU: 0x11A8E, offset: 0x11A8E, size: 0x8, addend: 0x0, symName: __ZNSt3__14pairIP4CellbEC2B8ue170006IRS2_RbLPv0EEEOT_OT0_, symObjAddr: 0x5660, symBinAddr: 0x1000068A0, symSize: 0x30 }
  - { offsetInCU: 0x11AEC, offset: 0x11AEC, size: 0x8, addend: 0x0, symName: __ZNSt3__118__unwrap_iter_implINS_11__wrap_iterIP4CellEELb1EE8__unwrapB8ue170006ES4_, symObjAddr: 0x5690, symBinAddr: 0x1000068D0, symSize: 0x20 }
  - { offsetInCU: 0x11B19, offset: 0x11B19, size: 0x8, addend: 0x0, symName: __ZNSt3__119__to_address_helperINS_11__wrap_iterIP4CellEEvE6__callB8ue170006ERKS4_, symObjAddr: 0x56D0, symBinAddr: 0x100006910, symSize: 0x30 }
  - { offsetInCU: 0x11B3C, offset: 0x11B3C, size: 0x8, addend: 0x0, symName: __ZNSt3__114pointer_traitsINS_11__wrap_iterIP4CellEEE10to_addressB8ue170006ES4_, symObjAddr: 0x5700, symBinAddr: 0x100006940, symSize: 0x30 }
  - { offsetInCU: 0x11B5F, offset: 0x11B5F, size: 0x8, addend: 0x0, symName: __ZNKSt3__111__wrap_iterIP4CellE4baseB8ue170006Ev, symObjAddr: 0x5730, symBinAddr: 0x100006970, symSize: 0x20 }
  - { offsetInCU: 0x11B85, offset: 0x11B85, size: 0x8, addend: 0x0, symName: __ZNSt3__16vectorI4CellNS_9allocatorIS1_EEE11__make_iterB8ue170006EPS1_, symObjAddr: 0x5750, symBinAddr: 0x100006990, symSize: 0x30 }
  - { offsetInCU: 0x11BBA, offset: 0x11BBA, size: 0x8, addend: 0x0, symName: __ZNSt3__111__wrap_iterIP4CellEC1B8ue170006ES2_, symObjAddr: 0x5780, symBinAddr: 0x1000069C0, symSize: 0x30 }
  - { offsetInCU: 0x11BF2, offset: 0x11BF2, size: 0x8, addend: 0x0, symName: __ZNSt3__111__wrap_iterIP4CellEC2B8ue170006ES2_, symObjAddr: 0x57B0, symBinAddr: 0x1000069F0, symSize: 0x20 }
  - { offsetInCU: 0x11C2A, offset: 0x11C2A, size: 0x8, addend: 0x0, symName: __ZNSt3__18_IterOpsINS_17_ClassicAlgPolicyEE9iter_swapB8ue170006IRPiS5_EEvOT_OT0_, symObjAddr: 0x5D80, symBinAddr: 0x100006FC0, symSize: 0x30 }
  - { offsetInCU: 0x11C72, offset: 0x11C72, size: 0x8, addend: 0x0, symName: __ZNSt3__18_IterOpsINS_17_ClassicAlgPolicyEE9iter_swapB8ue170006IRPiS4_EEvOT_OT0_, symObjAddr: 0x6290, symBinAddr: 0x1000074D0, symSize: 0x30 }
  - { offsetInCU: 0x11CBA, offset: 0x11CBA, size: 0x8, addend: 0x0, symName: __ZNSt3__18_IterOpsINS_17_ClassicAlgPolicyEE11__iter_moveB8ue170006IRPiEENS_9enable_ifIXsr12is_referenceIDTdeclsr3stdE7declvalIRT_EEEEE5valueEDTclsr3stdE4movedeclsr3stdE7declvalIS8_EEEEE4typeEOS7_, symObjAddr: 0x6DE0, symBinAddr: 0x100008020, symSize: 0x20 }
  - { offsetInCU: 0x11CE6, offset: 0x11CE6, size: 0x8, addend: 0x0, symName: __ZNSt3__18_IterOpsINS_17_ClassicAlgPolicyEE25__validate_iter_referenceB8ue170006IRPiEEvv, symObjAddr: 0x6E00, symBinAddr: 0x100008040, symSize: 0x10 }
  - { offsetInCU: 0x11D04, offset: 0x11D04, size: 0x8, addend: 0x0, symName: __ZNSt3__18_IterOpsINS_17_ClassicAlgPolicyEE4nextB8ue170006IPiEET_S5_S5_, symObjAddr: 0x6E10, symBinAddr: 0x100008050, symSize: 0x20 }
  - { offsetInCU: 0x11D3B, offset: 0x11D3B, size: 0x8, addend: 0x0, symName: __ZNSt3__18_IterOpsINS_17_ClassicAlgPolicyEE9iter_swapB8ue170006IPiS4_EEvOT_OT0_, symObjAddr: 0x7B50, symBinAddr: 0x100008D90, symSize: 0x30 }
  - { offsetInCU: 0x11D97, offset: 0x11D97, size: 0x8, addend: 0x0, symName: __ZNSt3__14pairIPibEC1B8ue170006IRS1_RbLPv0EEEOT_OT0_, symObjAddr: 0x7B80, symBinAddr: 0x100008DC0, symSize: 0x30 }
  - { offsetInCU: 0x11DF5, offset: 0x11DF5, size: 0x8, addend: 0x0, symName: __ZNSt3__14pairIPibEC2B8ue170006IRS1_RbLPv0EEEOT_OT0_, symObjAddr: 0x7BB0, symBinAddr: 0x100008DF0, symSize: 0x30 }
  - { offsetInCU: 0x11E53, offset: 0x11E53, size: 0x8, addend: 0x0, symName: __ZNSt3__118__unwrap_iter_implINS_11__wrap_iterIPiEELb1EE8__unwrapB8ue170006ES3_, symObjAddr: 0x7BE0, symBinAddr: 0x100008E20, symSize: 0x20 }
  - { offsetInCU: 0x11E80, offset: 0x11E80, size: 0x8, addend: 0x0, symName: __ZNSt3__119__to_address_helperINS_11__wrap_iterIPiEEvE6__callB8ue170006ERKS3_, symObjAddr: 0x7C20, symBinAddr: 0x100008E60, symSize: 0x30 }
  - { offsetInCU: 0x11EA3, offset: 0x11EA3, size: 0x8, addend: 0x0, symName: __ZNSt3__114pointer_traitsINS_11__wrap_iterIPiEEE10to_addressB8ue170006ES3_, symObjAddr: 0x7C50, symBinAddr: 0x100008E90, symSize: 0x30 }
  - { offsetInCU: 0x11EC6, offset: 0x11EC6, size: 0x8, addend: 0x0, symName: __ZNKSt3__111__wrap_iterIPiE4baseB8ue170006Ev, symObjAddr: 0x7C80, symBinAddr: 0x100008EC0, symSize: 0x20 }
  - { offsetInCU: 0x11EEC, offset: 0x11EEC, size: 0x8, addend: 0x0, symName: __ZNSt3__16vectorIiNS_9allocatorIiEEE11__make_iterB8ue170006EPi, symObjAddr: 0x7CA0, symBinAddr: 0x100008EE0, symSize: 0x30 }
  - { offsetInCU: 0x11F21, offset: 0x11F21, size: 0x8, addend: 0x0, symName: __ZNSt3__111__wrap_iterIPiEC1B8ue170006ES1_, symObjAddr: 0x7CD0, symBinAddr: 0x100008F10, symSize: 0x30 }
  - { offsetInCU: 0x11F59, offset: 0x11F59, size: 0x8, addend: 0x0, symName: __ZNSt3__111__wrap_iterIPiEC2B8ue170006ES1_, symObjAddr: 0x7D00, symBinAddr: 0x100008F40, symSize: 0x20 }
  - { offsetInCU: 0x11F91, offset: 0x11F91, size: 0x8, addend: 0x0, symName: __ZNSt3__16vectorI4CellNS_9allocatorIS1_EEED2B8ue170006Ev, symObjAddr: 0x7D20, symBinAddr: 0x100008F60, symSize: 0x40 }
  - { offsetInCU: 0x11FBB, offset: 0x11FBB, size: 0x8, addend: 0x0, symName: __ZNSt3__16vectorI4CellNS_9allocatorIS1_EEE16__destroy_vectorC1B8ue170006ERS4_, symObjAddr: 0x7D60, symBinAddr: 0x100008FA0, symSize: 0x30 }
  - { offsetInCU: 0x11FF4, offset: 0x11FF4, size: 0x8, addend: 0x0, symName: __ZNSt3__16vectorI4CellNS_9allocatorIS1_EEE16__destroy_vectorclB8ue170006Ev, symObjAddr: 0x7D90, symBinAddr: 0x100008FD0, symSize: 0x80 }
  - { offsetInCU: 0x1201A, offset: 0x1201A, size: 0x8, addend: 0x0, symName: __ZNSt3__16vectorI4CellNS_9allocatorIS1_EEE16__destroy_vectorC2B8ue170006ERS4_, symObjAddr: 0x7E10, symBinAddr: 0x100009050, symSize: 0x20 }
  - { offsetInCU: 0x12053, offset: 0x12053, size: 0x8, addend: 0x0, symName: __ZNSt3__16vectorI4CellNS_9allocatorIS1_EEE7__clearB8ue170006Ev, symObjAddr: 0x7E30, symBinAddr: 0x100009070, symSize: 0x20 }
  - { offsetInCU: 0x12079, offset: 0x12079, size: 0x8, addend: 0x0, symName: __ZNSt3__16vectorI4CellNS_9allocatorIS1_EEE22__base_destruct_at_endB8ue170006EPS1_, symObjAddr: 0x7E50, symBinAddr: 0x100009090, symSize: 0x80 }
  - { offsetInCU: 0x120BD, offset: 0x120BD, size: 0x8, addend: 0x0, symName: __ZNSt3__16vectorIiNS_9allocatorIiEEED2B8ue170006Ev, symObjAddr: 0x7ED0, symBinAddr: 0x100009110, symSize: 0x40 }
  - { offsetInCU: 0x12105, offset: 0x12105, size: 0x8, addend: 0x0, symName: __ZNKSt3__113basic_ostreamIcNS_11char_traitsIcEEE6sentrycvbB8ue170006Ev, symObjAddr: 0x8100, symBinAddr: 0x100009340, symSize: 0x20 }
  - { offsetInCU: 0x1212B, offset: 0x1212B, size: 0x8, addend: 0x0, symName: __ZNSt3__119ostreambuf_iteratorIcNS_11char_traitsIcEEEC1B8ue170006ERNS_13basic_ostreamIcS2_EE, symObjAddr: 0x8340, symBinAddr: 0x100009580, symSize: 0x30 }
  - { offsetInCU: 0x12163, offset: 0x12163, size: 0x8, addend: 0x0, symName: __ZNKSt3__18ios_base5flagsB8ue170006Ev, symObjAddr: 0x8370, symBinAddr: 0x1000095B0, symSize: 0x20 }
  - { offsetInCU: 0x1218A, offset: 0x1218A, size: 0x8, addend: 0x0, symName: __ZNKSt3__19basic_iosIcNS_11char_traitsIcEEE4fillB8ue170006Ev, symObjAddr: 0x8390, symBinAddr: 0x1000095D0, symSize: 0x70 }
  - { offsetInCU: 0x121B1, offset: 0x121B1, size: 0x8, addend: 0x0, symName: __ZNKSt3__119ostreambuf_iteratorIcNS_11char_traitsIcEEE6failedB8ue170006Ev, symObjAddr: 0x8400, symBinAddr: 0x100009640, symSize: 0x20 }
  - { offsetInCU: 0x121D7, offset: 0x121D7, size: 0x8, addend: 0x0, symName: __ZNSt3__19basic_iosIcNS_11char_traitsIcEEE8setstateB8ue170006Ej, symObjAddr: 0x8420, symBinAddr: 0x100009660, symSize: 0x30 }
  - { offsetInCU: 0x1220C, offset: 0x1220C, size: 0x8, addend: 0x0, symName: __ZNKSt3__18ios_base5widthB8ue170006Ev, symObjAddr: 0x8450, symBinAddr: 0x100009690, symSize: 0x20 }
  - { offsetInCU: 0x12233, offset: 0x12233, size: 0x8, addend: 0x0, symName: __ZNSt3__115basic_streambufIcNS_11char_traitsIcEEE5sputnB8ue170006EPKcl, symObjAddr: 0x8470, symBinAddr: 0x1000096B0, symSize: 0x30 }
  - { offsetInCU: 0x12275, offset: 0x12275, size: 0x8, addend: 0x0, symName: __ZNSt3__112basic_stringIcNS_11char_traitsIcEENS_9allocatorIcEEEC1B8ue170006Emc, symObjAddr: 0x84A0, symBinAddr: 0x1000096E0, symSize: 0x30 }
  - { offsetInCU: 0x122BD, offset: 0x122BD, size: 0x8, addend: 0x0, symName: __ZNSt3__112basic_stringIcNS_11char_traitsIcEENS_9allocatorIcEEE4dataB8ue170006Ev, symObjAddr: 0x84D0, symBinAddr: 0x100009710, symSize: 0x30 }
  - { offsetInCU: 0x122E3, offset: 0x122E3, size: 0x8, addend: 0x0, symName: __ZNSt3__18ios_base5widthB8ue170006El, symObjAddr: 0x8500, symBinAddr: 0x100009740, symSize: 0x30 }
  - { offsetInCU: 0x12328, offset: 0x12328, size: 0x8, addend: 0x0, symName: __ZNSt3__112basic_stringIcNS_11char_traitsIcEENS_9allocatorIcEEEC2B8ue170006Emc, symObjAddr: 0x8530, symBinAddr: 0x100009770, symSize: 0x50 }
  - { offsetInCU: 0x12370, offset: 0x12370, size: 0x8, addend: 0x0, symName: __ZNSt3__117__compressed_pairINS_12basic_stringIcNS_11char_traitsIcEENS_9allocatorIcEEE5__repES5_EC1B8ue170006INS_18__default_init_tagESA_EEOT_OT0_, symObjAddr: 0x8580, symBinAddr: 0x1000097C0, symSize: 0x30 }
  - { offsetInCU: 0x123C8, offset: 0x123C8, size: 0x8, addend: 0x0, symName: __ZNSt3__117__compressed_pairINS_12basic_stringIcNS_11char_traitsIcEENS_9allocatorIcEEE5__repES5_EC2B8ue170006INS_18__default_init_tagESA_EEOT_OT0_, symObjAddr: 0x85B0, symBinAddr: 0x1000097F0, symSize: 0x30 }
  - { offsetInCU: 0x12420, offset: 0x12420, size: 0x8, addend: 0x0, symName: __ZNSt3__122__compressed_pair_elemINS_12basic_stringIcNS_11char_traitsIcEENS_9allocatorIcEEE5__repELi0ELb0EEC2B8ue170006ENS_18__default_init_tagE, symObjAddr: 0x85E0, symBinAddr: 0x100009820, symSize: 0x10 }
  - { offsetInCU: 0x12455, offset: 0x12455, size: 0x8, addend: 0x0, symName: __ZNSt3__122__compressed_pair_elemINS_9allocatorIcEELi1ELb1EEC2B8ue170006ENS_18__default_init_tagE, symObjAddr: 0x85F0, symBinAddr: 0x100009830, symSize: 0x20 }
  - { offsetInCU: 0x1248A, offset: 0x1248A, size: 0x8, addend: 0x0, symName: __ZNSt3__19allocatorIcEC2B8ue170006Ev, symObjAddr: 0x8610, symBinAddr: 0x100009850, symSize: 0x20 }
  - { offsetInCU: 0x124B4, offset: 0x124B4, size: 0x8, addend: 0x0, symName: __ZNSt3__116__non_trivial_ifILb1ENS_9allocatorIcEEEC2B8ue170006Ev, symObjAddr: 0x8630, symBinAddr: 0x100009870, symSize: 0x10 }
  - { offsetInCU: 0x124DE, offset: 0x124DE, size: 0x8, addend: 0x0, symName: __ZNSt3__112basic_stringIcNS_11char_traitsIcEENS_9allocatorIcEEE13__get_pointerB8ue170006Ev, symObjAddr: 0x8650, symBinAddr: 0x100009890, symSize: 0x50 }
  - { offsetInCU: 0x12504, offset: 0x12504, size: 0x8, addend: 0x0, symName: __ZNKSt3__112basic_stringIcNS_11char_traitsIcEENS_9allocatorIcEEE9__is_longB8ue170006Ev, symObjAddr: 0x86A0, symBinAddr: 0x1000098E0, symSize: 0x30 }
  - { offsetInCU: 0x1252A, offset: 0x1252A, size: 0x8, addend: 0x0, symName: __ZNSt3__112basic_stringIcNS_11char_traitsIcEENS_9allocatorIcEEE18__get_long_pointerB8ue170006Ev, symObjAddr: 0x86D0, symBinAddr: 0x100009910, symSize: 0x20 }
  - { offsetInCU: 0x12550, offset: 0x12550, size: 0x8, addend: 0x0, symName: __ZNSt3__112basic_stringIcNS_11char_traitsIcEENS_9allocatorIcEEE19__get_short_pointerB8ue170006Ev, symObjAddr: 0x86F0, symBinAddr: 0x100009930, symSize: 0x30 }
  - { offsetInCU: 0x12576, offset: 0x12576, size: 0x8, addend: 0x0, symName: __ZNKSt3__117__compressed_pairINS_12basic_stringIcNS_11char_traitsIcEENS_9allocatorIcEEE5__repES5_E5firstB8ue170006Ev, symObjAddr: 0x8720, symBinAddr: 0x100009960, symSize: 0x20 }
  - { offsetInCU: 0x1259C, offset: 0x1259C, size: 0x8, addend: 0x0, symName: __ZNKSt3__122__compressed_pair_elemINS_12basic_stringIcNS_11char_traitsIcEENS_9allocatorIcEEE5__repELi0ELb0EE5__getB8ue170006Ev, symObjAddr: 0x8740, symBinAddr: 0x100009980, symSize: 0x10 }
  - { offsetInCU: 0x125C2, offset: 0x125C2, size: 0x8, addend: 0x0, symName: __ZNSt3__117__compressed_pairINS_12basic_stringIcNS_11char_traitsIcEENS_9allocatorIcEEE5__repES5_E5firstB8ue170006Ev, symObjAddr: 0x8750, symBinAddr: 0x100009990, symSize: 0x20 }
  - { offsetInCU: 0x125E8, offset: 0x125E8, size: 0x8, addend: 0x0, symName: __ZNSt3__122__compressed_pair_elemINS_12basic_stringIcNS_11char_traitsIcEENS_9allocatorIcEEE5__repELi0ELb0EE5__getB8ue170006Ev, symObjAddr: 0x8770, symBinAddr: 0x1000099B0, symSize: 0x10 }
  - { offsetInCU: 0x1260E, offset: 0x1260E, size: 0x8, addend: 0x0, symName: __ZNSt3__114pointer_traitsIPcE10pointer_toB8ue170006ERc, symObjAddr: 0x8780, symBinAddr: 0x1000099C0, symSize: 0x10 }
  - { offsetInCU: 0x12631, offset: 0x12631, size: 0x8, addend: 0x0, symName: __ZNSt3__119ostreambuf_iteratorIcNS_11char_traitsIcEEEC2B8ue170006ERNS_13basic_ostreamIcS2_EE, symObjAddr: 0x8790, symBinAddr: 0x1000099D0, symSize: 0x50 }
  - { offsetInCU: 0x12669, offset: 0x12669, size: 0x8, addend: 0x0, symName: __ZNKSt3__19basic_iosIcNS_11char_traitsIcEEE5rdbufB8ue170006Ev, symObjAddr: 0x87E0, symBinAddr: 0x100009A20, symSize: 0x20 }
  - { offsetInCU: 0x12690, offset: 0x12690, size: 0x8, addend: 0x0, symName: __ZNKSt3__18ios_base5rdbufB8ue170006Ev, symObjAddr: 0x8800, symBinAddr: 0x100009A40, symSize: 0x20 }
  - { offsetInCU: 0x126B6, offset: 0x126B6, size: 0x8, addend: 0x0, symName: __ZNSt3__111char_traitsIcE11eq_int_typeB8ue170006Eii, symObjAddr: 0x8820, symBinAddr: 0x100009A60, symSize: 0x20 }
  - { offsetInCU: 0x126E9, offset: 0x126E9, size: 0x8, addend: 0x0, symName: __ZNSt3__111char_traitsIcE3eofB8ue170006Ev, symObjAddr: 0x8840, symBinAddr: 0x100009A80, symSize: 0x10 }
  - { offsetInCU: 0x126FD, offset: 0x126FD, size: 0x8, addend: 0x0, symName: __ZNKSt3__19basic_iosIcNS_11char_traitsIcEEE5widenB8ue170006Ec, symObjAddr: 0x8850, symBinAddr: 0x100009A90, symSize: 0x80 }
  - { offsetInCU: 0x1276A, offset: 0x1276A, size: 0x8, addend: 0x0, symName: __ZNKSt3__15ctypeIcE5widenB8ue170006Ec, symObjAddr: 0x8900, symBinAddr: 0x100009B40, symSize: 0x30 }
  - { offsetInCU: 0x1279F, offset: 0x1279F, size: 0x8, addend: 0x0, symName: __ZNSt3__18ios_base8setstateB8ue170006Ej, symObjAddr: 0x8930, symBinAddr: 0x100009B70, symSize: 0x24 }
...
