---
triple:          'x86_64-apple-darwin'
binary-path:     d
relocations:
  - { offset: 0x56, size: 0x8, addend: 0x0, symName: __ZNSt3__115strong_ordering5equalE, symObjAddr: 0x799B, symBinAddr: 0x100008DF3, symSize: 0x0 }
  - { offset: 0x59DB, size: 0x8, addend: 0x0, symName: __ZNSt3__17advanceB8ne180100IPNS_5tupleIJiiiEEEllvEEvRT_T0_, symObjAddr: 0x1E50, symBinAddr: 0x1000031D0, symSize: 0x30 }
  - { offset: 0x5C5B, size: 0x8, addend: 0x0, symName: __ZNSt3__17advanceB8ne180100INS_16reverse_iteratorIPNS_5tupleIJiiiEEEEEllvEEvRT_T0_, symObjAddr: 0x2240, symBinAddr: 0x1000035C0, symSize: 0x30 }
  - { offset: 0x5CC6, size: 0x8, addend: 0x0, symName: __ZNSt3__111__introsortINS_17_ClassicAlgPolicyERNS_6__lessIvvEEPNS_5tupleIJiiiEEELb0EEEvT1_S8_T0_NS_15iterator_traitsIS8_E15difference_typeEb, symObjAddr: 0x28A0, symBinAddr: 0x100003C20, symSize: 0x440 }
  - { offset: 0x5E2E, size: 0x8, addend: 0x0, symName: __ZNSt3__126__insertion_sort_unguardedB8ne180100INS_17_ClassicAlgPolicyERNS_6__lessIvvEEPNS_5tupleIJiiiEEEEEvT1_S8_T0_, symObjAddr: 0x2F80, symBinAddr: 0x100004300, symSize: 0x110 }
  - { offset: 0x5F1F, size: 0x8, addend: 0x0, symName: __ZNSt3__111__sift_downB8ne180100INS_17_ClassicAlgPolicyERNS_6__lessIvvEEPNS_5tupleIJiiiEEEEEvT1_OT0_NS_15iterator_traitsIS8_E15difference_typeES8_, symObjAddr: 0x4600, symBinAddr: 0x100005980, symSize: 0x1E0 }
  - { offset: 0x5FCC, size: 0x8, addend: 0x0, symName: __ZNSt3__117__floyd_sift_downB8ne180100INS_17_ClassicAlgPolicyERNS_6__lessIvvEEPNS_5tupleIJiiiEEEEET1_S8_OT0_NS_15iterator_traitsIS8_E15difference_typeE, symObjAddr: 0x4970, symBinAddr: 0x100005CF0, symSize: 0x100 }
  - { offset: 0x6064, size: 0x8, addend: 0x0, symName: __ZNSt3__131__partition_with_equals_on_leftB8ne180100INS_17_ClassicAlgPolicyEPNS_5tupleIJiiiEEERNS_6__lessIvvEEEET0_S8_S8_T1_, symObjAddr: 0x3290, symBinAddr: 0x100004610, symSize: 0x1E0 }
  - { offset: 0x611F, size: 0x8, addend: 0x0, symName: __ZNSt3__118__bitset_partitionB8ne180100INS_17_ClassicAlgPolicyEPNS_5tupleIJiiiEEERNS_6__lessIvvEEEENS_4pairIT0_bEES9_S9_T1_, symObjAddr: 0x3470, symBinAddr: 0x1000047F0, symSize: 0x2C0 }
  - { offset: 0x621C, size: 0x8, addend: 0x0, symName: __ZNSt3__124__swap_bitmap_pos_withinB8ne180100INS_17_ClassicAlgPolicyEPNS_5tupleIJiiiEEEEEvRT0_S6_RyS7_, symObjAddr: 0x4FE0, symBinAddr: 0x100006360, symSize: 0x180 }
  - { offset: 0x62E9, size: 0x8, addend: 0x0, symName: __ZNSt3__132__partition_with_equals_on_rightB8ne180100INS_17_ClassicAlgPolicyEPNS_5tupleIJiiiEEERNS_6__lessIvvEEEENS_4pairIT0_bEES9_S9_T1_, symObjAddr: 0x3730, symBinAddr: 0x100004AB0, symSize: 0x1E0 }
  - { offset: 0x63B6, size: 0x8, addend: 0x0, symName: __ZNSt3__127__insertion_sort_incompleteB8ne180100INS_17_ClassicAlgPolicyERNS_6__lessIvvEEPNS_5tupleIJiiiEEEEEbT1_S8_T0_, symObjAddr: 0x3910, symBinAddr: 0x100004C90, symSize: 0x2A0 }
  - { offset: 0x7DE9, size: 0x8, addend: 0x0, symName: __ZNSt3__117__floyd_sift_downB8ne180100INS_17_ClassicAlgPolicyERNS_4lessIiEENS_11__wrap_iterIPiEEEET1_S8_OT0_NS_15iterator_traitsIS8_E15difference_typeE, symObjAddr: 0x7500, symBinAddr: 0x100008880, symSize: 0x130 }
  - { offset: 0x828F, size: 0x8, addend: 0x0, symName: __ZNSt3__14sortB8ne180100INS_11__wrap_iterIPNS_5tupleIJiiiEEEEEEEvT_S6_, symObjAddr: 0x540, symBinAddr: 0x1000018C0, symSize: 0x40 }
  - { offset: 0x8536, size: 0x8, addend: 0x0, symName: __ZNSt3__1neB8ne180100IPNS_5tupleIJiiiEEEEEbRKNS_11__wrap_iterIT_EES8_, symObjAddr: 0x600, symBinAddr: 0x100001980, symSize: 0x30 }
  - { offset: 0x8579, size: 0x8, addend: 0x0, symName: __ZNSt3__13getB8ne180100ILm0EJiiiEEERNS_13tuple_elementIXT_ENS_5tupleIJDpT0_EEEE4typeERS5_, symObjAddr: 0x650, symBinAddr: 0x1000019D0, symSize: 0x20 }
  - { offset: 0x85C6, size: 0x8, addend: 0x0, symName: __ZNSt3__13getB8ne180100ILm1EJiiiEEERNS_13tuple_elementIXT_ENS_5tupleIJDpT0_EEEE4typeERS5_, symObjAddr: 0x670, symBinAddr: 0x1000019F0, symSize: 0x20 }
  - { offset: 0x8613, size: 0x8, addend: 0x0, symName: __ZNSt3__13getB8ne180100ILm2EJiiiEEERNS_13tuple_elementIXT_ENS_5tupleIJDpT0_EEEE4typeERS5_, symObjAddr: 0x690, symBinAddr: 0x100001A10, symSize: 0x20 }
  - { offset: 0x92BE, size: 0x8, addend: 0x0, symName: __ZNSt3__14endlB8ne180100IcNS_11char_traitsIcEEEERNS_13basic_ostreamIT_T0_EES7_, symObjAddr: 0x7B0, symBinAddr: 0x100001B30, symSize: 0x50 }
  - { offset: 0x92FE, size: 0x8, addend: 0x0, symName: __ZNSt3__112__to_addressB8ne180100INS_5tupleIJiiiEEEEEPT_S4_, symObjAddr: 0xC40, symBinAddr: 0x100001FC0, symSize: 0x10 }
  - { offset: 0x9333, size: 0x8, addend: 0x0, symName: __ZNSt3__114__construct_atB8ne180100INS_5tupleIJiiiEEEJRiS3_iEPS2_EEPT_S6_DpOT0_, symObjAddr: 0xCB0, symBinAddr: 0x100002030, symSize: 0x40 }
  - { offset: 0x93AC, size: 0x8, addend: 0x0, symName: __ZNSt3__112construct_atB8ne180100INS_5tupleIJiiiEEEJRiS3_iEPS2_EEPT_S6_DpOT0_, symObjAddr: 0xCF0, symBinAddr: 0x100002070, symSize: 0x40 }
  - { offset: 0x945E, size: 0x8, addend: 0x0, symName: __ZNSt3__13maxB8ne180100ImEERKT_S3_S3_, symObjAddr: 0x1200, symBinAddr: 0x100002580, symSize: 0x30 }
  - { offset: 0x94A1, size: 0x8, addend: 0x0, symName: __ZNSt3__13minB8ne180100ImEERKT_S3_S3_, symObjAddr: 0x1230, symBinAddr: 0x1000025B0, symSize: 0x30 }
  - { offset: 0x96CE, size: 0x8, addend: 0x0, symName: __ZNSt3__13minB8ne180100ImNS_6__lessIvvEEEERKT_S5_S5_T0_, symObjAddr: 0x12C0, symBinAddr: 0x100002640, symSize: 0x50 }
  - { offset: 0x998A, size: 0x8, addend: 0x0, symName: __ZNSt3__120__throw_length_errorB8ne180100EPKc, symObjAddr: 0x13A0, symBinAddr: 0x100002720, symSize: 0x70 }
  - { offset: 0x99B2, size: 0x8, addend: 0x0, symName: __ZNSt3__13maxB8ne180100ImNS_6__lessIvvEEEERKT_S5_S5_T0_, symObjAddr: 0x14D0, symBinAddr: 0x100002850, symSize: 0x50 }
  - { offset: 0x9A0C, size: 0x8, addend: 0x0, symName: __ZNSt3__119__allocate_at_leastB8ne180100INS_9allocatorINS_5tupleIJiiiEEEEEEENS_19__allocation_resultINS_16allocator_traitsIT_E7pointerEEERS7_m, symObjAddr: 0x1610, symBinAddr: 0x100002990, symSize: 0x40 }
  - { offset: 0x9A4F, size: 0x8, addend: 0x0, symName: __ZNSt3__117__libcpp_allocateB8ne180100Emm, symObjAddr: 0x1780, symBinAddr: 0x100002B00, symSize: 0x60 }
  - { offset: 0x9AA9, size: 0x8, addend: 0x0, symName: __ZNSt3__124__is_overaligned_for_newB8ne180100Em, symObjAddr: 0x17E0, symBinAddr: 0x100002B60, symSize: 0x20 }
  - { offset: 0x9AD7, size: 0x8, addend: 0x0, symName: __ZNSt3__121__libcpp_operator_newB8ne180100IJmSt11align_val_tEEEPvDpT_, symObjAddr: 0x1800, symBinAddr: 0x100002B80, symSize: 0x30 }
  - { offset: 0x9B24, size: 0x8, addend: 0x0, symName: __ZNSt3__121__libcpp_operator_newB8ne180100IJmEEEPvDpT_, symObjAddr: 0x1830, symBinAddr: 0x100002BB0, symSize: 0x20 }
  - { offset: 0x9B5D, size: 0x8, addend: 0x0, symName: __ZNSt3__142__uninitialized_allocator_move_if_noexceptB8ne180100INS_9allocatorINS_5tupleIJiiiEEEEENS_16reverse_iteratorIPS3_EES7_S7_EET2_RT_T0_T1_S8_, symObjAddr: 0x18C0, symBinAddr: 0x100002C40, symSize: 0x180 }
  - { offset: 0x9BFC, size: 0x8, addend: 0x0, symName: __ZNSt3__14swapB8ne180100IPNS_5tupleIJiiiEEEEENS_9enable_ifIXaasr21is_move_constructibleIT_EE5valuesr18is_move_assignableIS5_EE5valueEvE4typeERS5_S8_, symObjAddr: 0x1A90, symBinAddr: 0x100002E10, symSize: 0x40 }
  - { offset: 0x9C4D, size: 0x8, addend: 0x0, symName: __ZNSt3__122__make_exception_guardB8ne180100INS_29_AllocatorDestroyRangeReverseINS_9allocatorINS_5tupleIJiiiEEEEENS_16reverse_iteratorIPS4_EEEEEENS_28__exception_guard_exceptionsIT_EESB_, symObjAddr: 0x1AE0, symBinAddr: 0x100002E60, symSize: 0x60 }
  - { offset: 0x9C82, size: 0x8, addend: 0x0, symName: __ZNSt3__1neB8ne180100IPNS_5tupleIJiiiEEES3_EEbRKNS_16reverse_iteratorIT_EERKNS4_IT0_EE, symObjAddr: 0x1B80, symBinAddr: 0x100002F00, symSize: 0x40 }
  - { offset: 0x9CCE, size: 0x8, addend: 0x0, symName: __ZNSt3__112__to_addressB8ne180100INS_16reverse_iteratorIPNS_5tupleIJiiiEEEEEvEEu7__decayIDTclsr19__to_address_helperIT_EE6__callclsr3stdE7declvalIRKS6_EEEEES8_, symObjAddr: 0x1BF0, symBinAddr: 0x100002F70, symSize: 0x20 }
  - { offset: 0x9D04, size: 0x8, addend: 0x0, symName: __ZNSt3__114__construct_atB8ne180100INS_5tupleIJiiiEEEJS2_EPS2_EEPT_S5_DpOT0_, symObjAddr: 0x1D50, symBinAddr: 0x1000030D0, symSize: 0x30 }
  - { offset: 0x9D57, size: 0x8, addend: 0x0, symName: __ZNSt3__112construct_atB8ne180100INS_5tupleIJiiiEEEJS2_EPS2_EEPT_S5_DpOT0_, symObjAddr: 0x1D80, symBinAddr: 0x100003100, symSize: 0x30 }
  - { offset: 0x9DD3, size: 0x8, addend: 0x0, symName: __ZNSt3__14prevB8ne180100IPNS_5tupleIJiiiEEELi0EEET_S4_NS_15iterator_traitsIS4_E15difference_typeE, symObjAddr: 0x1E20, symBinAddr: 0x1000031A0, symSize: 0x30 }
  - { offset: 0x9E1C, size: 0x8, addend: 0x0, symName: __ZNSt3__121__convert_to_integralB8ne180100El, symObjAddr: 0x1E80, symBinAddr: 0x100003200, symSize: 0x10 }
  - { offset: 0x9E48, size: 0x8, addend: 0x0, symName: __ZNSt3__19__advanceB8ne180100IPNS_5tupleIJiiiEEEEEvRT_NS_15iterator_traitsIS4_E15difference_typeENS_26random_access_iterator_tagE, symObjAddr: 0x1E90, symBinAddr: 0x100003210, symSize: 0x20 }
  - { offset: 0x9E91, size: 0x8, addend: 0x0, symName: __ZNSt3__119__allocator_destroyB8ne180100INS_9allocatorINS_5tupleIJiiiEEEEENS_16reverse_iteratorINS5_IPS3_EEEES8_EEvRT_T0_T1_, symObjAddr: 0x1FE0, symBinAddr: 0x100003360, symSize: 0x70 }
  - { offset: 0x9EF4, size: 0x8, addend: 0x0, symName: __ZNSt3__1neB8ne180100INS_16reverse_iteratorIPNS_5tupleIJiiiEEEEES5_EEbRKNS1_IT_EERKNS1_IT0_EE, symObjAddr: 0x2080, symBinAddr: 0x100003400, symSize: 0x50 }
  - { offset: 0x9F40, size: 0x8, addend: 0x0, symName: __ZNSt3__112__to_addressB8ne180100INS_16reverse_iteratorINS1_IPNS_5tupleIJiiiEEEEEEEvEEu7__decayIDTclsr19__to_address_helperIT_EE6__callclsr3stdE7declvalIRKS7_EEEEES9_, symObjAddr: 0x20F0, symBinAddr: 0x100003470, symSize: 0x20 }
  - { offset: 0x9F76, size: 0x8, addend: 0x0, symName: __ZNSt3__112__destroy_atB8ne180100INS_5tupleIJiiiEEELi0EEEvPT_, symObjAddr: 0x2160, symBinAddr: 0x1000034E0, symSize: 0x10 }
  - { offset: 0x9FD6, size: 0x8, addend: 0x0, symName: __ZNSt3__14prevB8ne180100INS_16reverse_iteratorIPNS_5tupleIJiiiEEEEELi0EEET_S6_NS_15iterator_traitsIS6_E15difference_typeE, symObjAddr: 0x2200, symBinAddr: 0x100003580, symSize: 0x40 }
  - { offset: 0xA01F, size: 0x8, addend: 0x0, symName: __ZNSt3__19__advanceB8ne180100INS_16reverse_iteratorIPNS_5tupleIJiiiEEEEEEEvRT_NS_15iterator_traitsIS6_E15difference_typeENS_26random_access_iterator_tagE, symObjAddr: 0x2270, symBinAddr: 0x1000035F0, symSize: 0x30 }
  - { offset: 0xA068, size: 0x8, addend: 0x0, symName: __ZNSt3__119__libcpp_deallocateB8ne180100EPvmm, symObjAddr: 0x2560, symBinAddr: 0x1000038E0, symSize: 0x60 }
  - { offset: 0xA0CD, size: 0x8, addend: 0x0, symName: __ZNSt3__127__do_deallocate_handle_sizeB8ne180100IJSt11align_val_tEEEvPvmDpT_, symObjAddr: 0x25C0, symBinAddr: 0x100003940, symSize: 0x30 }
  - { offset: 0xA120, size: 0x8, addend: 0x0, symName: __ZNSt3__127__do_deallocate_handle_sizeB8ne180100IJEEEvPvmDpT_, symObjAddr: 0x25F0, symBinAddr: 0x100003970, symSize: 0x20 }
  - { offset: 0xA15E, size: 0x8, addend: 0x0, symName: __ZNSt3__124__libcpp_operator_deleteB8ne180100IJPvSt11align_val_tEEEvDpT_, symObjAddr: 0x2610, symBinAddr: 0x100003990, symSize: 0x30 }
  - { offset: 0xA1A7, size: 0x8, addend: 0x0, symName: __ZNSt3__124__libcpp_operator_deleteB8ne180100IJPvEEEvDpT_, symObjAddr: 0x2640, symBinAddr: 0x1000039C0, symSize: 0x20 }
  - { offset: 0xA1DC, size: 0x8, addend: 0x0, symName: __ZNSt3__14sortB8ne180100INS_11__wrap_iterIPNS_5tupleIJiiiEEEEENS_6__lessIvvEEEEvT_S8_T0_, symObjAddr: 0x26A0, symBinAddr: 0x100003A20, symSize: 0x40 }
  - { offset: 0xA236, size: 0x8, addend: 0x0, symName: __ZNSt3__111__sort_implB8ne180100INS_17_ClassicAlgPolicyENS_11__wrap_iterIPNS_5tupleIJiiiEEEEENS_6__lessIvvEEEEvT0_S9_RT1_, symObjAddr: 0x26E0, symBinAddr: 0x100003A60, symSize: 0xB0 }
  - { offset: 0xA299, size: 0x8, addend: 0x0, symName: __ZNSt3__123__debug_randomize_rangeB8ne180100INS_17_ClassicAlgPolicyENS_11__wrap_iterIPNS_5tupleIJiiiEEEEES6_EEvT0_T1_, symObjAddr: 0x2790, symBinAddr: 0x100003B10, symSize: 0x10 }
  - { offset: 0xA2EA, size: 0x8, addend: 0x0, symName: __ZNSt3__115__sort_dispatchB8ne180100INS_17_ClassicAlgPolicyEPNS_5tupleIJiiiEEENS_6__lessIvvEEEEvT0_S7_RT1_, symObjAddr: 0x27A0, symBinAddr: 0x100003B20, symSize: 0x60 }
  - { offset: 0xA368, size: 0x8, addend: 0x0, symName: __ZNSt3__113__unwrap_iterB8ne180100INS_11__wrap_iterIPNS_5tupleIJiiiEEEEENS_18__unwrap_iter_implIS5_Lb1EEELi0EEEDTclsrT0_8__unwrapclsr3stdE7declvalIT_EEEES9_, symObjAddr: 0x2800, symBinAddr: 0x100003B80, symSize: 0x30 }
  - { offset: 0xA3AC, size: 0x8, addend: 0x0, symName: __ZNSt3__135__check_strict_weak_ordering_sortedB8ne180100IPNS_5tupleIJiiiEEENS_6__lessIvvEEEEvT_S6_RT0_, symObjAddr: 0x2830, symBinAddr: 0x100003BB0, symSize: 0x20 }
  - { offset: 0xA402, size: 0x8, addend: 0x0, symName: __ZNSt3__17__log2iB8ne180100IlEET_S1_, symObjAddr: 0x2850, symBinAddr: 0x100003BD0, symSize: 0x50 }
  - { offset: 0xA439, size: 0x8, addend: 0x0, symName: __ZNSt3__112__libcpp_clzB8ne180100Em, symObjAddr: 0x2CE0, symBinAddr: 0x100004060, symSize: 0x20 }
  - { offset: 0xA5E8, size: 0x8, addend: 0x0, symName: __ZNSt3__124__sort3_maybe_branchlessB8ne180100INS_17_ClassicAlgPolicyERNS_6__lessIvvEEPNS_5tupleIJiiiEEELi0EEEvT1_S8_S8_T0_, symObjAddr: 0x2D80, symBinAddr: 0x100004100, symSize: 0x40 }
  - { offset: 0xA65B, size: 0x8, addend: 0x0, symName: __ZNSt3__124__sort4_maybe_branchlessB8ne180100INS_17_ClassicAlgPolicyERNS_6__lessIvvEEPNS_5tupleIJiiiEEELi0EEEvT1_S8_S8_S8_T0_, symObjAddr: 0x2DC0, symBinAddr: 0x100004140, symSize: 0x40 }
  - { offset: 0xA6DC, size: 0x8, addend: 0x0, symName: __ZNSt3__124__sort5_maybe_branchlessB8ne180100INS_17_ClassicAlgPolicyERNS_6__lessIvvEEPNS_5tupleIJiiiEEELi0EEEvT1_S8_S8_S8_S8_T0_, symObjAddr: 0x2E00, symBinAddr: 0x100004180, symSize: 0x50 }
  - { offset: 0xA772, size: 0x8, addend: 0x0, symName: __ZNSt3__116__insertion_sortB8ne180100INS_17_ClassicAlgPolicyERNS_6__lessIvvEEPNS_5tupleIJiiiEEEEEvT1_S8_T0_, symObjAddr: 0x2E50, symBinAddr: 0x1000041D0, symSize: 0x130 }
  - { offset: 0xA839, size: 0x8, addend: 0x0, symName: __ZNSt3__114__partial_sortB8ne180100INS_17_ClassicAlgPolicyERNS_6__lessIvvEEPNS_5tupleIJiiiEEES7_EET1_S8_S8_T2_RT0_, symObjAddr: 0x3090, symBinAddr: 0x100004410, symSize: 0x90 }
  - { offset: 0xA8C1, size: 0x8, addend: 0x0, symName: __ZNSt3__17__sort3B8ne180100INS_17_ClassicAlgPolicyERNS_6__lessIvvEEPNS_5tupleIJiiiEEEEEjT1_S8_S8_T0_, symObjAddr: 0x3120, symBinAddr: 0x1000044A0, symSize: 0x140 }
  - { offset: 0xA940, size: 0x8, addend: 0x0, symName: __ZNSt3__1ltB8ne180100ENS_15strong_orderingENS_20_CmpUnspecifiedParamE, symObjAddr: 0x3BB0, symBinAddr: 0x100004F30, symSize: 0x20 }
  - { offset: 0xA976, size: 0x8, addend: 0x0, symName: __ZNSt3__1ssB8ne180100IJiiiEJiiiEEENS_26common_comparison_categoryIJDpDTclsr3stdE17__synth_three_wayclsr3stdE7declvalIRT_EEclsr3stdE7declvalIRT0_EEEEEE4typeERKNS_5tupleIJDpS2_EEERKNSA_IJDpS4_EEE, symObjAddr: 0x3BD0, symBinAddr: 0x100004F50, symSize: 0x30 }
  - { offset: 0xA9F9, size: 0x8, addend: 0x0, symName: __ZNSt3__125__tuple_compare_three_wayB8ne180100IJiiiEJiiiEJLm0ELm1ELm2EEEEDaRKNS_5tupleIJDpT_EEERKNS2_IJDpT0_EEENS_16integer_sequenceImJXspT1_EEEE, symObjAddr: 0x3C30, symBinAddr: 0x100004FB0, symSize: 0x130 }
  - { offset: 0xAA92, size: 0x8, addend: 0x0, symName: __ZNSt3__117__synth_three_wayB8ne180100IiiEEDaRKT_RKT0_, symObjAddr: 0x3D60, symBinAddr: 0x1000050E0, symSize: 0x70 }
  - { offset: 0xAADE, size: 0x8, addend: 0x0, symName: __ZNSt3__13getB8ne180100ILm0EJiiiEEERKNS_13tuple_elementIXT_ENS_5tupleIJDpT0_EEEE4typeERKS5_, symObjAddr: 0x3DD0, symBinAddr: 0x100005150, symSize: 0x20 }
  - { offset: 0xAB2B, size: 0x8, addend: 0x0, symName: __ZNSt3__1eqB8ne180100ENS_15strong_orderingENS_20_CmpUnspecifiedParamE, symObjAddr: 0x3DF0, symBinAddr: 0x100005170, symSize: 0x20 }
  - { offset: 0xAB61, size: 0x8, addend: 0x0, symName: __ZNSt3__13getB8ne180100ILm1EJiiiEEERKNS_13tuple_elementIXT_ENS_5tupleIJDpT0_EEEE4typeERKS5_, symObjAddr: 0x3E10, symBinAddr: 0x100005190, symSize: 0x20 }
  - { offset: 0xABAE, size: 0x8, addend: 0x0, symName: __ZNSt3__13getB8ne180100ILm2EJiiiEEERKNS_13tuple_elementIXT_ENS_5tupleIJDpT0_EEEE4typeERKS5_, symObjAddr: 0x3E30, symBinAddr: 0x1000051B0, symSize: 0x20 }
  - { offset: 0xABFB, size: 0x8, addend: 0x0, symName: __ZNSt3__19iter_swapB8ne180100IPNS_5tupleIJiiiEEES3_EEvT_T0_, symObjAddr: 0x3E90, symBinAddr: 0x100005210, symSize: 0x30 }
  - { offset: 0xAC43, size: 0x8, addend: 0x0, symName: __ZNSt3__14swapB8ne180100IJiiiELi0EEEvRNS_5tupleIJDpT_EEES5_, symObjAddr: 0x3EC0, symBinAddr: 0x100005240, symSize: 0x30 }
  - { offset: 0xAC97, size: 0x8, addend: 0x0, symName: __ZNSt3__19__swallowB8ne180100IJiiiEEEvDpOT_, symObjAddr: 0x3F90, symBinAddr: 0x100005310, symSize: 0x20 }
  - { offset: 0xACE8, size: 0x8, addend: 0x0, symName: __ZNSt3__14swapB8ne180100ILm0EiLb0EEEvRNS_12__tuple_leafIXT_ET0_XT1_EEES4_, symObjAddr: 0x4040, symBinAddr: 0x1000053C0, symSize: 0x40 }
  - { offset: 0xAD3E, size: 0x8, addend: 0x0, symName: __ZNSt3__14swapB8ne180100IiEENS_9enable_ifIXaasr21is_move_constructibleIT_EE5valuesr18is_move_assignableIS2_EE5valueEvE4typeERS2_S5_, symObjAddr: 0x4080, symBinAddr: 0x100005400, symSize: 0x30 }
  - { offset: 0xAD8F, size: 0x8, addend: 0x0, symName: __ZNSt3__14swapB8ne180100ILm1EiLb0EEEvRNS_12__tuple_leafIXT_ET0_XT1_EEES4_, symObjAddr: 0x40C0, symBinAddr: 0x100005440, symSize: 0x40 }
  - { offset: 0xADE5, size: 0x8, addend: 0x0, symName: __ZNSt3__14swapB8ne180100ILm2EiLb0EEEvRNS_12__tuple_leafIXT_ET0_XT1_EEES4_, symObjAddr: 0x4110, symBinAddr: 0x100005490, symSize: 0x40 }
  - { offset: 0xAE3B, size: 0x8, addend: 0x0, symName: __ZNSt3__17__sort4B8ne180100INS_17_ClassicAlgPolicyERNS_6__lessIvvEEPNS_5tupleIJiiiEEEEEvT1_S8_S8_S8_T0_, symObjAddr: 0x4160, symBinAddr: 0x1000054E0, symSize: 0xD0 }
  - { offset: 0xAEB6, size: 0x8, addend: 0x0, symName: __ZNSt3__17__sort5B8ne180100INS_17_ClassicAlgPolicyERNS_6__lessIvvEEPNS_5tupleIJiiiEEEEEvT1_S8_S8_S8_S8_T0_, symObjAddr: 0x4230, symBinAddr: 0x1000055B0, symSize: 0x100 }
  - { offset: 0xAF4A, size: 0x8, addend: 0x0, symName: __ZNSt3__127__memberwise_forward_assignB8ne180100INS_5tupleIJiiiEEES2_JiiiEJLm0ELm1ELm2EEEEvRT_OT0_NS_13__tuple_typesIJDpT1_EEENS_15__tuple_indicesIJXspT2_EEEE, symObjAddr: 0x43A0, symBinAddr: 0x100005720, symSize: 0x90 }
  - { offset: 0xAFD8, size: 0x8, addend: 0x0, symName: __ZNSt3__123__debug_randomize_rangeB8ne180100INS_17_ClassicAlgPolicyEPNS_5tupleIJiiiEEES4_EEvT0_T1_, symObjAddr: 0x4450, symBinAddr: 0x1000057D0, symSize: 0x10 }
  - { offset: 0xB029, size: 0x8, addend: 0x0, symName: __ZNSt3__119__partial_sort_implB8ne180100INS_17_ClassicAlgPolicyERNS_6__lessIvvEEPNS_5tupleIJiiiEEES7_EET1_S8_S8_T2_OT0_, symObjAddr: 0x4460, symBinAddr: 0x1000057E0, symSize: 0x100 }
  - { offset: 0xB0BF, size: 0x8, addend: 0x0, symName: __ZNSt3__111__make_heapB8ne180100INS_17_ClassicAlgPolicyERNS_6__lessIvvEEPNS_5tupleIJiiiEEEEEvT1_S8_OT0_, symObjAddr: 0x4560, symBinAddr: 0x1000058E0, symSize: 0xA0 }
  - { offset: 0xB161, size: 0x8, addend: 0x0, symName: __ZNSt3__111__sort_heapB8ne180100INS_17_ClassicAlgPolicyERNS_6__lessIvvEEPNS_5tupleIJiiiEEEEEvT1_S8_OT0_, symObjAddr: 0x47E0, symBinAddr: 0x100005B60, symSize: 0xA0 }
  - { offset: 0xB203, size: 0x8, addend: 0x0, symName: __ZNSt3__110__pop_heapB8ne180100INS_17_ClassicAlgPolicyENS_6__lessIvvEEPNS_5tupleIJiiiEEEEEvT1_S7_RT0_NS_15iterator_traitsIS7_E15difference_typeE, symObjAddr: 0x4880, symBinAddr: 0x100005C00, symSize: 0xF0 }
  - { offset: 0xB2B3, size: 0x8, addend: 0x0, symName: __ZNSt3__19__sift_upB8ne180100INS_17_ClassicAlgPolicyERNS_6__lessIvvEEPNS_5tupleIJiiiEEEEEvT1_S8_OT0_NS_15iterator_traitsIS8_E15difference_typeE, symObjAddr: 0x4A70, symBinAddr: 0x100005DF0, symSize: 0x110 }
  - { offset: 0xB363, size: 0x8, addend: 0x0, symName: __ZNSt3__122__populate_left_bitsetB8ne180100IRNS_6__lessIvvEEPNS_5tupleIJiiiEEES5_EEvT0_T_RT1_Ry, symObjAddr: 0x4B80, symBinAddr: 0x100005F00, symSize: 0x90 }
  - { offset: 0xB41E, size: 0x8, addend: 0x0, symName: __ZNSt3__123__populate_right_bitsetB8ne180100IRNS_6__lessIvvEEPNS_5tupleIJiiiEEES5_EEvT0_T_RT1_Ry, symObjAddr: 0x4C10, symBinAddr: 0x100005F90, symSize: 0x90 }
  - { offset: 0xB4D9, size: 0x8, addend: 0x0, symName: __ZNSt3__117__swap_bitmap_posB8ne180100INS_17_ClassicAlgPolicyEPNS_5tupleIJiiiEEEEEvT0_S5_RyS6_, symObjAddr: 0x4CA0, symBinAddr: 0x100006020, symSize: 0xE0 }
  - { offset: 0xB57A, size: 0x8, addend: 0x0, symName: __ZNSt3__133__bitset_partition_partial_blocksB8ne180100INS_17_ClassicAlgPolicyERNS_6__lessIvvEEPNS_5tupleIJiiiEEES6_EEvRT1_S9_T0_RT2_RySD_, symObjAddr: 0x4D80, symBinAddr: 0x100006100, symSize: 0x260 }
  - { offset: 0xB701, size: 0x8, addend: 0x0, symName: __ZNSt3__19make_pairB8ne180100IRPNS_5tupleIJiiiEEERbEENS_4pairINS_18__unwrap_ref_decayIT_E4typeENS7_IT0_E4typeEEEOS8_OSB_, symObjAddr: 0x5160, symBinAddr: 0x1000064E0, symSize: 0x30 }
  - { offset: 0xB750, size: 0x8, addend: 0x0, symName: __ZNSt3__112__libcpp_ctzB8ne180100Ey, symObjAddr: 0x5190, symBinAddr: 0x100006510, symSize: 0x20 }
  - { offset: 0xB77C, size: 0x8, addend: 0x0, symName: __ZNSt3__113__libcpp_blsrB8ne180100Ey, symObjAddr: 0x51B0, symBinAddr: 0x100006530, symSize: 0x20 }
  - { offset: 0xB7A8, size: 0x8, addend: 0x0, symName: __ZNSt3__112__libcpp_clzB8ne180100Ey, symObjAddr: 0x5200, symBinAddr: 0x100006580, symSize: 0x20 }
  - { offset: 0xB8FB, size: 0x8, addend: 0x0, symName: __ZNSt3__112__to_addressB8ne180100INS_11__wrap_iterIPNS_5tupleIJiiiEEEEEvEEu7__decayIDTclsr19__to_address_helperIT_EE6__callclsr3stdE7declvalIRKS6_EEEEES8_, symObjAddr: 0x52A0, symBinAddr: 0x100006620, symSize: 0x20 }
  - { offset: 0xB998, size: 0x8, addend: 0x0, symName: __ZNSt3__1eqB8ne180100IPNS_5tupleIJiiiEEEEEbRKNS_11__wrap_iterIT_EES8_, symObjAddr: 0x53C0, symBinAddr: 0x100006740, symSize: 0x40 }
  - { offset: 0xB9DB, size: 0x8, addend: 0x0, symName: __ZNSt3__112__to_addressB8ne180100IiEEPT_S2_, symObjAddr: 0x56A0, symBinAddr: 0x100006A20, symSize: 0x10 }
  - { offset: 0xBA10, size: 0x8, addend: 0x0, symName: __ZNSt3__112__destroy_atB8ne180100IiLi0EEEvPT_, symObjAddr: 0x56B0, symBinAddr: 0x100006A30, symSize: 0x10 }
  - { offset: 0xBA47, size: 0x8, addend: 0x0, symName: __ZNSt3__19push_heapB8ne180100INS_11__wrap_iterIPiEENS_4lessIiEEEEvT_S6_T0_, symObjAddr: 0x5B20, symBinAddr: 0x100006EA0, symSize: 0x40 }
  - { offset: 0xBA9D, size: 0x8, addend: 0x0, symName: __ZNSt3__114__construct_atB8ne180100IiJRKiEPiEEPT_S5_DpOT0_, symObjAddr: 0x5E40, symBinAddr: 0x1000071C0, symSize: 0x30 }
  - { offset: 0xBAF0, size: 0x8, addend: 0x0, symName: __ZNSt3__112construct_atB8ne180100IiJRKiEPiEEPT_S5_DpOT0_, symObjAddr: 0x5E70, symBinAddr: 0x1000071F0, symSize: 0x20 }
  - { offset: 0xBB43, size: 0x8, addend: 0x0, symName: __ZNSt3__119__allocate_at_leastB8ne180100INS_9allocatorIiEEEENS_19__allocation_resultINS_16allocator_traitsIT_E7pointerEEERS5_m, symObjAddr: 0x62D0, symBinAddr: 0x100007650, symSize: 0x40 }
  - { offset: 0xBB86, size: 0x8, addend: 0x0, symName: __ZNSt3__142__uninitialized_allocator_move_if_noexceptB8ne180100INS_9allocatorIiEENS_16reverse_iteratorIPiEES5_ivEET1_RT_T0_S9_S6_, symObjAddr: 0x6460, symBinAddr: 0x1000077E0, symSize: 0x70 }
  - { offset: 0xBC02, size: 0x8, addend: 0x0, symName: __ZNSt3__14swapB8ne180100IPiEENS_9enable_ifIXaasr21is_move_constructibleIT_EE5valuesr18is_move_assignableIS3_EE5valueEvE4typeERS3_S6_, symObjAddr: 0x6520, symBinAddr: 0x1000078A0, symSize: 0x40 }
  - { offset: 0xBC53, size: 0x8, addend: 0x0, symName: __ZNSt3__14moveB8ne180100INS_16reverse_iteratorIPiEES3_EET0_T_S5_S4_, symObjAddr: 0x6570, symBinAddr: 0x1000078F0, symSize: 0x80 }
  - { offset: 0xBCAD, size: 0x8, addend: 0x0, symName: __ZNSt3__16__moveB8ne180100INS_17_ClassicAlgPolicyENS_16reverse_iteratorIPiEES4_S4_EENS_4pairIT0_T2_EES6_T1_S7_, symObjAddr: 0x65F0, symBinAddr: 0x100007970, symSize: 0x90 }
  - { offset: 0xBD19, size: 0x8, addend: 0x0, symName: __ZNSt3__123__dispatch_copy_or_moveB8ne180100INS_17_ClassicAlgPolicyENS_11__move_loopIS1_EENS_14__move_trivialENS_16reverse_iteratorIPiEES7_S7_EENS_4pairIT2_T4_EES9_T3_SA_, symObjAddr: 0x6680, symBinAddr: 0x100007A00, symSize: 0x90 }
  - { offset: 0xBD97, size: 0x8, addend: 0x0, symName: __ZNSt3__121__unwrap_and_dispatchB8ne180100INS_10__overloadINS_11__move_loopINS_17_ClassicAlgPolicyEEENS_14__move_trivialEEENS_16reverse_iteratorIPiEES9_S9_Li0EEENS_4pairIT0_T2_EESB_T1_SC_, symObjAddr: 0x6710, symBinAddr: 0x100007A90, symSize: 0x210 }
  - { offset: 0xBE26, size: 0x8, addend: 0x0, symName: __ZNSt3__114__unwrap_rangeB8ne180100INS_16reverse_iteratorIPiEES3_EEDaT_T0_, symObjAddr: 0x6920, symBinAddr: 0x100007CA0, symSize: 0x60 }
  - { offset: 0xBF98, size: 0x8, addend: 0x0, symName: __ZNSt3__113__unwrap_iterB8ne180100INS_16reverse_iteratorIPiEENS_18__unwrap_iter_implIS3_Lb0EEELi0EEEDTclsrT0_8__unwrapclsr3stdE7declvalIT_EEEES7_, symObjAddr: 0x6A20, symBinAddr: 0x100007DA0, symSize: 0x40 }
  - { offset: 0xBFDC, size: 0x8, addend: 0x0, symName: __ZNSt3__19make_pairB8ne180100INS_16reverse_iteratorIPiEES3_EENS_4pairINS_18__unwrap_ref_decayIT_E4typeENS5_IT0_E4typeEEEOS6_OS9_, symObjAddr: 0x6A60, symBinAddr: 0x100007DE0, symSize: 0x30 }
  - { offset: 0xC02B, size: 0x8, addend: 0x0, symName: __ZNSt3__114__rewrap_rangeB8ne180100INS_16reverse_iteratorIPiEES3_S3_EET0_S4_T1_, symObjAddr: 0x6A90, symBinAddr: 0x100007E10, symSize: 0x60 }
  - { offset: 0xC080, size: 0x8, addend: 0x0, symName: __ZNSt3__113__rewrap_iterB8ne180100INS_16reverse_iteratorIPiEES3_NS_18__unwrap_iter_implIS3_Lb0EEEEET_S6_T0_, symObjAddr: 0x6AF0, symBinAddr: 0x100007E70, symSize: 0x70 }
  - { offset: 0xC125, size: 0x8, addend: 0x0, symName: __ZNSt3__1neB8ne180100IPiS1_EEbRKNS_16reverse_iteratorIT_EERKNS2_IT0_EE, symObjAddr: 0x6C60, symBinAddr: 0x100007FE0, symSize: 0x40 }
  - { offset: 0xC1C4, size: 0x8, addend: 0x0, symName: __ZNSt3__111__push_heapB8ne180100INS_17_ClassicAlgPolicyENS_11__wrap_iterIPiEENS_4lessIiEEEEvT0_S7_RT1_, symObjAddr: 0x6FB0, symBinAddr: 0x100008330, symSize: 0x50 }
  - { offset: 0xC231, size: 0x8, addend: 0x0, symName: __ZNSt3__1miB8ne180100IPiS1_EEDTmicldtfp_4baseEcldtfp0_4baseEERKNS_11__wrap_iterIT_EERKNS3_IT0_EE, symObjAddr: 0x7000, symBinAddr: 0x100008380, symSize: 0x40 }
  - { offset: 0xC27D, size: 0x8, addend: 0x0, symName: __ZNSt3__19__sift_upB8ne180100INS_17_ClassicAlgPolicyERNS_4lessIiEENS_11__wrap_iterIPiEEEEvT1_S8_OT0_NS_15iterator_traitsIS8_E15difference_typeE, symObjAddr: 0x7040, symBinAddr: 0x1000083C0, symSize: 0x150 }
  - { offset: 0xC32D, size: 0x8, addend: 0x0, symName: __ZNSt3__18pop_heapB8ne180100INS_11__wrap_iterIPiEENS_4lessIiEEEEvT_S6_T0_, symObjAddr: 0x7370, symBinAddr: 0x1000086F0, symSize: 0x50 }
  - { offset: 0xC391, size: 0x8, addend: 0x0, symName: __ZNSt3__110__pop_heapB8ne180100INS_17_ClassicAlgPolicyENS_4lessIiEENS_11__wrap_iterIPiEEEEvT1_S7_RT0_NS_15iterator_traitsIS7_E15difference_typeE, symObjAddr: 0x73F0, symBinAddr: 0x100008770, symSize: 0x110 }
  - { offset: 0xC441, size: 0x8, addend: 0x0, symName: __ZNSt3__1eqB8ne180100IPiEEbRKNS_11__wrap_iterIT_EES6_, symObjAddr: 0x7630, symBinAddr: 0x1000089B0, symSize: 0x40 }
  - { offset: 0xC484, size: 0x8, addend: 0x0, symName: __ZNSt3__19use_facetB8ne180100INS_5ctypeIcEEEERKT_RKNS_6localeE, symObjAddr: 0x7770, symBinAddr: 0x100008AF0, symSize: 0x30 }
  - { offset: 0xD9A4, size: 0x8, addend: 0x0, symName: __ZSt28__throw_bad_array_new_lengthB8ne180100v, symObjAddr: 0x1740, symBinAddr: 0x100002AC0, symSize: 0x40 }
  - { offset: 0xDF55, size: 0x8, addend: 0x0, symName: __ZNSt3__16vectorINS_5tupleIJiiiEEENS_9allocatorIS2_EEE26__swap_out_circular_bufferERNS_14__split_bufferIS2_RS4_EE, symObjAddr: 0x1000, symBinAddr: 0x100002380, symSize: 0x120 }
  - { offset: 0xE17B, size: 0x8, addend: 0x0, symName: __ZNSt3__16vectorIiNS_9allocatorIiEEE26__swap_out_circular_bufferERNS_14__split_bufferIiRS2_EE, symObjAddr: 0x5FA0, symBinAddr: 0x100007320, symSize: 0x120 }
  - { offset: 0xE1E6, size: 0x8, addend: 0x0, symName: _main, symObjAddr: 0x0, symBinAddr: 0x100001380, symSize: 0x480 }
  - { offset: 0xE371, size: 0x8, addend: 0x0, symName: __ZNSt3__16vectorINS_5tupleIJiiiEEENS_9allocatorIS2_EEEC1B8ne180100Ev, symObjAddr: 0x480, symBinAddr: 0x100001800, symSize: 0x20 }
  - { offset: 0xE3A0, size: 0x8, addend: 0x0, symName: __ZNSt3__16vectorINS_5tupleIJiiiEEENS_9allocatorIS2_EEE12emplace_backIJRiS7_iEEERS2_DpOT_, symObjAddr: 0x4A0, symBinAddr: 0x100001820, symSize: 0xA0 }
  - { offset: 0xE419, size: 0x8, addend: 0x0, symName: __ZNSt3__16vectorINS_5tupleIJiiiEEENS_9allocatorIS2_EEE5beginB8ne180100Ev, symObjAddr: 0x580, symBinAddr: 0x100001900, symSize: 0x30 }
  - { offset: 0xE441, size: 0x8, addend: 0x0, symName: __ZNSt3__16vectorINS_5tupleIJiiiEEENS_9allocatorIS2_EEE3endB8ne180100Ev, symObjAddr: 0x5B0, symBinAddr: 0x100001930, symSize: 0x30 }
  - { offset: 0xE4B9, size: 0x8, addend: 0x0, symName: __ZNSt3__114priority_queueIiNS_6vectorIiNS_9allocatorIiEEEENS_4lessIiEEEC1B8ne180100Ev, symObjAddr: 0x5E0, symBinAddr: 0x100001960, symSize: 0x20 }
  - { offset: 0xE4E3, size: 0x8, addend: 0x0, symName: __ZNKSt3__111__wrap_iterIPNS_5tupleIJiiiEEEEdeB8ne180100Ev, symObjAddr: 0x630, symBinAddr: 0x1000019B0, symSize: 0x20 }
  - { offset: 0xE509, size: 0x8, addend: 0x0, symName: __ZNSt3__114priority_queueIiNS_6vectorIiNS_9allocatorIiEEEENS_4lessIiEEE4pushERKi, symObjAddr: 0x6B0, symBinAddr: 0x100001A30, symSize: 0x50 }
  - { offset: 0xE540, size: 0x8, addend: 0x0, symName: __ZNKSt3__114priority_queueIiNS_6vectorIiNS_9allocatorIiEEEENS_4lessIiEEE5emptyB8ne180100Ev, symObjAddr: 0x700, symBinAddr: 0x100001A80, symSize: 0x20 }
  - { offset: 0xE566, size: 0x8, addend: 0x0, symName: __ZNKSt3__114priority_queueIiNS_6vectorIiNS_9allocatorIiEEEENS_4lessIiEEE3topB8ne180100Ev, symObjAddr: 0x720, symBinAddr: 0x100001AA0, symSize: 0x20 }
  - { offset: 0xE58C, size: 0x8, addend: 0x0, symName: __ZNSt3__114priority_queueIiNS_6vectorIiNS_9allocatorIiEEEENS_4lessIiEEE3popEv, symObjAddr: 0x740, symBinAddr: 0x100001AC0, symSize: 0x50 }
  - { offset: 0xE69F, size: 0x8, addend: 0x0, symName: __ZNSt3__113basic_ostreamIcNS_11char_traitsIcEEElsB8ne180100EPFRS3_S4_E, symObjAddr: 0x790, symBinAddr: 0x100001B10, symSize: 0x20 }
  - { offset: 0xE6D3, size: 0x8, addend: 0x0, symName: __ZNSt3__111__wrap_iterIPNS_5tupleIJiiiEEEEppB8ne180100Ev, symObjAddr: 0x800, symBinAddr: 0x100001B80, symSize: 0x20 }
  - { offset: 0xE6F9, size: 0x8, addend: 0x0, symName: __ZNKSt3__114priority_queueIiNS_6vectorIiNS_9allocatorIiEEEENS_4lessIiEEE4sizeB8ne180100Ev, symObjAddr: 0x820, symBinAddr: 0x100001BA0, symSize: 0x20 }
  - { offset: 0xE71F, size: 0x8, addend: 0x0, symName: __ZNSt3__114priority_queueIiNS_6vectorIiNS_9allocatorIiEEEENS_4lessIiEEED1Ev, symObjAddr: 0x840, symBinAddr: 0x100001BC0, symSize: 0x20 }
  - { offset: 0xE74C, size: 0x8, addend: 0x0, symName: __ZNSt3__16vectorINS_5tupleIJiiiEEENS_9allocatorIS2_EEED1B8ne180100Ev, symObjAddr: 0x860, symBinAddr: 0x100001BE0, symSize: 0x20 }
  - { offset: 0xE776, size: 0x8, addend: 0x0, symName: __ZNSt3__16vectorINS_5tupleIJiiiEEENS_9allocatorIS2_EEEC2B8ne180100Ev, symObjAddr: 0x880, symBinAddr: 0x100001C00, symSize: 0x50 }
  - { offset: 0xE7AA, size: 0x8, addend: 0x0, symName: __ZNSt3__117__compressed_pairIPNS_5tupleIJiiiEEENS_9allocatorIS2_EEEC1B8ne180100IDnNS_18__default_init_tagEEEOT_OT0_, symObjAddr: 0x8D0, symBinAddr: 0x100001C50, symSize: 0x30 }
  - { offset: 0xE802, size: 0x8, addend: 0x0, symName: __ZNSt3__117__compressed_pairIPNS_5tupleIJiiiEEENS_9allocatorIS2_EEEC2B8ne180100IDnNS_18__default_init_tagEEEOT_OT0_, symObjAddr: 0x910, symBinAddr: 0x100001C90, symSize: 0x40 }
  - { offset: 0xE85A, size: 0x8, addend: 0x0, symName: __ZNSt3__122__compressed_pair_elemIPNS_5tupleIJiiiEEELi0ELb0EEC2B8ne180100IDnvEEOT_, symObjAddr: 0x950, symBinAddr: 0x100001CD0, symSize: 0x20 }
  - { offset: 0xE89C, size: 0x8, addend: 0x0, symName: __ZNSt3__122__compressed_pair_elemINS_9allocatorINS_5tupleIJiiiEEEEELi1ELb1EEC2B8ne180100ENS_18__default_init_tagE, symObjAddr: 0x970, symBinAddr: 0x100001CF0, symSize: 0x20 }
  - { offset: 0xE8D0, size: 0x8, addend: 0x0, symName: __ZNSt3__19allocatorINS_5tupleIJiiiEEEEC2B8ne180100Ev, symObjAddr: 0x990, symBinAddr: 0x100001D10, symSize: 0x20 }
  - { offset: 0xE8FA, size: 0x8, addend: 0x0, symName: __ZNSt3__116__non_trivial_ifILb1ENS_9allocatorINS_5tupleIJiiiEEEEEEC2B8ne180100Ev, symObjAddr: 0x9B0, symBinAddr: 0x100001D30, symSize: 0x10 }
  - { offset: 0xE924, size: 0x8, addend: 0x0, symName: __ZNSt3__16vectorINS_5tupleIJiiiEEENS_9allocatorIS2_EEE9__end_capB8ne180100Ev, symObjAddr: 0x9C0, symBinAddr: 0x100001D40, symSize: 0x20 }
  - { offset: 0xE94A, size: 0x8, addend: 0x0, symName: __ZNSt3__16vectorINS_5tupleIJiiiEEENS_9allocatorIS2_EEE22__construct_one_at_endB8ne180100IJRiS7_iEEEvDpOT_, symObjAddr: 0x9E0, symBinAddr: 0x100001D60, symSize: 0xA0 }
  - { offset: 0xE9C1, size: 0x8, addend: 0x0, symName: __ZNSt3__16vectorINS_5tupleIJiiiEEENS_9allocatorIS2_EEE24__emplace_back_slow_pathIJRiS7_iEEEPS2_DpOT_, symObjAddr: 0xA80, symBinAddr: 0x100001E00, symSize: 0x100 }
  - { offset: 0xEA4A, size: 0x8, addend: 0x0, symName: __ZNSt3__117__compressed_pairIPNS_5tupleIJiiiEEENS_9allocatorIS2_EEE5firstB8ne180100Ev, symObjAddr: 0xB80, symBinAddr: 0x100001F00, symSize: 0x20 }
  - { offset: 0xEA70, size: 0x8, addend: 0x0, symName: __ZNSt3__122__compressed_pair_elemIPNS_5tupleIJiiiEEELi0ELb0EE5__getB8ne180100Ev, symObjAddr: 0xBA0, symBinAddr: 0x100001F20, symSize: 0x10 }
  - { offset: 0xEAAF, size: 0x8, addend: 0x0, symName: __ZNSt3__16vectorINS_5tupleIJiiiEEENS_9allocatorIS2_EEE21_ConstructTransactionC1B8ne180100ERS5_m, symObjAddr: 0xBB0, symBinAddr: 0x100001F30, symSize: 0x30 }
  - { offset: 0xEAF7, size: 0x8, addend: 0x0, symName: __ZNSt3__116allocator_traitsINS_9allocatorINS_5tupleIJiiiEEEEEE9constructB8ne180100IS3_JRiS7_iEvvEEvRS4_PT_DpOT0_, symObjAddr: 0xBE0, symBinAddr: 0x100001F60, symSize: 0x40 }
  - { offset: 0xEB73, size: 0x8, addend: 0x0, symName: __ZNSt3__16vectorINS_5tupleIJiiiEEENS_9allocatorIS2_EEE7__allocB8ne180100Ev, symObjAddr: 0xC20, symBinAddr: 0x100001FA0, symSize: 0x20 }
  - { offset: 0xEB99, size: 0x8, addend: 0x0, symName: __ZNSt3__16vectorINS_5tupleIJiiiEEENS_9allocatorIS2_EEE21_ConstructTransactionD1B8ne180100Ev, symObjAddr: 0xC50, symBinAddr: 0x100001FD0, symSize: 0x20 }
  - { offset: 0xEBC3, size: 0x8, addend: 0x0, symName: __ZNSt3__16vectorINS_5tupleIJiiiEEENS_9allocatorIS2_EEE21_ConstructTransactionC2B8ne180100ERS5_m, symObjAddr: 0xC70, symBinAddr: 0x100001FF0, symSize: 0x40 }
  - { offset: 0xEC0B, size: 0x8, addend: 0x0, symName: __ZNSt3__15tupleIJiiiEEC1B8ne180100IJRiS3_iELi0EEEDpOT_, symObjAddr: 0xD30, symBinAddr: 0x1000020B0, symSize: 0x40 }
  - { offset: 0xEC7D, size: 0x8, addend: 0x0, symName: __ZNSt3__15tupleIJiiiEEC2B8ne180100IJRiS3_iELi0EEEDpOT_, symObjAddr: 0xD70, symBinAddr: 0x1000020F0, symSize: 0x40 }
  - { offset: 0xECEF, size: 0x8, addend: 0x0, symName: __ZNSt3__112__tuple_implINS_15__tuple_indicesIJLm0ELm1ELm2EEEEJiiiEEC1B8ne180100IJLm0ELm1ELm2EEJiiiEJEJEJRiS5_iEEENS1_IJXspT_EEEENS_13__tuple_typesIJDpT0_EEENS1_IJXspT1_EEEENS7_IJDpT2_EEEDpOT3_, symObjAddr: 0xDB0, symBinAddr: 0x100002130, symSize: 0x40 }
  - { offset: 0xEDBE, size: 0x8, addend: 0x0, symName: __ZNSt3__112__tuple_implINS_15__tuple_indicesIJLm0ELm1ELm2EEEEJiiiEEC2B8ne180100IJLm0ELm1ELm2EEJiiiEJEJEJRiS5_iEEENS1_IJXspT_EEEENS_13__tuple_typesIJDpT0_EEENS1_IJXspT1_EEEENS7_IJDpT2_EEEDpOT3_, symObjAddr: 0xDF0, symBinAddr: 0x100002170, symSize: 0x60 }
  - { offset: 0xEE8D, size: 0x8, addend: 0x0, symName: __ZNSt3__112__tuple_leafILm0EiLb0EEC2B8ne180100IRivEEOT_, symObjAddr: 0xE50, symBinAddr: 0x1000021D0, symSize: 0x20 }
  - { offset: 0xEED0, size: 0x8, addend: 0x0, symName: __ZNSt3__112__tuple_leafILm1EiLb0EEC2B8ne180100IRivEEOT_, symObjAddr: 0xE70, symBinAddr: 0x1000021F0, symSize: 0x20 }
  - { offset: 0xEF13, size: 0x8, addend: 0x0, symName: __ZNSt3__112__tuple_leafILm2EiLb0EEC2B8ne180100IivEEOT_, symObjAddr: 0xE90, symBinAddr: 0x100002210, symSize: 0x20 }
  - { offset: 0xEF56, size: 0x8, addend: 0x0, symName: __ZNSt3__117__compressed_pairIPNS_5tupleIJiiiEEENS_9allocatorIS2_EEE6secondB8ne180100Ev, symObjAddr: 0xEB0, symBinAddr: 0x100002230, symSize: 0x20 }
  - { offset: 0xEF7C, size: 0x8, addend: 0x0, symName: __ZNSt3__122__compressed_pair_elemINS_9allocatorINS_5tupleIJiiiEEEEELi1ELb1EE5__getB8ne180100Ev, symObjAddr: 0xED0, symBinAddr: 0x100002250, symSize: 0x10 }
  - { offset: 0xEFA2, size: 0x8, addend: 0x0, symName: __ZNSt3__16vectorINS_5tupleIJiiiEEENS_9allocatorIS2_EEE21_ConstructTransactionD2B8ne180100Ev, symObjAddr: 0xEE0, symBinAddr: 0x100002260, symSize: 0x20 }
  - { offset: 0xEFCC, size: 0x8, addend: 0x0, symName: __ZNKSt3__16vectorINS_5tupleIJiiiEEENS_9allocatorIS2_EEE11__recommendB8ne180100Em, symObjAddr: 0xF00, symBinAddr: 0x100002280, symSize: 0x90 }
  - { offset: 0xF021, size: 0x8, addend: 0x0, symName: __ZNKSt3__16vectorINS_5tupleIJiiiEEENS_9allocatorIS2_EEE4sizeB8ne180100Ev, symObjAddr: 0xF90, symBinAddr: 0x100002310, symSize: 0x30 }
  - { offset: 0xF047, size: 0x8, addend: 0x0, symName: __ZNSt3__114__split_bufferINS_5tupleIJiiiEEERNS_9allocatorIS2_EEEC1EmmS5_, symObjAddr: 0xFC0, symBinAddr: 0x100002340, symSize: 0x40 }
  - { offset: 0xF09D, size: 0x8, addend: 0x0, symName: __ZNSt3__114__split_bufferINS_5tupleIJiiiEEERNS_9allocatorIS2_EEED1Ev, symObjAddr: 0x1120, symBinAddr: 0x1000024A0, symSize: 0x20 }
  - { offset: 0xF0C9, size: 0x8, addend: 0x0, symName: __ZNKSt3__16vectorINS_5tupleIJiiiEEENS_9allocatorIS2_EEE8max_sizeEv, symObjAddr: 0x1140, symBinAddr: 0x1000024C0, symSize: 0x60 }
  - { offset: 0xF0F1, size: 0x8, addend: 0x0, symName: __ZNKSt3__16vectorINS_5tupleIJiiiEEENS_9allocatorIS2_EEE20__throw_length_errorB8ne180100Ev, symObjAddr: 0x11A0, symBinAddr: 0x100002520, symSize: 0x20 }
  - { offset: 0xF117, size: 0x8, addend: 0x0, symName: __ZNKSt3__16vectorINS_5tupleIJiiiEEENS_9allocatorIS2_EEE8capacityB8ne180100Ev, symObjAddr: 0x11C0, symBinAddr: 0x100002540, symSize: 0x40 }
  - { offset: 0xF147, size: 0x8, addend: 0x0, symName: __ZNSt3__116allocator_traitsINS_9allocatorINS_5tupleIJiiiEEEEEE8max_sizeB8ne180100IS4_vvEEmRKS4_, symObjAddr: 0x1260, symBinAddr: 0x1000025E0, symSize: 0x30 }
  - { offset: 0xF172, size: 0x8, addend: 0x0, symName: __ZNKSt3__16vectorINS_5tupleIJiiiEEENS_9allocatorIS2_EEE7__allocB8ne180100Ev, symObjAddr: 0x1290, symBinAddr: 0x100002610, symSize: 0x20 }
  - { offset: 0xF198, size: 0x8, addend: 0x0, symName: __ZNSt3__114numeric_limitsIlE3maxB8ne180100Ev, symObjAddr: 0x12B0, symBinAddr: 0x100002630, symSize: 0x10 }
  - { offset: 0xF1C0, size: 0x8, addend: 0x0, symName: __ZNKSt3__16__lessIvvEclB8ne180100ImmEEbRKT_RKT0_, symObjAddr: 0x1310, symBinAddr: 0x100002690, symSize: 0x30 }
  - { offset: 0xF214, size: 0x8, addend: 0x0, symName: __ZNSt3__114numeric_limitsImE3maxB8ne180100Ev, symObjAddr: 0x1340, symBinAddr: 0x1000026C0, symSize: 0x10 }
  - { offset: 0xF228, size: 0x8, addend: 0x0, symName: __ZNSt3__123__libcpp_numeric_limitsImLb1EE3maxB8ne180100Ev, symObjAddr: 0x1350, symBinAddr: 0x1000026D0, symSize: 0x10 }
  - { offset: 0xF23C, size: 0x8, addend: 0x0, symName: __ZNKSt3__117__compressed_pairIPNS_5tupleIJiiiEEENS_9allocatorIS2_EEE6secondB8ne180100Ev, symObjAddr: 0x1360, symBinAddr: 0x1000026E0, symSize: 0x20 }
  - { offset: 0xF262, size: 0x8, addend: 0x0, symName: __ZNKSt3__122__compressed_pair_elemINS_9allocatorINS_5tupleIJiiiEEEEELi1ELb1EE5__getB8ne180100Ev, symObjAddr: 0x1380, symBinAddr: 0x100002700, symSize: 0x10 }
  - { offset: 0xF288, size: 0x8, addend: 0x0, symName: __ZNSt3__123__libcpp_numeric_limitsIlLb1EE3maxB8ne180100Ev, symObjAddr: 0x1390, symBinAddr: 0x100002710, symSize: 0x10 }
  - { offset: 0xF29C, size: 0x8, addend: 0x0, symName: __ZNSt12length_errorC1B8ne180100EPKc, symObjAddr: 0x1410, symBinAddr: 0x100002790, symSize: 0x30 }
  - { offset: 0xF2D4, size: 0x8, addend: 0x0, symName: __ZNSt12length_errorC2B8ne180100EPKc, symObjAddr: 0x1440, symBinAddr: 0x1000027C0, symSize: 0x40 }
  - { offset: 0xF30C, size: 0x8, addend: 0x0, symName: __ZNKSt3__16vectorINS_5tupleIJiiiEEENS_9allocatorIS2_EEE9__end_capB8ne180100Ev, symObjAddr: 0x1480, symBinAddr: 0x100002800, symSize: 0x20 }
  - { offset: 0xF332, size: 0x8, addend: 0x0, symName: __ZNKSt3__117__compressed_pairIPNS_5tupleIJiiiEEENS_9allocatorIS2_EEE5firstB8ne180100Ev, symObjAddr: 0x14A0, symBinAddr: 0x100002820, symSize: 0x20 }
  - { offset: 0xF358, size: 0x8, addend: 0x0, symName: __ZNKSt3__122__compressed_pair_elemIPNS_5tupleIJiiiEEELi0ELb0EE5__getB8ne180100Ev, symObjAddr: 0x14C0, symBinAddr: 0x100002840, symSize: 0x10 }
  - { offset: 0xF37E, size: 0x8, addend: 0x0, symName: __ZNSt3__114__split_bufferINS_5tupleIJiiiEEERNS_9allocatorIS2_EEEC2EmmS5_, symObjAddr: 0x1520, symBinAddr: 0x1000028A0, symSize: 0xC0 }
  - { offset: 0xF3F1, size: 0x8, addend: 0x0, symName: __ZNSt3__117__compressed_pairIPNS_5tupleIJiiiEEERNS_9allocatorIS2_EEEC1B8ne180100IDnS6_EEOT_OT0_, symObjAddr: 0x15E0, symBinAddr: 0x100002960, symSize: 0x30 }
  - { offset: 0xF449, size: 0x8, addend: 0x0, symName: __ZNSt3__114__split_bufferINS_5tupleIJiiiEEERNS_9allocatorIS2_EEE7__allocB8ne180100Ev, symObjAddr: 0x1650, symBinAddr: 0x1000029D0, symSize: 0x20 }
  - { offset: 0xF46F, size: 0x8, addend: 0x0, symName: __ZNSt3__114__split_bufferINS_5tupleIJiiiEEERNS_9allocatorIS2_EEE9__end_capB8ne180100Ev, symObjAddr: 0x1670, symBinAddr: 0x1000029F0, symSize: 0x20 }
  - { offset: 0xF495, size: 0x8, addend: 0x0, symName: __ZNSt3__117__compressed_pairIPNS_5tupleIJiiiEEERNS_9allocatorIS2_EEEC2B8ne180100IDnS6_EEOT_OT0_, symObjAddr: 0x1690, symBinAddr: 0x100002A10, symSize: 0x40 }
  - { offset: 0xF4ED, size: 0x8, addend: 0x0, symName: __ZNSt3__122__compressed_pair_elemIRNS_9allocatorINS_5tupleIJiiiEEEEELi1ELb0EEC2B8ne180100IS5_vEEOT_, symObjAddr: 0x16D0, symBinAddr: 0x100002A50, symSize: 0x20 }
  - { offset: 0xF52F, size: 0x8, addend: 0x0, symName: __ZNSt3__19allocatorINS_5tupleIJiiiEEEE8allocateB8ne180100Em, symObjAddr: 0x16F0, symBinAddr: 0x100002A70, symSize: 0x50 }
  - { offset: 0xF563, size: 0x8, addend: 0x0, symName: __ZNSt3__117__compressed_pairIPNS_5tupleIJiiiEEERNS_9allocatorIS2_EEE6secondB8ne180100Ev, symObjAddr: 0x1850, symBinAddr: 0x100002BD0, symSize: 0x20 }
  - { offset: 0xF589, size: 0x8, addend: 0x0, symName: __ZNSt3__122__compressed_pair_elemIRNS_9allocatorINS_5tupleIJiiiEEEEELi1ELb0EE5__getB8ne180100Ev, symObjAddr: 0x1870, symBinAddr: 0x100002BF0, symSize: 0x20 }
  - { offset: 0xF5AF, size: 0x8, addend: 0x0, symName: __ZNSt3__117__compressed_pairIPNS_5tupleIJiiiEEERNS_9allocatorIS2_EEE5firstB8ne180100Ev, symObjAddr: 0x1890, symBinAddr: 0x100002C10, symSize: 0x20 }
  - { offset: 0xF5D5, size: 0x8, addend: 0x0, symName: __ZNKSt3__16vectorINS_5tupleIJiiiEEENS_9allocatorIS2_EEE17__annotate_deleteB8ne180100Ev, symObjAddr: 0x18B0, symBinAddr: 0x100002C30, symSize: 0x10 }
  - { offset: 0xF5FB, size: 0x8, addend: 0x0, symName: __ZNSt3__116reverse_iteratorIPNS_5tupleIJiiiEEEEC1B8ne180100ES3_, symObjAddr: 0x1A40, symBinAddr: 0x100002DC0, symSize: 0x30 }
  - { offset: 0xF633, size: 0x8, addend: 0x0, symName: __ZNKSt3__116reverse_iteratorIPNS_5tupleIJiiiEEEE4baseB8ne180100Ev, symObjAddr: 0x1A70, symBinAddr: 0x100002DF0, symSize: 0x20 }
  - { offset: 0xF659, size: 0x8, addend: 0x0, symName: __ZNKSt3__16vectorINS_5tupleIJiiiEEENS_9allocatorIS2_EEE14__annotate_newB8ne180100Em, symObjAddr: 0x1AD0, symBinAddr: 0x100002E50, symSize: 0x10 }
  - { offset: 0xF68E, size: 0x8, addend: 0x0, symName: __ZNSt3__129_AllocatorDestroyRangeReverseINS_9allocatorINS_5tupleIJiiiEEEEENS_16reverse_iteratorIPS3_EEEC1B8ne180100ERS4_RS7_SA_, symObjAddr: 0x1B40, symBinAddr: 0x100002EC0, symSize: 0x40 }
  - { offset: 0xF6E5, size: 0x8, addend: 0x0, symName: __ZNSt3__116allocator_traitsINS_9allocatorINS_5tupleIJiiiEEEEEE9constructB8ne180100IS3_JS3_EvvEEvRS4_PT_DpOT0_, symObjAddr: 0x1BC0, symBinAddr: 0x100002F40, symSize: 0x30 }
  - { offset: 0xF739, size: 0x8, addend: 0x0, symName: __ZNKSt3__116reverse_iteratorIPNS_5tupleIJiiiEEEEdeB8ne180100Ev, symObjAddr: 0x1C10, symBinAddr: 0x100002F90, symSize: 0x30 }
  - { offset: 0xF76D, size: 0x8, addend: 0x0, symName: __ZNSt3__116reverse_iteratorIPNS_5tupleIJiiiEEEEppB8ne180100Ev, symObjAddr: 0x1C40, symBinAddr: 0x100002FC0, symSize: 0x20 }
  - { offset: 0xF793, size: 0x8, addend: 0x0, symName: __ZNSt3__128__exception_guard_exceptionsINS_29_AllocatorDestroyRangeReverseINS_9allocatorINS_5tupleIJiiiEEEEENS_16reverse_iteratorIPS4_EEEEE10__completeB8ne180100Ev, symObjAddr: 0x1C60, symBinAddr: 0x100002FE0, symSize: 0x20 }
  - { offset: 0xF7B9, size: 0x8, addend: 0x0, symName: __ZNSt3__128__exception_guard_exceptionsINS_29_AllocatorDestroyRangeReverseINS_9allocatorINS_5tupleIJiiiEEEEENS_16reverse_iteratorIPS4_EEEEED1B8ne180100Ev, symObjAddr: 0x1C80, symBinAddr: 0x100003000, symSize: 0x20 }
  - { offset: 0xF7E3, size: 0x8, addend: 0x0, symName: __ZNSt3__128__exception_guard_exceptionsINS_29_AllocatorDestroyRangeReverseINS_9allocatorINS_5tupleIJiiiEEEEENS_16reverse_iteratorIPS4_EEEEEC1B8ne180100ES9_, symObjAddr: 0x1CA0, symBinAddr: 0x100003020, symSize: 0x40 }
  - { offset: 0xF81B, size: 0x8, addend: 0x0, symName: __ZNSt3__128__exception_guard_exceptionsINS_29_AllocatorDestroyRangeReverseINS_9allocatorINS_5tupleIJiiiEEEEENS_16reverse_iteratorIPS4_EEEEEC2B8ne180100ES9_, symObjAddr: 0x1CE0, symBinAddr: 0x100003060, symSize: 0x30 }
  - { offset: 0xF853, size: 0x8, addend: 0x0, symName: __ZNSt3__129_AllocatorDestroyRangeReverseINS_9allocatorINS_5tupleIJiiiEEEEENS_16reverse_iteratorIPS3_EEEC2B8ne180100ERS4_RS7_SA_, symObjAddr: 0x1D10, symBinAddr: 0x100003090, symSize: 0x40 }
  - { offset: 0xF8AF, size: 0x8, addend: 0x0, symName: __ZNSt3__119__to_address_helperINS_16reverse_iteratorIPNS_5tupleIJiiiEEEEEvE6__callB8ne180100ERKS5_, symObjAddr: 0x1DB0, symBinAddr: 0x100003130, symSize: 0x40 }
  - { offset: 0xF8D2, size: 0x8, addend: 0x0, symName: __ZNKSt3__116reverse_iteratorIPNS_5tupleIJiiiEEEEptB8ne180100Ev, symObjAddr: 0x1DF0, symBinAddr: 0x100003170, symSize: 0x30 }
  - { offset: 0xF8F8, size: 0x8, addend: 0x0, symName: __ZNSt3__128__exception_guard_exceptionsINS_29_AllocatorDestroyRangeReverseINS_9allocatorINS_5tupleIJiiiEEEEENS_16reverse_iteratorIPS4_EEEEED2B8ne180100Ev, symObjAddr: 0x1EB0, symBinAddr: 0x100003230, symSize: 0x40 }
  - { offset: 0xF922, size: 0x8, addend: 0x0, symName: __ZNKSt3__129_AllocatorDestroyRangeReverseINS_9allocatorINS_5tupleIJiiiEEEEENS_16reverse_iteratorIPS3_EEEclB8ne180100Ev, symObjAddr: 0x1EF0, symBinAddr: 0x100003270, symSize: 0xF0 }
  - { offset: 0xF949, size: 0x8, addend: 0x0, symName: __ZNSt3__116reverse_iteratorINS0_IPNS_5tupleIJiiiEEEEEEC1B8ne180100ES4_, symObjAddr: 0x2050, symBinAddr: 0x1000033D0, symSize: 0x30 }
  - { offset: 0xF981, size: 0x8, addend: 0x0, symName: __ZNSt3__116allocator_traitsINS_9allocatorINS_5tupleIJiiiEEEEEE7destroyB8ne180100IS3_vvEEvRS4_PT_, symObjAddr: 0x20D0, symBinAddr: 0x100003450, symSize: 0x20 }
  - { offset: 0xF9BB, size: 0x8, addend: 0x0, symName: __ZNSt3__116reverse_iteratorINS0_IPNS_5tupleIJiiiEEEEEEppB8ne180100Ev, symObjAddr: 0x2110, symBinAddr: 0x100003490, symSize: 0x30 }
  - { offset: 0xF9E1, size: 0x8, addend: 0x0, symName: __ZNKSt3__116reverse_iteratorINS0_IPNS_5tupleIJiiiEEEEEE4baseB8ne180100Ev, symObjAddr: 0x2140, symBinAddr: 0x1000034C0, symSize: 0x20 }
  - { offset: 0xFA0C, size: 0x8, addend: 0x0, symName: __ZNSt3__119__to_address_helperINS_16reverse_iteratorINS1_IPNS_5tupleIJiiiEEEEEEEvE6__callB8ne180100ERKS6_, symObjAddr: 0x2170, symBinAddr: 0x1000034F0, symSize: 0x40 }
  - { offset: 0xFA2F, size: 0x8, addend: 0x0, symName: __ZNKSt3__116reverse_iteratorINS0_IPNS_5tupleIJiiiEEEEEEptB8ne180100Ev, symObjAddr: 0x21B0, symBinAddr: 0x100003530, symSize: 0x50 }
  - { offset: 0xFA55, size: 0x8, addend: 0x0, symName: __ZNSt3__116reverse_iteratorIPNS_5tupleIJiiiEEEEpLB8ne180100El, symObjAddr: 0x22A0, symBinAddr: 0x100003620, symSize: 0x30 }
  - { offset: 0xFA89, size: 0x8, addend: 0x0, symName: __ZNSt3__116reverse_iteratorIPNS_5tupleIJiiiEEEEmmB8ne180100Ev, symObjAddr: 0x22D0, symBinAddr: 0x100003650, symSize: 0x20 }
  - { offset: 0xFAAF, size: 0x8, addend: 0x0, symName: __ZNSt3__116reverse_iteratorINS0_IPNS_5tupleIJiiiEEEEEEC2B8ne180100ES4_, symObjAddr: 0x22F0, symBinAddr: 0x100003670, symSize: 0x40 }
  - { offset: 0xFAE7, size: 0x8, addend: 0x0, symName: __ZNSt3__116reverse_iteratorIPNS_5tupleIJiiiEEEEC2B8ne180100ES3_, symObjAddr: 0x2330, symBinAddr: 0x1000036B0, symSize: 0x30 }
  - { offset: 0xFB1F, size: 0x8, addend: 0x0, symName: __ZNSt3__114__split_bufferINS_5tupleIJiiiEEERNS_9allocatorIS2_EEED2Ev, symObjAddr: 0x2360, symBinAddr: 0x1000036E0, symSize: 0x70 }
  - { offset: 0xFB4B, size: 0x8, addend: 0x0, symName: __ZNSt3__114__split_bufferINS_5tupleIJiiiEEERNS_9allocatorIS2_EEE5clearB8ne180100Ev, symObjAddr: 0x23D0, symBinAddr: 0x100003750, symSize: 0x20 }
  - { offset: 0xFB71, size: 0x8, addend: 0x0, symName: __ZNSt3__116allocator_traitsINS_9allocatorINS_5tupleIJiiiEEEEEE10deallocateB8ne180100ERS4_PS3_m, symObjAddr: 0x23F0, symBinAddr: 0x100003770, symSize: 0x30 }
  - { offset: 0xFBB3, size: 0x8, addend: 0x0, symName: __ZNKSt3__114__split_bufferINS_5tupleIJiiiEEERNS_9allocatorIS2_EEE8capacityB8ne180100Ev, symObjAddr: 0x2420, symBinAddr: 0x1000037A0, symSize: 0x40 }
  - { offset: 0xFBD9, size: 0x8, addend: 0x0, symName: __ZNSt3__114__split_bufferINS_5tupleIJiiiEEERNS_9allocatorIS2_EEE17__destruct_at_endB8ne180100EPS2_, symObjAddr: 0x2460, symBinAddr: 0x1000037E0, symSize: 0x30 }
  - { offset: 0xFC0D, size: 0x8, addend: 0x0, symName: __ZNSt3__114__split_bufferINS_5tupleIJiiiEEERNS_9allocatorIS2_EEE17__destruct_at_endB8ne180100EPS2_NS_17integral_constantIbLb0EEE, symObjAddr: 0x2490, symBinAddr: 0x100003810, symSize: 0x80 }
  - { offset: 0xFC4D, size: 0x8, addend: 0x0, symName: __ZNSt3__19allocatorINS_5tupleIJiiiEEEE10deallocateB8ne180100EPS2_m, symObjAddr: 0x2510, symBinAddr: 0x100003890, symSize: 0x50 }
  - { offset: 0xFC8F, size: 0x8, addend: 0x0, symName: __ZNKSt3__114__split_bufferINS_5tupleIJiiiEEERNS_9allocatorIS2_EEE9__end_capB8ne180100Ev, symObjAddr: 0x2660, symBinAddr: 0x1000039E0, symSize: 0x20 }
  - { offset: 0xFCB5, size: 0x8, addend: 0x0, symName: __ZNKSt3__117__compressed_pairIPNS_5tupleIJiiiEEERNS_9allocatorIS2_EEE5firstB8ne180100Ev, symObjAddr: 0x2680, symBinAddr: 0x100003A00, symSize: 0x20 }
  - { offset: 0xFCDB, size: 0x8, addend: 0x0, symName: __ZNKSt3__16__lessIvvEclB8ne180100INS_5tupleIJiiiEEES4_EEbRKT_RKT0_, symObjAddr: 0x2D00, symBinAddr: 0x100004080, symSize: 0x50 }
  - { offset: 0xFD2F, size: 0x8, addend: 0x0, symName: __ZNSt3__18_IterOpsINS_17_ClassicAlgPolicyEE9iter_swapB8ne180100IRPNS_5tupleIJiiiEEES7_EEvOT_OT0_, symObjAddr: 0x2D50, symBinAddr: 0x1000040D0, symSize: 0x30 }
  - { offset: 0xFD77, size: 0x8, addend: 0x0, symName: __ZNSt3__18_IterOpsINS_17_ClassicAlgPolicyEE9iter_swapB8ne180100IRPNS_5tupleIJiiiEEES6_EEvOT_OT0_, symObjAddr: 0x3260, symBinAddr: 0x1000045E0, symSize: 0x30 }
  - { offset: 0xFDC9, size: 0x8, addend: 0x0, symName: __ZNSt3__120_CmpUnspecifiedParamC1B8ne180100EMS0_i, symObjAddr: 0x3C00, symBinAddr: 0x100004F80, symSize: 0x30 }
  - { offset: 0xFDFD, size: 0x8, addend: 0x0, symName: __ZNKSt3__112__tuple_leafILm0EiLb0EE3getB8ne180100Ev, symObjAddr: 0x3E50, symBinAddr: 0x1000051D0, symSize: 0x10 }
  - { offset: 0xFE23, size: 0x8, addend: 0x0, symName: __ZNKSt3__112__tuple_leafILm1EiLb0EE3getB8ne180100Ev, symObjAddr: 0x3E60, symBinAddr: 0x1000051E0, symSize: 0x10 }
  - { offset: 0xFE49, size: 0x8, addend: 0x0, symName: __ZNKSt3__112__tuple_leafILm2EiLb0EE3getB8ne180100Ev, symObjAddr: 0x3E70, symBinAddr: 0x1000051F0, symSize: 0x10 }
  - { offset: 0xFE6F, size: 0x8, addend: 0x0, symName: __ZNSt3__120_CmpUnspecifiedParamC2B8ne180100EMS0_i, symObjAddr: 0x3E80, symBinAddr: 0x100005200, symSize: 0x10 }
  - { offset: 0xFEA3, size: 0x8, addend: 0x0, symName: __ZNSt3__15tupleIJiiiEE4swapB8ne180100ERS1_, symObjAddr: 0x3EF0, symBinAddr: 0x100005270, symSize: 0x30 }
  - { offset: 0xFED8, size: 0x8, addend: 0x0, symName: __ZNSt3__112__tuple_implINS_15__tuple_indicesIJLm0ELm1ELm2EEEEJiiiEE4swapB8ne180100ERS3_, symObjAddr: 0x3F20, symBinAddr: 0x1000052A0, symSize: 0x70 }
  - { offset: 0xFF0D, size: 0x8, addend: 0x0, symName: __ZNSt3__112__tuple_leafILm0EiLb0EE4swapB8ne180100ERS1_, symObjAddr: 0x3FB0, symBinAddr: 0x100005330, symSize: 0x30 }
  - { offset: 0xFF42, size: 0x8, addend: 0x0, symName: __ZNSt3__112__tuple_leafILm1EiLb0EE4swapB8ne180100ERS1_, symObjAddr: 0x3FE0, symBinAddr: 0x100005360, symSize: 0x30 }
  - { offset: 0xFF77, size: 0x8, addend: 0x0, symName: __ZNSt3__112__tuple_leafILm2EiLb0EE4swapB8ne180100ERS1_, symObjAddr: 0x4010, symBinAddr: 0x100005390, symSize: 0x30 }
  - { offset: 0xFFAC, size: 0x8, addend: 0x0, symName: __ZNSt3__112__tuple_leafILm0EiLb0EE3getB8ne180100Ev, symObjAddr: 0x40B0, symBinAddr: 0x100005430, symSize: 0x10 }
  - { offset: 0xFFD2, size: 0x8, addend: 0x0, symName: __ZNSt3__112__tuple_leafILm1EiLb0EE3getB8ne180100Ev, symObjAddr: 0x4100, symBinAddr: 0x100005480, symSize: 0x10 }
  - { offset: 0xFFF8, size: 0x8, addend: 0x0, symName: __ZNSt3__112__tuple_leafILm2EiLb0EE3getB8ne180100Ev, symObjAddr: 0x4150, symBinAddr: 0x1000054D0, symSize: 0x10 }
  - { offset: 0x10023, size: 0x8, addend: 0x0, symName: __ZNSt3__18_IterOpsINS_17_ClassicAlgPolicyEE11__iter_moveB8ne180100IRPNS_5tupleIJiiiEEELi0EEEDTclsr3stdE4movedeclsr3stdE7declvalIRT_EEEEOS8_, symObjAddr: 0x4330, symBinAddr: 0x1000056B0, symSize: 0x20 }
  - { offset: 0x10055, size: 0x8, addend: 0x0, symName: __ZNSt3__15tupleIJiiiEEaSB8ne180100EOS1_, symObjAddr: 0x4350, symBinAddr: 0x1000056D0, symSize: 0x40 }
  - { offset: 0x1008A, size: 0x8, addend: 0x0, symName: __ZNSt3__18_IterOpsINS_17_ClassicAlgPolicyEE25__validate_iter_referenceB8ne180100IRPNS_5tupleIJiiiEEEEEvv, symObjAddr: 0x4390, symBinAddr: 0x100005710, symSize: 0x10 }
  - { offset: 0x100A8, size: 0x8, addend: 0x0, symName: __ZNSt3__18_IterOpsINS_17_ClassicAlgPolicyEE4nextB8ne180100IPNS_5tupleIJiiiEEEEET_S7_S7_, symObjAddr: 0x4430, symBinAddr: 0x1000057B0, symSize: 0x20 }
  - { offset: 0x100DE, size: 0x8, addend: 0x0, symName: __ZNSt3__18_IterOpsINS_17_ClassicAlgPolicyEE9iter_swapB8ne180100IPNS_5tupleIJiiiEEES6_EEvOT_OT0_, symObjAddr: 0x51D0, symBinAddr: 0x100006550, symSize: 0x30 }
  - { offset: 0x1013F, size: 0x8, addend: 0x0, symName: __ZNSt3__14pairIPNS_5tupleIJiiiEEEbEC1B8ne180100IRS3_RbLi0EEEOT_OT0_, symObjAddr: 0x5220, symBinAddr: 0x1000065A0, symSize: 0x30 }
  - { offset: 0x1019D, size: 0x8, addend: 0x0, symName: __ZNSt3__14pairIPNS_5tupleIJiiiEEEbEC2B8ne180100IRS3_RbLi0EEEOT_OT0_, symObjAddr: 0x5250, symBinAddr: 0x1000065D0, symSize: 0x30 }
  - { offset: 0x101FB, size: 0x8, addend: 0x0, symName: __ZNSt3__118__unwrap_iter_implINS_11__wrap_iterIPNS_5tupleIJiiiEEEEELb1EE8__unwrapB8ne180100ES5_, symObjAddr: 0x5280, symBinAddr: 0x100006600, symSize: 0x20 }
  - { offset: 0x10228, size: 0x8, addend: 0x0, symName: __ZNSt3__119__to_address_helperINS_11__wrap_iterIPNS_5tupleIJiiiEEEEEvE6__callB8ne180100ERKS5_, symObjAddr: 0x52C0, symBinAddr: 0x100006640, symSize: 0x30 }
  - { offset: 0x1024B, size: 0x8, addend: 0x0, symName: __ZNSt3__114pointer_traitsINS_11__wrap_iterIPNS_5tupleIJiiiEEEEEE10to_addressB8ne180100ES5_, symObjAddr: 0x52F0, symBinAddr: 0x100006670, symSize: 0x30 }
  - { offset: 0x1026E, size: 0x8, addend: 0x0, symName: __ZNKSt3__111__wrap_iterIPNS_5tupleIJiiiEEEE4baseB8ne180100Ev, symObjAddr: 0x5320, symBinAddr: 0x1000066A0, symSize: 0x20 }
  - { offset: 0x10294, size: 0x8, addend: 0x0, symName: __ZNSt3__16vectorINS_5tupleIJiiiEEENS_9allocatorIS2_EEE11__make_iterB8ne180100EPS2_, symObjAddr: 0x5340, symBinAddr: 0x1000066C0, symSize: 0x30 }
  - { offset: 0x102C9, size: 0x8, addend: 0x0, symName: __ZNSt3__111__wrap_iterIPNS_5tupleIJiiiEEEEC1B8ne180100ES3_, symObjAddr: 0x5370, symBinAddr: 0x1000066F0, symSize: 0x30 }
  - { offset: 0x10301, size: 0x8, addend: 0x0, symName: __ZNSt3__111__wrap_iterIPNS_5tupleIJiiiEEEEC2B8ne180100ES3_, symObjAddr: 0x53A0, symBinAddr: 0x100006720, symSize: 0x20 }
  - { offset: 0x10339, size: 0x8, addend: 0x0, symName: __ZNSt3__114priority_queueIiNS_6vectorIiNS_9allocatorIiEEEENS_4lessIiEEED2Ev, symObjAddr: 0x5400, symBinAddr: 0x100006780, symSize: 0x20 }
  - { offset: 0x10366, size: 0x8, addend: 0x0, symName: __ZNSt3__16vectorIiNS_9allocatorIiEEED1B8ne180100Ev, symObjAddr: 0x5420, symBinAddr: 0x1000067A0, symSize: 0x20 }
  - { offset: 0x10390, size: 0x8, addend: 0x0, symName: __ZNSt3__16vectorIiNS_9allocatorIiEEED2B8ne180100Ev, symObjAddr: 0x5440, symBinAddr: 0x1000067C0, symSize: 0x40 }
  - { offset: 0x103BA, size: 0x8, addend: 0x0, symName: __ZNSt3__16vectorIiNS_9allocatorIiEEE16__destroy_vectorC1B8ne180100ERS3_, symObjAddr: 0x5480, symBinAddr: 0x100006800, symSize: 0x30 }
  - { offset: 0x103F3, size: 0x8, addend: 0x0, symName: __ZNSt3__16vectorIiNS_9allocatorIiEEE16__destroy_vectorclB8ne180100Ev, symObjAddr: 0x54B0, symBinAddr: 0x100006830, symSize: 0x80 }
  - { offset: 0x10419, size: 0x8, addend: 0x0, symName: __ZNSt3__16vectorIiNS_9allocatorIiEEE16__destroy_vectorC2B8ne180100ERS3_, symObjAddr: 0x5530, symBinAddr: 0x1000068B0, symSize: 0x20 }
  - { offset: 0x10452, size: 0x8, addend: 0x0, symName: __ZNSt3__16vectorIiNS_9allocatorIiEEE7__clearB8ne180100Ev, symObjAddr: 0x5550, symBinAddr: 0x1000068D0, symSize: 0x20 }
  - { offset: 0x10478, size: 0x8, addend: 0x0, symName: __ZNKSt3__16vectorIiNS_9allocatorIiEEE17__annotate_deleteB8ne180100Ev, symObjAddr: 0x5570, symBinAddr: 0x1000068F0, symSize: 0x10 }
  - { offset: 0x1049E, size: 0x8, addend: 0x0, symName: __ZNSt3__116allocator_traitsINS_9allocatorIiEEE10deallocateB8ne180100ERS2_Pim, symObjAddr: 0x5580, symBinAddr: 0x100006900, symSize: 0x30 }
  - { offset: 0x104E0, size: 0x8, addend: 0x0, symName: __ZNSt3__16vectorIiNS_9allocatorIiEEE7__allocB8ne180100Ev, symObjAddr: 0x55B0, symBinAddr: 0x100006930, symSize: 0x20 }
  - { offset: 0x10506, size: 0x8, addend: 0x0, symName: __ZNKSt3__16vectorIiNS_9allocatorIiEEE8capacityB8ne180100Ev, symObjAddr: 0x55D0, symBinAddr: 0x100006950, symSize: 0x30 }
  - { offset: 0x1052C, size: 0x8, addend: 0x0, symName: __ZNSt3__16vectorIiNS_9allocatorIiEEE22__base_destruct_at_endB8ne180100EPi, symObjAddr: 0x5600, symBinAddr: 0x100006980, symSize: 0x80 }
  - { offset: 0x10570, size: 0x8, addend: 0x0, symName: __ZNSt3__116allocator_traitsINS_9allocatorIiEEE7destroyB8ne180100IivvEEvRS2_PT_, symObjAddr: 0x5680, symBinAddr: 0x100006A00, symSize: 0x20 }
  - { offset: 0x105AA, size: 0x8, addend: 0x0, symName: __ZNSt3__19allocatorIiE10deallocateB8ne180100EPim, symObjAddr: 0x56C0, symBinAddr: 0x100006A40, symSize: 0x40 }
  - { offset: 0x105EC, size: 0x8, addend: 0x0, symName: __ZNSt3__117__compressed_pairIPiNS_9allocatorIiEEE6secondB8ne180100Ev, symObjAddr: 0x5700, symBinAddr: 0x100006A80, symSize: 0x20 }
  - { offset: 0x10612, size: 0x8, addend: 0x0, symName: __ZNSt3__122__compressed_pair_elemINS_9allocatorIiEELi1ELb1EE5__getB8ne180100Ev, symObjAddr: 0x5720, symBinAddr: 0x100006AA0, symSize: 0x10 }
  - { offset: 0x10638, size: 0x8, addend: 0x0, symName: __ZNKSt3__16vectorIiNS_9allocatorIiEEE9__end_capB8ne180100Ev, symObjAddr: 0x5730, symBinAddr: 0x100006AB0, symSize: 0x20 }
  - { offset: 0x1065E, size: 0x8, addend: 0x0, symName: __ZNKSt3__117__compressed_pairIPiNS_9allocatorIiEEE5firstB8ne180100Ev, symObjAddr: 0x5750, symBinAddr: 0x100006AD0, symSize: 0x20 }
  - { offset: 0x10684, size: 0x8, addend: 0x0, symName: __ZNKSt3__122__compressed_pair_elemIPiLi0ELb0EE5__getB8ne180100Ev, symObjAddr: 0x5770, symBinAddr: 0x100006AF0, symSize: 0x10 }
  - { offset: 0x106AA, size: 0x8, addend: 0x0, symName: __ZNSt3__16vectorINS_5tupleIJiiiEEENS_9allocatorIS2_EEED2B8ne180100Ev, symObjAddr: 0x5780, symBinAddr: 0x100006B00, symSize: 0x40 }
  - { offset: 0x106D4, size: 0x8, addend: 0x0, symName: __ZNSt3__16vectorINS_5tupleIJiiiEEENS_9allocatorIS2_EEE16__destroy_vectorC1B8ne180100ERS5_, symObjAddr: 0x57C0, symBinAddr: 0x100006B40, symSize: 0x30 }
  - { offset: 0x1070D, size: 0x8, addend: 0x0, symName: __ZNSt3__16vectorINS_5tupleIJiiiEEENS_9allocatorIS2_EEE16__destroy_vectorclB8ne180100Ev, symObjAddr: 0x57F0, symBinAddr: 0x100006B70, symSize: 0x80 }
  - { offset: 0x10733, size: 0x8, addend: 0x0, symName: __ZNSt3__16vectorINS_5tupleIJiiiEEENS_9allocatorIS2_EEE16__destroy_vectorC2B8ne180100ERS5_, symObjAddr: 0x5870, symBinAddr: 0x100006BF0, symSize: 0x20 }
  - { offset: 0x1076C, size: 0x8, addend: 0x0, symName: __ZNSt3__16vectorINS_5tupleIJiiiEEENS_9allocatorIS2_EEE7__clearB8ne180100Ev, symObjAddr: 0x5890, symBinAddr: 0x100006C10, symSize: 0x20 }
  - { offset: 0x10792, size: 0x8, addend: 0x0, symName: __ZNSt3__16vectorINS_5tupleIJiiiEEENS_9allocatorIS2_EEE22__base_destruct_at_endB8ne180100EPS2_, symObjAddr: 0x58B0, symBinAddr: 0x100006C30, symSize: 0x80 }
  - { offset: 0x107D6, size: 0x8, addend: 0x0, symName: __ZNSt3__114priority_queueIiNS_6vectorIiNS_9allocatorIiEEEENS_4lessIiEEEC2B8ne180100Ev, symObjAddr: 0x5930, symBinAddr: 0x100006CB0, symSize: 0x20 }
  - { offset: 0x10800, size: 0x8, addend: 0x0, symName: __ZNSt3__16vectorIiNS_9allocatorIiEEEC1B8ne180100Ev, symObjAddr: 0x5950, symBinAddr: 0x100006CD0, symSize: 0x20 }
  - { offset: 0x1082A, size: 0x8, addend: 0x0, symName: __ZNSt3__16vectorIiNS_9allocatorIiEEEC2B8ne180100Ev, symObjAddr: 0x5970, symBinAddr: 0x100006CF0, symSize: 0x50 }
  - { offset: 0x10854, size: 0x8, addend: 0x0, symName: __ZNSt3__117__compressed_pairIPiNS_9allocatorIiEEEC1B8ne180100IDnNS_18__default_init_tagEEEOT_OT0_, symObjAddr: 0x59C0, symBinAddr: 0x100006D40, symSize: 0x30 }
  - { offset: 0x108AC, size: 0x8, addend: 0x0, symName: __ZNSt3__117__compressed_pairIPiNS_9allocatorIiEEEC2B8ne180100IDnNS_18__default_init_tagEEEOT_OT0_, symObjAddr: 0x59F0, symBinAddr: 0x100006D70, symSize: 0x40 }
  - { offset: 0x10904, size: 0x8, addend: 0x0, symName: __ZNSt3__122__compressed_pair_elemIPiLi0ELb0EEC2B8ne180100IDnvEEOT_, symObjAddr: 0x5A30, symBinAddr: 0x100006DB0, symSize: 0x20 }
  - { offset: 0x10946, size: 0x8, addend: 0x0, symName: __ZNSt3__122__compressed_pair_elemINS_9allocatorIiEELi1ELb1EEC2B8ne180100ENS_18__default_init_tagE, symObjAddr: 0x5A50, symBinAddr: 0x100006DD0, symSize: 0x20 }
  - { offset: 0x1097A, size: 0x8, addend: 0x0, symName: __ZNSt3__19allocatorIiEC2B8ne180100Ev, symObjAddr: 0x5A70, symBinAddr: 0x100006DF0, symSize: 0x20 }
  - { offset: 0x109A4, size: 0x8, addend: 0x0, symName: __ZNSt3__116__non_trivial_ifILb1ENS_9allocatorIiEEEC2B8ne180100Ev, symObjAddr: 0x5A90, symBinAddr: 0x100006E10, symSize: 0x10 }
  - { offset: 0x109CE, size: 0x8, addend: 0x0, symName: __ZNSt3__16vectorIiNS_9allocatorIiEEE9push_backB8ne180100ERKi, symObjAddr: 0x5AA0, symBinAddr: 0x100006E20, symSize: 0x80 }
  - { offset: 0x10A14, size: 0x8, addend: 0x0, symName: __ZNSt3__16vectorIiNS_9allocatorIiEEE5beginB8ne180100Ev, symObjAddr: 0x5B60, symBinAddr: 0x100006EE0, symSize: 0x30 }
  - { offset: 0x10A3C, size: 0x8, addend: 0x0, symName: __ZNSt3__16vectorIiNS_9allocatorIiEEE3endB8ne180100Ev, symObjAddr: 0x5B90, symBinAddr: 0x100006F10, symSize: 0x30 }
  - { offset: 0x10A64, size: 0x8, addend: 0x0, symName: __ZNSt3__16vectorIiNS_9allocatorIiEEE9__end_capB8ne180100Ev, symObjAddr: 0x5BC0, symBinAddr: 0x100006F40, symSize: 0x20 }
  - { offset: 0x10A8A, size: 0x8, addend: 0x0, symName: __ZNSt3__16vectorIiNS_9allocatorIiEEE22__construct_one_at_endB8ne180100IJRKiEEEvDpOT_, symObjAddr: 0x5BE0, symBinAddr: 0x100006F60, symSize: 0x90 }
  - { offset: 0x10AD9, size: 0x8, addend: 0x0, symName: __ZNSt3__16vectorIiNS_9allocatorIiEEE21__push_back_slow_pathIRKiEEPiOT_, symObjAddr: 0x5C70, symBinAddr: 0x100006FF0, symSize: 0xE0 }
  - { offset: 0x10B37, size: 0x8, addend: 0x0, symName: __ZNSt3__117__compressed_pairIPiNS_9allocatorIiEEE5firstB8ne180100Ev, symObjAddr: 0x5D50, symBinAddr: 0x1000070D0, symSize: 0x20 }
  - { offset: 0x10B5D, size: 0x8, addend: 0x0, symName: __ZNSt3__122__compressed_pair_elemIPiLi0ELb0EE5__getB8ne180100Ev, symObjAddr: 0x5D70, symBinAddr: 0x1000070F0, symSize: 0x10 }
  - { offset: 0x10B9C, size: 0x8, addend: 0x0, symName: __ZNSt3__16vectorIiNS_9allocatorIiEEE21_ConstructTransactionC1B8ne180100ERS3_m, symObjAddr: 0x5D80, symBinAddr: 0x100007100, symSize: 0x30 }
  - { offset: 0x10BE4, size: 0x8, addend: 0x0, symName: __ZNSt3__116allocator_traitsINS_9allocatorIiEEE9constructB8ne180100IiJRKiEvvEEvRS2_PT_DpOT0_, symObjAddr: 0x5DB0, symBinAddr: 0x100007130, symSize: 0x30 }
  - { offset: 0x10C38, size: 0x8, addend: 0x0, symName: __ZNSt3__16vectorIiNS_9allocatorIiEEE21_ConstructTransactionD1B8ne180100Ev, symObjAddr: 0x5DE0, symBinAddr: 0x100007160, symSize: 0x20 }
  - { offset: 0x10C62, size: 0x8, addend: 0x0, symName: __ZNSt3__16vectorIiNS_9allocatorIiEEE21_ConstructTransactionC2B8ne180100ERS3_m, symObjAddr: 0x5E00, symBinAddr: 0x100007180, symSize: 0x40 }
  - { offset: 0x10CAA, size: 0x8, addend: 0x0, symName: __ZNSt3__16vectorIiNS_9allocatorIiEEE21_ConstructTransactionD2B8ne180100Ev, symObjAddr: 0x5E90, symBinAddr: 0x100007210, symSize: 0x20 }
  - { offset: 0x10CD4, size: 0x8, addend: 0x0, symName: __ZNKSt3__16vectorIiNS_9allocatorIiEEE11__recommendB8ne180100Em, symObjAddr: 0x5EB0, symBinAddr: 0x100007230, symSize: 0x90 }
  - { offset: 0x10D29, size: 0x8, addend: 0x0, symName: __ZNKSt3__16vectorIiNS_9allocatorIiEEE4sizeB8ne180100Ev, symObjAddr: 0x5F40, symBinAddr: 0x1000072C0, symSize: 0x20 }
  - { offset: 0x10D4F, size: 0x8, addend: 0x0, symName: __ZNSt3__114__split_bufferIiRNS_9allocatorIiEEEC1EmmS3_, symObjAddr: 0x5F60, symBinAddr: 0x1000072E0, symSize: 0x40 }
  - { offset: 0x10DA5, size: 0x8, addend: 0x0, symName: __ZNSt3__114__split_bufferIiRNS_9allocatorIiEEED1Ev, symObjAddr: 0x60C0, symBinAddr: 0x100007440, symSize: 0x20 }
  - { offset: 0x10DD1, size: 0x8, addend: 0x0, symName: __ZNKSt3__16vectorIiNS_9allocatorIiEEE8max_sizeEv, symObjAddr: 0x60E0, symBinAddr: 0x100007460, symSize: 0x60 }
  - { offset: 0x10DF9, size: 0x8, addend: 0x0, symName: __ZNKSt3__16vectorIiNS_9allocatorIiEEE20__throw_length_errorB8ne180100Ev, symObjAddr: 0x6140, symBinAddr: 0x1000074C0, symSize: 0x20 }
  - { offset: 0x10E29, size: 0x8, addend: 0x0, symName: __ZNSt3__116allocator_traitsINS_9allocatorIiEEE8max_sizeB8ne180100IS2_vvEEmRKS2_, symObjAddr: 0x6160, symBinAddr: 0x1000074E0, symSize: 0x20 }
  - { offset: 0x10E54, size: 0x8, addend: 0x0, symName: __ZNKSt3__16vectorIiNS_9allocatorIiEEE7__allocB8ne180100Ev, symObjAddr: 0x6180, symBinAddr: 0x100007500, symSize: 0x20 }
  - { offset: 0x10E7A, size: 0x8, addend: 0x0, symName: __ZNKSt3__117__compressed_pairIPiNS_9allocatorIiEEE6secondB8ne180100Ev, symObjAddr: 0x61A0, symBinAddr: 0x100007520, symSize: 0x20 }
  - { offset: 0x10EA0, size: 0x8, addend: 0x0, symName: __ZNKSt3__122__compressed_pair_elemINS_9allocatorIiEELi1ELb1EE5__getB8ne180100Ev, symObjAddr: 0x61C0, symBinAddr: 0x100007540, symSize: 0x10 }
  - { offset: 0x10EC6, size: 0x8, addend: 0x0, symName: __ZNSt3__114__split_bufferIiRNS_9allocatorIiEEEC2EmmS3_, symObjAddr: 0x61D0, symBinAddr: 0x100007550, symSize: 0xD0 }
  - { offset: 0x10F39, size: 0x8, addend: 0x0, symName: __ZNSt3__117__compressed_pairIPiRNS_9allocatorIiEEEC1B8ne180100IDnS4_EEOT_OT0_, symObjAddr: 0x62A0, symBinAddr: 0x100007620, symSize: 0x30 }
  - { offset: 0x10F91, size: 0x8, addend: 0x0, symName: __ZNSt3__114__split_bufferIiRNS_9allocatorIiEEE7__allocB8ne180100Ev, symObjAddr: 0x6310, symBinAddr: 0x100007690, symSize: 0x20 }
  - { offset: 0x10FB7, size: 0x8, addend: 0x0, symName: __ZNSt3__114__split_bufferIiRNS_9allocatorIiEEE9__end_capB8ne180100Ev, symObjAddr: 0x6330, symBinAddr: 0x1000076B0, symSize: 0x20 }
  - { offset: 0x10FDD, size: 0x8, addend: 0x0, symName: __ZNSt3__117__compressed_pairIPiRNS_9allocatorIiEEEC2B8ne180100IDnS4_EEOT_OT0_, symObjAddr: 0x6350, symBinAddr: 0x1000076D0, symSize: 0x40 }
  - { offset: 0x11035, size: 0x8, addend: 0x0, symName: __ZNSt3__122__compressed_pair_elemIRNS_9allocatorIiEELi1ELb0EEC2B8ne180100IS3_vEEOT_, symObjAddr: 0x6390, symBinAddr: 0x100007710, symSize: 0x20 }
  - { offset: 0x11077, size: 0x8, addend: 0x0, symName: __ZNSt3__19allocatorIiE8allocateB8ne180100Em, symObjAddr: 0x63B0, symBinAddr: 0x100007730, symSize: 0x50 }
  - { offset: 0x110AB, size: 0x8, addend: 0x0, symName: __ZNSt3__117__compressed_pairIPiRNS_9allocatorIiEEE6secondB8ne180100Ev, symObjAddr: 0x6400, symBinAddr: 0x100007780, symSize: 0x20 }
  - { offset: 0x110D1, size: 0x8, addend: 0x0, symName: __ZNSt3__122__compressed_pair_elemIRNS_9allocatorIiEELi1ELb0EE5__getB8ne180100Ev, symObjAddr: 0x6420, symBinAddr: 0x1000077A0, symSize: 0x20 }
  - { offset: 0x110F7, size: 0x8, addend: 0x0, symName: __ZNSt3__117__compressed_pairIPiRNS_9allocatorIiEEE5firstB8ne180100Ev, symObjAddr: 0x6440, symBinAddr: 0x1000077C0, symSize: 0x20 }
  - { offset: 0x1111D, size: 0x8, addend: 0x0, symName: __ZNSt3__116reverse_iteratorIPiEC1B8ne180100ES1_, symObjAddr: 0x64D0, symBinAddr: 0x100007850, symSize: 0x30 }
  - { offset: 0x11155, size: 0x8, addend: 0x0, symName: __ZNKSt3__116reverse_iteratorIPiE4baseB8ne180100Ev, symObjAddr: 0x6500, symBinAddr: 0x100007880, symSize: 0x20 }
  - { offset: 0x1117B, size: 0x8, addend: 0x0, symName: __ZNKSt3__16vectorIiNS_9allocatorIiEEE14__annotate_newB8ne180100Em, symObjAddr: 0x6560, symBinAddr: 0x1000078E0, symSize: 0x10 }
  - { offset: 0x111D3, size: 0x8, addend: 0x0, symName: __ZNKSt3__111__move_loopINS_17_ClassicAlgPolicyEEclB8ne180100INS_16reverse_iteratorIPiEES6_S6_EENS_4pairIT_T1_EES8_T0_S9_, symObjAddr: 0x6980, symBinAddr: 0x100007D00, symSize: 0xA0 }
  - { offset: 0x1123E, size: 0x8, addend: 0x0, symName: __ZNSt3__119__unwrap_range_implINS_16reverse_iteratorIPiEES3_E8__unwrapB8ne180100ES3_S3_, symObjAddr: 0x6B60, symBinAddr: 0x100007EE0, symSize: 0x90 }
  - { offset: 0x11274, size: 0x8, addend: 0x0, symName: __ZNSt3__14pairINS_16reverse_iteratorIPiEES3_EC1B8ne180100IS3_S3_Li0EEEOT_OT0_, symObjAddr: 0x6BF0, symBinAddr: 0x100007F70, symSize: 0x30 }
  - { offset: 0x112D2, size: 0x8, addend: 0x0, symName: __ZNSt3__14pairINS_16reverse_iteratorIPiEES3_EC2B8ne180100IS3_S3_Li0EEEOT_OT0_, symObjAddr: 0x6C20, symBinAddr: 0x100007FA0, symSize: 0x40 }
  - { offset: 0x11335, size: 0x8, addend: 0x0, symName: __ZNSt3__18_IterOpsINS_17_ClassicAlgPolicyEE11__iter_moveB8ne180100IRNS_16reverse_iteratorIPiEELi0EEEDTclsr3stdE4movedeclsr3stdE7declvalIRT_EEEEOS8_, symObjAddr: 0x6CA0, symBinAddr: 0x100008020, symSize: 0x20 }
  - { offset: 0x11367, size: 0x8, addend: 0x0, symName: __ZNKSt3__116reverse_iteratorIPiEdeB8ne180100Ev, symObjAddr: 0x6CC0, symBinAddr: 0x100008040, symSize: 0x30 }
  - { offset: 0x1139B, size: 0x8, addend: 0x0, symName: __ZNSt3__116reverse_iteratorIPiEppB8ne180100Ev, symObjAddr: 0x6CF0, symBinAddr: 0x100008070, symSize: 0x20 }
  - { offset: 0x113C1, size: 0x8, addend: 0x0, symName: __ZNSt3__18_IterOpsINS_17_ClassicAlgPolicyEE25__validate_iter_referenceB8ne180100IRNS_16reverse_iteratorIPiEEEEvv, symObjAddr: 0x6D10, symBinAddr: 0x100008090, symSize: 0x10 }
  - { offset: 0x113DF, size: 0x8, addend: 0x0, symName: __ZNSt3__118__unwrap_iter_implINS_16reverse_iteratorIPiEELb0EE8__unwrapB8ne180100ES3_, symObjAddr: 0x6D20, symBinAddr: 0x1000080A0, symSize: 0x20 }
  - { offset: 0x11402, size: 0x8, addend: 0x0, symName: __ZNSt3__119__unwrap_range_implINS_16reverse_iteratorIPiEES3_E8__rewrapB8ne180100ES3_S3_, symObjAddr: 0x6D40, symBinAddr: 0x1000080C0, symSize: 0x60 }
  - { offset: 0x11433, size: 0x8, addend: 0x0, symName: __ZNSt3__118__unwrap_iter_implINS_16reverse_iteratorIPiEELb0EE8__rewrapB8ne180100ES3_S3_, symObjAddr: 0x6DA0, symBinAddr: 0x100008120, symSize: 0x30 }
  - { offset: 0x11460, size: 0x8, addend: 0x0, symName: __ZNSt3__116reverse_iteratorIPiEC2B8ne180100ES1_, symObjAddr: 0x6DD0, symBinAddr: 0x100008150, symSize: 0x30 }
  - { offset: 0x11498, size: 0x8, addend: 0x0, symName: __ZNSt3__114__split_bufferIiRNS_9allocatorIiEEED2Ev, symObjAddr: 0x6E00, symBinAddr: 0x100008180, symSize: 0x70 }
  - { offset: 0x114C4, size: 0x8, addend: 0x0, symName: __ZNSt3__114__split_bufferIiRNS_9allocatorIiEEE5clearB8ne180100Ev, symObjAddr: 0x6E70, symBinAddr: 0x1000081F0, symSize: 0x20 }
  - { offset: 0x114EA, size: 0x8, addend: 0x0, symName: __ZNKSt3__114__split_bufferIiRNS_9allocatorIiEEE8capacityB8ne180100Ev, symObjAddr: 0x6E90, symBinAddr: 0x100008210, symSize: 0x30 }
  - { offset: 0x11510, size: 0x8, addend: 0x0, symName: __ZNSt3__114__split_bufferIiRNS_9allocatorIiEEE17__destruct_at_endB8ne180100EPi, symObjAddr: 0x6EC0, symBinAddr: 0x100008240, symSize: 0x30 }
  - { offset: 0x11544, size: 0x8, addend: 0x0, symName: __ZNSt3__114__split_bufferIiRNS_9allocatorIiEEE17__destruct_at_endB8ne180100EPiNS_17integral_constantIbLb0EEE, symObjAddr: 0x6EF0, symBinAddr: 0x100008270, symSize: 0x80 }
  - { offset: 0x11584, size: 0x8, addend: 0x0, symName: __ZNKSt3__114__split_bufferIiRNS_9allocatorIiEEE9__end_capB8ne180100Ev, symObjAddr: 0x6F70, symBinAddr: 0x1000082F0, symSize: 0x20 }
  - { offset: 0x115AA, size: 0x8, addend: 0x0, symName: __ZNKSt3__117__compressed_pairIPiRNS_9allocatorIiEEE5firstB8ne180100Ev, symObjAddr: 0x6F90, symBinAddr: 0x100008310, symSize: 0x20 }
  - { offset: 0x115D0, size: 0x8, addend: 0x0, symName: __ZNKSt3__111__wrap_iterIPiE4baseB8ne180100Ev, symObjAddr: 0x7190, symBinAddr: 0x100008510, symSize: 0x20 }
  - { offset: 0x115F6, size: 0x8, addend: 0x0, symName: __ZNKSt3__111__wrap_iterIPiEplB8ne180100El, symObjAddr: 0x71B0, symBinAddr: 0x100008530, symSize: 0x40 }
  - { offset: 0x11638, size: 0x8, addend: 0x0, symName: __ZNKSt3__14lessIiEclB8ne180100ERKiS3_, symObjAddr: 0x71F0, symBinAddr: 0x100008570, symSize: 0x30 }
  - { offset: 0x1167C, size: 0x8, addend: 0x0, symName: __ZNKSt3__111__wrap_iterIPiEdeB8ne180100Ev, symObjAddr: 0x7220, symBinAddr: 0x1000085A0, symSize: 0x20 }
  - { offset: 0x116A2, size: 0x8, addend: 0x0, symName: __ZNSt3__111__wrap_iterIPiEmmB8ne180100Ev, symObjAddr: 0x7240, symBinAddr: 0x1000085C0, symSize: 0x20 }
  - { offset: 0x116C8, size: 0x8, addend: 0x0, symName: __ZNSt3__18_IterOpsINS_17_ClassicAlgPolicyEE11__iter_moveB8ne180100IRNS_11__wrap_iterIPiEELi0EEEDTclsr3stdE4movedeclsr3stdE7declvalIRT_EEEEOS8_, symObjAddr: 0x7260, symBinAddr: 0x1000085E0, symSize: 0x20 }
  - { offset: 0x116FA, size: 0x8, addend: 0x0, symName: __ZNSt3__111__wrap_iterIPiEpLB8ne180100El, symObjAddr: 0x7280, symBinAddr: 0x100008600, symSize: 0x20 }
  - { offset: 0x1172E, size: 0x8, addend: 0x0, symName: __ZNSt3__18_IterOpsINS_17_ClassicAlgPolicyEE25__validate_iter_referenceB8ne180100IRNS_11__wrap_iterIPiEEEEvv, symObjAddr: 0x72A0, symBinAddr: 0x100008620, symSize: 0x10 }
  - { offset: 0x1174C, size: 0x8, addend: 0x0, symName: __ZNSt3__16vectorIiNS_9allocatorIiEEE11__make_iterB8ne180100EPi, symObjAddr: 0x72B0, symBinAddr: 0x100008630, symSize: 0x30 }
  - { offset: 0x11781, size: 0x8, addend: 0x0, symName: __ZNSt3__111__wrap_iterIPiEC1B8ne180100ES1_, symObjAddr: 0x72E0, symBinAddr: 0x100008660, symSize: 0x30 }
  - { offset: 0x117B9, size: 0x8, addend: 0x0, symName: __ZNSt3__111__wrap_iterIPiEC2B8ne180100ES1_, symObjAddr: 0x7310, symBinAddr: 0x100008690, symSize: 0x20 }
  - { offset: 0x117F1, size: 0x8, addend: 0x0, symName: __ZNKSt3__16vectorIiNS_9allocatorIiEEE5emptyB8ne180100Ev, symObjAddr: 0x7330, symBinAddr: 0x1000086B0, symSize: 0x20 }
  - { offset: 0x11817, size: 0x8, addend: 0x0, symName: __ZNKSt3__16vectorIiNS_9allocatorIiEEE5frontB8ne180100Ev, symObjAddr: 0x7350, symBinAddr: 0x1000086D0, symSize: 0x20 }
  - { offset: 0x1183D, size: 0x8, addend: 0x0, symName: __ZNSt3__16vectorIiNS_9allocatorIiEEE8pop_backEv, symObjAddr: 0x73C0, symBinAddr: 0x100008740, symSize: 0x30 }
  - { offset: 0x11865, size: 0x8, addend: 0x0, symName: __ZNSt3__111__wrap_iterIPiEppB8ne180100Ev, symObjAddr: 0x7670, symBinAddr: 0x1000089F0, symSize: 0x20 }
  - { offset: 0x1188B, size: 0x8, addend: 0x0, symName: __ZNSt3__16vectorIiNS_9allocatorIiEEE17__destruct_at_endB8ne180100EPi, symObjAddr: 0x7690, symBinAddr: 0x100008A10, symSize: 0x50 }
  - { offset: 0x118CF, size: 0x8, addend: 0x0, symName: __ZNKSt3__16vectorIiNS_9allocatorIiEEE17__annotate_shrinkB8ne180100Em, symObjAddr: 0x76E0, symBinAddr: 0x100008A60, symSize: 0x10 }
  - { offset: 0x11904, size: 0x8, addend: 0x0, symName: __ZNKSt3__19basic_iosIcNS_11char_traitsIcEEE5widenB8ne180100Ec, symObjAddr: 0x76F0, symBinAddr: 0x100008A70, symSize: 0x80 }
  - { offset: 0x1197D, size: 0x8, addend: 0x0, symName: __ZNKSt3__15ctypeIcE5widenB8ne180100Ec, symObjAddr: 0x77A0, symBinAddr: 0x100008B20, symSize: 0x2B }
...
