---
triple:          'x86_64-apple-darwin'
binary-path:     e
relocations:
  - { offset: 0x610C, size: 0x8, addend: 0x0, symName: __ZNSt3__1rsB8ne180100IcNS_11char_traitsIcEEEERNS_13basic_istreamIT_T0_EES7_RS4_, symObjAddr: 0x5D0, symBinAddr: 0x100001540, symSize: 0x180 }
  - { offset: 0x685B, size: 0x8, addend: 0x0, symName: __ZNSt3__14endlB8ne180100IcNS_11char_traitsIcEEEERNS_13basic_ostreamIT_T0_EES7_, symObjAddr: 0x770, symBinAddr: 0x1000016E0, symSize: 0x50 }
  - { offset: 0x689B, size: 0x8, addend: 0x0, symName: __ZNSt3__122__make_exception_guardB8ne180100INS_6vectorIxNS_9allocatorIxEEE16__destroy_vectorEEENS_28__exception_guard_exceptionsIT_EES7_, symObjAddr: 0x8E0, symBinAddr: 0x100001850, symSize: 0x40 }
  - { offset: 0x68D0, size: 0x8, addend: 0x0, symName: __ZNSt3__119__allocate_at_leastB8ne180100INS_9allocatorIxEEEENS_19__allocation_resultINS_16allocator_traitsIT_E7pointerEEERS5_m, symObjAddr: 0xC90, symBinAddr: 0x100001C00, symSize: 0x40 }
  - { offset: 0x6913, size: 0x8, addend: 0x0, symName: __ZNSt3__13minB8ne180100ImEERKT_S3_S3_, symObjAddr: 0xD20, symBinAddr: 0x100001C90, symSize: 0x30 }
  - { offset: 0x6B40, size: 0x8, addend: 0x0, symName: __ZNSt3__13minB8ne180100ImNS_6__lessIvvEEEERKT_S5_S5_T0_, symObjAddr: 0xDB0, symBinAddr: 0x100001D20, symSize: 0x50 }
  - { offset: 0x6DCB, size: 0x8, addend: 0x0, symName: __ZNSt3__120__throw_length_errorB8ne180100EPKc, symObjAddr: 0xE90, symBinAddr: 0x100001E00, symSize: 0x70 }
  - { offset: 0x6DF3, size: 0x8, addend: 0x0, symName: __ZNSt3__117__libcpp_allocateB8ne180100Emm, symObjAddr: 0x1000, symBinAddr: 0x100001F70, symSize: 0x60 }
  - { offset: 0x6E4D, size: 0x8, addend: 0x0, symName: __ZNSt3__124__is_overaligned_for_newB8ne180100Em, symObjAddr: 0x1060, symBinAddr: 0x100001FD0, symSize: 0x20 }
  - { offset: 0x6E7B, size: 0x8, addend: 0x0, symName: __ZNSt3__121__libcpp_operator_newB8ne180100IJmSt11align_val_tEEEPvDpT_, symObjAddr: 0x1080, symBinAddr: 0x100001FF0, symSize: 0x30 }
  - { offset: 0x6EC8, size: 0x8, addend: 0x0, symName: __ZNSt3__121__libcpp_operator_newB8ne180100IJmEEEPvDpT_, symObjAddr: 0x10B0, symBinAddr: 0x100002020, symSize: 0x20 }
  - { offset: 0x6F01, size: 0x8, addend: 0x0, symName: __ZNSt3__112__to_addressB8ne180100IxEEPT_S2_, symObjAddr: 0x1180, symBinAddr: 0x1000020F0, symSize: 0x10 }
  - { offset: 0x6F36, size: 0x8, addend: 0x0, symName: __ZNSt3__114__construct_atB8ne180100IxJEPxEEPT_S3_DpOT0_, symObjAddr: 0x11F0, symBinAddr: 0x100002160, symSize: 0x20 }
  - { offset: 0x6F75, size: 0x8, addend: 0x0, symName: __ZNSt3__112construct_atB8ne180100IxJEPxEEPT_S3_DpOT0_, symObjAddr: 0x1210, symBinAddr: 0x100002180, symSize: 0x20 }
  - { offset: 0x6FB4, size: 0x8, addend: 0x0, symName: __ZNSt3__112__destroy_atB8ne180100IxLi0EEEvPT_, symObjAddr: 0x1440, symBinAddr: 0x1000023B0, symSize: 0x10 }
  - { offset: 0x6FEB, size: 0x8, addend: 0x0, symName: __ZNSt3__119__libcpp_deallocateB8ne180100EPvmm, symObjAddr: 0x1490, symBinAddr: 0x100002400, symSize: 0x60 }
  - { offset: 0x7050, size: 0x8, addend: 0x0, symName: __ZNSt3__127__do_deallocate_handle_sizeB8ne180100IJSt11align_val_tEEEvPvmDpT_, symObjAddr: 0x14F0, symBinAddr: 0x100002460, symSize: 0x30 }
  - { offset: 0x70A3, size: 0x8, addend: 0x0, symName: __ZNSt3__127__do_deallocate_handle_sizeB8ne180100IJEEEvPvmDpT_, symObjAddr: 0x1520, symBinAddr: 0x100002490, symSize: 0x20 }
  - { offset: 0x70E1, size: 0x8, addend: 0x0, symName: __ZNSt3__124__libcpp_operator_deleteB8ne180100IJPvSt11align_val_tEEEvDpT_, symObjAddr: 0x1540, symBinAddr: 0x1000024B0, symSize: 0x30 }
  - { offset: 0x712A, size: 0x8, addend: 0x0, symName: __ZNSt3__124__libcpp_operator_deleteB8ne180100IJPvEEEvDpT_, symObjAddr: 0x1570, symBinAddr: 0x1000024E0, symSize: 0x20 }
  - { offset: 0x715F, size: 0x8, addend: 0x0, symName: __ZNSt3__122__make_exception_guardB8ne180100INS_6vectorINS1_IxNS_9allocatorIxEEEENS2_IS4_EEE16__destroy_vectorEEENS_28__exception_guard_exceptionsIT_EES9_, symObjAddr: 0x16F0, symBinAddr: 0x100002660, symSize: 0x40 }
  - { offset: 0x7194, size: 0x8, addend: 0x0, symName: __ZNSt3__119__allocate_at_leastB8ne180100INS_9allocatorINS_6vectorIxNS1_IxEEEEEEEENS_19__allocation_resultINS_16allocator_traitsIT_E7pointerEEERS8_m, symObjAddr: 0x1AA0, symBinAddr: 0x100002A10, symSize: 0x40 }
  - { offset: 0x71D7, size: 0x8, addend: 0x0, symName: __ZNSt3__112__to_addressB8ne180100INS_6vectorIxNS_9allocatorIxEEEEEEPT_S6_, symObjAddr: 0x1CC0, symBinAddr: 0x100002C30, symSize: 0x10 }
  - { offset: 0x720C, size: 0x8, addend: 0x0, symName: __ZNSt3__114__construct_atB8ne180100INS_6vectorIxNS_9allocatorIxEEEEJRKS4_EPS4_EEPT_S9_DpOT0_, symObjAddr: 0x1D30, symBinAddr: 0x100002CA0, symSize: 0x30 }
  - { offset: 0x725F, size: 0x8, addend: 0x0, symName: __ZNSt3__112construct_atB8ne180100INS_6vectorIxNS_9allocatorIxEEEEJRKS4_EPS4_EEPT_S9_DpOT0_, symObjAddr: 0x1D60, symBinAddr: 0x100002CD0, symSize: 0x30 }
  - { offset: 0x72B2, size: 0x8, addend: 0x0, symName: __ZNSt3__130__uninitialized_allocator_copyB8ne180100INS_9allocatorIxEEPxS3_S3_EET2_RT_T0_T1_S4_, symObjAddr: 0x2050, symBinAddr: 0x100002FC0, symSize: 0x80 }
  - { offset: 0x734F, size: 0x8, addend: 0x0, symName: __ZNSt3__114__unwrap_rangeB8ne180100IPxS1_EEDaT_T0_, symObjAddr: 0x20D0, symBinAddr: 0x100003040, symSize: 0x40 }
  - { offset: 0x739B, size: 0x8, addend: 0x0, symName: __ZNSt3__135__uninitialized_allocator_copy_implB8ne180100INS_9allocatorIxEExxxLPv0EEEPT2_RT_PT0_S9_S5_, symObjAddr: 0x2110, symBinAddr: 0x100003080, symSize: 0x30 }
  - { offset: 0x741C, size: 0x8, addend: 0x0, symName: __ZNSt3__113__unwrap_iterB8ne180100IPxNS_18__unwrap_iter_implIS1_Lb1EEELi0EEEDTclsrT0_8__unwrapclsr3stdE7declvalIT_EEEES5_, symObjAddr: 0x2140, symBinAddr: 0x1000030B0, symSize: 0x20 }
  - { offset: 0x7460, size: 0x8, addend: 0x0, symName: __ZNSt3__113__rewrap_iterB8ne180100IPxS1_NS_18__unwrap_iter_implIS1_Lb1EEEEET_S4_T0_, symObjAddr: 0x2160, symBinAddr: 0x1000030D0, symSize: 0x40 }
  - { offset: 0x7600, size: 0x8, addend: 0x0, symName: __ZNSt3__14copyB8ne180100IPxS1_EET0_T_S3_S2_, symObjAddr: 0x2250, symBinAddr: 0x1000031C0, symSize: 0x40 }
  - { offset: 0x765A, size: 0x8, addend: 0x0, symName: __ZNSt3__16__copyB8ne180100INS_17_ClassicAlgPolicyEPxS2_S2_EENS_4pairIT0_T2_EES4_T1_S5_, symObjAddr: 0x2290, symBinAddr: 0x100003200, symSize: 0x40 }
  - { offset: 0x76C6, size: 0x8, addend: 0x0, symName: __ZNSt3__123__dispatch_copy_or_moveB8ne180100INS_17_ClassicAlgPolicyENS_11__copy_loopIS1_EENS_14__copy_trivialEPxS5_S5_EENS_4pairIT2_T4_EES7_T3_S8_, symObjAddr: 0x22D0, symBinAddr: 0x100003240, symSize: 0x40 }
  - { offset: 0x7744, size: 0x8, addend: 0x0, symName: __ZNSt3__121__unwrap_and_dispatchB8ne180100INS_10__overloadINS_11__copy_loopINS_17_ClassicAlgPolicyEEENS_14__copy_trivialEEEPxS7_S7_Li0EEENS_4pairIT0_T2_EES9_T1_SA_, symObjAddr: 0x2310, symBinAddr: 0x100003280, symSize: 0xB0 }
  - { offset: 0x7819, size: 0x8, addend: 0x0, symName: __ZNSt3__19make_pairB8ne180100IPxS1_EENS_4pairINS_18__unwrap_ref_decayIT_E4typeENS3_IT0_E4typeEEEOS4_OS7_, symObjAddr: 0x2400, symBinAddr: 0x100003370, symSize: 0x30 }
  - { offset: 0x7868, size: 0x8, addend: 0x0, symName: __ZNSt3__114__rewrap_rangeB8ne180100IPxS1_S1_EET0_S2_T1_, symObjAddr: 0x2430, symBinAddr: 0x1000033A0, symSize: 0x30 }
  - { offset: 0x78BD, size: 0x8, addend: 0x0, symName: __ZNSt3__119__copy_trivial_implB8ne180100IxxEENS_4pairIPT_PT0_EES3_S3_S5_, symObjAddr: 0x2460, symBinAddr: 0x1000033D0, symSize: 0x70 }
  - { offset: 0x7925, size: 0x8, addend: 0x0, symName: __ZNSt3__119__constexpr_memmoveB8ne180100IxxLi0EEEPT_S2_PT0_NS_15__element_countE, symObjAddr: 0x24D0, symBinAddr: 0x100003440, symSize: 0x50 }
  - { offset: 0x7993, size: 0x8, addend: 0x0, symName: __ZNSt3__19make_pairB8ne180100IRPxS1_EENS_4pairINS_18__unwrap_ref_decayIT_E4typeENS4_IT0_E4typeEEEOS5_OS8_, symObjAddr: 0x2520, symBinAddr: 0x100003490, symSize: 0x30 }
  - { offset: 0x7A35, size: 0x8, addend: 0x0, symName: __ZNSt3__112__destroy_atB8ne180100INS_6vectorIxNS_9allocatorIxEEEELi0EEEvPT_, symObjAddr: 0x2870, symBinAddr: 0x1000037E0, symSize: 0x20 }
  - { offset: 0x8015, size: 0x8, addend: 0x0, symName: __ZNSt3__19use_facetB8ne180100INS_5ctypeIcEEEERKT_RKNS_6localeE, symObjAddr: 0x2C30, symBinAddr: 0x100003BA0, symSize: 0x30 }
  - { offset: 0x9459, size: 0x8, addend: 0x0, symName: __ZSt28__throw_bad_array_new_lengthB8ne180100v, symObjAddr: 0xFC0, symBinAddr: 0x100001F30, symSize: 0x40 }
  - { offset: 0x9A3A, size: 0x8, addend: 0x0, symName: _main, symObjAddr: 0x0, symBinAddr: 0x100000F70, symSize: 0x510 }
  - { offset: 0x9BDC, size: 0x8, addend: 0x0, symName: __ZNSt3__16vectorIxNS_9allocatorIxEEEC1Em, symObjAddr: 0x510, symBinAddr: 0x100001480, symSize: 0x30 }
  - { offset: 0x9C15, size: 0x8, addend: 0x0, symName: __ZNSt3__16vectorINS0_IxNS_9allocatorIxEEEENS1_IS3_EEEC1EmRKS3_, symObjAddr: 0x540, symBinAddr: 0x1000014B0, symSize: 0x30 }
  - { offset: 0x9C5D, size: 0x8, addend: 0x0, symName: __ZNSt3__16vectorIxNS_9allocatorIxEEED1B8ne180100Ev, symObjAddr: 0x570, symBinAddr: 0x1000014E0, symSize: 0x20 }
  - { offset: 0x9C85, size: 0x8, addend: 0x0, symName: __ZNSt3__16vectorINS0_IxNS_9allocatorIxEEEENS1_IS3_EEEixB8ne180100Em, symObjAddr: 0x590, symBinAddr: 0x100001500, symSize: 0x20 }
  - { offset: 0x9CBA, size: 0x8, addend: 0x0, symName: __ZNSt3__16vectorIxNS_9allocatorIxEEEixB8ne180100Em, symObjAddr: 0x5B0, symBinAddr: 0x100001520, symSize: 0x20 }
  - { offset: 0x9D9F, size: 0x8, addend: 0x0, symName: __ZNSt3__113basic_ostreamIcNS_11char_traitsIcEEElsB8ne180100EPFRS3_S4_E, symObjAddr: 0x750, symBinAddr: 0x1000016C0, symSize: 0x20 }
  - { offset: 0x9DD1, size: 0x8, addend: 0x0, symName: __ZNSt3__16vectorINS0_IxNS_9allocatorIxEEEENS1_IS3_EEED1B8ne180100Ev, symObjAddr: 0x7C0, symBinAddr: 0x100001730, symSize: 0x20 }
  - { offset: 0x9DF9, size: 0x8, addend: 0x0, symName: __ZNSt3__16vectorIxNS_9allocatorIxEEEC2Em, symObjAddr: 0x7E0, symBinAddr: 0x100001750, symSize: 0xD0 }
  - { offset: 0x9E51, size: 0x8, addend: 0x0, symName: __ZNSt3__117__compressed_pairIPxNS_9allocatorIxEEEC1B8ne180100IDnNS_18__default_init_tagEEEOT_OT0_, symObjAddr: 0x8B0, symBinAddr: 0x100001820, symSize: 0x30 }
  - { offset: 0x9EA7, size: 0x8, addend: 0x0, symName: __ZNSt3__16vectorIxNS_9allocatorIxEEE16__destroy_vectorC1B8ne180100ERS3_, symObjAddr: 0x920, symBinAddr: 0x100001890, symSize: 0x30 }
  - { offset: 0x9EDE, size: 0x8, addend: 0x0, symName: __ZNSt3__16vectorIxNS_9allocatorIxEEE11__vallocateB8ne180100Em, symObjAddr: 0x950, symBinAddr: 0x1000018C0, symSize: 0xA0 }
  - { offset: 0x9F20, size: 0x8, addend: 0x0, symName: __ZNSt3__16vectorIxNS_9allocatorIxEEE18__construct_at_endEm, symObjAddr: 0x9F0, symBinAddr: 0x100001960, symSize: 0xC0 }
  - { offset: 0x9F90, size: 0x8, addend: 0x0, symName: __ZNSt3__128__exception_guard_exceptionsINS_6vectorIxNS_9allocatorIxEEE16__destroy_vectorEE10__completeB8ne180100Ev, symObjAddr: 0xAB0, symBinAddr: 0x100001A20, symSize: 0x20 }
  - { offset: 0x9FB4, size: 0x8, addend: 0x0, symName: __ZNSt3__128__exception_guard_exceptionsINS_6vectorIxNS_9allocatorIxEEE16__destroy_vectorEED1B8ne180100Ev, symObjAddr: 0xAD0, symBinAddr: 0x100001A40, symSize: 0x20 }
  - { offset: 0x9FDC, size: 0x8, addend: 0x0, symName: __ZNSt3__117__compressed_pairIPxNS_9allocatorIxEEEC2B8ne180100IDnNS_18__default_init_tagEEEOT_OT0_, symObjAddr: 0xAF0, symBinAddr: 0x100001A60, symSize: 0x40 }
  - { offset: 0xA032, size: 0x8, addend: 0x0, symName: __ZNSt3__122__compressed_pair_elemIPxLi0ELb0EEC2B8ne180100IDnvEEOT_, symObjAddr: 0xB30, symBinAddr: 0x100001AA0, symSize: 0x20 }
  - { offset: 0xA072, size: 0x8, addend: 0x0, symName: __ZNSt3__122__compressed_pair_elemINS_9allocatorIxEELi1ELb1EEC2B8ne180100ENS_18__default_init_tagE, symObjAddr: 0xB50, symBinAddr: 0x100001AC0, symSize: 0x20 }
  - { offset: 0xA0A4, size: 0x8, addend: 0x0, symName: __ZNSt3__19allocatorIxEC2B8ne180100Ev, symObjAddr: 0xB70, symBinAddr: 0x100001AE0, symSize: 0x20 }
  - { offset: 0xA0CC, size: 0x8, addend: 0x0, symName: __ZNSt3__116__non_trivial_ifILb1ENS_9allocatorIxEEEC2B8ne180100Ev, symObjAddr: 0xB90, symBinAddr: 0x100001B00, symSize: 0x10 }
  - { offset: 0xA0F4, size: 0x8, addend: 0x0, symName: __ZNSt3__128__exception_guard_exceptionsINS_6vectorIxNS_9allocatorIxEEE16__destroy_vectorEEC1B8ne180100ES5_, symObjAddr: 0xBA0, symBinAddr: 0x100001B10, symSize: 0x30 }
  - { offset: 0xA12A, size: 0x8, addend: 0x0, symName: __ZNSt3__128__exception_guard_exceptionsINS_6vectorIxNS_9allocatorIxEEE16__destroy_vectorEEC2B8ne180100ES5_, symObjAddr: 0xBD0, symBinAddr: 0x100001B40, symSize: 0x20 }
  - { offset: 0xA160, size: 0x8, addend: 0x0, symName: __ZNSt3__16vectorIxNS_9allocatorIxEEE16__destroy_vectorC2B8ne180100ERS3_, symObjAddr: 0xBF0, symBinAddr: 0x100001B60, symSize: 0x20 }
  - { offset: 0xA197, size: 0x8, addend: 0x0, symName: __ZNKSt3__16vectorIxNS_9allocatorIxEEE8max_sizeEv, symObjAddr: 0xC10, symBinAddr: 0x100001B80, symSize: 0x60 }
  - { offset: 0xA1BD, size: 0x8, addend: 0x0, symName: __ZNKSt3__16vectorIxNS_9allocatorIxEEE20__throw_length_errorB8ne180100Ev, symObjAddr: 0xC70, symBinAddr: 0x100001BE0, symSize: 0x20 }
  - { offset: 0xA1E1, size: 0x8, addend: 0x0, symName: __ZNSt3__16vectorIxNS_9allocatorIxEEE7__allocB8ne180100Ev, symObjAddr: 0xCD0, symBinAddr: 0x100001C40, symSize: 0x20 }
  - { offset: 0xA205, size: 0x8, addend: 0x0, symName: __ZNSt3__16vectorIxNS_9allocatorIxEEE9__end_capB8ne180100Ev, symObjAddr: 0xCF0, symBinAddr: 0x100001C60, symSize: 0x20 }
  - { offset: 0xA229, size: 0x8, addend: 0x0, symName: __ZNKSt3__16vectorIxNS_9allocatorIxEEE14__annotate_newB8ne180100Em, symObjAddr: 0xD10, symBinAddr: 0x100001C80, symSize: 0x10 }
  - { offset: 0xA267, size: 0x8, addend: 0x0, symName: __ZNSt3__116allocator_traitsINS_9allocatorIxEEE8max_sizeB8ne180100IS2_vvEEmRKS2_, symObjAddr: 0xD50, symBinAddr: 0x100001CC0, symSize: 0x20 }
  - { offset: 0xA291, size: 0x8, addend: 0x0, symName: __ZNKSt3__16vectorIxNS_9allocatorIxEEE7__allocB8ne180100Ev, symObjAddr: 0xD70, symBinAddr: 0x100001CE0, symSize: 0x20 }
  - { offset: 0xA2B6, size: 0x8, addend: 0x0, symName: __ZNSt3__114numeric_limitsIlE3maxB8ne180100Ev, symObjAddr: 0xD90, symBinAddr: 0x100001D00, symSize: 0x10 }
  - { offset: 0xA2DD, size: 0x8, addend: 0x0, symName: __ZNKSt3__16__lessIvvEclB8ne180100ImmEEbRKT_RKT0_, symObjAddr: 0xE00, symBinAddr: 0x100001D70, symSize: 0x30 }
  - { offset: 0xA330, size: 0x8, addend: 0x0, symName: __ZNSt3__114numeric_limitsImE3maxB8ne180100Ev, symObjAddr: 0xE30, symBinAddr: 0x100001DA0, symSize: 0x10 }
  - { offset: 0xA344, size: 0x8, addend: 0x0, symName: __ZNSt3__123__libcpp_numeric_limitsImLb1EE3maxB8ne180100Ev, symObjAddr: 0xE40, symBinAddr: 0x100001DB0, symSize: 0x10 }
  - { offset: 0xA357, size: 0x8, addend: 0x0, symName: __ZNKSt3__117__compressed_pairIPxNS_9allocatorIxEEE6secondB8ne180100Ev, symObjAddr: 0xE50, symBinAddr: 0x100001DC0, symSize: 0x20 }
  - { offset: 0xA37B, size: 0x8, addend: 0x0, symName: __ZNKSt3__122__compressed_pair_elemINS_9allocatorIxEELi1ELb1EE5__getB8ne180100Ev, symObjAddr: 0xE70, symBinAddr: 0x100001DE0, symSize: 0x10 }
  - { offset: 0xA3A0, size: 0x8, addend: 0x0, symName: __ZNSt3__123__libcpp_numeric_limitsIlLb1EE3maxB8ne180100Ev, symObjAddr: 0xE80, symBinAddr: 0x100001DF0, symSize: 0x10 }
  - { offset: 0xA3B3, size: 0x8, addend: 0x0, symName: __ZNSt12length_errorC1B8ne180100EPKc, symObjAddr: 0xF00, symBinAddr: 0x100001E70, symSize: 0x30 }
  - { offset: 0xA3E9, size: 0x8, addend: 0x0, symName: __ZNSt12length_errorC2B8ne180100EPKc, symObjAddr: 0xF30, symBinAddr: 0x100001EA0, symSize: 0x40 }
  - { offset: 0xA41F, size: 0x8, addend: 0x0, symName: __ZNSt3__19allocatorIxE8allocateB8ne180100Em, symObjAddr: 0xF70, symBinAddr: 0x100001EE0, symSize: 0x50 }
  - { offset: 0xA451, size: 0x8, addend: 0x0, symName: __ZNSt3__117__compressed_pairIPxNS_9allocatorIxEEE6secondB8ne180100Ev, symObjAddr: 0x10D0, symBinAddr: 0x100002040, symSize: 0x20 }
  - { offset: 0xA475, size: 0x8, addend: 0x0, symName: __ZNSt3__122__compressed_pair_elemINS_9allocatorIxEELi1ELb1EE5__getB8ne180100Ev, symObjAddr: 0x10F0, symBinAddr: 0x100002060, symSize: 0x10 }
  - { offset: 0xA499, size: 0x8, addend: 0x0, symName: __ZNSt3__117__compressed_pairIPxNS_9allocatorIxEEE5firstB8ne180100Ev, symObjAddr: 0x1100, symBinAddr: 0x100002070, symSize: 0x20 }
  - { offset: 0xA4BD, size: 0x8, addend: 0x0, symName: __ZNSt3__122__compressed_pair_elemIPxLi0ELb0EE5__getB8ne180100Ev, symObjAddr: 0x1120, symBinAddr: 0x100002090, symSize: 0x10 }
  - { offset: 0xA4FA, size: 0x8, addend: 0x0, symName: __ZNSt3__16vectorIxNS_9allocatorIxEEE21_ConstructTransactionC1B8ne180100ERS3_m, symObjAddr: 0x1130, symBinAddr: 0x1000020A0, symSize: 0x30 }
  - { offset: 0xA541, size: 0x8, addend: 0x0, symName: __ZNSt3__116allocator_traitsINS_9allocatorIxEEE9constructB8ne180100IxJEvvEEvRS2_PT_DpOT0_, symObjAddr: 0x1160, symBinAddr: 0x1000020D0, symSize: 0x20 }
  - { offset: 0xA57F, size: 0x8, addend: 0x0, symName: __ZNSt3__16vectorIxNS_9allocatorIxEEE21_ConstructTransactionD1B8ne180100Ev, symObjAddr: 0x1190, symBinAddr: 0x100002100, symSize: 0x20 }
  - { offset: 0xA5A7, size: 0x8, addend: 0x0, symName: __ZNSt3__16vectorIxNS_9allocatorIxEEE21_ConstructTransactionC2B8ne180100ERS3_m, symObjAddr: 0x11B0, symBinAddr: 0x100002120, symSize: 0x40 }
  - { offset: 0xA5ED, size: 0x8, addend: 0x0, symName: __ZNSt3__16vectorIxNS_9allocatorIxEEE21_ConstructTransactionD2B8ne180100Ev, symObjAddr: 0x1230, symBinAddr: 0x1000021A0, symSize: 0x20 }
  - { offset: 0xA615, size: 0x8, addend: 0x0, symName: __ZNSt3__128__exception_guard_exceptionsINS_6vectorIxNS_9allocatorIxEEE16__destroy_vectorEED2B8ne180100Ev, symObjAddr: 0x1250, symBinAddr: 0x1000021C0, symSize: 0x40 }
  - { offset: 0xA63D, size: 0x8, addend: 0x0, symName: __ZNSt3__16vectorIxNS_9allocatorIxEEE16__destroy_vectorclB8ne180100Ev, symObjAddr: 0x1290, symBinAddr: 0x100002200, symSize: 0x80 }
  - { offset: 0xA661, size: 0x8, addend: 0x0, symName: __ZNSt3__16vectorIxNS_9allocatorIxEEE7__clearB8ne180100Ev, symObjAddr: 0x1310, symBinAddr: 0x100002280, symSize: 0x20 }
  - { offset: 0xA685, size: 0x8, addend: 0x0, symName: __ZNKSt3__16vectorIxNS_9allocatorIxEEE17__annotate_deleteB8ne180100Ev, symObjAddr: 0x1330, symBinAddr: 0x1000022A0, symSize: 0x10 }
  - { offset: 0xA6AA, size: 0x8, addend: 0x0, symName: __ZNSt3__116allocator_traitsINS_9allocatorIxEEE10deallocateB8ne180100ERS2_Pxm, symObjAddr: 0x1340, symBinAddr: 0x1000022B0, symSize: 0x30 }
  - { offset: 0xA6EB, size: 0x8, addend: 0x0, symName: __ZNKSt3__16vectorIxNS_9allocatorIxEEE8capacityB8ne180100Ev, symObjAddr: 0x1370, symBinAddr: 0x1000022E0, symSize: 0x30 }
  - { offset: 0xA70F, size: 0x8, addend: 0x0, symName: __ZNSt3__16vectorIxNS_9allocatorIxEEE22__base_destruct_at_endB8ne180100EPx, symObjAddr: 0x13A0, symBinAddr: 0x100002310, symSize: 0x80 }
  - { offset: 0xA752, size: 0x8, addend: 0x0, symName: __ZNSt3__116allocator_traitsINS_9allocatorIxEEE7destroyB8ne180100IxvvEEvRS2_PT_, symObjAddr: 0x1420, symBinAddr: 0x100002390, symSize: 0x20 }
  - { offset: 0xA78B, size: 0x8, addend: 0x0, symName: __ZNSt3__19allocatorIxE10deallocateB8ne180100EPxm, symObjAddr: 0x1450, symBinAddr: 0x1000023C0, symSize: 0x40 }
  - { offset: 0xA7CB, size: 0x8, addend: 0x0, symName: __ZNKSt3__16vectorIxNS_9allocatorIxEEE9__end_capB8ne180100Ev, symObjAddr: 0x1590, symBinAddr: 0x100002500, symSize: 0x20 }
  - { offset: 0xA7EF, size: 0x8, addend: 0x0, symName: __ZNKSt3__117__compressed_pairIPxNS_9allocatorIxEEE5firstB8ne180100Ev, symObjAddr: 0x15B0, symBinAddr: 0x100002520, symSize: 0x20 }
  - { offset: 0xA813, size: 0x8, addend: 0x0, symName: __ZNKSt3__122__compressed_pair_elemIPxLi0ELb0EE5__getB8ne180100Ev, symObjAddr: 0x15D0, symBinAddr: 0x100002540, symSize: 0x10 }
  - { offset: 0xA837, size: 0x8, addend: 0x0, symName: __ZNSt3__16vectorINS0_IxNS_9allocatorIxEEEENS1_IS3_EEEC2EmRKS3_, symObjAddr: 0x15E0, symBinAddr: 0x100002550, symSize: 0xE0 }
  - { offset: 0xA894, size: 0x8, addend: 0x0, symName: __ZNSt3__117__compressed_pairIPNS_6vectorIxNS_9allocatorIxEEEENS2_IS4_EEEC1B8ne180100IDnNS_18__default_init_tagEEEOT_OT0_, symObjAddr: 0x16C0, symBinAddr: 0x100002630, symSize: 0x30 }
  - { offset: 0xA8EA, size: 0x8, addend: 0x0, symName: __ZNSt3__16vectorINS0_IxNS_9allocatorIxEEEENS1_IS3_EEE16__destroy_vectorC1B8ne180100ERS5_, symObjAddr: 0x1730, symBinAddr: 0x1000026A0, symSize: 0x30 }
  - { offset: 0xA921, size: 0x8, addend: 0x0, symName: __ZNSt3__16vectorINS0_IxNS_9allocatorIxEEEENS1_IS3_EEE11__vallocateB8ne180100Em, symObjAddr: 0x1760, symBinAddr: 0x1000026D0, symSize: 0xA0 }
  - { offset: 0xA963, size: 0x8, addend: 0x0, symName: __ZNSt3__16vectorINS0_IxNS_9allocatorIxEEEENS1_IS3_EEE18__construct_at_endEmRKS3_, symObjAddr: 0x1800, symBinAddr: 0x100002770, symSize: 0xC0 }
  - { offset: 0xA9E2, size: 0x8, addend: 0x0, symName: __ZNSt3__128__exception_guard_exceptionsINS_6vectorINS1_IxNS_9allocatorIxEEEENS2_IS4_EEE16__destroy_vectorEE10__completeB8ne180100Ev, symObjAddr: 0x18C0, symBinAddr: 0x100002830, symSize: 0x20 }
  - { offset: 0xAA06, size: 0x8, addend: 0x0, symName: __ZNSt3__128__exception_guard_exceptionsINS_6vectorINS1_IxNS_9allocatorIxEEEENS2_IS4_EEE16__destroy_vectorEED1B8ne180100Ev, symObjAddr: 0x18E0, symBinAddr: 0x100002850, symSize: 0x20 }
  - { offset: 0xAA2E, size: 0x8, addend: 0x0, symName: __ZNSt3__117__compressed_pairIPNS_6vectorIxNS_9allocatorIxEEEENS2_IS4_EEEC2B8ne180100IDnNS_18__default_init_tagEEEOT_OT0_, symObjAddr: 0x1900, symBinAddr: 0x100002870, symSize: 0x40 }
  - { offset: 0xAA84, size: 0x8, addend: 0x0, symName: __ZNSt3__122__compressed_pair_elemIPNS_6vectorIxNS_9allocatorIxEEEELi0ELb0EEC2B8ne180100IDnvEEOT_, symObjAddr: 0x1940, symBinAddr: 0x1000028B0, symSize: 0x20 }
  - { offset: 0xAAC4, size: 0x8, addend: 0x0, symName: __ZNSt3__122__compressed_pair_elemINS_9allocatorINS_6vectorIxNS1_IxEEEEEELi1ELb1EEC2B8ne180100ENS_18__default_init_tagE, symObjAddr: 0x1960, symBinAddr: 0x1000028D0, symSize: 0x20 }
  - { offset: 0xAAF6, size: 0x8, addend: 0x0, symName: __ZNSt3__19allocatorINS_6vectorIxNS0_IxEEEEEC2B8ne180100Ev, symObjAddr: 0x1980, symBinAddr: 0x1000028F0, symSize: 0x20 }
  - { offset: 0xAB1E, size: 0x8, addend: 0x0, symName: __ZNSt3__116__non_trivial_ifILb1ENS_9allocatorINS_6vectorIxNS1_IxEEEEEEEC2B8ne180100Ev, symObjAddr: 0x19A0, symBinAddr: 0x100002910, symSize: 0x10 }
  - { offset: 0xAB46, size: 0x8, addend: 0x0, symName: __ZNSt3__128__exception_guard_exceptionsINS_6vectorINS1_IxNS_9allocatorIxEEEENS2_IS4_EEE16__destroy_vectorEEC1B8ne180100ES7_, symObjAddr: 0x19B0, symBinAddr: 0x100002920, symSize: 0x30 }
  - { offset: 0xAB7C, size: 0x8, addend: 0x0, symName: __ZNSt3__128__exception_guard_exceptionsINS_6vectorINS1_IxNS_9allocatorIxEEEENS2_IS4_EEE16__destroy_vectorEEC2B8ne180100ES7_, symObjAddr: 0x19E0, symBinAddr: 0x100002950, symSize: 0x20 }
  - { offset: 0xABB2, size: 0x8, addend: 0x0, symName: __ZNSt3__16vectorINS0_IxNS_9allocatorIxEEEENS1_IS3_EEE16__destroy_vectorC2B8ne180100ERS5_, symObjAddr: 0x1A00, symBinAddr: 0x100002970, symSize: 0x20 }
  - { offset: 0xABE9, size: 0x8, addend: 0x0, symName: __ZNKSt3__16vectorINS0_IxNS_9allocatorIxEEEENS1_IS3_EEE8max_sizeEv, symObjAddr: 0x1A20, symBinAddr: 0x100002990, symSize: 0x60 }
  - { offset: 0xAC0F, size: 0x8, addend: 0x0, symName: __ZNKSt3__16vectorINS0_IxNS_9allocatorIxEEEENS1_IS3_EEE20__throw_length_errorB8ne180100Ev, symObjAddr: 0x1A80, symBinAddr: 0x1000029F0, symSize: 0x20 }
  - { offset: 0xAC33, size: 0x8, addend: 0x0, symName: __ZNSt3__16vectorINS0_IxNS_9allocatorIxEEEENS1_IS3_EEE7__allocB8ne180100Ev, symObjAddr: 0x1AE0, symBinAddr: 0x100002A50, symSize: 0x20 }
  - { offset: 0xAC57, size: 0x8, addend: 0x0, symName: __ZNSt3__16vectorINS0_IxNS_9allocatorIxEEEENS1_IS3_EEE9__end_capB8ne180100Ev, symObjAddr: 0x1B00, symBinAddr: 0x100002A70, symSize: 0x20 }
  - { offset: 0xAC7B, size: 0x8, addend: 0x0, symName: __ZNKSt3__16vectorINS0_IxNS_9allocatorIxEEEENS1_IS3_EEE14__annotate_newB8ne180100Em, symObjAddr: 0x1B20, symBinAddr: 0x100002A90, symSize: 0x10 }
  - { offset: 0xACB9, size: 0x8, addend: 0x0, symName: __ZNSt3__116allocator_traitsINS_9allocatorINS_6vectorIxNS1_IxEEEEEEE8max_sizeB8ne180100IS5_vvEEmRKS5_, symObjAddr: 0x1B30, symBinAddr: 0x100002AA0, symSize: 0x30 }
  - { offset: 0xACE3, size: 0x8, addend: 0x0, symName: __ZNKSt3__16vectorINS0_IxNS_9allocatorIxEEEENS1_IS3_EEE7__allocB8ne180100Ev, symObjAddr: 0x1B60, symBinAddr: 0x100002AD0, symSize: 0x20 }
  - { offset: 0xAD07, size: 0x8, addend: 0x0, symName: __ZNKSt3__117__compressed_pairIPNS_6vectorIxNS_9allocatorIxEEEENS2_IS4_EEE6secondB8ne180100Ev, symObjAddr: 0x1B80, symBinAddr: 0x100002AF0, symSize: 0x20 }
  - { offset: 0xAD2B, size: 0x8, addend: 0x0, symName: __ZNKSt3__122__compressed_pair_elemINS_9allocatorINS_6vectorIxNS1_IxEEEEEELi1ELb1EE5__getB8ne180100Ev, symObjAddr: 0x1BA0, symBinAddr: 0x100002B10, symSize: 0x10 }
  - { offset: 0xAD4F, size: 0x8, addend: 0x0, symName: __ZNSt3__19allocatorINS_6vectorIxNS0_IxEEEEE8allocateB8ne180100Em, symObjAddr: 0x1BB0, symBinAddr: 0x100002B20, symSize: 0x50 }
  - { offset: 0xAD81, size: 0x8, addend: 0x0, symName: __ZNSt3__117__compressed_pairIPNS_6vectorIxNS_9allocatorIxEEEENS2_IS4_EEE6secondB8ne180100Ev, symObjAddr: 0x1C00, symBinAddr: 0x100002B70, symSize: 0x20 }
  - { offset: 0xADA5, size: 0x8, addend: 0x0, symName: __ZNSt3__122__compressed_pair_elemINS_9allocatorINS_6vectorIxNS1_IxEEEEEELi1ELb1EE5__getB8ne180100Ev, symObjAddr: 0x1C20, symBinAddr: 0x100002B90, symSize: 0x10 }
  - { offset: 0xADC9, size: 0x8, addend: 0x0, symName: __ZNSt3__117__compressed_pairIPNS_6vectorIxNS_9allocatorIxEEEENS2_IS4_EEE5firstB8ne180100Ev, symObjAddr: 0x1C30, symBinAddr: 0x100002BA0, symSize: 0x20 }
  - { offset: 0xADED, size: 0x8, addend: 0x0, symName: __ZNSt3__122__compressed_pair_elemIPNS_6vectorIxNS_9allocatorIxEEEELi0ELb0EE5__getB8ne180100Ev, symObjAddr: 0x1C50, symBinAddr: 0x100002BC0, symSize: 0x10 }
  - { offset: 0xAE2A, size: 0x8, addend: 0x0, symName: __ZNSt3__16vectorINS0_IxNS_9allocatorIxEEEENS1_IS3_EEE21_ConstructTransactionC1B8ne180100ERS5_m, symObjAddr: 0x1C60, symBinAddr: 0x100002BD0, symSize: 0x30 }
  - { offset: 0xAE71, size: 0x8, addend: 0x0, symName: __ZNSt3__116allocator_traitsINS_9allocatorINS_6vectorIxNS1_IxEEEEEEE9constructB8ne180100IS4_JRKS4_EvvEEvRS5_PT_DpOT0_, symObjAddr: 0x1C90, symBinAddr: 0x100002C00, symSize: 0x30 }
  - { offset: 0xAEC4, size: 0x8, addend: 0x0, symName: __ZNSt3__16vectorINS0_IxNS_9allocatorIxEEEENS1_IS3_EEE21_ConstructTransactionD1B8ne180100Ev, symObjAddr: 0x1CD0, symBinAddr: 0x100002C40, symSize: 0x20 }
  - { offset: 0xAEEC, size: 0x8, addend: 0x0, symName: __ZNSt3__16vectorINS0_IxNS_9allocatorIxEEEENS1_IS3_EEE21_ConstructTransactionC2B8ne180100ERS5_m, symObjAddr: 0x1CF0, symBinAddr: 0x100002C60, symSize: 0x40 }
  - { offset: 0xAF32, size: 0x8, addend: 0x0, symName: __ZNSt3__16vectorIxNS_9allocatorIxEEEC1ERKS3_, symObjAddr: 0x1D90, symBinAddr: 0x100002D00, symSize: 0x30 }
  - { offset: 0xAF6B, size: 0x8, addend: 0x0, symName: __ZNSt3__16vectorIxNS_9allocatorIxEEEC2ERKS3_, symObjAddr: 0x1DC0, symBinAddr: 0x100002D30, symSize: 0xA0 }
  - { offset: 0xAFA5, size: 0x8, addend: 0x0, symName: __ZNSt3__116allocator_traitsINS_9allocatorIxEEE37select_on_container_copy_constructionB8ne180100IS2_vvEES2_RKS2_, symObjAddr: 0x1E60, symBinAddr: 0x100002DD0, symSize: 0x10 }
  - { offset: 0xAFD8, size: 0x8, addend: 0x0, symName: __ZNSt3__117__compressed_pairIPxNS_9allocatorIxEEEC1B8ne180100IDnS3_EEOT_OT0_, symObjAddr: 0x1E70, symBinAddr: 0x100002DE0, symSize: 0x30 }
  - { offset: 0xB02E, size: 0x8, addend: 0x0, symName: __ZNSt3__16vectorIxNS_9allocatorIxEEE16__init_with_sizeB8ne180100IPxS5_EEvT_T0_m, symObjAddr: 0x1EA0, symBinAddr: 0x100002E10, symSize: 0xB0 }
  - { offset: 0xB0A0, size: 0x8, addend: 0x0, symName: __ZNKSt3__16vectorIxNS_9allocatorIxEEE4sizeB8ne180100Ev, symObjAddr: 0x1F50, symBinAddr: 0x100002EC0, symSize: 0x20 }
  - { offset: 0xB0C4, size: 0x8, addend: 0x0, symName: __ZNSt3__117__compressed_pairIPxNS_9allocatorIxEEEC2B8ne180100IDnS3_EEOT_OT0_, symObjAddr: 0x1F70, symBinAddr: 0x100002EE0, symSize: 0x40 }
  - { offset: 0xB11A, size: 0x8, addend: 0x0, symName: __ZNSt3__122__compressed_pair_elemINS_9allocatorIxEELi1ELb1EEC2B8ne180100IS2_vEEOT_, symObjAddr: 0x1FB0, symBinAddr: 0x100002F20, symSize: 0x10 }
  - { offset: 0xB15A, size: 0x8, addend: 0x0, symName: __ZNSt3__16vectorIxNS_9allocatorIxEEE18__construct_at_endIPxS5_EEvT_T0_m, symObjAddr: 0x1FC0, symBinAddr: 0x100002F30, symSize: 0x90 }
  - { offset: 0xB1E8, size: 0x8, addend: 0x0, symName: __ZNSt3__119__unwrap_range_implIPxS1_E8__unwrapB8ne180100ES1_S1_, symObjAddr: 0x21A0, symBinAddr: 0x100003110, symSize: 0x50 }
  - { offset: 0xB21D, size: 0x8, addend: 0x0, symName: __ZNSt3__14pairIPxS1_EC1B8ne180100IS1_S1_Li0EEEOT_OT0_, symObjAddr: 0x21F0, symBinAddr: 0x100003160, symSize: 0x30 }
  - { offset: 0xB279, size: 0x8, addend: 0x0, symName: __ZNSt3__14pairIPxS1_EC2B8ne180100IS1_S1_Li0EEEOT_OT0_, symObjAddr: 0x2220, symBinAddr: 0x100003190, symSize: 0x30 }
  - { offset: 0xB2DF, size: 0x8, addend: 0x0, symName: __ZNKSt3__114__copy_trivialclB8ne180100IxxLi0EEENS_4pairIPT_PT0_EES4_S4_S6_, symObjAddr: 0x23C0, symBinAddr: 0x100003330, symSize: 0x40 }
  - { offset: 0xB345, size: 0x8, addend: 0x0, symName: __ZNSt3__14pairIPxS1_EC1B8ne180100IRS1_S1_Li0EEEOT_OT0_, symObjAddr: 0x2550, symBinAddr: 0x1000034C0, symSize: 0x30 }
  - { offset: 0xB3A1, size: 0x8, addend: 0x0, symName: __ZNSt3__14pairIPxS1_EC2B8ne180100IRS1_S1_Li0EEEOT_OT0_, symObjAddr: 0x2580, symBinAddr: 0x1000034F0, symSize: 0x30 }
  - { offset: 0xB3FE, size: 0x8, addend: 0x0, symName: __ZNSt3__119__unwrap_range_implIPxS1_E8__rewrapB8ne180100ES1_S1_, symObjAddr: 0x25B0, symBinAddr: 0x100003520, symSize: 0x30 }
  - { offset: 0xB42F, size: 0x8, addend: 0x0, symName: __ZNSt3__118__unwrap_iter_implIPxLb1EE8__unwrapB8ne180100ES1_, symObjAddr: 0x25E0, symBinAddr: 0x100003550, symSize: 0x20 }
  - { offset: 0xB452, size: 0x8, addend: 0x0, symName: __ZNSt3__118__unwrap_iter_implIPxLb1EE8__rewrapB8ne180100ES1_S1_, symObjAddr: 0x2600, symBinAddr: 0x100003570, symSize: 0x50 }
  - { offset: 0xB482, size: 0x8, addend: 0x0, symName: __ZNSt3__16vectorINS0_IxNS_9allocatorIxEEEENS1_IS3_EEE21_ConstructTransactionD2B8ne180100Ev, symObjAddr: 0x2650, symBinAddr: 0x1000035C0, symSize: 0x20 }
  - { offset: 0xB4AA, size: 0x8, addend: 0x0, symName: __ZNSt3__128__exception_guard_exceptionsINS_6vectorINS1_IxNS_9allocatorIxEEEENS2_IS4_EEE16__destroy_vectorEED2B8ne180100Ev, symObjAddr: 0x2670, symBinAddr: 0x1000035E0, symSize: 0x40 }
  - { offset: 0xB4D2, size: 0x8, addend: 0x0, symName: __ZNSt3__16vectorINS0_IxNS_9allocatorIxEEEENS1_IS3_EEE16__destroy_vectorclB8ne180100Ev, symObjAddr: 0x26B0, symBinAddr: 0x100003620, symSize: 0x80 }
  - { offset: 0xB4F6, size: 0x8, addend: 0x0, symName: __ZNSt3__16vectorINS0_IxNS_9allocatorIxEEEENS1_IS3_EEE7__clearB8ne180100Ev, symObjAddr: 0x2730, symBinAddr: 0x1000036A0, symSize: 0x20 }
  - { offset: 0xB51A, size: 0x8, addend: 0x0, symName: __ZNKSt3__16vectorINS0_IxNS_9allocatorIxEEEENS1_IS3_EEE17__annotate_deleteB8ne180100Ev, symObjAddr: 0x2750, symBinAddr: 0x1000036C0, symSize: 0x10 }
  - { offset: 0xB53F, size: 0x8, addend: 0x0, symName: __ZNSt3__116allocator_traitsINS_9allocatorINS_6vectorIxNS1_IxEEEEEEE10deallocateB8ne180100ERS5_PS4_m, symObjAddr: 0x2760, symBinAddr: 0x1000036D0, symSize: 0x30 }
  - { offset: 0xB580, size: 0x8, addend: 0x0, symName: __ZNKSt3__16vectorINS0_IxNS_9allocatorIxEEEENS1_IS3_EEE8capacityB8ne180100Ev, symObjAddr: 0x2790, symBinAddr: 0x100003700, symSize: 0x40 }
  - { offset: 0xB5A4, size: 0x8, addend: 0x0, symName: __ZNSt3__16vectorINS0_IxNS_9allocatorIxEEEENS1_IS3_EEE22__base_destruct_at_endB8ne180100EPS3_, symObjAddr: 0x27D0, symBinAddr: 0x100003740, symSize: 0x80 }
  - { offset: 0xB5E7, size: 0x8, addend: 0x0, symName: __ZNSt3__116allocator_traitsINS_9allocatorINS_6vectorIxNS1_IxEEEEEEE7destroyB8ne180100IS4_vvEEvRS5_PT_, symObjAddr: 0x2850, symBinAddr: 0x1000037C0, symSize: 0x20 }
  - { offset: 0xB620, size: 0x8, addend: 0x0, symName: __ZNSt3__19allocatorINS_6vectorIxNS0_IxEEEEE10deallocateB8ne180100EPS3_m, symObjAddr: 0x2890, symBinAddr: 0x100003800, symSize: 0x50 }
  - { offset: 0xB660, size: 0x8, addend: 0x0, symName: __ZNKSt3__16vectorINS0_IxNS_9allocatorIxEEEENS1_IS3_EEE9__end_capB8ne180100Ev, symObjAddr: 0x28E0, symBinAddr: 0x100003850, symSize: 0x20 }
  - { offset: 0xB684, size: 0x8, addend: 0x0, symName: __ZNKSt3__117__compressed_pairIPNS_6vectorIxNS_9allocatorIxEEEENS2_IS4_EEE5firstB8ne180100Ev, symObjAddr: 0x2900, symBinAddr: 0x100003870, symSize: 0x20 }
  - { offset: 0xB6A8, size: 0x8, addend: 0x0, symName: __ZNKSt3__122__compressed_pair_elemIPNS_6vectorIxNS_9allocatorIxEEEELi0ELb0EE5__getB8ne180100Ev, symObjAddr: 0x2920, symBinAddr: 0x100003890, symSize: 0x10 }
  - { offset: 0xB6CC, size: 0x8, addend: 0x0, symName: __ZNSt3__16vectorIxNS_9allocatorIxEEED2B8ne180100Ev, symObjAddr: 0x2930, symBinAddr: 0x1000038A0, symSize: 0x40 }
  - { offset: 0xB6F4, size: 0x8, addend: 0x0, symName: __ZNSt3__16vectorINS0_IxNS_9allocatorIxEEEENS1_IS3_EEED2B8ne180100Ev, symObjAddr: 0x2970, symBinAddr: 0x1000038E0, symSize: 0x40 }
  - { offset: 0xB7BE, size: 0x8, addend: 0x0, symName: __ZNKSt3__113basic_istreamIcNS_11char_traitsIcEEE6sentrycvbB8ne180100Ev, symObjAddr: 0x29B0, symBinAddr: 0x100003920, symSize: 0x20 }
  - { offset: 0xB7E2, size: 0x8, addend: 0x0, symName: __ZNKSt3__19basic_iosIcNS_11char_traitsIcEEE5rdbufB8ne180100Ev, symObjAddr: 0x29D0, symBinAddr: 0x100003940, symSize: 0x20 }
  - { offset: 0xB808, size: 0x8, addend: 0x0, symName: __ZNSt3__115basic_streambufIcNS_11char_traitsIcEEE6sbumpcB8ne180100Ev, symObjAddr: 0x29F0, symBinAddr: 0x100003960, symSize: 0x60 }
  - { offset: 0xB82D, size: 0x8, addend: 0x0, symName: __ZNSt3__111char_traitsIcE11eq_int_typeB8ne180100Eii, symObjAddr: 0x2A50, symBinAddr: 0x1000039C0, symSize: 0x20 }
  - { offset: 0xB860, size: 0x8, addend: 0x0, symName: __ZNSt3__111char_traitsIcE3eofB8ne180100Ev, symObjAddr: 0x2A70, symBinAddr: 0x1000039E0, symSize: 0x10 }
  - { offset: 0xB874, size: 0x8, addend: 0x0, symName: __ZNSt3__111char_traitsIcE12to_char_typeB8ne180100Ei, symObjAddr: 0x2A80, symBinAddr: 0x1000039F0, symSize: 0x10 }
  - { offset: 0xB897, size: 0x8, addend: 0x0, symName: __ZNSt3__18ios_base18__setstate_nothrowB8ne180100Ej, symObjAddr: 0x2A90, symBinAddr: 0x100003A00, symSize: 0x50 }
  - { offset: 0xB8CA, size: 0x8, addend: 0x0, symName: __ZNKSt3__19basic_iosIcNS_11char_traitsIcEEE10exceptionsB8ne180100Ev, symObjAddr: 0x2AE0, symBinAddr: 0x100003A50, symSize: 0x20 }
  - { offset: 0xB8EE, size: 0x8, addend: 0x0, symName: __ZNSt3__19basic_iosIcNS_11char_traitsIcEEE8setstateB8ne180100Ej, symObjAddr: 0x2B00, symBinAddr: 0x100003A70, symSize: 0x30 }
  - { offset: 0xB921, size: 0x8, addend: 0x0, symName: __ZNKSt3__18ios_base5rdbufB8ne180100Ev, symObjAddr: 0x2B30, symBinAddr: 0x100003AA0, symSize: 0x20 }
  - { offset: 0xB946, size: 0x8, addend: 0x0, symName: __ZNSt3__111char_traitsIcE11to_int_typeB8ne180100Ec, symObjAddr: 0x2B50, symBinAddr: 0x100003AC0, symSize: 0x10 }
  - { offset: 0xB969, size: 0x8, addend: 0x0, symName: __ZNKSt3__18ios_base10exceptionsB8ne180100Ev, symObjAddr: 0x2B60, symBinAddr: 0x100003AD0, symSize: 0x20 }
  - { offset: 0xB98F, size: 0x8, addend: 0x0, symName: __ZNSt3__18ios_base8setstateB8ne180100Ej, symObjAddr: 0x2B80, symBinAddr: 0x100003AF0, symSize: 0x30 }
  - { offset: 0xB9C4, size: 0x8, addend: 0x0, symName: __ZNKSt3__19basic_iosIcNS_11char_traitsIcEEE5widenB8ne180100Ec, symObjAddr: 0x2BB0, symBinAddr: 0x100003B20, symSize: 0x80 }
  - { offset: 0xBA36, size: 0x8, addend: 0x0, symName: __ZNKSt3__15ctypeIcE5widenB8ne180100Ec, symObjAddr: 0x2C60, symBinAddr: 0x100003BD0, symSize: 0x2B }
...
