---
triple:          'x86_64-apple-darwin'
binary-path:     b
relocations:
  - { offset: 0x5C, size: 0x8, addend: 0x0, symName: __ZNSt3__119piecewise_constructE, symObjAddr: 0x6C37, symBinAddr: 0x100007D60, symSize: 0x0 }
  - { offset: 0x5AAE, size: 0x8, addend: 0x0, symName: __ZNSt3__17advanceB8ne180100IPillvEEvRT_T0_, symObjAddr: 0x2B70, symBinAddr: 0x100003BA0, symSize: 0x30 }
  - { offset: 0xA3E1, size: 0x8, addend: 0x0, symName: __ZNSt3__14sortB8ne180100INS_11__wrap_iterIPiEEEEvT_S4_, symObjAddr: 0xA00, symBinAddr: 0x100001A30, symSize: 0x40 }
  - { offset: 0xA423, size: 0x8, addend: 0x0, symName: __ZNSt3__1neB8ne180100IPiEEbRKNS_11__wrap_iterIT_EES6_, symObjAddr: 0xC60, symBinAddr: 0x100001C90, symSize: 0x30 }
  - { offset: 0xA46B, size: 0x8, addend: 0x0, symName: __ZNSt3__16__math5roundB8ne180100Ef, symObjAddr: 0xCD0, symBinAddr: 0x100001D00, symSize: 0x40 }
  - { offset: 0xA4DC, size: 0x8, addend: 0x0, symName: __ZNSt3__13minB8ne180100IiEERKT_S3_S3_, symObjAddr: 0xD10, symBinAddr: 0x100001D40, symSize: 0x30 }
  - { offset: 0xB17D, size: 0x8, addend: 0x0, symName: __ZNSt3__14endlB8ne180100IcNS_11char_traitsIcEEEERNS_13basic_ostreamIT_T0_EES7_, symObjAddr: 0xD80, symBinAddr: 0x100001DB0, symSize: 0x50 }
  - { offset: 0xB1BD, size: 0x8, addend: 0x0, symName: __ZNSt3__122__make_exception_guardB8ne180100INS_6vectorIiNS_9allocatorIiEEE16__destroy_vectorEEENS_28__exception_guard_exceptionsIT_EES7_, symObjAddr: 0xF30, symBinAddr: 0x100001F60, symSize: 0x40 }
  - { offset: 0xB1F2, size: 0x8, addend: 0x0, symName: __ZNSt3__119__allocate_at_leastB8ne180100INS_9allocatorIiEEEENS_19__allocation_resultINS_16allocator_traitsIT_E7pointerEEERS5_m, symObjAddr: 0x12E0, symBinAddr: 0x100002310, symSize: 0x40 }
  - { offset: 0xB235, size: 0x8, addend: 0x0, symName: __ZNSt3__13minB8ne180100ImEERKT_S3_S3_, symObjAddr: 0x1370, symBinAddr: 0x1000023A0, symSize: 0x30 }
  - { offset: 0xB462, size: 0x8, addend: 0x0, symName: __ZNSt3__13minB8ne180100ImNS_6__lessIvvEEEERKT_S5_S5_T0_, symObjAddr: 0x1400, symBinAddr: 0x100002430, symSize: 0x50 }
  - { offset: 0xB71E, size: 0x8, addend: 0x0, symName: __ZNSt3__120__throw_length_errorB8ne180100EPKc, symObjAddr: 0x14E0, symBinAddr: 0x100002510, symSize: 0x70 }
  - { offset: 0xB746, size: 0x8, addend: 0x0, symName: __ZNSt3__117__libcpp_allocateB8ne180100Emm, symObjAddr: 0x1650, symBinAddr: 0x100002680, symSize: 0x60 }
  - { offset: 0xB7A0, size: 0x8, addend: 0x0, symName: __ZNSt3__124__is_overaligned_for_newB8ne180100Em, symObjAddr: 0x16B0, symBinAddr: 0x1000026E0, symSize: 0x20 }
  - { offset: 0xB7CE, size: 0x8, addend: 0x0, symName: __ZNSt3__121__libcpp_operator_newB8ne180100IJmSt11align_val_tEEEPvDpT_, symObjAddr: 0x16D0, symBinAddr: 0x100002700, symSize: 0x30 }
  - { offset: 0xB81B, size: 0x8, addend: 0x0, symName: __ZNSt3__121__libcpp_operator_newB8ne180100IJmEEEPvDpT_, symObjAddr: 0x1700, symBinAddr: 0x100002730, symSize: 0x20 }
  - { offset: 0xB854, size: 0x8, addend: 0x0, symName: __ZNSt3__112__to_addressB8ne180100IiEEPT_S2_, symObjAddr: 0x17D0, symBinAddr: 0x100002800, symSize: 0x10 }
  - { offset: 0xB889, size: 0x8, addend: 0x0, symName: __ZNSt3__114__construct_atB8ne180100IiJEPiEEPT_S3_DpOT0_, symObjAddr: 0x1840, symBinAddr: 0x100002870, symSize: 0x20 }
  - { offset: 0xB8C8, size: 0x8, addend: 0x0, symName: __ZNSt3__112construct_atB8ne180100IiJEPiEEPT_S3_DpOT0_, symObjAddr: 0x1860, symBinAddr: 0x100002890, symSize: 0x20 }
  - { offset: 0xB907, size: 0x8, addend: 0x0, symName: __ZNSt3__112__destroy_atB8ne180100IiLi0EEEvPT_, symObjAddr: 0x1A90, symBinAddr: 0x100002AC0, symSize: 0x10 }
  - { offset: 0xB93E, size: 0x8, addend: 0x0, symName: __ZNSt3__119__libcpp_deallocateB8ne180100EPvmm, symObjAddr: 0x1AE0, symBinAddr: 0x100002B10, symSize: 0x60 }
  - { offset: 0xB9A3, size: 0x8, addend: 0x0, symName: __ZNSt3__127__do_deallocate_handle_sizeB8ne180100IJSt11align_val_tEEEvPvmDpT_, symObjAddr: 0x1B40, symBinAddr: 0x100002B70, symSize: 0x30 }
  - { offset: 0xB9F6, size: 0x8, addend: 0x0, symName: __ZNSt3__127__do_deallocate_handle_sizeB8ne180100IJEEEvPvmDpT_, symObjAddr: 0x1B70, symBinAddr: 0x100002BA0, symSize: 0x20 }
  - { offset: 0xBA34, size: 0x8, addend: 0x0, symName: __ZNSt3__124__libcpp_operator_deleteB8ne180100IJPvSt11align_val_tEEEvDpT_, symObjAddr: 0x1B90, symBinAddr: 0x100002BC0, symSize: 0x30 }
  - { offset: 0xBA7D, size: 0x8, addend: 0x0, symName: __ZNSt3__124__libcpp_operator_deleteB8ne180100IJPvEEEvDpT_, symObjAddr: 0x1BC0, symBinAddr: 0x100002BF0, symSize: 0x20 }
  - { offset: 0xBAB2, size: 0x8, addend: 0x0, symName: __ZNSt3__14sortB8ne180100INS_11__wrap_iterIPiEENS_6__lessIvvEEEEvT_S6_T0_, symObjAddr: 0x1C30, symBinAddr: 0x100002C60, symSize: 0x40 }
  - { offset: 0xBB0C, size: 0x8, addend: 0x0, symName: __ZNSt3__111__sort_implB8ne180100INS_17_ClassicAlgPolicyENS_11__wrap_iterIPiEENS_6__lessIvvEEEEvT0_S7_RT1_, symObjAddr: 0x1C70, symBinAddr: 0x100002CA0, symSize: 0xB0 }
  - { offset: 0xBB6F, size: 0x8, addend: 0x0, symName: __ZNSt3__123__debug_randomize_rangeB8ne180100INS_17_ClassicAlgPolicyENS_11__wrap_iterIPiEES4_EEvT0_T1_, symObjAddr: 0x1D20, symBinAddr: 0x100002D50, symSize: 0x10 }
  - { offset: 0xBBC0, size: 0x8, addend: 0x0, symName: __ZNSt3__115__sort_dispatchB8ne180100INS_17_ClassicAlgPolicyEiLi0EEEvPT0_S3_RNS_6__lessIvvEE, symObjAddr: 0x1D30, symBinAddr: 0x100002D60, symSize: 0x30 }
  - { offset: 0xBC2B, size: 0x8, addend: 0x0, symName: __ZNSt3__113__unwrap_iterB8ne180100INS_11__wrap_iterIPiEENS_18__unwrap_iter_implIS3_Lb1EEELi0EEEDTclsrT0_8__unwrapclsr3stdE7declvalIT_EEEES7_, symObjAddr: 0x1D60, symBinAddr: 0x100002D90, symSize: 0x30 }
  - { offset: 0xBC6F, size: 0x8, addend: 0x0, symName: __ZNSt3__135__check_strict_weak_ordering_sortedB8ne180100IPiNS_6__lessIvvEEEEvT_S4_RT0_, symObjAddr: 0x1D90, symBinAddr: 0x100002DC0, symSize: 0x20 }
  - { offset: 0xBD18, size: 0x8, addend: 0x0, symName: __ZNSt3__112__to_addressB8ne180100INS_11__wrap_iterIPiEEvEEu7__decayIDTclsr19__to_address_helperIT_EE6__callclsr3stdE7declvalIRKS4_EEEEES6_, symObjAddr: 0x1DD0, symBinAddr: 0x100002E00, symSize: 0x20 }
  - { offset: 0xBDB5, size: 0x8, addend: 0x0, symName: __ZNSt3__18distanceB8ne180100INS_21__tree_const_iteratorIiPNS_11__tree_nodeIiPvEElEEEENS_15iterator_traitsIT_E15difference_typeES8_S8_, symObjAddr: 0x1F80, symBinAddr: 0x100002FB0, symSize: 0x40 }
  - { offset: 0xBDF8, size: 0x8, addend: 0x0, symName: __ZNSt3__110__distanceB8ne180100INS_21__tree_const_iteratorIiPNS_11__tree_nodeIiPvEElEEEENS_15iterator_traitsIT_E15difference_typeES8_S8_NS_18input_iterator_tagE, symObjAddr: 0x2080, symBinAddr: 0x1000030B0, symSize: 0x60 }
  - { offset: 0xBE53, size: 0x8, addend: 0x0, symName: __ZNSt3__1neB8ne180100ERKNS_21__tree_const_iteratorIiPNS_11__tree_nodeIiPvEElEES7_, symObjAddr: 0x20E0, symBinAddr: 0x100003110, symSize: 0x30 }
  - { offset: 0xBE90, size: 0x8, addend: 0x0, symName: __ZNSt3__1eqB8ne180100ERKNS_21__tree_const_iteratorIiPNS_11__tree_nodeIiPvEElEES7_, symObjAddr: 0x2140, symBinAddr: 0x100003170, symSize: 0x30 }
  - { offset: 0xBECD, size: 0x8, addend: 0x0, symName: __ZNSt3__116__tree_next_iterB8ne180100IPNS_15__tree_end_nodeIPNS_16__tree_node_baseIPvEEEES5_EET_T0_, symObjAddr: 0x2170, symBinAddr: 0x1000031A0, symSize: 0x90 }
  - { offset: 0xBF0B, size: 0x8, addend: 0x0, symName: __ZNSt3__110__tree_minB8ne180100IPNS_16__tree_node_baseIPvEEEET_S5_, symObjAddr: 0x2200, symBinAddr: 0x100003230, symSize: 0x30 }
  - { offset: 0xBF40, size: 0x8, addend: 0x0, symName: __ZNSt3__120__tree_is_left_childB8ne180100IPNS_16__tree_node_baseIPvEEEEbT_, symObjAddr: 0x2230, symBinAddr: 0x100003260, symSize: 0x30 }
  - { offset: 0xBF75, size: 0x8, addend: 0x0, symName: __ZNSt3__130__uninitialized_allocator_copyB8ne180100INS_9allocatorIiEENS_21__tree_const_iteratorIiPNS_11__tree_nodeIiPvEElEES8_PiEET2_RT_T0_T1_SA_, symObjAddr: 0x2320, symBinAddr: 0x100003350, symSize: 0x90 }
  - { offset: 0xC013, size: 0x8, addend: 0x0, symName: __ZNSt3__114__unwrap_rangeB8ne180100INS_21__tree_const_iteratorIiPNS_11__tree_nodeIiPvEElEES6_EEDaT_T0_, symObjAddr: 0x23B0, symBinAddr: 0x1000033E0, symSize: 0x50 }
  - { offset: 0xC05F, size: 0x8, addend: 0x0, symName: __ZNSt3__135__uninitialized_allocator_copy_implB8ne180100INS_9allocatorIiEENS_21__tree_const_iteratorIiPNS_11__tree_nodeIiPvEElEES8_PiEET2_RT_T0_T1_SA_, symObjAddr: 0x2400, symBinAddr: 0x100003430, symSize: 0x130 }
  - { offset: 0xC0FD, size: 0x8, addend: 0x0, symName: __ZNSt3__113__unwrap_iterB8ne180100IPiNS_18__unwrap_iter_implIS1_Lb1EEELi0EEEDTclsrT0_8__unwrapclsr3stdE7declvalIT_EEEES5_, symObjAddr: 0x2530, symBinAddr: 0x100003560, symSize: 0x20 }
  - { offset: 0xC141, size: 0x8, addend: 0x0, symName: __ZNSt3__113__rewrap_iterB8ne180100IPiS1_NS_18__unwrap_iter_implIS1_Lb1EEEEET_S4_T0_, symObjAddr: 0x2550, symBinAddr: 0x100003580, symSize: 0x40 }
  - { offset: 0xC1CC, size: 0x8, addend: 0x0, symName: __ZNSt3__113__unwrap_iterB8ne180100INS_21__tree_const_iteratorIiPNS_11__tree_nodeIiPvEElEENS_18__unwrap_iter_implIS6_Lb0EEELi0EEEDTclsrT0_8__unwrapclsr3stdE7declvalIT_EEEESA_, symObjAddr: 0x25F0, symBinAddr: 0x100003620, symSize: 0x30 }
  - { offset: 0xC258, size: 0x8, addend: 0x0, symName: __ZNSt3__122__make_exception_guardB8ne180100INS_29_AllocatorDestroyRangeReverseINS_9allocatorIiEEPiEEEENS_28__exception_guard_exceptionsIT_EES7_, symObjAddr: 0x26A0, symBinAddr: 0x1000036D0, symSize: 0x60 }
  - { offset: 0xC28D, size: 0x8, addend: 0x0, symName: __ZNSt3__114__construct_atB8ne180100IiJRKiEPiEEPT_S5_DpOT0_, symObjAddr: 0x2880, symBinAddr: 0x1000038B0, symSize: 0x30 }
  - { offset: 0xC2E0, size: 0x8, addend: 0x0, symName: __ZNSt3__112construct_atB8ne180100IiJRKiEPiEEPT_S5_DpOT0_, symObjAddr: 0x28B0, symBinAddr: 0x1000038E0, symSize: 0x20 }
  - { offset: 0xC333, size: 0x8, addend: 0x0, symName: __ZNSt3__119__allocator_destroyB8ne180100INS_9allocatorIiEENS_16reverse_iteratorIPiEES5_EEvRT_T0_T1_, symObjAddr: 0x2990, symBinAddr: 0x1000039C0, symSize: 0x70 }
  - { offset: 0xC396, size: 0x8, addend: 0x0, symName: __ZNSt3__1neB8ne180100IPiS1_EEbRKNS_16reverse_iteratorIT_EERKNS2_IT0_EE, symObjAddr: 0x2A30, symBinAddr: 0x100003A60, symSize: 0x40 }
  - { offset: 0xC3E2, size: 0x8, addend: 0x0, symName: __ZNSt3__112__to_addressB8ne180100INS_16reverse_iteratorIPiEEvEEu7__decayIDTclsr19__to_address_helperIT_EE6__callclsr3stdE7declvalIRKS4_EEEEES6_, symObjAddr: 0x2A70, symBinAddr: 0x100003AA0, symSize: 0x20 }
  - { offset: 0xC441, size: 0x8, addend: 0x0, symName: __ZNSt3__14prevB8ne180100IPiLi0EEET_S2_NS_15iterator_traitsIS2_E15difference_typeE, symObjAddr: 0x2B40, symBinAddr: 0x100003B70, symSize: 0x30 }
  - { offset: 0xC48A, size: 0x8, addend: 0x0, symName: __ZNSt3__121__convert_to_integralB8ne180100El, symObjAddr: 0x2BA0, symBinAddr: 0x100003BD0, symSize: 0x10 }
  - { offset: 0xC4B6, size: 0x8, addend: 0x0, symName: __ZNSt3__19__advanceB8ne180100IPiEEvRT_NS_15iterator_traitsIS2_E15difference_typeENS_26random_access_iterator_tagE, symObjAddr: 0x2BB0, symBinAddr: 0x100003BE0, symSize: 0x20 }
  - { offset: 0xC552, size: 0x8, addend: 0x0, symName: __ZNSt3__114__construct_atB8ne180100IiJiEPiEEPT_S3_DpOT0_, symObjAddr: 0x2E60, symBinAddr: 0x100003E90, symSize: 0x30 }
  - { offset: 0xC5A5, size: 0x8, addend: 0x0, symName: __ZNSt3__112construct_atB8ne180100IiJiEPiEEPT_S3_DpOT0_, symObjAddr: 0x2E90, symBinAddr: 0x100003EC0, symSize: 0x20 }
  - { offset: 0xC5F8, size: 0x8, addend: 0x0, symName: __ZNSt3__13maxB8ne180100ImEERKT_S3_S3_, symObjAddr: 0x30E0, symBinAddr: 0x100004110, symSize: 0x30 }
  - { offset: 0xC63B, size: 0x8, addend: 0x0, symName: __ZNSt3__13maxB8ne180100ImNS_6__lessIvvEEEERKT_S5_S5_T0_, symObjAddr: 0x3110, symBinAddr: 0x100004140, symSize: 0x50 }
  - { offset: 0xC695, size: 0x8, addend: 0x0, symName: __ZNSt3__142__uninitialized_allocator_move_if_noexceptB8ne180100INS_9allocatorIiEENS_16reverse_iteratorIPiEES5_ivEET1_RT_T0_S9_S6_, symObjAddr: 0x3360, symBinAddr: 0x100004390, symSize: 0x70 }
  - { offset: 0xC711, size: 0x8, addend: 0x0, symName: __ZNSt3__14swapB8ne180100IPiEENS_9enable_ifIXaasr21is_move_constructibleIT_EE5valuesr18is_move_assignableIS3_EE5valueEvE4typeERS3_S6_, symObjAddr: 0x33D0, symBinAddr: 0x100004400, symSize: 0x40 }
  - { offset: 0xC762, size: 0x8, addend: 0x0, symName: __ZNSt3__14moveB8ne180100INS_16reverse_iteratorIPiEES3_EET0_T_S5_S4_, symObjAddr: 0x3410, symBinAddr: 0x100004440, symSize: 0x80 }
  - { offset: 0xC7BC, size: 0x8, addend: 0x0, symName: __ZNSt3__16__moveB8ne180100INS_17_ClassicAlgPolicyENS_16reverse_iteratorIPiEES4_S4_EENS_4pairIT0_T2_EES6_T1_S7_, symObjAddr: 0x3490, symBinAddr: 0x1000044C0, symSize: 0x90 }
  - { offset: 0xC828, size: 0x8, addend: 0x0, symName: __ZNSt3__123__dispatch_copy_or_moveB8ne180100INS_17_ClassicAlgPolicyENS_11__move_loopIS1_EENS_14__move_trivialENS_16reverse_iteratorIPiEES7_S7_EENS_4pairIT2_T4_EES9_T3_SA_, symObjAddr: 0x3520, symBinAddr: 0x100004550, symSize: 0x90 }
  - { offset: 0xC8A6, size: 0x8, addend: 0x0, symName: __ZNSt3__121__unwrap_and_dispatchB8ne180100INS_10__overloadINS_11__move_loopINS_17_ClassicAlgPolicyEEENS_14__move_trivialEEENS_16reverse_iteratorIPiEES9_S9_Li0EEENS_4pairIT0_T2_EESB_T1_SC_, symObjAddr: 0x35B0, symBinAddr: 0x1000045E0, symSize: 0x210 }
  - { offset: 0xC935, size: 0x8, addend: 0x0, symName: __ZNSt3__114__unwrap_rangeB8ne180100INS_16reverse_iteratorIPiEES3_EEDaT_T0_, symObjAddr: 0x37C0, symBinAddr: 0x1000047F0, symSize: 0x60 }
  - { offset: 0xCAB0, size: 0x8, addend: 0x0, symName: __ZNSt3__113__unwrap_iterB8ne180100INS_16reverse_iteratorIPiEENS_18__unwrap_iter_implIS3_Lb0EEELi0EEEDTclsrT0_8__unwrapclsr3stdE7declvalIT_EEEES7_, symObjAddr: 0x38C0, symBinAddr: 0x1000048F0, symSize: 0x40 }
  - { offset: 0xCAF4, size: 0x8, addend: 0x0, symName: __ZNSt3__19make_pairB8ne180100INS_16reverse_iteratorIPiEES3_EENS_4pairINS_18__unwrap_ref_decayIT_E4typeENS5_IT0_E4typeEEEOS6_OS9_, symObjAddr: 0x3900, symBinAddr: 0x100004930, symSize: 0x30 }
  - { offset: 0xCB43, size: 0x8, addend: 0x0, symName: __ZNSt3__114__rewrap_rangeB8ne180100INS_16reverse_iteratorIPiEES3_S3_EET0_S4_T1_, symObjAddr: 0x3930, symBinAddr: 0x100004960, symSize: 0x60 }
  - { offset: 0xCB98, size: 0x8, addend: 0x0, symName: __ZNSt3__113__rewrap_iterB8ne180100INS_16reverse_iteratorIPiEES3_NS_18__unwrap_iter_implIS3_Lb0EEEEET_S6_T0_, symObjAddr: 0x3990, symBinAddr: 0x1000049C0, symSize: 0x70 }
  - { offset: 0xCCE7, size: 0x8, addend: 0x0, symName: __ZNSt3__1eqB8ne180100IPiEEbRKNS_11__wrap_iterIT_EES6_, symObjAddr: 0x3DC0, symBinAddr: 0x100004DF0, symSize: 0x40 }
  - { offset: 0xCD2A, size: 0x8, addend: 0x0, symName: __ZNSt3__13minB8ne180100IiNS_6__lessIvvEEEERKT_S5_S5_T0_, symObjAddr: 0x3E00, symBinAddr: 0x100004E30, symSize: 0x50 }
  - { offset: 0xCDD5, size: 0x8, addend: 0x0, symName: __ZNSt3__127__tree_balance_after_insertB8ne180100IPNS_16__tree_node_baseIPvEEEEvT_S5_, symObjAddr: 0x4D70, symBinAddr: 0x100005DA0, symSize: 0x240 }
  - { offset: 0xCE51, size: 0x8, addend: 0x0, symName: __ZNSt3__118__tree_left_rotateB8ne180100IPNS_16__tree_node_baseIPvEEEEvT_, symObjAddr: 0x4FD0, symBinAddr: 0x100006000, symSize: 0xD0 }
  - { offset: 0xCE90, size: 0x8, addend: 0x0, symName: __ZNSt3__119__tree_right_rotateB8ne180100IPNS_16__tree_node_baseIPvEEEEvT_, symObjAddr: 0x50A0, symBinAddr: 0x1000060D0, symSize: 0xC0 }
  - { offset: 0xCED2, size: 0x8, addend: 0x0, symName: __ZNSt3__112__destroy_atB8ne180100INS_4pairIKiiEELi0EEEvPT_, symObjAddr: 0x5860, symBinAddr: 0x100006890, symSize: 0x10 }
  - { offset: 0xCF09, size: 0x8, addend: 0x0, symName: __ZNSt3__17launderB8ne180100INS_4pairIKiiEEEEPT_S5_, symObjAddr: 0x5890, symBinAddr: 0x1000068C0, symSize: 0x20 }
  - { offset: 0xCF40, size: 0x8, addend: 0x0, symName: __ZNSt3__19__launderB8ne180100INS_4pairIKiiEEEEPT_S5_, symObjAddr: 0x58B0, symBinAddr: 0x1000068E0, symSize: 0x10 }
  - { offset: 0xCFAE, size: 0x8, addend: 0x0, symName: __ZNSt3__116forward_as_tupleB8ne180100IJRKiEEENS_5tupleIJDpOT_EEES6_, symObjAddr: 0x5A60, symBinAddr: 0x100006A90, symSize: 0x30 }
  - { offset: 0xCFE7, size: 0x8, addend: 0x0, symName: __ZNSt3__116forward_as_tupleB8ne180100IJEEENS_5tupleIJDpOT_EEES4_, symObjAddr: 0x5A90, symBinAddr: 0x100006AC0, symSize: 0x10 }
  - { offset: 0xD00B, size: 0x8, addend: 0x0, symName: __ZNSt3__17launderB8ne180100IKNS_4pairIKiiEEEEPT_S6_, symObjAddr: 0x6030, symBinAddr: 0x100007060, symSize: 0x20 }
  - { offset: 0xD042, size: 0x8, addend: 0x0, symName: __ZNSt3__19__launderB8ne180100IKNS_4pairIKiiEEEEPT_S6_, symObjAddr: 0x6050, symBinAddr: 0x100007080, symSize: 0x10 }
  - { offset: 0xD097, size: 0x8, addend: 0x0, symName: __ZNSt3__114__construct_atB8ne180100INS_4pairIKiiEEJRKNS_21piecewise_construct_tENS_5tupleIJRS2_EEENS7_IJEEEEPS3_EEPT_SD_DpOT0_, symObjAddr: 0x6330, symBinAddr: 0x100007360, symSize: 0x40 }
  - { offset: 0xD110, size: 0x8, addend: 0x0, symName: __ZNSt3__112construct_atB8ne180100INS_4pairIKiiEEJRKNS_21piecewise_construct_tENS_5tupleIJRS2_EEENS7_IJEEEEPS3_EEPT_SD_DpOT0_, symObjAddr: 0x6370, symBinAddr: 0x1000073A0, symSize: 0x40 }
  - { offset: 0xD194, size: 0x8, addend: 0x0, symName: __ZNSt3__13getB8ne180100ILm0EJRKiEEERNS_13tuple_elementIXT_ENS_5tupleIJDpT0_EEEE4typeERS7_, symObjAddr: 0x6460, symBinAddr: 0x100007490, symSize: 0x20 }
  - { offset: 0xD22E, size: 0x8, addend: 0x0, symName: __ZNSt3__19use_facetB8ne180100INS_5ctypeIcEEEERKT_RKNS_6localeE, symObjAddr: 0x6920, symBinAddr: 0x100007950, symSize: 0x30 }
  - { offset: 0xE684, size: 0x8, addend: 0x0, symName: __ZSt28__throw_bad_array_new_lengthB8ne180100v, symObjAddr: 0x1610, symBinAddr: 0x100002640, symSize: 0x40 }
  - { offset: 0xEC9E, size: 0x8, addend: 0x0, symName: __ZNSt3__16vectorIiNS_9allocatorIiEEE26__swap_out_circular_bufferERNS_14__split_bufferIiRS2_EE, symObjAddr: 0x2FA0, symBinAddr: 0x100003FD0, symSize: 0x120 }
  - { offset: 0xF281, size: 0x8, addend: 0x0, symName: _main, symObjAddr: 0x0, symBinAddr: 0x100001030, symSize: 0x950 }
  - { offset: 0xF490, size: 0x8, addend: 0x0, symName: __ZNSt3__16vectorIiNS_9allocatorIiEEEC1Em, symObjAddr: 0x950, symBinAddr: 0x100001980, symSize: 0x30 }
  - { offset: 0xF4CB, size: 0x8, addend: 0x0, symName: __ZNSt3__16vectorIiNS_9allocatorIiEEEixB8ne180100Em, symObjAddr: 0x980, symBinAddr: 0x1000019B0, symSize: 0x20 }
  - { offset: 0xF639, size: 0x8, addend: 0x0, symName: __ZNSt3__13setIiNS_4lessIiEENS_9allocatorIiEEEC1B8ne180100Ev, symObjAddr: 0x9A0, symBinAddr: 0x1000019D0, symSize: 0x20 }
  - { offset: 0xF663, size: 0x8, addend: 0x0, symName: __ZNSt3__13setIiNS_4lessIiEENS_9allocatorIiEEE6insertB8ne180100ERKi, symObjAddr: 0x9C0, symBinAddr: 0x1000019F0, symSize: 0x40 }
  - { offset: 0xF698, size: 0x8, addend: 0x0, symName: __ZNSt3__16vectorIiNS_9allocatorIiEEE5beginB8ne180100Ev, symObjAddr: 0xA40, symBinAddr: 0x100001A70, symSize: 0x30 }
  - { offset: 0xF6C0, size: 0x8, addend: 0x0, symName: __ZNSt3__16vectorIiNS_9allocatorIiEEE3endB8ne180100Ev, symObjAddr: 0xA70, symBinAddr: 0x100001AA0, symSize: 0x30 }
  - { offset: 0xF6E8, size: 0x8, addend: 0x0, symName: __ZNSt3__13mapIiiNS_4lessIiEENS_9allocatorINS_4pairIKiiEEEEEC1B8ne180100Ev, symObjAddr: 0xAA0, symBinAddr: 0x100001AD0, symSize: 0x20 }
  - { offset: 0xF712, size: 0x8, addend: 0x0, symName: __ZNSt3__13mapIiiNS_4lessIiEENS_9allocatorINS_4pairIKiiEEEEEixERS5_, symObjAddr: 0xAC0, symBinAddr: 0x100001AF0, symSize: 0x70 }
  - { offset: 0xF749, size: 0x8, addend: 0x0, symName: __ZNSt3__13setIiNS_4lessIiEENS_9allocatorIiEEE5beginB8ne180100Ev, symObjAddr: 0xB30, symBinAddr: 0x100001B60, symSize: 0x30 }
  - { offset: 0xF76F, size: 0x8, addend: 0x0, symName: __ZNSt3__13setIiNS_4lessIiEENS_9allocatorIiEEE3endB8ne180100Ev, symObjAddr: 0xB60, symBinAddr: 0x100001B90, symSize: 0x30 }
  - { offset: 0xF795, size: 0x8, addend: 0x0, symName: __ZNSt3__16vectorIiNS_9allocatorIiEEEC1INS_21__tree_const_iteratorIiPNS_11__tree_nodeIiPvEElEELi0EEET_SB_, symObjAddr: 0xB90, symBinAddr: 0x100001BC0, symSize: 0x30 }
  - { offset: 0xF7EE, size: 0x8, addend: 0x0, symName: __ZNSt3__16vectorIiNS_9allocatorIiEEEC1B8ne180100Ev, symObjAddr: 0xBC0, symBinAddr: 0x100001BF0, symSize: 0x20 }
  - { offset: 0xF818, size: 0x8, addend: 0x0, symName: __ZNSt3__16vectorIiNS_9allocatorIiEEE9push_backB8ne180100EOi, symObjAddr: 0xBE0, symBinAddr: 0x100001C10, symSize: 0x80 }
  - { offset: 0xF85E, size: 0x8, addend: 0x0, symName: __ZNKSt3__111__wrap_iterIPiEdeB8ne180100Ev, symObjAddr: 0xC90, symBinAddr: 0x100001CC0, symSize: 0x20 }
  - { offset: 0xF883, size: 0x8, addend: 0x0, symName: __Z3absB8ne180100f, symObjAddr: 0xCB0, symBinAddr: 0x100001CE0, symSize: 0x20 }
  - { offset: 0xF8B0, size: 0x8, addend: 0x0, symName: __ZNSt3__111__wrap_iterIPiEppB8ne180100Ev, symObjAddr: 0xD40, symBinAddr: 0x100001D70, symSize: 0x20 }
  - { offset: 0xF9B2, size: 0x8, addend: 0x0, symName: __ZNSt3__113basic_ostreamIcNS_11char_traitsIcEEElsB8ne180100EPFRS3_S4_E, symObjAddr: 0xD60, symBinAddr: 0x100001D90, symSize: 0x20 }
  - { offset: 0xF9E6, size: 0x8, addend: 0x0, symName: __ZNSt3__16vectorIiNS_9allocatorIiEEED1B8ne180100Ev, symObjAddr: 0xDD0, symBinAddr: 0x100001E00, symSize: 0x20 }
  - { offset: 0xFA10, size: 0x8, addend: 0x0, symName: __ZNSt3__13mapIiiNS_4lessIiEENS_9allocatorINS_4pairIKiiEEEEED1B8ne180100Ev, symObjAddr: 0xDF0, symBinAddr: 0x100001E20, symSize: 0x20 }
  - { offset: 0xFA3A, size: 0x8, addend: 0x0, symName: __ZNSt3__13setIiNS_4lessIiEENS_9allocatorIiEEED1B8ne180100Ev, symObjAddr: 0xE10, symBinAddr: 0x100001E40, symSize: 0x20 }
  - { offset: 0xFA64, size: 0x8, addend: 0x0, symName: __ZNSt3__16vectorIiNS_9allocatorIiEEEC2Em, symObjAddr: 0xE30, symBinAddr: 0x100001E60, symSize: 0xD0 }
  - { offset: 0xFAC1, size: 0x8, addend: 0x0, symName: __ZNSt3__117__compressed_pairIPiNS_9allocatorIiEEEC1B8ne180100IDnNS_18__default_init_tagEEEOT_OT0_, symObjAddr: 0xF00, symBinAddr: 0x100001F30, symSize: 0x30 }
  - { offset: 0xFB19, size: 0x8, addend: 0x0, symName: __ZNSt3__16vectorIiNS_9allocatorIiEEE16__destroy_vectorC1B8ne180100ERS3_, symObjAddr: 0xF70, symBinAddr: 0x100001FA0, symSize: 0x30 }
  - { offset: 0xFB52, size: 0x8, addend: 0x0, symName: __ZNSt3__16vectorIiNS_9allocatorIiEEE11__vallocateB8ne180100Em, symObjAddr: 0xFA0, symBinAddr: 0x100001FD0, symSize: 0xA0 }
  - { offset: 0xFB96, size: 0x8, addend: 0x0, symName: __ZNSt3__16vectorIiNS_9allocatorIiEEE18__construct_at_endEm, symObjAddr: 0x1040, symBinAddr: 0x100002070, symSize: 0xC0 }
  - { offset: 0xFC08, size: 0x8, addend: 0x0, symName: __ZNSt3__128__exception_guard_exceptionsINS_6vectorIiNS_9allocatorIiEEE16__destroy_vectorEE10__completeB8ne180100Ev, symObjAddr: 0x1100, symBinAddr: 0x100002130, symSize: 0x20 }
  - { offset: 0xFC2E, size: 0x8, addend: 0x0, symName: __ZNSt3__128__exception_guard_exceptionsINS_6vectorIiNS_9allocatorIiEEE16__destroy_vectorEED1B8ne180100Ev, symObjAddr: 0x1120, symBinAddr: 0x100002150, symSize: 0x20 }
  - { offset: 0xFC58, size: 0x8, addend: 0x0, symName: __ZNSt3__117__compressed_pairIPiNS_9allocatorIiEEEC2B8ne180100IDnNS_18__default_init_tagEEEOT_OT0_, symObjAddr: 0x1140, symBinAddr: 0x100002170, symSize: 0x40 }
  - { offset: 0xFCB0, size: 0x8, addend: 0x0, symName: __ZNSt3__122__compressed_pair_elemIPiLi0ELb0EEC2B8ne180100IDnvEEOT_, symObjAddr: 0x1180, symBinAddr: 0x1000021B0, symSize: 0x20 }
  - { offset: 0xFCF2, size: 0x8, addend: 0x0, symName: __ZNSt3__122__compressed_pair_elemINS_9allocatorIiEELi1ELb1EEC2B8ne180100ENS_18__default_init_tagE, symObjAddr: 0x11A0, symBinAddr: 0x1000021D0, symSize: 0x20 }
  - { offset: 0xFD26, size: 0x8, addend: 0x0, symName: __ZNSt3__19allocatorIiEC2B8ne180100Ev, symObjAddr: 0x11C0, symBinAddr: 0x1000021F0, symSize: 0x20 }
  - { offset: 0xFD50, size: 0x8, addend: 0x0, symName: __ZNSt3__116__non_trivial_ifILb1ENS_9allocatorIiEEEC2B8ne180100Ev, symObjAddr: 0x11E0, symBinAddr: 0x100002210, symSize: 0x10 }
  - { offset: 0xFD7A, size: 0x8, addend: 0x0, symName: __ZNSt3__128__exception_guard_exceptionsINS_6vectorIiNS_9allocatorIiEEE16__destroy_vectorEEC1B8ne180100ES5_, symObjAddr: 0x11F0, symBinAddr: 0x100002220, symSize: 0x30 }
  - { offset: 0xFDB2, size: 0x8, addend: 0x0, symName: __ZNSt3__128__exception_guard_exceptionsINS_6vectorIiNS_9allocatorIiEEE16__destroy_vectorEEC2B8ne180100ES5_, symObjAddr: 0x1220, symBinAddr: 0x100002250, symSize: 0x20 }
  - { offset: 0xFDEA, size: 0x8, addend: 0x0, symName: __ZNSt3__16vectorIiNS_9allocatorIiEEE16__destroy_vectorC2B8ne180100ERS3_, symObjAddr: 0x1240, symBinAddr: 0x100002270, symSize: 0x20 }
  - { offset: 0xFE23, size: 0x8, addend: 0x0, symName: __ZNKSt3__16vectorIiNS_9allocatorIiEEE8max_sizeEv, symObjAddr: 0x1260, symBinAddr: 0x100002290, symSize: 0x60 }
  - { offset: 0xFE4B, size: 0x8, addend: 0x0, symName: __ZNKSt3__16vectorIiNS_9allocatorIiEEE20__throw_length_errorB8ne180100Ev, symObjAddr: 0x12C0, symBinAddr: 0x1000022F0, symSize: 0x20 }
  - { offset: 0xFE71, size: 0x8, addend: 0x0, symName: __ZNSt3__16vectorIiNS_9allocatorIiEEE7__allocB8ne180100Ev, symObjAddr: 0x1320, symBinAddr: 0x100002350, symSize: 0x20 }
  - { offset: 0xFE97, size: 0x8, addend: 0x0, symName: __ZNSt3__16vectorIiNS_9allocatorIiEEE9__end_capB8ne180100Ev, symObjAddr: 0x1340, symBinAddr: 0x100002370, symSize: 0x20 }
  - { offset: 0xFEBD, size: 0x8, addend: 0x0, symName: __ZNKSt3__16vectorIiNS_9allocatorIiEEE14__annotate_newB8ne180100Em, symObjAddr: 0x1360, symBinAddr: 0x100002390, symSize: 0x10 }
  - { offset: 0xFEFC, size: 0x8, addend: 0x0, symName: __ZNSt3__116allocator_traitsINS_9allocatorIiEEE8max_sizeB8ne180100IS2_vvEEmRKS2_, symObjAddr: 0x13A0, symBinAddr: 0x1000023D0, symSize: 0x20 }
  - { offset: 0xFF27, size: 0x8, addend: 0x0, symName: __ZNKSt3__16vectorIiNS_9allocatorIiEEE7__allocB8ne180100Ev, symObjAddr: 0x13C0, symBinAddr: 0x1000023F0, symSize: 0x20 }
  - { offset: 0xFF4D, size: 0x8, addend: 0x0, symName: __ZNSt3__114numeric_limitsIlE3maxB8ne180100Ev, symObjAddr: 0x13E0, symBinAddr: 0x100002410, symSize: 0x10 }
  - { offset: 0xFF6B, size: 0x8, addend: 0x0, symName: __ZNKSt3__16__lessIvvEclB8ne180100ImmEEbRKT_RKT0_, symObjAddr: 0x1450, symBinAddr: 0x100002480, symSize: 0x30 }
  - { offset: 0xFFBF, size: 0x8, addend: 0x0, symName: __ZNSt3__114numeric_limitsImE3maxB8ne180100Ev, symObjAddr: 0x1480, symBinAddr: 0x1000024B0, symSize: 0x10 }
  - { offset: 0xFFD3, size: 0x8, addend: 0x0, symName: __ZNSt3__123__libcpp_numeric_limitsImLb1EE3maxB8ne180100Ev, symObjAddr: 0x1490, symBinAddr: 0x1000024C0, symSize: 0x10 }
  - { offset: 0xFFE7, size: 0x8, addend: 0x0, symName: __ZNKSt3__117__compressed_pairIPiNS_9allocatorIiEEE6secondB8ne180100Ev, symObjAddr: 0x14A0, symBinAddr: 0x1000024D0, symSize: 0x20 }
  - { offset: 0x1000D, size: 0x8, addend: 0x0, symName: __ZNKSt3__122__compressed_pair_elemINS_9allocatorIiEELi1ELb1EE5__getB8ne180100Ev, symObjAddr: 0x14C0, symBinAddr: 0x1000024F0, symSize: 0x10 }
  - { offset: 0x10033, size: 0x8, addend: 0x0, symName: __ZNSt3__123__libcpp_numeric_limitsIlLb1EE3maxB8ne180100Ev, symObjAddr: 0x14D0, symBinAddr: 0x100002500, symSize: 0x10 }
  - { offset: 0x10047, size: 0x8, addend: 0x0, symName: __ZNSt12length_errorC1B8ne180100EPKc, symObjAddr: 0x1550, symBinAddr: 0x100002580, symSize: 0x30 }
  - { offset: 0x1007F, size: 0x8, addend: 0x0, symName: __ZNSt12length_errorC2B8ne180100EPKc, symObjAddr: 0x1580, symBinAddr: 0x1000025B0, symSize: 0x40 }
  - { offset: 0x100B7, size: 0x8, addend: 0x0, symName: __ZNSt3__19allocatorIiE8allocateB8ne180100Em, symObjAddr: 0x15C0, symBinAddr: 0x1000025F0, symSize: 0x50 }
  - { offset: 0x100EB, size: 0x8, addend: 0x0, symName: __ZNSt3__117__compressed_pairIPiNS_9allocatorIiEEE6secondB8ne180100Ev, symObjAddr: 0x1720, symBinAddr: 0x100002750, symSize: 0x20 }
  - { offset: 0x10111, size: 0x8, addend: 0x0, symName: __ZNSt3__122__compressed_pair_elemINS_9allocatorIiEELi1ELb1EE5__getB8ne180100Ev, symObjAddr: 0x1740, symBinAddr: 0x100002770, symSize: 0x10 }
  - { offset: 0x10137, size: 0x8, addend: 0x0, symName: __ZNSt3__117__compressed_pairIPiNS_9allocatorIiEEE5firstB8ne180100Ev, symObjAddr: 0x1750, symBinAddr: 0x100002780, symSize: 0x20 }
  - { offset: 0x1015D, size: 0x8, addend: 0x0, symName: __ZNSt3__122__compressed_pair_elemIPiLi0ELb0EE5__getB8ne180100Ev, symObjAddr: 0x1770, symBinAddr: 0x1000027A0, symSize: 0x10 }
  - { offset: 0x1019C, size: 0x8, addend: 0x0, symName: __ZNSt3__16vectorIiNS_9allocatorIiEEE21_ConstructTransactionC1B8ne180100ERS3_m, symObjAddr: 0x1780, symBinAddr: 0x1000027B0, symSize: 0x30 }
  - { offset: 0x101E4, size: 0x8, addend: 0x0, symName: __ZNSt3__116allocator_traitsINS_9allocatorIiEEE9constructB8ne180100IiJEvvEEvRS2_PT_DpOT0_, symObjAddr: 0x17B0, symBinAddr: 0x1000027E0, symSize: 0x20 }
  - { offset: 0x10223, size: 0x8, addend: 0x0, symName: __ZNSt3__16vectorIiNS_9allocatorIiEEE21_ConstructTransactionD1B8ne180100Ev, symObjAddr: 0x17E0, symBinAddr: 0x100002810, symSize: 0x20 }
  - { offset: 0x1024D, size: 0x8, addend: 0x0, symName: __ZNSt3__16vectorIiNS_9allocatorIiEEE21_ConstructTransactionC2B8ne180100ERS3_m, symObjAddr: 0x1800, symBinAddr: 0x100002830, symSize: 0x40 }
  - { offset: 0x10295, size: 0x8, addend: 0x0, symName: __ZNSt3__16vectorIiNS_9allocatorIiEEE21_ConstructTransactionD2B8ne180100Ev, symObjAddr: 0x1880, symBinAddr: 0x1000028B0, symSize: 0x20 }
  - { offset: 0x102BF, size: 0x8, addend: 0x0, symName: __ZNSt3__128__exception_guard_exceptionsINS_6vectorIiNS_9allocatorIiEEE16__destroy_vectorEED2B8ne180100Ev, symObjAddr: 0x18A0, symBinAddr: 0x1000028D0, symSize: 0x40 }
  - { offset: 0x102E9, size: 0x8, addend: 0x0, symName: __ZNSt3__16vectorIiNS_9allocatorIiEEE16__destroy_vectorclB8ne180100Ev, symObjAddr: 0x18E0, symBinAddr: 0x100002910, symSize: 0x80 }
  - { offset: 0x1030F, size: 0x8, addend: 0x0, symName: __ZNSt3__16vectorIiNS_9allocatorIiEEE7__clearB8ne180100Ev, symObjAddr: 0x1960, symBinAddr: 0x100002990, symSize: 0x20 }
  - { offset: 0x10335, size: 0x8, addend: 0x0, symName: __ZNKSt3__16vectorIiNS_9allocatorIiEEE17__annotate_deleteB8ne180100Ev, symObjAddr: 0x1980, symBinAddr: 0x1000029B0, symSize: 0x10 }
  - { offset: 0x1035B, size: 0x8, addend: 0x0, symName: __ZNSt3__116allocator_traitsINS_9allocatorIiEEE10deallocateB8ne180100ERS2_Pim, symObjAddr: 0x1990, symBinAddr: 0x1000029C0, symSize: 0x30 }
  - { offset: 0x1039D, size: 0x8, addend: 0x0, symName: __ZNKSt3__16vectorIiNS_9allocatorIiEEE8capacityB8ne180100Ev, symObjAddr: 0x19C0, symBinAddr: 0x1000029F0, symSize: 0x30 }
  - { offset: 0x103C3, size: 0x8, addend: 0x0, symName: __ZNSt3__16vectorIiNS_9allocatorIiEEE22__base_destruct_at_endB8ne180100EPi, symObjAddr: 0x19F0, symBinAddr: 0x100002A20, symSize: 0x80 }
  - { offset: 0x10407, size: 0x8, addend: 0x0, symName: __ZNSt3__116allocator_traitsINS_9allocatorIiEEE7destroyB8ne180100IivvEEvRS2_PT_, symObjAddr: 0x1A70, symBinAddr: 0x100002AA0, symSize: 0x20 }
  - { offset: 0x10441, size: 0x8, addend: 0x0, symName: __ZNSt3__19allocatorIiE10deallocateB8ne180100EPim, symObjAddr: 0x1AA0, symBinAddr: 0x100002AD0, symSize: 0x40 }
  - { offset: 0x10483, size: 0x8, addend: 0x0, symName: __ZNKSt3__16vectorIiNS_9allocatorIiEEE9__end_capB8ne180100Ev, symObjAddr: 0x1BE0, symBinAddr: 0x100002C10, symSize: 0x20 }
  - { offset: 0x104A9, size: 0x8, addend: 0x0, symName: __ZNKSt3__117__compressed_pairIPiNS_9allocatorIiEEE5firstB8ne180100Ev, symObjAddr: 0x1C00, symBinAddr: 0x100002C30, symSize: 0x20 }
  - { offset: 0x104CF, size: 0x8, addend: 0x0, symName: __ZNKSt3__122__compressed_pair_elemIPiLi0ELb0EE5__getB8ne180100Ev, symObjAddr: 0x1C20, symBinAddr: 0x100002C50, symSize: 0x10 }
  - { offset: 0x104F5, size: 0x8, addend: 0x0, symName: __ZNSt3__118__unwrap_iter_implINS_11__wrap_iterIPiEELb1EE8__unwrapB8ne180100ES3_, symObjAddr: 0x1DB0, symBinAddr: 0x100002DE0, symSize: 0x20 }
  - { offset: 0x10522, size: 0x8, addend: 0x0, symName: __ZNSt3__119__to_address_helperINS_11__wrap_iterIPiEEvE6__callB8ne180100ERKS3_, symObjAddr: 0x1DF0, symBinAddr: 0x100002E20, symSize: 0x30 }
  - { offset: 0x10545, size: 0x8, addend: 0x0, symName: __ZNSt3__114pointer_traitsINS_11__wrap_iterIPiEEE10to_addressB8ne180100ES3_, symObjAddr: 0x1E20, symBinAddr: 0x100002E50, symSize: 0x30 }
  - { offset: 0x10568, size: 0x8, addend: 0x0, symName: __ZNKSt3__111__wrap_iterIPiE4baseB8ne180100Ev, symObjAddr: 0x1E50, symBinAddr: 0x100002E80, symSize: 0x20 }
  - { offset: 0x1058E, size: 0x8, addend: 0x0, symName: __ZNSt3__16vectorIiNS_9allocatorIiEEE11__make_iterB8ne180100EPi, symObjAddr: 0x1E70, symBinAddr: 0x100002EA0, symSize: 0x30 }
  - { offset: 0x105C3, size: 0x8, addend: 0x0, symName: __ZNSt3__111__wrap_iterIPiEC1B8ne180100ES1_, symObjAddr: 0x1EA0, symBinAddr: 0x100002ED0, symSize: 0x30 }
  - { offset: 0x105FB, size: 0x8, addend: 0x0, symName: __ZNSt3__111__wrap_iterIPiEC2B8ne180100ES1_, symObjAddr: 0x1ED0, symBinAddr: 0x100002F00, symSize: 0x20 }
  - { offset: 0x10633, size: 0x8, addend: 0x0, symName: __ZNSt3__16vectorIiNS_9allocatorIiEEEC2INS_21__tree_const_iteratorIiPNS_11__tree_nodeIiPvEElEELi0EEET_SB_, symObjAddr: 0x1EF0, symBinAddr: 0x100002F20, symSize: 0x90 }
  - { offset: 0x106A9, size: 0x8, addend: 0x0, symName: __ZNSt3__16vectorIiNS_9allocatorIiEEE16__init_with_sizeB8ne180100INS_21__tree_const_iteratorIiPNS_11__tree_nodeIiPvEElEESA_EEvT_T0_m, symObjAddr: 0x1FC0, symBinAddr: 0x100002FF0, symSize: 0xC0 }
  - { offset: 0x1071D, size: 0x8, addend: 0x0, symName: __ZNSt3__121__tree_const_iteratorIiPNS_11__tree_nodeIiPvEElEppB8ne180100Ev, symObjAddr: 0x2110, symBinAddr: 0x100003140, symSize: 0x30 }
  - { offset: 0x10743, size: 0x8, addend: 0x0, symName: __ZNKSt3__116__tree_node_baseIPvE15__parent_unsafeB8ne180100Ev, symObjAddr: 0x2260, symBinAddr: 0x100003290, symSize: 0x20 }
  - { offset: 0x10769, size: 0x8, addend: 0x0, symName: __ZNSt3__16vectorIiNS_9allocatorIiEEE18__construct_at_endINS_21__tree_const_iteratorIiPNS_11__tree_nodeIiPvEElEESA_EEvT_T0_m, symObjAddr: 0x2280, symBinAddr: 0x1000032B0, symSize: 0xA0 }
  - { offset: 0x107DF, size: 0x8, addend: 0x0, symName: __ZNSt3__119__unwrap_range_implINS_21__tree_const_iteratorIiPNS_11__tree_nodeIiPvEElEES6_E8__unwrapB8ne180100ES6_S6_, symObjAddr: 0x2590, symBinAddr: 0x1000035C0, symSize: 0x60 }
  - { offset: 0x10816, size: 0x8, addend: 0x0, symName: __ZNSt3__14pairINS_21__tree_const_iteratorIiPNS_11__tree_nodeIiPvEElEES6_EC1B8ne180100IS6_S6_Li0EEEOT_OT0_, symObjAddr: 0x2620, symBinAddr: 0x100003650, symSize: 0x30 }
  - { offset: 0x10874, size: 0x8, addend: 0x0, symName: __ZNSt3__118__unwrap_iter_implINS_21__tree_const_iteratorIiPNS_11__tree_nodeIiPvEElEELb0EE8__unwrapB8ne180100ES6_, symObjAddr: 0x2650, symBinAddr: 0x100003680, symSize: 0x20 }
  - { offset: 0x10897, size: 0x8, addend: 0x0, symName: __ZNSt3__14pairINS_21__tree_const_iteratorIiPNS_11__tree_nodeIiPvEElEES6_EC2B8ne180100IS6_S6_Li0EEEOT_OT0_, symObjAddr: 0x2670, symBinAddr: 0x1000036A0, symSize: 0x30 }
  - { offset: 0x108F5, size: 0x8, addend: 0x0, symName: __ZNSt3__129_AllocatorDestroyRangeReverseINS_9allocatorIiEEPiEC1B8ne180100ERS2_RS3_S6_, symObjAddr: 0x2700, symBinAddr: 0x100003730, symSize: 0x40 }
  - { offset: 0x1094C, size: 0x8, addend: 0x0, symName: __ZNSt3__116allocator_traitsINS_9allocatorIiEEE9constructB8ne180100IiJRKiEvvEEvRS2_PT_DpOT0_, symObjAddr: 0x2740, symBinAddr: 0x100003770, symSize: 0x30 }
  - { offset: 0x109A0, size: 0x8, addend: 0x0, symName: __ZNKSt3__121__tree_const_iteratorIiPNS_11__tree_nodeIiPvEElEdeB8ne180100Ev, symObjAddr: 0x2770, symBinAddr: 0x1000037A0, symSize: 0x20 }
  - { offset: 0x109C6, size: 0x8, addend: 0x0, symName: __ZNSt3__128__exception_guard_exceptionsINS_29_AllocatorDestroyRangeReverseINS_9allocatorIiEEPiEEE10__completeB8ne180100Ev, symObjAddr: 0x2790, symBinAddr: 0x1000037C0, symSize: 0x20 }
  - { offset: 0x109EC, size: 0x8, addend: 0x0, symName: __ZNSt3__128__exception_guard_exceptionsINS_29_AllocatorDestroyRangeReverseINS_9allocatorIiEEPiEEED1B8ne180100Ev, symObjAddr: 0x27B0, symBinAddr: 0x1000037E0, symSize: 0x20 }
  - { offset: 0x10A16, size: 0x8, addend: 0x0, symName: __ZNSt3__128__exception_guard_exceptionsINS_29_AllocatorDestroyRangeReverseINS_9allocatorIiEEPiEEEC1B8ne180100ES5_, symObjAddr: 0x27D0, symBinAddr: 0x100003800, symSize: 0x40 }
  - { offset: 0x10A4E, size: 0x8, addend: 0x0, symName: __ZNSt3__128__exception_guard_exceptionsINS_29_AllocatorDestroyRangeReverseINS_9allocatorIiEEPiEEEC2B8ne180100ES5_, symObjAddr: 0x2810, symBinAddr: 0x100003840, symSize: 0x30 }
  - { offset: 0x10A86, size: 0x8, addend: 0x0, symName: __ZNSt3__129_AllocatorDestroyRangeReverseINS_9allocatorIiEEPiEC2B8ne180100ERS2_RS3_S6_, symObjAddr: 0x2840, symBinAddr: 0x100003870, symSize: 0x40 }
  - { offset: 0x10ADD, size: 0x8, addend: 0x0, symName: __ZNKSt3__121__tree_const_iteratorIiPNS_11__tree_nodeIiPvEElE8__get_npB8ne180100Ev, symObjAddr: 0x28D0, symBinAddr: 0x100003900, symSize: 0x20 }
  - { offset: 0x10B03, size: 0x8, addend: 0x0, symName: __ZNSt3__128__exception_guard_exceptionsINS_29_AllocatorDestroyRangeReverseINS_9allocatorIiEEPiEEED2B8ne180100Ev, symObjAddr: 0x28F0, symBinAddr: 0x100003920, symSize: 0x40 }
  - { offset: 0x10B2D, size: 0x8, addend: 0x0, symName: __ZNKSt3__129_AllocatorDestroyRangeReverseINS_9allocatorIiEEPiEclB8ne180100Ev, symObjAddr: 0x2930, symBinAddr: 0x100003960, symSize: 0x60 }
  - { offset: 0x10B53, size: 0x8, addend: 0x0, symName: __ZNSt3__116reverse_iteratorIPiEC1B8ne180100ES1_, symObjAddr: 0x2A00, symBinAddr: 0x100003A30, symSize: 0x30 }
  - { offset: 0x10B8B, size: 0x8, addend: 0x0, symName: __ZNSt3__116reverse_iteratorIPiEppB8ne180100Ev, symObjAddr: 0x2A90, symBinAddr: 0x100003AC0, symSize: 0x20 }
  - { offset: 0x10BB1, size: 0x8, addend: 0x0, symName: __ZNKSt3__116reverse_iteratorIPiE4baseB8ne180100Ev, symObjAddr: 0x2AB0, symBinAddr: 0x100003AE0, symSize: 0x20 }
  - { offset: 0x10BDC, size: 0x8, addend: 0x0, symName: __ZNSt3__119__to_address_helperINS_16reverse_iteratorIPiEEvE6__callB8ne180100ERKS3_, symObjAddr: 0x2AD0, symBinAddr: 0x100003B00, symSize: 0x40 }
  - { offset: 0x10BFF, size: 0x8, addend: 0x0, symName: __ZNKSt3__116reverse_iteratorIPiEptB8ne180100Ev, symObjAddr: 0x2B10, symBinAddr: 0x100003B40, symSize: 0x30 }
  - { offset: 0x10C25, size: 0x8, addend: 0x0, symName: __ZNSt3__116reverse_iteratorIPiEC2B8ne180100ES1_, symObjAddr: 0x2BD0, symBinAddr: 0x100003C00, symSize: 0x30 }
  - { offset: 0x10C5D, size: 0x8, addend: 0x0, symName: __ZNSt3__118__unwrap_iter_implIPiLb1EE8__unwrapB8ne180100ES1_, symObjAddr: 0x2C00, symBinAddr: 0x100003C30, symSize: 0x20 }
  - { offset: 0x10C80, size: 0x8, addend: 0x0, symName: __ZNSt3__118__unwrap_iter_implIPiLb1EE8__rewrapB8ne180100ES1_S1_, symObjAddr: 0x2C20, symBinAddr: 0x100003C50, symSize: 0x50 }
  - { offset: 0x10CB1, size: 0x8, addend: 0x0, symName: __ZNSt3__16vectorIiNS_9allocatorIiEEEC2B8ne180100Ev, symObjAddr: 0x2C70, symBinAddr: 0x100003CA0, symSize: 0x50 }
  - { offset: 0x10CE1, size: 0x8, addend: 0x0, symName: __ZNSt3__16vectorIiNS_9allocatorIiEEE22__construct_one_at_endB8ne180100IJiEEEvDpOT_, symObjAddr: 0x2CC0, symBinAddr: 0x100003CF0, symSize: 0x90 }
  - { offset: 0x10D30, size: 0x8, addend: 0x0, symName: __ZNSt3__16vectorIiNS_9allocatorIiEEE21__push_back_slow_pathIiEEPiOT_, symObjAddr: 0x2D50, symBinAddr: 0x100003D80, symSize: 0xE0 }
  - { offset: 0x10D8E, size: 0x8, addend: 0x0, symName: __ZNSt3__116allocator_traitsINS_9allocatorIiEEE9constructB8ne180100IiJiEvvEEvRS2_PT_DpOT0_, symObjAddr: 0x2E30, symBinAddr: 0x100003E60, symSize: 0x30 }
  - { offset: 0x10DE2, size: 0x8, addend: 0x0, symName: __ZNKSt3__16vectorIiNS_9allocatorIiEEE11__recommendB8ne180100Em, symObjAddr: 0x2EB0, symBinAddr: 0x100003EE0, symSize: 0x90 }
  - { offset: 0x10E37, size: 0x8, addend: 0x0, symName: __ZNKSt3__16vectorIiNS_9allocatorIiEEE4sizeB8ne180100Ev, symObjAddr: 0x2F40, symBinAddr: 0x100003F70, symSize: 0x20 }
  - { offset: 0x10E5D, size: 0x8, addend: 0x0, symName: __ZNSt3__114__split_bufferIiRNS_9allocatorIiEEEC1EmmS3_, symObjAddr: 0x2F60, symBinAddr: 0x100003F90, symSize: 0x40 }
  - { offset: 0x10EB3, size: 0x8, addend: 0x0, symName: __ZNSt3__114__split_bufferIiRNS_9allocatorIiEEED1Ev, symObjAddr: 0x30C0, symBinAddr: 0x1000040F0, symSize: 0x20 }
  - { offset: 0x10EDF, size: 0x8, addend: 0x0, symName: __ZNSt3__114__split_bufferIiRNS_9allocatorIiEEEC2EmmS3_, symObjAddr: 0x3160, symBinAddr: 0x100004190, symSize: 0xD0 }
  - { offset: 0x10F52, size: 0x8, addend: 0x0, symName: __ZNSt3__117__compressed_pairIPiRNS_9allocatorIiEEEC1B8ne180100IDnS4_EEOT_OT0_, symObjAddr: 0x3230, symBinAddr: 0x100004260, symSize: 0x30 }
  - { offset: 0x10FAA, size: 0x8, addend: 0x0, symName: __ZNSt3__114__split_bufferIiRNS_9allocatorIiEEE7__allocB8ne180100Ev, symObjAddr: 0x3260, symBinAddr: 0x100004290, symSize: 0x20 }
  - { offset: 0x10FD0, size: 0x8, addend: 0x0, symName: __ZNSt3__114__split_bufferIiRNS_9allocatorIiEEE9__end_capB8ne180100Ev, symObjAddr: 0x3280, symBinAddr: 0x1000042B0, symSize: 0x20 }
  - { offset: 0x10FF6, size: 0x8, addend: 0x0, symName: __ZNSt3__117__compressed_pairIPiRNS_9allocatorIiEEEC2B8ne180100IDnS4_EEOT_OT0_, symObjAddr: 0x32A0, symBinAddr: 0x1000042D0, symSize: 0x40 }
  - { offset: 0x1104E, size: 0x8, addend: 0x0, symName: __ZNSt3__122__compressed_pair_elemIRNS_9allocatorIiEELi1ELb0EEC2B8ne180100IS3_vEEOT_, symObjAddr: 0x32E0, symBinAddr: 0x100004310, symSize: 0x20 }
  - { offset: 0x11090, size: 0x8, addend: 0x0, symName: __ZNSt3__117__compressed_pairIPiRNS_9allocatorIiEEE6secondB8ne180100Ev, symObjAddr: 0x3300, symBinAddr: 0x100004330, symSize: 0x20 }
  - { offset: 0x110B6, size: 0x8, addend: 0x0, symName: __ZNSt3__122__compressed_pair_elemIRNS_9allocatorIiEELi1ELb0EE5__getB8ne180100Ev, symObjAddr: 0x3320, symBinAddr: 0x100004350, symSize: 0x20 }
  - { offset: 0x110DC, size: 0x8, addend: 0x0, symName: __ZNSt3__117__compressed_pairIPiRNS_9allocatorIiEEE5firstB8ne180100Ev, symObjAddr: 0x3340, symBinAddr: 0x100004370, symSize: 0x20 }
  - { offset: 0x11126, size: 0x8, addend: 0x0, symName: __ZNKSt3__111__move_loopINS_17_ClassicAlgPolicyEEclB8ne180100INS_16reverse_iteratorIPiEES6_S6_EENS_4pairIT_T1_EES8_T0_S9_, symObjAddr: 0x3820, symBinAddr: 0x100004850, symSize: 0xA0 }
  - { offset: 0x11191, size: 0x8, addend: 0x0, symName: __ZNSt3__119__unwrap_range_implINS_16reverse_iteratorIPiEES3_E8__unwrapB8ne180100ES3_S3_, symObjAddr: 0x3A00, symBinAddr: 0x100004A30, symSize: 0x90 }
  - { offset: 0x111C8, size: 0x8, addend: 0x0, symName: __ZNSt3__14pairINS_16reverse_iteratorIPiEES3_EC1B8ne180100IS3_S3_Li0EEEOT_OT0_, symObjAddr: 0x3A90, symBinAddr: 0x100004AC0, symSize: 0x30 }
  - { offset: 0x11226, size: 0x8, addend: 0x0, symName: __ZNSt3__14pairINS_16reverse_iteratorIPiEES3_EC2B8ne180100IS3_S3_Li0EEEOT_OT0_, symObjAddr: 0x3AC0, symBinAddr: 0x100004AF0, symSize: 0x40 }
  - { offset: 0x1128A, size: 0x8, addend: 0x0, symName: __ZNSt3__18_IterOpsINS_17_ClassicAlgPolicyEE11__iter_moveB8ne180100IRNS_16reverse_iteratorIPiEELi0EEEDTclsr3stdE4movedeclsr3stdE7declvalIRT_EEEEOS8_, symObjAddr: 0x3B00, symBinAddr: 0x100004B30, symSize: 0x20 }
  - { offset: 0x112BC, size: 0x8, addend: 0x0, symName: __ZNKSt3__116reverse_iteratorIPiEdeB8ne180100Ev, symObjAddr: 0x3B20, symBinAddr: 0x100004B50, symSize: 0x30 }
  - { offset: 0x112F0, size: 0x8, addend: 0x0, symName: __ZNSt3__18_IterOpsINS_17_ClassicAlgPolicyEE25__validate_iter_referenceB8ne180100IRNS_16reverse_iteratorIPiEEEEvv, symObjAddr: 0x3B50, symBinAddr: 0x100004B80, symSize: 0x10 }
  - { offset: 0x1130E, size: 0x8, addend: 0x0, symName: __ZNSt3__118__unwrap_iter_implINS_16reverse_iteratorIPiEELb0EE8__unwrapB8ne180100ES3_, symObjAddr: 0x3B60, symBinAddr: 0x100004B90, symSize: 0x20 }
  - { offset: 0x11331, size: 0x8, addend: 0x0, symName: __ZNSt3__119__unwrap_range_implINS_16reverse_iteratorIPiEES3_E8__rewrapB8ne180100ES3_S3_, symObjAddr: 0x3B80, symBinAddr: 0x100004BB0, symSize: 0x60 }
  - { offset: 0x11362, size: 0x8, addend: 0x0, symName: __ZNSt3__118__unwrap_iter_implINS_16reverse_iteratorIPiEELb0EE8__rewrapB8ne180100ES3_S3_, symObjAddr: 0x3BE0, symBinAddr: 0x100004C10, symSize: 0x30 }
  - { offset: 0x1138F, size: 0x8, addend: 0x0, symName: __ZNSt3__114__split_bufferIiRNS_9allocatorIiEEED2Ev, symObjAddr: 0x3C10, symBinAddr: 0x100004C40, symSize: 0x70 }
  - { offset: 0x113BB, size: 0x8, addend: 0x0, symName: __ZNSt3__114__split_bufferIiRNS_9allocatorIiEEE5clearB8ne180100Ev, symObjAddr: 0x3C80, symBinAddr: 0x100004CB0, symSize: 0x20 }
  - { offset: 0x113E1, size: 0x8, addend: 0x0, symName: __ZNKSt3__114__split_bufferIiRNS_9allocatorIiEEE8capacityB8ne180100Ev, symObjAddr: 0x3CA0, symBinAddr: 0x100004CD0, symSize: 0x30 }
  - { offset: 0x11407, size: 0x8, addend: 0x0, symName: __ZNSt3__114__split_bufferIiRNS_9allocatorIiEEE17__destruct_at_endB8ne180100EPi, symObjAddr: 0x3CD0, symBinAddr: 0x100004D00, symSize: 0x30 }
  - { offset: 0x1143B, size: 0x8, addend: 0x0, symName: __ZNSt3__114__split_bufferIiRNS_9allocatorIiEEE17__destruct_at_endB8ne180100EPiNS_17integral_constantIbLb0EEE, symObjAddr: 0x3D00, symBinAddr: 0x100004D30, symSize: 0x80 }
  - { offset: 0x1147B, size: 0x8, addend: 0x0, symName: __ZNKSt3__114__split_bufferIiRNS_9allocatorIiEEE9__end_capB8ne180100Ev, symObjAddr: 0x3D80, symBinAddr: 0x100004DB0, symSize: 0x20 }
  - { offset: 0x114A1, size: 0x8, addend: 0x0, symName: __ZNKSt3__117__compressed_pairIPiRNS_9allocatorIiEEE5firstB8ne180100Ev, symObjAddr: 0x3DA0, symBinAddr: 0x100004DD0, symSize: 0x20 }
  - { offset: 0x114C7, size: 0x8, addend: 0x0, symName: __ZNKSt3__16__lessIvvEclB8ne180100IiiEEbRKT_RKT0_, symObjAddr: 0x3E50, symBinAddr: 0x100004E80, symSize: 0x30 }
  - { offset: 0x1151B, size: 0x8, addend: 0x0, symName: __ZNSt3__16vectorIiNS_9allocatorIiEEED2B8ne180100Ev, symObjAddr: 0x3E80, symBinAddr: 0x100004EB0, symSize: 0x40 }
  - { offset: 0x11545, size: 0x8, addend: 0x0, symName: __ZNSt3__13setIiNS_4lessIiEENS_9allocatorIiEEEC2B8ne180100Ev, symObjAddr: 0x3EC0, symBinAddr: 0x100004EF0, symSize: 0x20 }
  - { offset: 0x1156F, size: 0x8, addend: 0x0, symName: __ZNSt3__16__treeIiNS_4lessIiEENS_9allocatorIiEEEC1ERKS2_, symObjAddr: 0x3EE0, symBinAddr: 0x100004F10, symSize: 0x30 }
  - { offset: 0x115AA, size: 0x8, addend: 0x0, symName: __ZNSt3__16__treeIiNS_4lessIiEENS_9allocatorIiEEEC2ERKS2_, symObjAddr: 0x3F10, symBinAddr: 0x100004F40, symSize: 0x80 }
  - { offset: 0x115E5, size: 0x8, addend: 0x0, symName: __ZNSt3__117__compressed_pairINS_15__tree_end_nodeIPNS_16__tree_node_baseIPvEEEENS_9allocatorINS_11__tree_nodeIiS3_EEEEEC1B8ne180100ILb1EvEEv, symObjAddr: 0x3F90, symBinAddr: 0x100004FC0, symSize: 0x20 }
  - { offset: 0x1161A, size: 0x8, addend: 0x0, symName: __ZNSt3__117__compressed_pairImNS_4lessIiEEEC1B8ne180100IiRKS2_EEOT_OT0_, symObjAddr: 0x3FB0, symBinAddr: 0x100004FE0, symSize: 0x30 }
  - { offset: 0x11672, size: 0x8, addend: 0x0, symName: __ZNSt3__16__treeIiNS_4lessIiEENS_9allocatorIiEEE10__end_nodeB8ne180100Ev, symObjAddr: 0x3FE0, symBinAddr: 0x100005010, symSize: 0x30 }
  - { offset: 0x11698, size: 0x8, addend: 0x0, symName: __ZNSt3__16__treeIiNS_4lessIiEENS_9allocatorIiEEE12__begin_nodeB8ne180100Ev, symObjAddr: 0x4010, symBinAddr: 0x100005040, symSize: 0x10 }
  - { offset: 0x116BE, size: 0x8, addend: 0x0, symName: __ZNSt3__117__compressed_pairINS_15__tree_end_nodeIPNS_16__tree_node_baseIPvEEEENS_9allocatorINS_11__tree_nodeIiS3_EEEEEC2B8ne180100ILb1EvEEv, symObjAddr: 0x4020, symBinAddr: 0x100005050, symSize: 0x30 }
  - { offset: 0x116F3, size: 0x8, addend: 0x0, symName: __ZNSt3__122__compressed_pair_elemINS_15__tree_end_nodeIPNS_16__tree_node_baseIPvEEEELi0ELb0EEC2B8ne180100ENS_16__value_init_tagE, symObjAddr: 0x4050, symBinAddr: 0x100005080, symSize: 0x20 }
  - { offset: 0x11727, size: 0x8, addend: 0x0, symName: __ZNSt3__122__compressed_pair_elemINS_9allocatorINS_11__tree_nodeIiPvEEEELi1ELb1EEC2B8ne180100ENS_16__value_init_tagE, symObjAddr: 0x4070, symBinAddr: 0x1000050A0, symSize: 0x20 }
  - { offset: 0x1175B, size: 0x8, addend: 0x0, symName: __ZNSt3__115__tree_end_nodeIPNS_16__tree_node_baseIPvEEEC1B8ne180100Ev, symObjAddr: 0x4090, symBinAddr: 0x1000050C0, symSize: 0x20 }
  - { offset: 0x11785, size: 0x8, addend: 0x0, symName: __ZNSt3__115__tree_end_nodeIPNS_16__tree_node_baseIPvEEEC2B8ne180100Ev, symObjAddr: 0x40B0, symBinAddr: 0x1000050E0, symSize: 0x20 }
  - { offset: 0x117AF, size: 0x8, addend: 0x0, symName: __ZNSt3__19allocatorINS_11__tree_nodeIiPvEEEC2B8ne180100Ev, symObjAddr: 0x40D0, symBinAddr: 0x100005100, symSize: 0x20 }
  - { offset: 0x117D9, size: 0x8, addend: 0x0, symName: __ZNSt3__116__non_trivial_ifILb1ENS_9allocatorINS_11__tree_nodeIiPvEEEEEC2B8ne180100Ev, symObjAddr: 0x40F0, symBinAddr: 0x100005120, symSize: 0x10 }
  - { offset: 0x11803, size: 0x8, addend: 0x0, symName: __ZNSt3__117__compressed_pairImNS_4lessIiEEEC2B8ne180100IiRKS2_EEOT_OT0_, symObjAddr: 0x4100, symBinAddr: 0x100005130, symSize: 0x40 }
  - { offset: 0x1185B, size: 0x8, addend: 0x0, symName: __ZNSt3__122__compressed_pair_elemImLi0ELb0EEC2B8ne180100IivEEOT_, symObjAddr: 0x4140, symBinAddr: 0x100005170, symSize: 0x20 }
  - { offset: 0x1189D, size: 0x8, addend: 0x0, symName: __ZNSt3__122__compressed_pair_elemINS_4lessIiEELi1ELb1EEC2B8ne180100IRKS2_vEEOT_, symObjAddr: 0x4160, symBinAddr: 0x100005190, symSize: 0x10 }
  - { offset: 0x118DF, size: 0x8, addend: 0x0, symName: __ZNSt3__114pointer_traitsIPNS_15__tree_end_nodeIPNS_16__tree_node_baseIPvEEEEE10pointer_toB8ne180100ERS6_, symObjAddr: 0x4170, symBinAddr: 0x1000051A0, symSize: 0x10 }
  - { offset: 0x11902, size: 0x8, addend: 0x0, symName: __ZNSt3__117__compressed_pairINS_15__tree_end_nodeIPNS_16__tree_node_baseIPvEEEENS_9allocatorINS_11__tree_nodeIiS3_EEEEE5firstB8ne180100Ev, symObjAddr: 0x4180, symBinAddr: 0x1000051B0, symSize: 0x20 }
  - { offset: 0x11928, size: 0x8, addend: 0x0, symName: __ZNSt3__122__compressed_pair_elemINS_15__tree_end_nodeIPNS_16__tree_node_baseIPvEEEELi0ELb0EE5__getB8ne180100Ev, symObjAddr: 0x41A0, symBinAddr: 0x1000051D0, symSize: 0x10 }
  - { offset: 0x1194E, size: 0x8, addend: 0x0, symName: __ZNSt3__13setIiNS_4lessIiEENS_9allocatorIiEEED2B8ne180100Ev, symObjAddr: 0x41B0, symBinAddr: 0x1000051E0, symSize: 0x20 }
  - { offset: 0x11978, size: 0x8, addend: 0x0, symName: __ZNSt3__16__treeIiNS_4lessIiEENS_9allocatorIiEEED1Ev, symObjAddr: 0x41D0, symBinAddr: 0x100005200, symSize: 0x20 }
  - { offset: 0x119A4, size: 0x8, addend: 0x0, symName: __ZNSt3__16__treeIiNS_4lessIiEENS_9allocatorIiEEED2Ev, symObjAddr: 0x41F0, symBinAddr: 0x100005220, symSize: 0x30 }
  - { offset: 0x119D0, size: 0x8, addend: 0x0, symName: __ZNSt3__16__treeIiNS_4lessIiEENS_9allocatorIiEEE7destroyEPNS_11__tree_nodeIiPvEE, symObjAddr: 0x4220, symBinAddr: 0x100005250, symSize: 0xB0 }
  - { offset: 0x11A1D, size: 0x8, addend: 0x0, symName: __ZNKSt3__16__treeIiNS_4lessIiEENS_9allocatorIiEEE6__rootB8ne180100Ev, symObjAddr: 0x42D0, symBinAddr: 0x100005300, symSize: 0x20 }
  - { offset: 0x11A43, size: 0x8, addend: 0x0, symName: __ZNSt3__16__treeIiNS_4lessIiEENS_9allocatorIiEEE12__node_allocB8ne180100Ev, symObjAddr: 0x42F0, symBinAddr: 0x100005320, symSize: 0x20 }
  - { offset: 0x11A69, size: 0x8, addend: 0x0, symName: __ZNSt3__116allocator_traitsINS_9allocatorINS_11__tree_nodeIiPvEEEEE7destroyB8ne180100IivvEEvRS5_PT_, symObjAddr: 0x4310, symBinAddr: 0x100005340, symSize: 0x20 }
  - { offset: 0x11AA3, size: 0x8, addend: 0x0, symName: __ZNSt3__122__tree_key_value_typesIiE9__get_ptrB8ne180100ERi, symObjAddr: 0x4330, symBinAddr: 0x100005360, symSize: 0x10 }
  - { offset: 0x11AC7, size: 0x8, addend: 0x0, symName: __ZNSt3__116allocator_traitsINS_9allocatorINS_11__tree_nodeIiPvEEEEE10deallocateB8ne180100ERS5_PS4_m, symObjAddr: 0x4340, symBinAddr: 0x100005370, symSize: 0x30 }
  - { offset: 0x11B09, size: 0x8, addend: 0x0, symName: __ZNSt3__117__compressed_pairINS_15__tree_end_nodeIPNS_16__tree_node_baseIPvEEEENS_9allocatorINS_11__tree_nodeIiS3_EEEEE6secondB8ne180100Ev, symObjAddr: 0x4370, symBinAddr: 0x1000053A0, symSize: 0x20 }
  - { offset: 0x11B2F, size: 0x8, addend: 0x0, symName: __ZNSt3__122__compressed_pair_elemINS_9allocatorINS_11__tree_nodeIiPvEEEELi1ELb1EE5__getB8ne180100Ev, symObjAddr: 0x4390, symBinAddr: 0x1000053C0, symSize: 0x10 }
  - { offset: 0x11B55, size: 0x8, addend: 0x0, symName: __ZNSt3__19allocatorINS_11__tree_nodeIiPvEEE10deallocateB8ne180100EPS3_m, symObjAddr: 0x43A0, symBinAddr: 0x1000053D0, symSize: 0x40 }
  - { offset: 0x11B97, size: 0x8, addend: 0x0, symName: __ZNKSt3__16__treeIiNS_4lessIiEENS_9allocatorIiEEE10__end_nodeB8ne180100Ev, symObjAddr: 0x43E0, symBinAddr: 0x100005410, symSize: 0x30 }
  - { offset: 0x11BBD, size: 0x8, addend: 0x0, symName: __ZNKSt3__117__compressed_pairINS_15__tree_end_nodeIPNS_16__tree_node_baseIPvEEEENS_9allocatorINS_11__tree_nodeIiS3_EEEEE5firstB8ne180100Ev, symObjAddr: 0x4410, symBinAddr: 0x100005440, symSize: 0x20 }
  - { offset: 0x11BE3, size: 0x8, addend: 0x0, symName: __ZNKSt3__122__compressed_pair_elemINS_15__tree_end_nodeIPNS_16__tree_node_baseIPvEEEELi0ELb0EE5__getB8ne180100Ev, symObjAddr: 0x4430, symBinAddr: 0x100005460, symSize: 0x10 }
  - { offset: 0x11C09, size: 0x8, addend: 0x0, symName: __ZNSt3__16__treeIiNS_4lessIiEENS_9allocatorIiEEE15__insert_uniqueB8ne180100ERKi, symObjAddr: 0x4440, symBinAddr: 0x100005470, symSize: 0x50 }
  - { offset: 0x11C3E, size: 0x8, addend: 0x0, symName: __ZNSt3__14pairINS_21__tree_const_iteratorIiPNS_11__tree_nodeIiPvEElEEbEC1B8ne180100INS_15__tree_iteratorIiS5_lEEbLi0EEEONS0_IT_T0_EE, symObjAddr: 0x4490, symBinAddr: 0x1000054C0, symSize: 0x30 }
  - { offset: 0x11C8E, size: 0x8, addend: 0x0, symName: __ZNSt3__16__treeIiNS_4lessIiEENS_9allocatorIiEEE25__emplace_unique_key_argsIiJRKiEEENS_4pairINS_15__tree_iteratorIiPNS_11__tree_nodeIiPvEElEEbEERKT_DpOT0_, symObjAddr: 0x44C0, symBinAddr: 0x1000054F0, symSize: 0xE0 }
  - { offset: 0x11D43, size: 0x8, addend: 0x0, symName: __ZNSt3__122__tree_key_value_typesIiE9__get_keyB8ne180100ERKi, symObjAddr: 0x45A0, symBinAddr: 0x1000055D0, symSize: 0x10 }
  - { offset: 0x11D67, size: 0x8, addend: 0x0, symName: __ZNSt3__16__treeIiNS_4lessIiEENS_9allocatorIiEEE12__find_equalIiEERPNS_16__tree_node_baseIPvEERPNS_15__tree_end_nodeISA_EERKT_, symObjAddr: 0x45B0, symBinAddr: 0x1000055E0, symSize: 0x180 }
  - { offset: 0x11DD4, size: 0x8, addend: 0x0, symName: __ZNSt3__16__treeIiNS_4lessIiEENS_9allocatorIiEEE16__construct_nodeIJRKiEEENS_10unique_ptrINS_11__tree_nodeIiPvEENS_22__tree_node_destructorINS3_ISC_EEEEEEDpOT_, symObjAddr: 0x4730, symBinAddr: 0x100005760, symSize: 0xF0 }
  - { offset: 0x11E35, size: 0x8, addend: 0x0, symName: __ZNSt3__16__treeIiNS_4lessIiEENS_9allocatorIiEEE16__insert_node_atEPNS_15__tree_end_nodeIPNS_16__tree_node_baseIPvEEEERSA_SA_, symObjAddr: 0x4820, symBinAddr: 0x100005850, symSize: 0xC0 }
  - { offset: 0x11E8A, size: 0x8, addend: 0x0, symName: __ZNKSt3__110unique_ptrINS_11__tree_nodeIiPvEENS_22__tree_node_destructorINS_9allocatorIS3_EEEEE3getB8ne180100Ev, symObjAddr: 0x48E0, symBinAddr: 0x100005910, symSize: 0x20 }
  - { offset: 0x11EB0, size: 0x8, addend: 0x0, symName: __ZNSt3__110unique_ptrINS_11__tree_nodeIiPvEENS_22__tree_node_destructorINS_9allocatorIS3_EEEEE7releaseB8ne180100Ev, symObjAddr: 0x4900, symBinAddr: 0x100005930, symSize: 0x40 }
  - { offset: 0x11EE5, size: 0x8, addend: 0x0, symName: __ZNSt3__110unique_ptrINS_11__tree_nodeIiPvEENS_22__tree_node_destructorINS_9allocatorIS3_EEEEED1B8ne180100Ev, symObjAddr: 0x4940, symBinAddr: 0x100005970, symSize: 0x20 }
  - { offset: 0x11F0F, size: 0x8, addend: 0x0, symName: __ZNSt3__115__tree_iteratorIiPNS_11__tree_nodeIiPvEElEC1B8ne180100ES4_, symObjAddr: 0x4960, symBinAddr: 0x100005990, symSize: 0x30 }
  - { offset: 0x11F53, size: 0x8, addend: 0x0, symName: __ZNSt3__14pairINS_15__tree_iteratorIiPNS_11__tree_nodeIiPvEElEEbEC1B8ne180100IS6_RbLi0EEEOT_OT0_, symObjAddr: 0x4990, symBinAddr: 0x1000059C0, symSize: 0x30 }
  - { offset: 0x11FB1, size: 0x8, addend: 0x0, symName: __ZNKSt3__16__treeIiNS_4lessIiEENS_9allocatorIiEEE10__root_ptrB8ne180100Ev, symObjAddr: 0x49C0, symBinAddr: 0x1000059F0, symSize: 0x20 }
  - { offset: 0x11FD7, size: 0x8, addend: 0x0, symName: __ZNSt3__16__treeIiNS_4lessIiEENS_9allocatorIiEEE10value_compB8ne180100Ev, symObjAddr: 0x49E0, symBinAddr: 0x100005A10, symSize: 0x20 }
  - { offset: 0x11FFD, size: 0x8, addend: 0x0, symName: __ZNKSt3__14lessIiEclB8ne180100ERKiS3_, symObjAddr: 0x4A00, symBinAddr: 0x100005A30, symSize: 0x30 }
  - { offset: 0x12041, size: 0x8, addend: 0x0, symName: __ZNSt3__117__compressed_pairImNS_4lessIiEEE6secondB8ne180100Ev, symObjAddr: 0x4A30, symBinAddr: 0x100005A60, symSize: 0x20 }
  - { offset: 0x12067, size: 0x8, addend: 0x0, symName: __ZNSt3__122__compressed_pair_elemINS_4lessIiEELi1ELb1EE5__getB8ne180100Ev, symObjAddr: 0x4A50, symBinAddr: 0x100005A80, symSize: 0x10 }
  - { offset: 0x1208D, size: 0x8, addend: 0x0, symName: __ZNSt3__116allocator_traitsINS_9allocatorINS_11__tree_nodeIiPvEEEEE8allocateB8ne180100ERS5_m, symObjAddr: 0x4A60, symBinAddr: 0x100005A90, symSize: 0x30 }
  - { offset: 0x120C0, size: 0x8, addend: 0x0, symName: __ZNSt3__122__tree_node_destructorINS_9allocatorINS_11__tree_nodeIiPvEEEEEC1B8ne180100ERS5_b, symObjAddr: 0x4A90, symBinAddr: 0x100005AC0, symSize: 0x40 }
  - { offset: 0x1210E, size: 0x8, addend: 0x0, symName: __ZNSt3__110unique_ptrINS_11__tree_nodeIiPvEENS_22__tree_node_destructorINS_9allocatorIS3_EEEEEC1B8ne180100ILb1EvEEPS3_NS_16__dependent_typeINS_27__unique_ptr_deleter_sfinaeIS7_EEXT_EE20__good_rval_ref_typeE, symObjAddr: 0x4AD0, symBinAddr: 0x100005B00, symSize: 0x30 }
  - { offset: 0x1215F, size: 0x8, addend: 0x0, symName: __ZNSt3__116allocator_traitsINS_9allocatorINS_11__tree_nodeIiPvEEEEE9constructB8ne180100IiJRKiEvvEEvRS5_PT_DpOT0_, symObjAddr: 0x4B00, symBinAddr: 0x100005B30, symSize: 0x30 }
  - { offset: 0x121B3, size: 0x8, addend: 0x0, symName: __ZNKSt3__110unique_ptrINS_11__tree_nodeIiPvEENS_22__tree_node_destructorINS_9allocatorIS3_EEEEEptB8ne180100Ev, symObjAddr: 0x4B30, symBinAddr: 0x100005B60, symSize: 0x20 }
  - { offset: 0x121D9, size: 0x8, addend: 0x0, symName: __ZNSt3__110unique_ptrINS_11__tree_nodeIiPvEENS_22__tree_node_destructorINS_9allocatorIS3_EEEEE11get_deleterB8ne180100Ev, symObjAddr: 0x4B50, symBinAddr: 0x100005B80, symSize: 0x20 }
  - { offset: 0x121FF, size: 0x8, addend: 0x0, symName: __ZNSt3__19allocatorINS_11__tree_nodeIiPvEEE8allocateB8ne180100Em, symObjAddr: 0x4B70, symBinAddr: 0x100005BA0, symSize: 0x50 }
  - { offset: 0x1223D, size: 0x8, addend: 0x0, symName: __ZNSt3__116allocator_traitsINS_9allocatorINS_11__tree_nodeIiPvEEEEE8max_sizeB8ne180100IS5_vvEEmRKS5_, symObjAddr: 0x4BC0, symBinAddr: 0x100005BF0, symSize: 0x20 }
  - { offset: 0x12268, size: 0x8, addend: 0x0, symName: __ZNSt3__122__tree_node_destructorINS_9allocatorINS_11__tree_nodeIiPvEEEEEC2B8ne180100ERS5_b, symObjAddr: 0x4BE0, symBinAddr: 0x100005C10, symSize: 0x30 }
  - { offset: 0x122B0, size: 0x8, addend: 0x0, symName: __ZNSt3__110unique_ptrINS_11__tree_nodeIiPvEENS_22__tree_node_destructorINS_9allocatorIS3_EEEEEC2B8ne180100ILb1EvEEPS3_NS_16__dependent_typeINS_27__unique_ptr_deleter_sfinaeIS7_EEXT_EE20__good_rval_ref_typeE, symObjAddr: 0x4C10, symBinAddr: 0x100005C40, symSize: 0x40 }
  - { offset: 0x12301, size: 0x8, addend: 0x0, symName: __ZNSt3__117__compressed_pairIPNS_11__tree_nodeIiPvEENS_22__tree_node_destructorINS_9allocatorIS3_EEEEEC1B8ne180100IRS4_S8_EEOT_OT0_, symObjAddr: 0x4C50, symBinAddr: 0x100005C80, symSize: 0x30 }
  - { offset: 0x12359, size: 0x8, addend: 0x0, symName: __ZNSt3__117__compressed_pairIPNS_11__tree_nodeIiPvEENS_22__tree_node_destructorINS_9allocatorIS3_EEEEEC2B8ne180100IRS4_S8_EEOT_OT0_, symObjAddr: 0x4C80, symBinAddr: 0x100005CB0, symSize: 0x40 }
  - { offset: 0x123B1, size: 0x8, addend: 0x0, symName: __ZNSt3__122__compressed_pair_elemIPNS_11__tree_nodeIiPvEELi0ELb0EEC2B8ne180100IRS4_vEEOT_, symObjAddr: 0x4CC0, symBinAddr: 0x100005CF0, symSize: 0x20 }
  - { offset: 0x123F3, size: 0x8, addend: 0x0, symName: __ZNSt3__122__compressed_pair_elemINS_22__tree_node_destructorINS_9allocatorINS_11__tree_nodeIiPvEEEEEELi1ELb0EEC2B8ne180100IS7_vEEOT_, symObjAddr: 0x4CE0, symBinAddr: 0x100005D10, symSize: 0x30 }
  - { offset: 0x12435, size: 0x8, addend: 0x0, symName: __ZNKSt3__117__compressed_pairIPNS_11__tree_nodeIiPvEENS_22__tree_node_destructorINS_9allocatorIS3_EEEEE5firstB8ne180100Ev, symObjAddr: 0x4D10, symBinAddr: 0x100005D40, symSize: 0x20 }
  - { offset: 0x1245B, size: 0x8, addend: 0x0, symName: __ZNKSt3__122__compressed_pair_elemIPNS_11__tree_nodeIiPvEELi0ELb0EE5__getB8ne180100Ev, symObjAddr: 0x4D30, symBinAddr: 0x100005D60, symSize: 0x10 }
  - { offset: 0x12481, size: 0x8, addend: 0x0, symName: __ZNSt3__117__compressed_pairIPNS_11__tree_nodeIiPvEENS_22__tree_node_destructorINS_9allocatorIS3_EEEEE6secondB8ne180100Ev, symObjAddr: 0x4D40, symBinAddr: 0x100005D70, symSize: 0x20 }
  - { offset: 0x124A7, size: 0x8, addend: 0x0, symName: __ZNSt3__122__compressed_pair_elemINS_22__tree_node_destructorINS_9allocatorINS_11__tree_nodeIiPvEEEEEELi1ELb0EE5__getB8ne180100Ev, symObjAddr: 0x4D60, symBinAddr: 0x100005D90, symSize: 0x10 }
  - { offset: 0x124CD, size: 0x8, addend: 0x0, symName: __ZNSt3__16__treeIiNS_4lessIiEENS_9allocatorIiEEE4sizeB8ne180100Ev, symObjAddr: 0x4FB0, symBinAddr: 0x100005FE0, symSize: 0x20 }
  - { offset: 0x124F3, size: 0x8, addend: 0x0, symName: __ZNSt3__116__tree_node_baseIPvE12__set_parentB8ne180100EPS2_, symObjAddr: 0x5160, symBinAddr: 0x100006190, symSize: 0x20 }
  - { offset: 0x12528, size: 0x8, addend: 0x0, symName: __ZNSt3__117__compressed_pairImNS_4lessIiEEE5firstB8ne180100Ev, symObjAddr: 0x5180, symBinAddr: 0x1000061B0, symSize: 0x20 }
  - { offset: 0x1254E, size: 0x8, addend: 0x0, symName: __ZNSt3__122__compressed_pair_elemImLi0ELb0EE5__getB8ne180100Ev, symObjAddr: 0x51A0, symBinAddr: 0x1000061D0, symSize: 0x10 }
  - { offset: 0x12574, size: 0x8, addend: 0x0, symName: __ZNSt3__117__compressed_pairIPNS_11__tree_nodeIiPvEENS_22__tree_node_destructorINS_9allocatorIS3_EEEEE5firstB8ne180100Ev, symObjAddr: 0x51B0, symBinAddr: 0x1000061E0, symSize: 0x20 }
  - { offset: 0x1259A, size: 0x8, addend: 0x0, symName: __ZNSt3__122__compressed_pair_elemIPNS_11__tree_nodeIiPvEELi0ELb0EE5__getB8ne180100Ev, symObjAddr: 0x51D0, symBinAddr: 0x100006200, symSize: 0x10 }
  - { offset: 0x125C0, size: 0x8, addend: 0x0, symName: __ZNSt3__110unique_ptrINS_11__tree_nodeIiPvEENS_22__tree_node_destructorINS_9allocatorIS3_EEEEED2B8ne180100Ev, symObjAddr: 0x51E0, symBinAddr: 0x100006210, symSize: 0x20 }
  - { offset: 0x125EA, size: 0x8, addend: 0x0, symName: __ZNSt3__110unique_ptrINS_11__tree_nodeIiPvEENS_22__tree_node_destructorINS_9allocatorIS3_EEEEE5resetB8ne180100EPS3_, symObjAddr: 0x5200, symBinAddr: 0x100006230, symSize: 0x70 }
  - { offset: 0x1262E, size: 0x8, addend: 0x0, symName: __ZNSt3__122__tree_node_destructorINS_9allocatorINS_11__tree_nodeIiPvEEEEEclB8ne180100EPS4_, symObjAddr: 0x5270, symBinAddr: 0x1000062A0, symSize: 0x70 }
  - { offset: 0x12663, size: 0x8, addend: 0x0, symName: __ZNSt3__115__tree_iteratorIiPNS_11__tree_nodeIiPvEElEC2B8ne180100ES4_, symObjAddr: 0x52E0, symBinAddr: 0x100006310, symSize: 0x20 }
  - { offset: 0x1269C, size: 0x8, addend: 0x0, symName: __ZNSt3__14pairINS_15__tree_iteratorIiPNS_11__tree_nodeIiPvEElEEbEC2B8ne180100IS6_RbLi0EEEOT_OT0_, symObjAddr: 0x5300, symBinAddr: 0x100006330, symSize: 0x30 }
  - { offset: 0x126FA, size: 0x8, addend: 0x0, symName: __ZNSt3__14pairINS_21__tree_const_iteratorIiPNS_11__tree_nodeIiPvEElEEbEC2B8ne180100INS_15__tree_iteratorIiS5_lEEbLi0EEEONS0_IT_T0_EE, symObjAddr: 0x5330, symBinAddr: 0x100006360, symSize: 0x50 }
  - { offset: 0x1274A, size: 0x8, addend: 0x0, symName: __ZNSt3__121__tree_const_iteratorIiPNS_11__tree_nodeIiPvEElEC1B8ne180100ENS_15__tree_iteratorIiS4_lEE, symObjAddr: 0x5380, symBinAddr: 0x1000063B0, symSize: 0x30 }
  - { offset: 0x12783, size: 0x8, addend: 0x0, symName: __ZNSt3__121__tree_const_iteratorIiPNS_11__tree_nodeIiPvEElEC2B8ne180100ENS_15__tree_iteratorIiS4_lEE, symObjAddr: 0x53B0, symBinAddr: 0x1000063E0, symSize: 0x20 }
  - { offset: 0x127BC, size: 0x8, addend: 0x0, symName: __ZNSt3__13mapIiiNS_4lessIiEENS_9allocatorINS_4pairIKiiEEEEEC2B8ne180100Ev, symObjAddr: 0x53D0, symBinAddr: 0x100006400, symSize: 0x30 }
  - { offset: 0x127E6, size: 0x8, addend: 0x0, symName: __ZNSt3__119__map_value_compareIiNS_12__value_typeIiiEENS_4lessIiEELb1EEC1B8ne180100ES4_, symObjAddr: 0x5400, symBinAddr: 0x100006430, symSize: 0x20 }
  - { offset: 0x1281F, size: 0x8, addend: 0x0, symName: __ZNSt3__16__treeINS_12__value_typeIiiEENS_19__map_value_compareIiS2_NS_4lessIiEELb1EEENS_9allocatorIS2_EEEC1ERKS6_, symObjAddr: 0x5420, symBinAddr: 0x100006450, symSize: 0x30 }
  - { offset: 0x1285A, size: 0x8, addend: 0x0, symName: __ZNSt3__119__map_value_compareIiNS_12__value_typeIiiEENS_4lessIiEELb1EEC2B8ne180100ES4_, symObjAddr: 0x5450, symBinAddr: 0x100006480, symSize: 0x10 }
  - { offset: 0x12893, size: 0x8, addend: 0x0, symName: __ZNSt3__16__treeINS_12__value_typeIiiEENS_19__map_value_compareIiS2_NS_4lessIiEELb1EEENS_9allocatorIS2_EEEC2ERKS6_, symObjAddr: 0x5460, symBinAddr: 0x100006490, symSize: 0x80 }
  - { offset: 0x128CE, size: 0x8, addend: 0x0, symName: __ZNSt3__117__compressed_pairINS_15__tree_end_nodeIPNS_16__tree_node_baseIPvEEEENS_9allocatorINS_11__tree_nodeINS_12__value_typeIiiEES3_EEEEEC1B8ne180100ILb1EvEEv, symObjAddr: 0x54E0, symBinAddr: 0x100006510, symSize: 0x20 }
  - { offset: 0x12903, size: 0x8, addend: 0x0, symName: __ZNSt3__117__compressed_pairImNS_19__map_value_compareIiNS_12__value_typeIiiEENS_4lessIiEELb1EEEEC1B8ne180100IiRKS6_EEOT_OT0_, symObjAddr: 0x5500, symBinAddr: 0x100006530, symSize: 0x30 }
  - { offset: 0x1295B, size: 0x8, addend: 0x0, symName: __ZNSt3__16__treeINS_12__value_typeIiiEENS_19__map_value_compareIiS2_NS_4lessIiEELb1EEENS_9allocatorIS2_EEE10__end_nodeB8ne180100Ev, symObjAddr: 0x5530, symBinAddr: 0x100006560, symSize: 0x30 }
  - { offset: 0x12981, size: 0x8, addend: 0x0, symName: __ZNSt3__16__treeINS_12__value_typeIiiEENS_19__map_value_compareIiS2_NS_4lessIiEELb1EEENS_9allocatorIS2_EEE12__begin_nodeB8ne180100Ev, symObjAddr: 0x5560, symBinAddr: 0x100006590, symSize: 0x10 }
  - { offset: 0x129A7, size: 0x8, addend: 0x0, symName: __ZNSt3__117__compressed_pairINS_15__tree_end_nodeIPNS_16__tree_node_baseIPvEEEENS_9allocatorINS_11__tree_nodeINS_12__value_typeIiiEES3_EEEEEC2B8ne180100ILb1EvEEv, symObjAddr: 0x5570, symBinAddr: 0x1000065A0, symSize: 0x30 }
  - { offset: 0x129DC, size: 0x8, addend: 0x0, symName: __ZNSt3__122__compressed_pair_elemINS_9allocatorINS_11__tree_nodeINS_12__value_typeIiiEEPvEEEELi1ELb1EEC2B8ne180100ENS_16__value_init_tagE, symObjAddr: 0x55A0, symBinAddr: 0x1000065D0, symSize: 0x20 }
  - { offset: 0x12A10, size: 0x8, addend: 0x0, symName: __ZNSt3__19allocatorINS_11__tree_nodeINS_12__value_typeIiiEEPvEEEC2B8ne180100Ev, symObjAddr: 0x55C0, symBinAddr: 0x1000065F0, symSize: 0x20 }
  - { offset: 0x12A3A, size: 0x8, addend: 0x0, symName: __ZNSt3__116__non_trivial_ifILb1ENS_9allocatorINS_11__tree_nodeINS_12__value_typeIiiEEPvEEEEEC2B8ne180100Ev, symObjAddr: 0x55E0, symBinAddr: 0x100006610, symSize: 0x10 }
  - { offset: 0x12A64, size: 0x8, addend: 0x0, symName: __ZNSt3__117__compressed_pairImNS_19__map_value_compareIiNS_12__value_typeIiiEENS_4lessIiEELb1EEEEC2B8ne180100IiRKS6_EEOT_OT0_, symObjAddr: 0x55F0, symBinAddr: 0x100006620, symSize: 0x40 }
  - { offset: 0x12ABC, size: 0x8, addend: 0x0, symName: __ZNSt3__122__compressed_pair_elemINS_19__map_value_compareIiNS_12__value_typeIiiEENS_4lessIiEELb1EEELi1ELb1EEC2B8ne180100IRKS6_vEEOT_, symObjAddr: 0x5630, symBinAddr: 0x100006660, symSize: 0x10 }
  - { offset: 0x12AFE, size: 0x8, addend: 0x0, symName: __ZNSt3__117__compressed_pairINS_15__tree_end_nodeIPNS_16__tree_node_baseIPvEEEENS_9allocatorINS_11__tree_nodeINS_12__value_typeIiiEES3_EEEEE5firstB8ne180100Ev, symObjAddr: 0x5640, symBinAddr: 0x100006670, symSize: 0x20 }
  - { offset: 0x12B24, size: 0x8, addend: 0x0, symName: __ZNSt3__13mapIiiNS_4lessIiEENS_9allocatorINS_4pairIKiiEEEEED2B8ne180100Ev, symObjAddr: 0x5660, symBinAddr: 0x100006690, symSize: 0x20 }
  - { offset: 0x12B4E, size: 0x8, addend: 0x0, symName: __ZNSt3__16__treeINS_12__value_typeIiiEENS_19__map_value_compareIiS2_NS_4lessIiEELb1EEENS_9allocatorIS2_EEED1Ev, symObjAddr: 0x5680, symBinAddr: 0x1000066B0, symSize: 0x20 }
  - { offset: 0x12B7A, size: 0x8, addend: 0x0, symName: __ZNSt3__16__treeINS_12__value_typeIiiEENS_19__map_value_compareIiS2_NS_4lessIiEELb1EEENS_9allocatorIS2_EEED2Ev, symObjAddr: 0x56A0, symBinAddr: 0x1000066D0, symSize: 0x30 }
  - { offset: 0x12BA6, size: 0x8, addend: 0x0, symName: __ZNSt3__16__treeINS_12__value_typeIiiEENS_19__map_value_compareIiS2_NS_4lessIiEELb1EEENS_9allocatorIS2_EEE7destroyEPNS_11__tree_nodeIS2_PvEE, symObjAddr: 0x56D0, symBinAddr: 0x100006700, symSize: 0xB0 }
  - { offset: 0x12BF3, size: 0x8, addend: 0x0, symName: __ZNKSt3__16__treeINS_12__value_typeIiiEENS_19__map_value_compareIiS2_NS_4lessIiEELb1EEENS_9allocatorIS2_EEE6__rootB8ne180100Ev, symObjAddr: 0x5780, symBinAddr: 0x1000067B0, symSize: 0x20 }
  - { offset: 0x12C19, size: 0x8, addend: 0x0, symName: __ZNSt3__16__treeINS_12__value_typeIiiEENS_19__map_value_compareIiS2_NS_4lessIiEELb1EEENS_9allocatorIS2_EEE12__node_allocB8ne180100Ev, symObjAddr: 0x57A0, symBinAddr: 0x1000067D0, symSize: 0x20 }
  - { offset: 0x12C3F, size: 0x8, addend: 0x0, symName: __ZNSt3__116allocator_traitsINS_9allocatorINS_11__tree_nodeINS_12__value_typeIiiEEPvEEEEE7destroyB8ne180100INS_4pairIKiiEEvvEEvRS7_PT_, symObjAddr: 0x57C0, symBinAddr: 0x1000067F0, symSize: 0x20 }
  - { offset: 0x12C79, size: 0x8, addend: 0x0, symName: __ZNSt3__122__tree_key_value_typesINS_12__value_typeIiiEEE9__get_ptrB8ne180100ERS2_, symObjAddr: 0x57E0, symBinAddr: 0x100006810, symSize: 0x20 }
  - { offset: 0x12C9D, size: 0x8, addend: 0x0, symName: __ZNSt3__116allocator_traitsINS_9allocatorINS_11__tree_nodeINS_12__value_typeIiiEEPvEEEEE10deallocateB8ne180100ERS7_PS6_m, symObjAddr: 0x5800, symBinAddr: 0x100006830, symSize: 0x30 }
  - { offset: 0x12CDF, size: 0x8, addend: 0x0, symName: __ZNSt3__117__compressed_pairINS_15__tree_end_nodeIPNS_16__tree_node_baseIPvEEEENS_9allocatorINS_11__tree_nodeINS_12__value_typeIiiEES3_EEEEE6secondB8ne180100Ev, symObjAddr: 0x5830, symBinAddr: 0x100006860, symSize: 0x20 }
  - { offset: 0x12D05, size: 0x8, addend: 0x0, symName: __ZNSt3__122__compressed_pair_elemINS_9allocatorINS_11__tree_nodeINS_12__value_typeIiiEEPvEEEELi1ELb1EE5__getB8ne180100Ev, symObjAddr: 0x5850, symBinAddr: 0x100006880, symSize: 0x10 }
  - { offset: 0x12D2B, size: 0x8, addend: 0x0, symName: __ZNSt3__112__value_typeIiiE11__get_valueB8ne180100Ev, symObjAddr: 0x5870, symBinAddr: 0x1000068A0, symSize: 0x20 }
  - { offset: 0x12D51, size: 0x8, addend: 0x0, symName: __ZNSt3__19allocatorINS_11__tree_nodeINS_12__value_typeIiiEEPvEEE10deallocateB8ne180100EPS5_m, symObjAddr: 0x58C0, symBinAddr: 0x1000068F0, symSize: 0x50 }
  - { offset: 0x12D93, size: 0x8, addend: 0x0, symName: __ZNKSt3__16__treeINS_12__value_typeIiiEENS_19__map_value_compareIiS2_NS_4lessIiEELb1EEENS_9allocatorIS2_EEE10__end_nodeB8ne180100Ev, symObjAddr: 0x5910, symBinAddr: 0x100006940, symSize: 0x30 }
  - { offset: 0x12DB9, size: 0x8, addend: 0x0, symName: __ZNKSt3__117__compressed_pairINS_15__tree_end_nodeIPNS_16__tree_node_baseIPvEEEENS_9allocatorINS_11__tree_nodeINS_12__value_typeIiiEES3_EEEEE5firstB8ne180100Ev, symObjAddr: 0x5940, symBinAddr: 0x100006970, symSize: 0x20 }
  - { offset: 0x12DF4, size: 0x8, addend: 0x0, symName: __ZNSt3__16__treeINS_12__value_typeIiiEENS_19__map_value_compareIiS2_NS_4lessIiEELb1EEENS_9allocatorIS2_EEE25__emplace_unique_key_argsIiJRKNS_21piecewise_construct_tENS_5tupleIJRKiEEENSE_IJEEEEEENS_4pairINS_15__tree_iteratorIS2_PNS_11__tree_nodeIS2_PvEElEEbEERKT_DpOT0_, symObjAddr: 0x5960, symBinAddr: 0x100006990, symSize: 0x100 }
  - { offset: 0x12ED3, size: 0x8, addend: 0x0, symName: __ZNKSt3__115__tree_iteratorINS_12__value_typeIiiEEPNS_11__tree_nodeIS2_PvEElEptB8ne180100Ev, symObjAddr: 0x5AA0, symBinAddr: 0x100006AD0, symSize: 0x30 }
  - { offset: 0x12EF9, size: 0x8, addend: 0x0, symName: __ZNSt3__16__treeINS_12__value_typeIiiEENS_19__map_value_compareIiS2_NS_4lessIiEELb1EEENS_9allocatorIS2_EEE12__find_equalIiEERPNS_16__tree_node_baseIPvEERPNS_15__tree_end_nodeISE_EERKT_, symObjAddr: 0x5AD0, symBinAddr: 0x100006B00, symSize: 0x180 }
  - { offset: 0x12F66, size: 0x8, addend: 0x0, symName: __ZNSt3__16__treeINS_12__value_typeIiiEENS_19__map_value_compareIiS2_NS_4lessIiEELb1EEENS_9allocatorIS2_EEE16__construct_nodeIJRKNS_21piecewise_construct_tENS_5tupleIJRKiEEENSE_IJEEEEEENS_10unique_ptrINS_11__tree_nodeIS2_PvEENS_22__tree_node_destructorINS7_ISM_EEEEEEDpOT_, symObjAddr: 0x5C50, symBinAddr: 0x100006C80, symSize: 0x120 }
  - { offset: 0x12FEF, size: 0x8, addend: 0x0, symName: __ZNSt3__16__treeINS_12__value_typeIiiEENS_19__map_value_compareIiS2_NS_4lessIiEELb1EEENS_9allocatorIS2_EEE16__insert_node_atEPNS_15__tree_end_nodeIPNS_16__tree_node_baseIPvEEEERSE_SE_, symObjAddr: 0x5D70, symBinAddr: 0x100006DA0, symSize: 0xC0 }
  - { offset: 0x13044, size: 0x8, addend: 0x0, symName: __ZNKSt3__110unique_ptrINS_11__tree_nodeINS_12__value_typeIiiEEPvEENS_22__tree_node_destructorINS_9allocatorIS5_EEEEE3getB8ne180100Ev, symObjAddr: 0x5E30, symBinAddr: 0x100006E60, symSize: 0x20 }
  - { offset: 0x1306A, size: 0x8, addend: 0x0, symName: __ZNSt3__110unique_ptrINS_11__tree_nodeINS_12__value_typeIiiEEPvEENS_22__tree_node_destructorINS_9allocatorIS5_EEEEE7releaseB8ne180100Ev, symObjAddr: 0x5E50, symBinAddr: 0x100006E80, symSize: 0x40 }
  - { offset: 0x1309F, size: 0x8, addend: 0x0, symName: __ZNSt3__110unique_ptrINS_11__tree_nodeINS_12__value_typeIiiEEPvEENS_22__tree_node_destructorINS_9allocatorIS5_EEEEED1B8ne180100Ev, symObjAddr: 0x5E90, symBinAddr: 0x100006EC0, symSize: 0x20 }
  - { offset: 0x130C9, size: 0x8, addend: 0x0, symName: __ZNSt3__115__tree_iteratorINS_12__value_typeIiiEEPNS_11__tree_nodeIS2_PvEElEC1B8ne180100ES6_, symObjAddr: 0x5EB0, symBinAddr: 0x100006EE0, symSize: 0x30 }
  - { offset: 0x13108, size: 0x8, addend: 0x0, symName: __ZNSt3__14pairINS_15__tree_iteratorINS_12__value_typeIiiEEPNS_11__tree_nodeIS3_PvEElEEbEC1B8ne180100IS8_RbLi0EEEOT_OT0_, symObjAddr: 0x5EE0, symBinAddr: 0x100006F10, symSize: 0x30 }
  - { offset: 0x13166, size: 0x8, addend: 0x0, symName: __ZNKSt3__16__treeINS_12__value_typeIiiEENS_19__map_value_compareIiS2_NS_4lessIiEELb1EEENS_9allocatorIS2_EEE10__root_ptrB8ne180100Ev, symObjAddr: 0x5F10, symBinAddr: 0x100006F40, symSize: 0x20 }
  - { offset: 0x1318C, size: 0x8, addend: 0x0, symName: __ZNSt3__16__treeINS_12__value_typeIiiEENS_19__map_value_compareIiS2_NS_4lessIiEELb1EEENS_9allocatorIS2_EEE10value_compB8ne180100Ev, symObjAddr: 0x5F30, symBinAddr: 0x100006F60, symSize: 0x20 }
  - { offset: 0x131B2, size: 0x8, addend: 0x0, symName: __ZNKSt3__119__map_value_compareIiNS_12__value_typeIiiEENS_4lessIiEELb1EEclB8ne180100ERKiRKS2_, symObjAddr: 0x5F50, symBinAddr: 0x100006F80, symSize: 0x50 }
  - { offset: 0x131F6, size: 0x8, addend: 0x0, symName: __ZNKSt3__119__map_value_compareIiNS_12__value_typeIiiEENS_4lessIiEELb1EEclB8ne180100ERKS2_RKi, symObjAddr: 0x5FA0, symBinAddr: 0x100006FD0, symSize: 0x40 }
  - { offset: 0x1323A, size: 0x8, addend: 0x0, symName: __ZNSt3__117__compressed_pairImNS_19__map_value_compareIiNS_12__value_typeIiiEENS_4lessIiEELb1EEEE6secondB8ne180100Ev, symObjAddr: 0x5FE0, symBinAddr: 0x100007010, symSize: 0x20 }
  - { offset: 0x13260, size: 0x8, addend: 0x0, symName: __ZNSt3__122__compressed_pair_elemINS_19__map_value_compareIiNS_12__value_typeIiiEENS_4lessIiEELb1EEELi1ELb1EE5__getB8ne180100Ev, symObjAddr: 0x6000, symBinAddr: 0x100007030, symSize: 0x10 }
  - { offset: 0x13286, size: 0x8, addend: 0x0, symName: __ZNKSt3__112__value_typeIiiE11__get_valueB8ne180100Ev, symObjAddr: 0x6010, symBinAddr: 0x100007040, symSize: 0x20 }
  - { offset: 0x132AC, size: 0x8, addend: 0x0, symName: __ZNSt3__116allocator_traitsINS_9allocatorINS_11__tree_nodeINS_12__value_typeIiiEEPvEEEEE8allocateB8ne180100ERS7_m, symObjAddr: 0x6060, symBinAddr: 0x100007090, symSize: 0x30 }
  - { offset: 0x132DF, size: 0x8, addend: 0x0, symName: __ZNSt3__122__tree_node_destructorINS_9allocatorINS_11__tree_nodeINS_12__value_typeIiiEEPvEEEEEC1B8ne180100ERS7_b, symObjAddr: 0x6090, symBinAddr: 0x1000070C0, symSize: 0x40 }
  - { offset: 0x1332D, size: 0x8, addend: 0x0, symName: __ZNSt3__110unique_ptrINS_11__tree_nodeINS_12__value_typeIiiEEPvEENS_22__tree_node_destructorINS_9allocatorIS5_EEEEEC1B8ne180100ILb1EvEEPS5_NS_16__dependent_typeINS_27__unique_ptr_deleter_sfinaeIS9_EEXT_EE20__good_rval_ref_typeE, symObjAddr: 0x60D0, symBinAddr: 0x100007100, symSize: 0x30 }
  - { offset: 0x1337E, size: 0x8, addend: 0x0, symName: __ZNSt3__116allocator_traitsINS_9allocatorINS_11__tree_nodeINS_12__value_typeIiiEEPvEEEEE9constructB8ne180100INS_4pairIKiiEEJRKNS_21piecewise_construct_tENS_5tupleIJRSB_EEENSG_IJEEEEvvEEvRS7_PT_DpOT0_, symObjAddr: 0x6100, symBinAddr: 0x100007130, symSize: 0x40 }
  - { offset: 0x133FA, size: 0x8, addend: 0x0, symName: __ZNKSt3__110unique_ptrINS_11__tree_nodeINS_12__value_typeIiiEEPvEENS_22__tree_node_destructorINS_9allocatorIS5_EEEEEptB8ne180100Ev, symObjAddr: 0x6140, symBinAddr: 0x100007170, symSize: 0x20 }
  - { offset: 0x13420, size: 0x8, addend: 0x0, symName: __ZNSt3__110unique_ptrINS_11__tree_nodeINS_12__value_typeIiiEEPvEENS_22__tree_node_destructorINS_9allocatorIS5_EEEEE11get_deleterB8ne180100Ev, symObjAddr: 0x6160, symBinAddr: 0x100007190, symSize: 0x20 }
  - { offset: 0x13446, size: 0x8, addend: 0x0, symName: __ZNSt3__19allocatorINS_11__tree_nodeINS_12__value_typeIiiEEPvEEE8allocateB8ne180100Em, symObjAddr: 0x6180, symBinAddr: 0x1000071B0, symSize: 0x50 }
  - { offset: 0x13484, size: 0x8, addend: 0x0, symName: __ZNSt3__116allocator_traitsINS_9allocatorINS_11__tree_nodeINS_12__value_typeIiiEEPvEEEEE8max_sizeB8ne180100IS7_vvEEmRKS7_, symObjAddr: 0x61D0, symBinAddr: 0x100007200, symSize: 0x30 }
  - { offset: 0x134AF, size: 0x8, addend: 0x0, symName: __ZNSt3__122__tree_node_destructorINS_9allocatorINS_11__tree_nodeINS_12__value_typeIiiEEPvEEEEEC2B8ne180100ERS7_b, symObjAddr: 0x6200, symBinAddr: 0x100007230, symSize: 0x30 }
  - { offset: 0x134F7, size: 0x8, addend: 0x0, symName: __ZNSt3__110unique_ptrINS_11__tree_nodeINS_12__value_typeIiiEEPvEENS_22__tree_node_destructorINS_9allocatorIS5_EEEEEC2B8ne180100ILb1EvEEPS5_NS_16__dependent_typeINS_27__unique_ptr_deleter_sfinaeIS9_EEXT_EE20__good_rval_ref_typeE, symObjAddr: 0x6230, symBinAddr: 0x100007260, symSize: 0x40 }
  - { offset: 0x13548, size: 0x8, addend: 0x0, symName: __ZNSt3__117__compressed_pairIPNS_11__tree_nodeINS_12__value_typeIiiEEPvEENS_22__tree_node_destructorINS_9allocatorIS5_EEEEEC1B8ne180100IRS6_SA_EEOT_OT0_, symObjAddr: 0x6270, symBinAddr: 0x1000072A0, symSize: 0x30 }
  - { offset: 0x135A0, size: 0x8, addend: 0x0, symName: __ZNSt3__117__compressed_pairIPNS_11__tree_nodeINS_12__value_typeIiiEEPvEENS_22__tree_node_destructorINS_9allocatorIS5_EEEEEC2B8ne180100IRS6_SA_EEOT_OT0_, symObjAddr: 0x62A0, symBinAddr: 0x1000072D0, symSize: 0x40 }
  - { offset: 0x135F8, size: 0x8, addend: 0x0, symName: __ZNSt3__122__compressed_pair_elemIPNS_11__tree_nodeINS_12__value_typeIiiEEPvEELi0ELb0EEC2B8ne180100IRS6_vEEOT_, symObjAddr: 0x62E0, symBinAddr: 0x100007310, symSize: 0x20 }
  - { offset: 0x1363A, size: 0x8, addend: 0x0, symName: __ZNSt3__122__compressed_pair_elemINS_22__tree_node_destructorINS_9allocatorINS_11__tree_nodeINS_12__value_typeIiiEEPvEEEEEELi1ELb0EEC2B8ne180100IS9_vEEOT_, symObjAddr: 0x6300, symBinAddr: 0x100007330, symSize: 0x30 }
  - { offset: 0x1367C, size: 0x8, addend: 0x0, symName: __ZNSt3__14pairIKiiEC1B8ne180100IJRS1_EJEEENS_21piecewise_construct_tENS_5tupleIJDpT_EEENS6_IJDpT0_EEE, symObjAddr: 0x63B0, symBinAddr: 0x1000073E0, symSize: 0x40 }
  - { offset: 0x136E3, size: 0x8, addend: 0x0, symName: __ZNSt3__14pairIKiiEC1B8ne180100IJRS1_EJEJLm0EEJEEENS_21piecewise_construct_tERNS_5tupleIJDpT_EEERNS6_IJDpT0_EEENS_15__tuple_indicesIJXspT1_EEEENSF_IJXspT2_EEEE, symObjAddr: 0x63F0, symBinAddr: 0x100007420, symSize: 0x30 }
  - { offset: 0x13770, size: 0x8, addend: 0x0, symName: __ZNSt3__14pairIKiiEC2B8ne180100IJRS1_EJEJLm0EEJEEENS_21piecewise_construct_tERNS_5tupleIJDpT_EEERNS6_IJDpT0_EEENS_15__tuple_indicesIJXspT1_EEEENSF_IJXspT2_EEEE, symObjAddr: 0x6420, symBinAddr: 0x100007450, symSize: 0x40 }
  - { offset: 0x137FD, size: 0x8, addend: 0x0, symName: __ZNSt3__112__tuple_leafILm0ERKiLb0EE3getB8ne180100Ev, symObjAddr: 0x6480, symBinAddr: 0x1000074B0, symSize: 0x20 }
  - { offset: 0x13823, size: 0x8, addend: 0x0, symName: __ZNKSt3__117__compressed_pairIPNS_11__tree_nodeINS_12__value_typeIiiEEPvEENS_22__tree_node_destructorINS_9allocatorIS5_EEEEE5firstB8ne180100Ev, symObjAddr: 0x64A0, symBinAddr: 0x1000074D0, symSize: 0x20 }
  - { offset: 0x13849, size: 0x8, addend: 0x0, symName: __ZNKSt3__122__compressed_pair_elemIPNS_11__tree_nodeINS_12__value_typeIiiEEPvEELi0ELb0EE5__getB8ne180100Ev, symObjAddr: 0x64C0, symBinAddr: 0x1000074F0, symSize: 0x10 }
  - { offset: 0x1386F, size: 0x8, addend: 0x0, symName: __ZNSt3__117__compressed_pairIPNS_11__tree_nodeINS_12__value_typeIiiEEPvEENS_22__tree_node_destructorINS_9allocatorIS5_EEEEE6secondB8ne180100Ev, symObjAddr: 0x64D0, symBinAddr: 0x100007500, symSize: 0x20 }
  - { offset: 0x13895, size: 0x8, addend: 0x0, symName: __ZNSt3__122__compressed_pair_elemINS_22__tree_node_destructorINS_9allocatorINS_11__tree_nodeINS_12__value_typeIiiEEPvEEEEEELi1ELb0EE5__getB8ne180100Ev, symObjAddr: 0x64F0, symBinAddr: 0x100007520, symSize: 0x10 }
  - { offset: 0x138BB, size: 0x8, addend: 0x0, symName: __ZNSt3__16__treeINS_12__value_typeIiiEENS_19__map_value_compareIiS2_NS_4lessIiEELb1EEENS_9allocatorIS2_EEE4sizeB8ne180100Ev, symObjAddr: 0x6500, symBinAddr: 0x100007530, symSize: 0x20 }
  - { offset: 0x138E1, size: 0x8, addend: 0x0, symName: __ZNSt3__117__compressed_pairImNS_19__map_value_compareIiNS_12__value_typeIiiEENS_4lessIiEELb1EEEE5firstB8ne180100Ev, symObjAddr: 0x6520, symBinAddr: 0x100007550, symSize: 0x20 }
  - { offset: 0x13907, size: 0x8, addend: 0x0, symName: __ZNSt3__117__compressed_pairIPNS_11__tree_nodeINS_12__value_typeIiiEEPvEENS_22__tree_node_destructorINS_9allocatorIS5_EEEEE5firstB8ne180100Ev, symObjAddr: 0x6540, symBinAddr: 0x100007570, symSize: 0x20 }
  - { offset: 0x1392D, size: 0x8, addend: 0x0, symName: __ZNSt3__122__compressed_pair_elemIPNS_11__tree_nodeINS_12__value_typeIiiEEPvEELi0ELb0EE5__getB8ne180100Ev, symObjAddr: 0x6560, symBinAddr: 0x100007590, symSize: 0x10 }
  - { offset: 0x13953, size: 0x8, addend: 0x0, symName: __ZNSt3__110unique_ptrINS_11__tree_nodeINS_12__value_typeIiiEEPvEENS_22__tree_node_destructorINS_9allocatorIS5_EEEEED2B8ne180100Ev, symObjAddr: 0x6570, symBinAddr: 0x1000075A0, symSize: 0x20 }
  - { offset: 0x1397D, size: 0x8, addend: 0x0, symName: __ZNSt3__110unique_ptrINS_11__tree_nodeINS_12__value_typeIiiEEPvEENS_22__tree_node_destructorINS_9allocatorIS5_EEEEE5resetB8ne180100EPS5_, symObjAddr: 0x6590, symBinAddr: 0x1000075C0, symSize: 0x70 }
  - { offset: 0x139C1, size: 0x8, addend: 0x0, symName: __ZNSt3__122__tree_node_destructorINS_9allocatorINS_11__tree_nodeINS_12__value_typeIiiEEPvEEEEEclB8ne180100EPS6_, symObjAddr: 0x6600, symBinAddr: 0x100007630, symSize: 0x90 }
  - { offset: 0x139F6, size: 0x8, addend: 0x0, symName: __ZNSt3__115__tree_iteratorINS_12__value_typeIiiEEPNS_11__tree_nodeIS2_PvEElEC2B8ne180100ES6_, symObjAddr: 0x6690, symBinAddr: 0x1000076C0, symSize: 0x20 }
  - { offset: 0x13A2F, size: 0x8, addend: 0x0, symName: __ZNSt3__14pairINS_15__tree_iteratorINS_12__value_typeIiiEEPNS_11__tree_nodeIS3_PvEElEEbEC2B8ne180100IS8_RbLi0EEEOT_OT0_, symObjAddr: 0x66B0, symBinAddr: 0x1000076E0, symSize: 0x30 }
  - { offset: 0x13A8D, size: 0x8, addend: 0x0, symName: __ZNSt3__15tupleIJRKiEEC1B8ne180100INS_4_AndELi0EEES2_, symObjAddr: 0x66E0, symBinAddr: 0x100007710, symSize: 0x30 }
  - { offset: 0x13AD5, size: 0x8, addend: 0x0, symName: __ZNSt3__15tupleIJRKiEEC2B8ne180100INS_4_AndELi0EEES2_, symObjAddr: 0x6710, symBinAddr: 0x100007740, symSize: 0x30 }
  - { offset: 0x13B1D, size: 0x8, addend: 0x0, symName: __ZNSt3__112__tuple_implINS_15__tuple_indicesIJLm0EEEEJRKiEEC1B8ne180100IJLm0EEJS4_EJEJEJS4_EEENS1_IJXspT_EEEENS_13__tuple_typesIJDpT0_EEENS1_IJXspT1_EEEENS8_IJDpT2_EEEDpOT3_, symObjAddr: 0x6740, symBinAddr: 0x100007770, symSize: 0x30 }
  - { offset: 0x13BAE, size: 0x8, addend: 0x0, symName: __ZNSt3__112__tuple_implINS_15__tuple_indicesIJLm0EEEEJRKiEEC2B8ne180100IJLm0EEJS4_EJEJEJS4_EEENS1_IJXspT_EEEENS_13__tuple_typesIJDpT0_EEENS1_IJXspT1_EEEENS8_IJDpT2_EEEDpOT3_, symObjAddr: 0x6770, symBinAddr: 0x1000077A0, symSize: 0x30 }
  - { offset: 0x13C3F, size: 0x8, addend: 0x0, symName: __ZNSt3__112__tuple_leafILm0ERKiLb0EEC2B8ne180100IS2_vEEOT_, symObjAddr: 0x67A0, symBinAddr: 0x1000077D0, symSize: 0x20 }
  - { offset: 0x13C82, size: 0x8, addend: 0x0, symName: __ZNSt3__114pointer_traitsIPNS_12__value_typeIiiEEE10pointer_toB8ne180100ERS2_, symObjAddr: 0x67C0, symBinAddr: 0x1000077F0, symSize: 0x10 }
  - { offset: 0x13CA5, size: 0x8, addend: 0x0, symName: __ZNKSt3__115__tree_iteratorINS_12__value_typeIiiEEPNS_11__tree_nodeIS2_PvEElE8__get_npB8ne180100Ev, symObjAddr: 0x67D0, symBinAddr: 0x100007800, symSize: 0x20 }
  - { offset: 0x13CCB, size: 0x8, addend: 0x0, symName: __ZNSt3__16__treeIiNS_4lessIiEENS_9allocatorIiEEE5beginB8ne180100Ev, symObjAddr: 0x67F0, symBinAddr: 0x100007820, symSize: 0x30 }
  - { offset: 0x13CF1, size: 0x8, addend: 0x0, symName: __ZNSt3__115__tree_iteratorIiPNS_11__tree_nodeIiPvEElEC1B8ne180100EPNS_15__tree_end_nodeIPNS_16__tree_node_baseIS2_EEEE, symObjAddr: 0x6820, symBinAddr: 0x100007850, symSize: 0x30 }
  - { offset: 0x13D2A, size: 0x8, addend: 0x0, symName: __ZNSt3__115__tree_iteratorIiPNS_11__tree_nodeIiPvEElEC2B8ne180100EPNS_15__tree_end_nodeIPNS_16__tree_node_baseIS2_EEEE, symObjAddr: 0x6850, symBinAddr: 0x100007880, symSize: 0x20 }
  - { offset: 0x13D63, size: 0x8, addend: 0x0, symName: __ZNSt3__16__treeIiNS_4lessIiEENS_9allocatorIiEEE3endB8ne180100Ev, symObjAddr: 0x6870, symBinAddr: 0x1000078A0, symSize: 0x30 }
  - { offset: 0x13D89, size: 0x8, addend: 0x0, symName: __ZNKSt3__19basic_iosIcNS_11char_traitsIcEEE5widenB8ne180100Ec, symObjAddr: 0x68A0, symBinAddr: 0x1000078D0, symSize: 0x80 }
  - { offset: 0x13E02, size: 0x8, addend: 0x0, symName: __ZNKSt3__15ctypeIcE5widenB8ne180100Ec, symObjAddr: 0x6950, symBinAddr: 0x100007980, symSize: 0x2B }
...
