---
triple:          'x86_64-apple-darwin'
binary-path:     b
relocations:
  - { offset: 0x3F, size: 0x8, addend: 0x0, symName: _weights, symObjAddr: 0x7B2D0, symBinAddr: 0x10000C000, symSize: 0x0 }
  - { offset: 0x9B66, size: 0x8, addend: 0x0, symName: __ZNSt3__119piecewise_constructE, symObjAddr: 0x9DD7, symBinAddr: 0x10000ACE8, symSize: 0x0 }
  - { offset: 0xDF5D, size: 0x8, addend: 0x0, symName: __ZNSt3__1eqB8ne180100ERKNS_21__tree_const_iteratorIxPNS_11__tree_nodeIxPvEElEES7_, symObjAddr: 0x490, symBinAddr: 0x100001260, symSize: 0x30 }
  - { offset: 0xEC03, size: 0x8, addend: 0x0, symName: __ZNSt3__1neB8ne180100ERKNS_21__tree_const_iteratorIxPNS_11__tree_nodeIxPvEElEES7_, symObjAddr: 0xD90, symBinAddr: 0x100001B60, symSize: 0x30 }
  - { offset: 0xEC40, size: 0x8, addend: 0x0, symName: __ZNSt3__14endlB8ne180100IcNS_11char_traitsIcEEEERNS_13basic_ostreamIT_T0_EES7_, symObjAddr: 0xE50, symBinAddr: 0x100001C20, symSize: 0x50 }
  - { offset: 0xEC80, size: 0x8, addend: 0x0, symName: __ZNSt3__112__to_addressB8ne180100IxEEPT_S2_, symObjAddr: 0x1110, symBinAddr: 0x100001EE0, symSize: 0x10 }
  - { offset: 0xECB5, size: 0x8, addend: 0x0, symName: __ZNSt3__112__destroy_atB8ne180100IxLi0EEEvPT_, symObjAddr: 0x1120, symBinAddr: 0x100001EF0, symSize: 0x10 }
  - { offset: 0xECEC, size: 0x8, addend: 0x0, symName: __ZNSt3__119__libcpp_deallocateB8ne180100EPvmm, symObjAddr: 0x1170, symBinAddr: 0x100001F40, symSize: 0x60 }
  - { offset: 0xED51, size: 0x8, addend: 0x0, symName: __ZNSt3__124__is_overaligned_for_newB8ne180100Em, symObjAddr: 0x11D0, symBinAddr: 0x100001FA0, symSize: 0x20 }
  - { offset: 0xED7F, size: 0x8, addend: 0x0, symName: __ZNSt3__127__do_deallocate_handle_sizeB8ne180100IJSt11align_val_tEEEvPvmDpT_, symObjAddr: 0x11F0, symBinAddr: 0x100001FC0, symSize: 0x30 }
  - { offset: 0xEDD2, size: 0x8, addend: 0x0, symName: __ZNSt3__127__do_deallocate_handle_sizeB8ne180100IJEEEvPvmDpT_, symObjAddr: 0x1220, symBinAddr: 0x100001FF0, symSize: 0x20 }
  - { offset: 0xEE10, size: 0x8, addend: 0x0, symName: __ZNSt3__124__libcpp_operator_deleteB8ne180100IJPvSt11align_val_tEEEvDpT_, symObjAddr: 0x1240, symBinAddr: 0x100002010, symSize: 0x30 }
  - { offset: 0xEE59, size: 0x8, addend: 0x0, symName: __ZNSt3__124__libcpp_operator_deleteB8ne180100IJPvEEEvDpT_, symObjAddr: 0x1270, symBinAddr: 0x100002040, symSize: 0x20 }
  - { offset: 0xEE8E, size: 0x8, addend: 0x0, symName: __ZNSt3__114__construct_atB8ne180100IxJRKxEPxEEPT_S5_DpOT0_, symObjAddr: 0x1590, symBinAddr: 0x100002360, symSize: 0x30 }
  - { offset: 0xEEE1, size: 0x8, addend: 0x0, symName: __ZNSt3__112construct_atB8ne180100IxJRKxEPxEEPT_S5_DpOT0_, symObjAddr: 0x15C0, symBinAddr: 0x100002390, symSize: 0x20 }
  - { offset: 0xEF34, size: 0x8, addend: 0x0, symName: __ZNSt3__13maxB8ne180100ImEERKT_S3_S3_, symObjAddr: 0x18B0, symBinAddr: 0x100002680, symSize: 0x30 }
  - { offset: 0xEF77, size: 0x8, addend: 0x0, symName: __ZNSt3__13minB8ne180100ImEERKT_S3_S3_, symObjAddr: 0x18E0, symBinAddr: 0x1000026B0, symSize: 0x30 }
  - { offset: 0xF1A4, size: 0x8, addend: 0x0, symName: __ZNSt3__13minB8ne180100ImNS_6__lessIvvEEEERKT_S5_S5_T0_, symObjAddr: 0x1960, symBinAddr: 0x100002730, symSize: 0x50 }
  - { offset: 0xF243, size: 0x8, addend: 0x0, symName: __ZNSt3__120__throw_length_errorB8ne180100EPKc, symObjAddr: 0x1A40, symBinAddr: 0x100002810, symSize: 0x70 }
  - { offset: 0xF26B, size: 0x8, addend: 0x0, symName: __ZNSt3__13maxB8ne180100ImNS_6__lessIvvEEEERKT_S5_S5_T0_, symObjAddr: 0x1B20, symBinAddr: 0x1000028F0, symSize: 0x50 }
  - { offset: 0xF2C5, size: 0x8, addend: 0x0, symName: __ZNSt3__119__allocate_at_leastB8ne180100INS_9allocatorIxEEEENS_19__allocation_resultINS_16allocator_traitsIT_E7pointerEEERS5_m, symObjAddr: 0x1C70, symBinAddr: 0x100002A40, symSize: 0x40 }
  - { offset: 0xF308, size: 0x8, addend: 0x0, symName: __ZNSt3__117__libcpp_allocateB8ne180100Emm, symObjAddr: 0x1E00, symBinAddr: 0x100002BD0, symSize: 0x60 }
  - { offset: 0xF362, size: 0x8, addend: 0x0, symName: __ZNSt3__121__libcpp_operator_newB8ne180100IJmSt11align_val_tEEEPvDpT_, symObjAddr: 0x1E60, symBinAddr: 0x100002C30, symSize: 0x30 }
  - { offset: 0xF3AF, size: 0x8, addend: 0x0, symName: __ZNSt3__121__libcpp_operator_newB8ne180100IJmEEEPvDpT_, symObjAddr: 0x1E90, symBinAddr: 0x100002C60, symSize: 0x20 }
  - { offset: 0xF3E8, size: 0x8, addend: 0x0, symName: __ZNSt3__142__uninitialized_allocator_move_if_noexceptB8ne180100INS_9allocatorIxEENS_16reverse_iteratorIPxEES5_xvEET1_RT_T0_S9_S6_, symObjAddr: 0x1F10, symBinAddr: 0x100002CE0, symSize: 0x70 }
  - { offset: 0xF464, size: 0x8, addend: 0x0, symName: __ZNSt3__14swapB8ne180100IPxEENS_9enable_ifIXaasr21is_move_constructibleIT_EE5valuesr18is_move_assignableIS3_EE5valueEvE4typeERS3_S6_, symObjAddr: 0x1FD0, symBinAddr: 0x100002DA0, symSize: 0x40 }
  - { offset: 0xF4B5, size: 0x8, addend: 0x0, symName: __ZNSt3__14moveB8ne180100INS_16reverse_iteratorIPxEES3_EET0_T_S5_S4_, symObjAddr: 0x2020, symBinAddr: 0x100002DF0, symSize: 0x80 }
  - { offset: 0xF50F, size: 0x8, addend: 0x0, symName: __ZNSt3__16__moveB8ne180100INS_17_ClassicAlgPolicyENS_16reverse_iteratorIPxEES4_S4_EENS_4pairIT0_T2_EES6_T1_S7_, symObjAddr: 0x20A0, symBinAddr: 0x100002E70, symSize: 0x90 }
  - { offset: 0xF57B, size: 0x8, addend: 0x0, symName: __ZNSt3__123__dispatch_copy_or_moveB8ne180100INS_17_ClassicAlgPolicyENS_11__move_loopIS1_EENS_14__move_trivialENS_16reverse_iteratorIPxEES7_S7_EENS_4pairIT2_T4_EES9_T3_SA_, symObjAddr: 0x2130, symBinAddr: 0x100002F00, symSize: 0x90 }
  - { offset: 0xF5F9, size: 0x8, addend: 0x0, symName: __ZNSt3__121__unwrap_and_dispatchB8ne180100INS_10__overloadINS_11__move_loopINS_17_ClassicAlgPolicyEEENS_14__move_trivialEEENS_16reverse_iteratorIPxEES9_S9_Li0EEENS_4pairIT0_T2_EESB_T1_SC_, symObjAddr: 0x21C0, symBinAddr: 0x100002F90, symSize: 0x210 }
  - { offset: 0xF688, size: 0x8, addend: 0x0, symName: __ZNSt3__114__unwrap_rangeB8ne180100INS_16reverse_iteratorIPxEES3_EEDaT_T0_, symObjAddr: 0x23D0, symBinAddr: 0x1000031A0, symSize: 0x60 }
  - { offset: 0xF803, size: 0x8, addend: 0x0, symName: __ZNSt3__113__unwrap_iterB8ne180100INS_16reverse_iteratorIPxEENS_18__unwrap_iter_implIS3_Lb0EEELi0EEEDTclsrT0_8__unwrapclsr3stdE7declvalIT_EEEES7_, symObjAddr: 0x24D0, symBinAddr: 0x1000032A0, symSize: 0x40 }
  - { offset: 0xF847, size: 0x8, addend: 0x0, symName: __ZNSt3__19make_pairB8ne180100INS_16reverse_iteratorIPxEES3_EENS_4pairINS_18__unwrap_ref_decayIT_E4typeENS5_IT0_E4typeEEEOS6_OS9_, symObjAddr: 0x2510, symBinAddr: 0x1000032E0, symSize: 0x30 }
  - { offset: 0xF896, size: 0x8, addend: 0x0, symName: __ZNSt3__114__rewrap_rangeB8ne180100INS_16reverse_iteratorIPxEES3_S3_EET0_S4_T1_, symObjAddr: 0x2540, symBinAddr: 0x100003310, symSize: 0x60 }
  - { offset: 0xF8EB, size: 0x8, addend: 0x0, symName: __ZNSt3__113__rewrap_iterB8ne180100INS_16reverse_iteratorIPxEES3_NS_18__unwrap_iter_implIS3_Lb0EEEEET_S6_T0_, symObjAddr: 0x25A0, symBinAddr: 0x100003370, symSize: 0x70 }
  - { offset: 0xF990, size: 0x8, addend: 0x0, symName: __ZNSt3__1neB8ne180100IPxS1_EEbRKNS_16reverse_iteratorIT_EERKNS2_IT0_EE, symObjAddr: 0x2710, symBinAddr: 0x1000034E0, symSize: 0x40 }
  - { offset: 0xFA86, size: 0x8, addend: 0x0, symName: __ZNSt3__112__destroy_atB8ne180100INS_11__hash_nodeINS_17__hash_value_typeIxxEEPvEELi0EEEvPT_, symObjAddr: 0x3210, symBinAddr: 0x100003FE0, symSize: 0x20 }
  - { offset: 0xFAF0, size: 0x8, addend: 0x0, symName: __ZNSt3__112__destroy_atB8ne180100INS_4pairIKxxEELi0EEEvPT_, symObjAddr: 0x32A0, symBinAddr: 0x100004070, symSize: 0x10 }
  - { offset: 0xFB27, size: 0x8, addend: 0x0, symName: __ZNSt3__17launderB8ne180100INS_4pairIKxxEEEEPT_S5_, symObjAddr: 0x32D0, symBinAddr: 0x1000040A0, symSize: 0x20 }
  - { offset: 0xFB5E, size: 0x8, addend: 0x0, symName: __ZNSt3__19__launderB8ne180100INS_4pairIKxxEEEEPT_S5_, symObjAddr: 0x32F0, symBinAddr: 0x1000040C0, symSize: 0x10 }
  - { offset: 0xFB95, size: 0x8, addend: 0x0, symName: __ZNSt3__112__destroy_atB8ne180100INS_11__hash_nodeINS_17__hash_value_typeIxNS_4pairIxxEEEEPvEELi0EEEvPT_, symObjAddr: 0x3D00, symBinAddr: 0x100004AD0, symSize: 0x20 }
  - { offset: 0xFBFF, size: 0x8, addend: 0x0, symName: __ZNSt3__112__destroy_atB8ne180100INS_4pairIKxNS1_IxxEEEELi0EEEvPT_, symObjAddr: 0x3D90, symBinAddr: 0x100004B60, symSize: 0x10 }
  - { offset: 0xFC36, size: 0x8, addend: 0x0, symName: __ZNSt3__17launderB8ne180100INS_4pairIKxNS1_IxxEEEEEEPT_S6_, symObjAddr: 0x3DC0, symBinAddr: 0x100004B90, symSize: 0x20 }
  - { offset: 0xFC6D, size: 0x8, addend: 0x0, symName: __ZNSt3__19__launderB8ne180100INS_4pairIKxNS1_IxxEEEEEEPT_S6_, symObjAddr: 0x3DE0, symBinAddr: 0x100004BB0, symSize: 0x10 }
  - { offset: 0xFCF5, size: 0x8, addend: 0x0, symName: __ZNSt3__127__tree_balance_after_insertB8ne180100IPNS_16__tree_node_baseIPvEEEEvT_S5_, symObjAddr: 0x4F60, symBinAddr: 0x100005D30, symSize: 0x320 }
  - { offset: 0xFD71, size: 0x8, addend: 0x0, symName: __ZNSt3__120__tree_is_left_childB8ne180100IPNS_16__tree_node_baseIPvEEEEbT_, symObjAddr: 0x52C0, symBinAddr: 0x100006090, symSize: 0x30 }
  - { offset: 0xFDA6, size: 0x8, addend: 0x0, symName: __ZNSt3__118__tree_left_rotateB8ne180100IPNS_16__tree_node_baseIPvEEEEvT_, symObjAddr: 0x52F0, symBinAddr: 0x1000060C0, symSize: 0xD0 }
  - { offset: 0xFDE5, size: 0x8, addend: 0x0, symName: __ZNSt3__119__tree_right_rotateB8ne180100IPNS_16__tree_node_baseIPvEEEEvT_, symObjAddr: 0x53C0, symBinAddr: 0x100006190, symSize: 0xC0 }
  - { offset: 0xFE5E, size: 0x8, addend: 0x0, symName: __ZNSt3__116forward_as_tupleB8ne180100IJRKxEEENS_5tupleIJDpOT_EEES6_, symObjAddr: 0x5D40, symBinAddr: 0x100006B10, symSize: 0x30 }
  - { offset: 0xFE97, size: 0x8, addend: 0x0, symName: __ZNSt3__116forward_as_tupleB8ne180100IJEEENS_5tupleIJDpOT_EEES4_, symObjAddr: 0x5D70, symBinAddr: 0x100006B40, symSize: 0x10 }
  - { offset: 0xFEBB, size: 0x8, addend: 0x0, symName: __ZNSt3__116__constrain_hashB8ne180100Emm, symObjAddr: 0x5E30, symBinAddr: 0x100006C00, symSize: 0x80 }
  - { offset: 0xFEF5, size: 0x8, addend: 0x0, symName: __ZNSt3__116__is_hash_power2B8ne180100Em, symObjAddr: 0x6130, symBinAddr: 0x100006F00, symSize: 0x40 }
  - { offset: 0xFF26, size: 0x8, addend: 0x0, symName: __ZNSt3__16__math4ceilB8ne180100Ef, symObjAddr: 0x6170, symBinAddr: 0x100006F40, symSize: 0x20 }
  - { offset: 0xFF97, size: 0x8, addend: 0x0, symName: __ZNSt3__17launderB8ne180100IKNS_4pairIKxNS1_IxxEEEEEEPT_S7_, symObjAddr: 0x6450, symBinAddr: 0x100007220, symSize: 0x20 }
  - { offset: 0xFFCE, size: 0x8, addend: 0x0, symName: __ZNSt3__19__launderB8ne180100IKNS_4pairIKxNS1_IxxEEEEEEPT_S7_, symObjAddr: 0x6470, symBinAddr: 0x100007240, symSize: 0x10 }
  - { offset: 0x10023, size: 0x8, addend: 0x0, symName: __ZNSt3__114__construct_atB8ne180100INS_11__hash_nodeINS_17__hash_value_typeIxNS_4pairIxxEEEEPvEEJDnRmEPS7_EEPT_SB_DpOT0_, symObjAddr: 0x6520, symBinAddr: 0x1000072F0, symSize: 0x30 }
  - { offset: 0x10089, size: 0x8, addend: 0x0, symName: __ZNSt3__112construct_atB8ne180100INS_11__hash_nodeINS_17__hash_value_typeIxNS_4pairIxxEEEEPvEEJDnRmEPS7_EEPT_SB_DpOT0_, symObjAddr: 0x6780, symBinAddr: 0x100007550, symSize: 0x40 }
  - { offset: 0x100EF, size: 0x8, addend: 0x0, symName: __ZNSt3__114__construct_atB8ne180100INS_4pairIKxNS1_IxxEEEEJRKNS_21piecewise_construct_tENS_5tupleIJRS2_EEENS8_IJEEEEPS4_EEPT_SE_DpOT0_, symObjAddr: 0x6880, symBinAddr: 0x100007650, symSize: 0x40 }
  - { offset: 0x10168, size: 0x8, addend: 0x0, symName: __ZNSt3__112construct_atB8ne180100INS_4pairIKxNS1_IxxEEEEJRKNS_21piecewise_construct_tENS_5tupleIJRS2_EEENS8_IJEEEEPS4_EEPT_SE_DpOT0_, symObjAddr: 0x68C0, symBinAddr: 0x100007690, symSize: 0x40 }
  - { offset: 0x101EC, size: 0x8, addend: 0x0, symName: __ZNSt3__13getB8ne180100ILm0EJRKxEEERNS_13tuple_elementIXT_ENS_5tupleIJDpT0_EEEE4typeERS7_, symObjAddr: 0x69B0, symBinAddr: 0x100007780, symSize: 0x20 }
  - { offset: 0x1022F, size: 0x8, addend: 0x0, symName: __ZNSt3__116__next_hash_pow2B8ne180100Em, symObjAddr: 0x6F30, symBinAddr: 0x100007D00, symSize: 0x60 }
  - { offset: 0x1025B, size: 0x8, addend: 0x0, symName: __ZNSt3__112__libcpp_clzB8ne180100Em, symObjAddr: 0x70C0, symBinAddr: 0x100007E90, symSize: 0x20 }
  - { offset: 0x102DE, size: 0x8, addend: 0x0, symName: __ZNSt3__17launderB8ne180100IKNS_4pairIKxxEEEEPT_S6_, symObjAddr: 0x7F10, symBinAddr: 0x100008CE0, symSize: 0x20 }
  - { offset: 0x10315, size: 0x8, addend: 0x0, symName: __ZNSt3__19__launderB8ne180100IKNS_4pairIKxxEEEEPT_S6_, symObjAddr: 0x7F30, symBinAddr: 0x100008D00, symSize: 0x10 }
  - { offset: 0x1036A, size: 0x8, addend: 0x0, symName: __ZNSt3__114__construct_atB8ne180100INS_11__hash_nodeINS_17__hash_value_typeIxxEEPvEEJDnRmEPS5_EEPT_S9_DpOT0_, symObjAddr: 0x7FE0, symBinAddr: 0x100008DB0, symSize: 0x30 }
  - { offset: 0x103D0, size: 0x8, addend: 0x0, symName: __ZNSt3__112construct_atB8ne180100INS_11__hash_nodeINS_17__hash_value_typeIxxEEPvEEJDnRmEPS5_EEPT_S9_DpOT0_, symObjAddr: 0x8230, symBinAddr: 0x100009000, symSize: 0x40 }
  - { offset: 0x10436, size: 0x8, addend: 0x0, symName: __ZNSt3__114__construct_atB8ne180100INS_4pairIKxxEEJRKNS_21piecewise_construct_tENS_5tupleIJRS2_EEENS7_IJEEEEPS3_EEPT_SD_DpOT0_, symObjAddr: 0x8330, symBinAddr: 0x100009100, symSize: 0x40 }
  - { offset: 0x104AF, size: 0x8, addend: 0x0, symName: __ZNSt3__112construct_atB8ne180100INS_4pairIKxxEEJRKNS_21piecewise_construct_tENS_5tupleIJRS2_EEENS7_IJEEEEPS3_EEPT_SD_DpOT0_, symObjAddr: 0x8370, symBinAddr: 0x100009140, symSize: 0x40 }
  - { offset: 0x1055B, size: 0x8, addend: 0x0, symName: __ZNSt3__1neB8ne180100ERKNS_15__tree_iteratorIxPNS_11__tree_nodeIxPvEElEES7_, symObjAddr: 0x8DA0, symBinAddr: 0x100009B70, symSize: 0x30 }
  - { offset: 0x10598, size: 0x8, addend: 0x0, symName: __ZNSt3__1eqB8ne180100ERKNS_15__tree_iteratorIxPNS_11__tree_nodeIxPvEElEES7_, symObjAddr: 0x8E70, symBinAddr: 0x100009C40, symSize: 0x30 }
  - { offset: 0x105D5, size: 0x8, addend: 0x0, symName: __ZNSt3__116forward_as_tupleB8ne180100IJxEEENS_5tupleIJDpOT_EEES4_, symObjAddr: 0x9480, symBinAddr: 0x10000A250, symSize: 0x30 }
  - { offset: 0x1060E, size: 0x8, addend: 0x0, symName: __ZNSt3__114__construct_atB8ne180100INS_4pairIKxxEEJRKNS_21piecewise_construct_tENS_5tupleIJOxEEENS7_IJEEEEPS3_EEPT_SD_DpOT0_, symObjAddr: 0x9640, symBinAddr: 0x10000A410, symSize: 0x40 }
  - { offset: 0x10687, size: 0x8, addend: 0x0, symName: __ZNSt3__112construct_atB8ne180100INS_4pairIKxxEEJRKNS_21piecewise_construct_tENS_5tupleIJOxEEENS7_IJEEEEPS3_EEPT_SD_DpOT0_, symObjAddr: 0x9680, symBinAddr: 0x10000A450, symSize: 0x40 }
  - { offset: 0x10700, size: 0x8, addend: 0x0, symName: __ZNSt3__13getB8ne180100ILm0EJOxEEERNS_13tuple_elementIXT_ENS_5tupleIJDpT0_EEEE4typeERS6_, symObjAddr: 0x9770, symBinAddr: 0x10000A540, symSize: 0x20 }
  - { offset: 0x10758, size: 0x8, addend: 0x0, symName: __ZNSt3__19use_facetB8ne180100INS_5ctypeIcEEEERKT_RKNS_6localeE, symObjAddr: 0x9910, symBinAddr: 0x10000A6E0, symSize: 0x30 }
  - { offset: 0x11B86, size: 0x8, addend: 0x0, symName: __ZSt28__throw_bad_array_new_lengthB8ne180100v, symObjAddr: 0x1DC0, symBinAddr: 0x100002B90, symSize: 0x40 }
  - { offset: 0x120F1, size: 0x8, addend: 0x0, symName: _inout, symObjAddr: 0x7B2F8, symBinAddr: 0x10000C028, symSize: 0x0 }
  - { offset: 0x12106, size: 0x8, addend: 0x0, symName: _present, symObjAddr: 0x7B320, symBinAddr: 0x10000C050, symSize: 0x0 }
  - { offset: 0x1229A, size: 0x8, addend: 0x0, symName: _dir, symObjAddr: 0x7B338, symBinAddr: 0x10000C068, symSize: 0x0 }
  - { offset: 0x12710, size: 0x8, addend: 0x0, symName: _n, symObjAddr: 0x7B360, symBinAddr: 0x10000C090, symSize: 0x0 }
  - { offset: 0x12725, size: 0x8, addend: 0x0, symName: _a, symObjAddr: 0x7B368, symBinAddr: 0x10000C098, symSize: 0x0 }
  - { offset: 0x1273A, size: 0x8, addend: 0x0, symName: _b, symObjAddr: 0x7B370, symBinAddr: 0x10000C0A0, symSize: 0x0 }
  - { offset: 0x1274F, size: 0x8, addend: 0x0, symName: _visited, symObjAddr: 0x7B380, symBinAddr: 0x10000C0B0, symSize: 0x0 }
  - { offset: 0x12774, size: 0x8, addend: 0x0, symName: _exists, symObjAddr: 0x201DA8, symBinAddr: 0x100192AD8, symSize: 0x0 }
  - { offset: 0x12B34, size: 0x8, addend: 0x0, symName: _here, symObjAddr: 0x201DC0, symBinAddr: 0x100192AF0, symSize: 0x0 }
  - { offset: 0x12B49, size: 0x8, addend: 0x0, symName: _idsystem, symObjAddr: 0x201DD8, symBinAddr: 0x100192B08, symSize: 0x0 }
  - { offset: 0x12B5E, size: 0x8, addend: 0x0, symName: _res, symObjAddr: 0x201E00, symBinAddr: 0x100192B30, symSize: 0x0 }
  - { offset: 0x12E85, size: 0x8, addend: 0x0, symName: __ZNSt3__16vectorIxNS_9allocatorIxEEE26__swap_out_circular_bufferERNS_14__split_bufferIxRS2_EE, symObjAddr: 0x16F0, symBinAddr: 0x1000024C0, symSize: 0x120 }
  - { offset: 0x12FA4, size: 0x8, addend: 0x0, symName: __ZNSt3__113unordered_mapIxxNS_4hashIxEENS_8equal_toIxEENS_9allocatorINS_4pairIKxxEEEEEC1B8ne180100Ev, symObjAddr: 0x0, symBinAddr: 0x100000DD0, symSize: 0x20 }
  - { offset: 0x12FCE, size: 0x8, addend: 0x0, symName: __ZNSt3__113unordered_mapIxxNS_4hashIxEENS_8equal_toIxEENS_9allocatorINS_4pairIKxxEEEEED1B8ne180100Ev, symObjAddr: 0x20, symBinAddr: 0x100000DF0, symSize: 0x20 }
  - { offset: 0x12FF8, size: 0x8, addend: 0x0, symName: __ZNSt3__16vectorIxNS_9allocatorIxEEED1B8ne180100Ev, symObjAddr: 0x40, symBinAddr: 0x100000E10, symSize: 0x20 }
  - { offset: 0x13022, size: 0x8, addend: 0x0, symName: __ZNSt3__113unordered_mapIxNS_4pairIxxEENS_4hashIxEENS_8equal_toIxEENS_9allocatorINS1_IKxS2_EEEEEC1B8ne180100Ev, symObjAddr: 0x60, symBinAddr: 0x100000E30, symSize: 0x20 }
  - { offset: 0x1304C, size: 0x8, addend: 0x0, symName: __ZNSt3__113unordered_mapIxNS_4pairIxxEENS_4hashIxEENS_8equal_toIxEENS_9allocatorINS1_IKxS2_EEEEED1B8ne180100Ev, symObjAddr: 0x80, symBinAddr: 0x100000E50, symSize: 0x20 }
  - { offset: 0x13076, size: 0x8, addend: 0x0, symName: __ZNSt3__13setIxNS_4lessIxEENS_9allocatorIxEEEC1B8ne180100Ev, symObjAddr: 0xA0, symBinAddr: 0x100000E70, symSize: 0x20 }
  - { offset: 0x130A0, size: 0x8, addend: 0x0, symName: __ZNSt3__13setIxNS_4lessIxEENS_9allocatorIxEEED1B8ne180100Ev, symObjAddr: 0xC0, symBinAddr: 0x100000E90, symSize: 0x20 }
  - { offset: 0x130C9, size: 0x8, addend: 0x0, symName: __Z3dfsxxx, symObjAddr: 0xE0, symBinAddr: 0x100000EB0, symSize: 0x290 }
  - { offset: 0x1312A, size: 0x8, addend: 0x0, symName: __ZNSt3__13setIxNS_4lessIxEENS_9allocatorIxEEE6insertB8ne180100ERKx, symObjAddr: 0x370, symBinAddr: 0x100001140, symSize: 0x40 }
  - { offset: 0x1315F, size: 0x8, addend: 0x0, symName: __ZNSt3__113unordered_mapIxNS_4pairIxxEENS_4hashIxEENS_8equal_toIxEENS_9allocatorINS1_IKxS2_EEEEEixERS8_, symObjAddr: 0x3B0, symBinAddr: 0x100001180, symSize: 0x70 }
  - { offset: 0x13196, size: 0x8, addend: 0x0, symName: __ZNSt3__113unordered_mapIxxNS_4hashIxEENS_8equal_toIxEENS_9allocatorINS_4pairIKxxEEEEEixERS7_, symObjAddr: 0x420, symBinAddr: 0x1000011F0, symSize: 0x70 }
  - { offset: 0x131CD, size: 0x8, addend: 0x0, symName: __ZNSt3__13setIxNS_4lessIxEENS_9allocatorIxEEE4findB8ne180100ERKx, symObjAddr: 0x4C0, symBinAddr: 0x100001290, symSize: 0x40 }
  - { offset: 0x13202, size: 0x8, addend: 0x0, symName: __ZNSt3__13setIxNS_4lessIxEENS_9allocatorIxEEE3endB8ne180100Ev, symObjAddr: 0x500, symBinAddr: 0x1000012D0, symSize: 0x30 }
  - { offset: 0x13227, size: 0x8, addend: 0x0, symName: __Z3addxx, symObjAddr: 0x530, symBinAddr: 0x100001300, symSize: 0xD0 }
  - { offset: 0x1325E, size: 0x8, addend: 0x0, symName: _main, symObjAddr: 0x600, symBinAddr: 0x1000013D0, symSize: 0x660 }
  - { offset: 0x133E4, size: 0x8, addend: 0x0, symName: __ZNSt3__19basic_iosIcNS_11char_traitsIcEEE3tieB8ne180100EPNS_13basic_ostreamIcS2_EE, symObjAddr: 0xC60, symBinAddr: 0x100001A30, symSize: 0x30 }
  - { offset: 0x1342A, size: 0x8, addend: 0x0, symName: __ZNSt3__16vectorIxNS_9allocatorIxEEE9push_backB8ne180100ERKx, symObjAddr: 0xC90, symBinAddr: 0x100001A60, symSize: 0x80 }
  - { offset: 0x13475, size: 0x8, addend: 0x0, symName: __ZNSt3__14pairIxxEC1B8ne180100IiiLi0EEEOT_OT0_, symObjAddr: 0xD10, symBinAddr: 0x100001AE0, symSize: 0x30 }
  - { offset: 0x134D3, size: 0x8, addend: 0x0, symName: __ZNSt3__14pairIxxEaSB8ne180100EOS1_, symObjAddr: 0xD40, symBinAddr: 0x100001B10, symSize: 0x30 }
  - { offset: 0x13508, size: 0x8, addend: 0x0, symName: __ZNSt3__16vectorIxNS_9allocatorIxEEEixB8ne180100Em, symObjAddr: 0xD70, symBinAddr: 0x100001B40, symSize: 0x20 }
  - { offset: 0x1353F, size: 0x8, addend: 0x0, symName: __ZNSt3__113unordered_mapIxxNS_4hashIxEENS_8equal_toIxEENS_9allocatorINS_4pairIKxxEEEEEixEOx, symObjAddr: 0xDC0, symBinAddr: 0x100001B90, symSize: 0x70 }
  - { offset: 0x13576, size: 0x8, addend: 0x0, symName: __ZNSt3__113basic_ostreamIcNS_11char_traitsIcEEElsB8ne180100EPFRS3_S4_E, symObjAddr: 0xE30, symBinAddr: 0x100001C00, symSize: 0x20 }
  - { offset: 0x135AA, size: 0x8, addend: 0x0, symName: __ZNSt3__16vectorIxNS_9allocatorIxEEED2B8ne180100Ev, symObjAddr: 0xEA0, symBinAddr: 0x100001C70, symSize: 0x40 }
  - { offset: 0x135D4, size: 0x8, addend: 0x0, symName: __ZNSt3__16vectorIxNS_9allocatorIxEEE16__destroy_vectorC1B8ne180100ERS3_, symObjAddr: 0xEE0, symBinAddr: 0x100001CB0, symSize: 0x30 }
  - { offset: 0x1360D, size: 0x8, addend: 0x0, symName: __ZNSt3__16vectorIxNS_9allocatorIxEEE16__destroy_vectorclB8ne180100Ev, symObjAddr: 0xF20, symBinAddr: 0x100001CF0, symSize: 0x80 }
  - { offset: 0x13633, size: 0x8, addend: 0x0, symName: __ZNSt3__16vectorIxNS_9allocatorIxEEE16__destroy_vectorC2B8ne180100ERS3_, symObjAddr: 0xFA0, symBinAddr: 0x100001D70, symSize: 0x20 }
  - { offset: 0x1366C, size: 0x8, addend: 0x0, symName: __ZNSt3__16vectorIxNS_9allocatorIxEEE7__clearB8ne180100Ev, symObjAddr: 0xFC0, symBinAddr: 0x100001D90, symSize: 0x20 }
  - { offset: 0x13692, size: 0x8, addend: 0x0, symName: __ZNKSt3__16vectorIxNS_9allocatorIxEEE17__annotate_deleteB8ne180100Ev, symObjAddr: 0xFE0, symBinAddr: 0x100001DB0, symSize: 0x10 }
  - { offset: 0x136B8, size: 0x8, addend: 0x0, symName: __ZNSt3__116allocator_traitsINS_9allocatorIxEEE10deallocateB8ne180100ERS2_Pxm, symObjAddr: 0xFF0, symBinAddr: 0x100001DC0, symSize: 0x30 }
  - { offset: 0x136FA, size: 0x8, addend: 0x0, symName: __ZNSt3__16vectorIxNS_9allocatorIxEEE7__allocB8ne180100Ev, symObjAddr: 0x1020, symBinAddr: 0x100001DF0, symSize: 0x20 }
  - { offset: 0x13720, size: 0x8, addend: 0x0, symName: __ZNKSt3__16vectorIxNS_9allocatorIxEEE8capacityB8ne180100Ev, symObjAddr: 0x1040, symBinAddr: 0x100001E10, symSize: 0x30 }
  - { offset: 0x13746, size: 0x8, addend: 0x0, symName: __ZNSt3__16vectorIxNS_9allocatorIxEEE22__base_destruct_at_endB8ne180100EPx, symObjAddr: 0x1070, symBinAddr: 0x100001E40, symSize: 0x80 }
  - { offset: 0x1378A, size: 0x8, addend: 0x0, symName: __ZNSt3__116allocator_traitsINS_9allocatorIxEEE7destroyB8ne180100IxvvEEvRS2_PT_, symObjAddr: 0x10F0, symBinAddr: 0x100001EC0, symSize: 0x20 }
  - { offset: 0x137C4, size: 0x8, addend: 0x0, symName: __ZNSt3__19allocatorIxE10deallocateB8ne180100EPxm, symObjAddr: 0x1130, symBinAddr: 0x100001F00, symSize: 0x40 }
  - { offset: 0x13806, size: 0x8, addend: 0x0, symName: __ZNSt3__117__compressed_pairIPxNS_9allocatorIxEEE6secondB8ne180100Ev, symObjAddr: 0x1290, symBinAddr: 0x100002060, symSize: 0x20 }
  - { offset: 0x1382C, size: 0x8, addend: 0x0, symName: __ZNSt3__122__compressed_pair_elemINS_9allocatorIxEELi1ELb1EE5__getB8ne180100Ev, symObjAddr: 0x12B0, symBinAddr: 0x100002080, symSize: 0x10 }
  - { offset: 0x13852, size: 0x8, addend: 0x0, symName: __ZNKSt3__16vectorIxNS_9allocatorIxEEE9__end_capB8ne180100Ev, symObjAddr: 0x12C0, symBinAddr: 0x100002090, symSize: 0x20 }
  - { offset: 0x13878, size: 0x8, addend: 0x0, symName: __ZNKSt3__117__compressed_pairIPxNS_9allocatorIxEEE5firstB8ne180100Ev, symObjAddr: 0x12E0, symBinAddr: 0x1000020B0, symSize: 0x20 }
  - { offset: 0x1389E, size: 0x8, addend: 0x0, symName: __ZNKSt3__122__compressed_pair_elemIPxLi0ELb0EE5__getB8ne180100Ev, symObjAddr: 0x1300, symBinAddr: 0x1000020D0, symSize: 0x10 }
  - { offset: 0x138C4, size: 0x8, addend: 0x0, symName: __ZNSt3__16vectorIxNS_9allocatorIxEEE9__end_capB8ne180100Ev, symObjAddr: 0x1310, symBinAddr: 0x1000020E0, symSize: 0x20 }
  - { offset: 0x138EA, size: 0x8, addend: 0x0, symName: __ZNSt3__16vectorIxNS_9allocatorIxEEE22__construct_one_at_endB8ne180100IJRKxEEEvDpOT_, symObjAddr: 0x1330, symBinAddr: 0x100002100, symSize: 0x90 }
  - { offset: 0x13939, size: 0x8, addend: 0x0, symName: __ZNSt3__16vectorIxNS_9allocatorIxEEE21__push_back_slow_pathIRKxEEPxOT_, symObjAddr: 0x13C0, symBinAddr: 0x100002190, symSize: 0xE0 }
  - { offset: 0x13997, size: 0x8, addend: 0x0, symName: __ZNSt3__117__compressed_pairIPxNS_9allocatorIxEEE5firstB8ne180100Ev, symObjAddr: 0x14A0, symBinAddr: 0x100002270, symSize: 0x20 }
  - { offset: 0x139BD, size: 0x8, addend: 0x0, symName: __ZNSt3__122__compressed_pair_elemIPxLi0ELb0EE5__getB8ne180100Ev, symObjAddr: 0x14C0, symBinAddr: 0x100002290, symSize: 0x10 }
  - { offset: 0x139FC, size: 0x8, addend: 0x0, symName: __ZNSt3__16vectorIxNS_9allocatorIxEEE21_ConstructTransactionC1B8ne180100ERS3_m, symObjAddr: 0x14D0, symBinAddr: 0x1000022A0, symSize: 0x30 }
  - { offset: 0x13A44, size: 0x8, addend: 0x0, symName: __ZNSt3__116allocator_traitsINS_9allocatorIxEEE9constructB8ne180100IxJRKxEvvEEvRS2_PT_DpOT0_, symObjAddr: 0x1500, symBinAddr: 0x1000022D0, symSize: 0x30 }
  - { offset: 0x13A98, size: 0x8, addend: 0x0, symName: __ZNSt3__16vectorIxNS_9allocatorIxEEE21_ConstructTransactionD1B8ne180100Ev, symObjAddr: 0x1530, symBinAddr: 0x100002300, symSize: 0x20 }
  - { offset: 0x13AC2, size: 0x8, addend: 0x0, symName: __ZNSt3__16vectorIxNS_9allocatorIxEEE21_ConstructTransactionC2B8ne180100ERS3_m, symObjAddr: 0x1550, symBinAddr: 0x100002320, symSize: 0x40 }
  - { offset: 0x13B0A, size: 0x8, addend: 0x0, symName: __ZNSt3__16vectorIxNS_9allocatorIxEEE21_ConstructTransactionD2B8ne180100Ev, symObjAddr: 0x15E0, symBinAddr: 0x1000023B0, symSize: 0x20 }
  - { offset: 0x13B34, size: 0x8, addend: 0x0, symName: __ZNKSt3__16vectorIxNS_9allocatorIxEEE11__recommendB8ne180100Em, symObjAddr: 0x1600, symBinAddr: 0x1000023D0, symSize: 0x90 }
  - { offset: 0x13B89, size: 0x8, addend: 0x0, symName: __ZNKSt3__16vectorIxNS_9allocatorIxEEE4sizeB8ne180100Ev, symObjAddr: 0x1690, symBinAddr: 0x100002460, symSize: 0x20 }
  - { offset: 0x13BAF, size: 0x8, addend: 0x0, symName: __ZNSt3__114__split_bufferIxRNS_9allocatorIxEEEC1EmmS3_, symObjAddr: 0x16B0, symBinAddr: 0x100002480, symSize: 0x40 }
  - { offset: 0x13C05, size: 0x8, addend: 0x0, symName: __ZNSt3__114__split_bufferIxRNS_9allocatorIxEEED1Ev, symObjAddr: 0x1810, symBinAddr: 0x1000025E0, symSize: 0x20 }
  - { offset: 0x13C31, size: 0x8, addend: 0x0, symName: __ZNKSt3__16vectorIxNS_9allocatorIxEEE8max_sizeEv, symObjAddr: 0x1830, symBinAddr: 0x100002600, symSize: 0x60 }
  - { offset: 0x13C59, size: 0x8, addend: 0x0, symName: __ZNKSt3__16vectorIxNS_9allocatorIxEEE20__throw_length_errorB8ne180100Ev, symObjAddr: 0x1890, symBinAddr: 0x100002660, symSize: 0x20 }
  - { offset: 0x13C89, size: 0x8, addend: 0x0, symName: __ZNSt3__116allocator_traitsINS_9allocatorIxEEE8max_sizeB8ne180100IS2_vvEEmRKS2_, symObjAddr: 0x1910, symBinAddr: 0x1000026E0, symSize: 0x20 }
  - { offset: 0x13CB4, size: 0x8, addend: 0x0, symName: __ZNKSt3__16vectorIxNS_9allocatorIxEEE7__allocB8ne180100Ev, symObjAddr: 0x1930, symBinAddr: 0x100002700, symSize: 0x20 }
  - { offset: 0x13CDA, size: 0x8, addend: 0x0, symName: __ZNSt3__114numeric_limitsIlE3maxB8ne180100Ev, symObjAddr: 0x1950, symBinAddr: 0x100002720, symSize: 0x10 }
  - { offset: 0x13CF8, size: 0x8, addend: 0x0, symName: __ZNKSt3__16__lessIvvEclB8ne180100ImmEEbRKT_RKT0_, symObjAddr: 0x19B0, symBinAddr: 0x100002780, symSize: 0x30 }
  - { offset: 0x13D4C, size: 0x8, addend: 0x0, symName: __ZNSt3__114numeric_limitsImE3maxB8ne180100Ev, symObjAddr: 0x19E0, symBinAddr: 0x1000027B0, symSize: 0x10 }
  - { offset: 0x13D60, size: 0x8, addend: 0x0, symName: __ZNSt3__123__libcpp_numeric_limitsImLb1EE3maxB8ne180100Ev, symObjAddr: 0x19F0, symBinAddr: 0x1000027C0, symSize: 0x10 }
  - { offset: 0x13D74, size: 0x8, addend: 0x0, symName: __ZNKSt3__117__compressed_pairIPxNS_9allocatorIxEEE6secondB8ne180100Ev, symObjAddr: 0x1A00, symBinAddr: 0x1000027D0, symSize: 0x20 }
  - { offset: 0x13D9A, size: 0x8, addend: 0x0, symName: __ZNKSt3__122__compressed_pair_elemINS_9allocatorIxEELi1ELb1EE5__getB8ne180100Ev, symObjAddr: 0x1A20, symBinAddr: 0x1000027F0, symSize: 0x10 }
  - { offset: 0x13DC0, size: 0x8, addend: 0x0, symName: __ZNSt3__123__libcpp_numeric_limitsIlLb1EE3maxB8ne180100Ev, symObjAddr: 0x1A30, symBinAddr: 0x100002800, symSize: 0x10 }
  - { offset: 0x13DD4, size: 0x8, addend: 0x0, symName: __ZNSt12length_errorC1B8ne180100EPKc, symObjAddr: 0x1AB0, symBinAddr: 0x100002880, symSize: 0x30 }
  - { offset: 0x13E0C, size: 0x8, addend: 0x0, symName: __ZNSt12length_errorC2B8ne180100EPKc, symObjAddr: 0x1AE0, symBinAddr: 0x1000028B0, symSize: 0x40 }
  - { offset: 0x13E44, size: 0x8, addend: 0x0, symName: __ZNSt3__114__split_bufferIxRNS_9allocatorIxEEEC2EmmS3_, symObjAddr: 0x1B70, symBinAddr: 0x100002940, symSize: 0xD0 }
  - { offset: 0x13EBC, size: 0x8, addend: 0x0, symName: __ZNSt3__117__compressed_pairIPxRNS_9allocatorIxEEEC1B8ne180100IDnS4_EEOT_OT0_, symObjAddr: 0x1C40, symBinAddr: 0x100002A10, symSize: 0x30 }
  - { offset: 0x13F14, size: 0x8, addend: 0x0, symName: __ZNSt3__114__split_bufferIxRNS_9allocatorIxEEE7__allocB8ne180100Ev, symObjAddr: 0x1CB0, symBinAddr: 0x100002A80, symSize: 0x20 }
  - { offset: 0x13F3A, size: 0x8, addend: 0x0, symName: __ZNSt3__114__split_bufferIxRNS_9allocatorIxEEE9__end_capB8ne180100Ev, symObjAddr: 0x1CD0, symBinAddr: 0x100002AA0, symSize: 0x20 }
  - { offset: 0x13F60, size: 0x8, addend: 0x0, symName: __ZNSt3__117__compressed_pairIPxRNS_9allocatorIxEEEC2B8ne180100IDnS4_EEOT_OT0_, symObjAddr: 0x1CF0, symBinAddr: 0x100002AC0, symSize: 0x40 }
  - { offset: 0x13FB8, size: 0x8, addend: 0x0, symName: __ZNSt3__122__compressed_pair_elemIPxLi0ELb0EEC2B8ne180100IDnvEEOT_, symObjAddr: 0x1D30, symBinAddr: 0x100002B00, symSize: 0x20 }
  - { offset: 0x13FFA, size: 0x8, addend: 0x0, symName: __ZNSt3__122__compressed_pair_elemIRNS_9allocatorIxEELi1ELb0EEC2B8ne180100IS3_vEEOT_, symObjAddr: 0x1D50, symBinAddr: 0x100002B20, symSize: 0x20 }
  - { offset: 0x1403C, size: 0x8, addend: 0x0, symName: __ZNSt3__19allocatorIxE8allocateB8ne180100Em, symObjAddr: 0x1D70, symBinAddr: 0x100002B40, symSize: 0x50 }
  - { offset: 0x14070, size: 0x8, addend: 0x0, symName: __ZNSt3__117__compressed_pairIPxRNS_9allocatorIxEEE6secondB8ne180100Ev, symObjAddr: 0x1EB0, symBinAddr: 0x100002C80, symSize: 0x20 }
  - { offset: 0x14096, size: 0x8, addend: 0x0, symName: __ZNSt3__122__compressed_pair_elemIRNS_9allocatorIxEELi1ELb0EE5__getB8ne180100Ev, symObjAddr: 0x1ED0, symBinAddr: 0x100002CA0, symSize: 0x20 }
  - { offset: 0x140BC, size: 0x8, addend: 0x0, symName: __ZNSt3__117__compressed_pairIPxRNS_9allocatorIxEEE5firstB8ne180100Ev, symObjAddr: 0x1EF0, symBinAddr: 0x100002CC0, symSize: 0x20 }
  - { offset: 0x140E2, size: 0x8, addend: 0x0, symName: __ZNSt3__116reverse_iteratorIPxEC1B8ne180100ES1_, symObjAddr: 0x1F80, symBinAddr: 0x100002D50, symSize: 0x30 }
  - { offset: 0x1411A, size: 0x8, addend: 0x0, symName: __ZNKSt3__116reverse_iteratorIPxE4baseB8ne180100Ev, symObjAddr: 0x1FB0, symBinAddr: 0x100002D80, symSize: 0x20 }
  - { offset: 0x14140, size: 0x8, addend: 0x0, symName: __ZNKSt3__16vectorIxNS_9allocatorIxEEE14__annotate_newB8ne180100Em, symObjAddr: 0x2010, symBinAddr: 0x100002DE0, symSize: 0x10 }
  - { offset: 0x14198, size: 0x8, addend: 0x0, symName: __ZNKSt3__111__move_loopINS_17_ClassicAlgPolicyEEclB8ne180100INS_16reverse_iteratorIPxEES6_S6_EENS_4pairIT_T1_EES8_T0_S9_, symObjAddr: 0x2430, symBinAddr: 0x100003200, symSize: 0xA0 }
  - { offset: 0x14203, size: 0x8, addend: 0x0, symName: __ZNSt3__119__unwrap_range_implINS_16reverse_iteratorIPxEES3_E8__unwrapB8ne180100ES3_S3_, symObjAddr: 0x2610, symBinAddr: 0x1000033E0, symSize: 0x90 }
  - { offset: 0x14239, size: 0x8, addend: 0x0, symName: __ZNSt3__14pairINS_16reverse_iteratorIPxEES3_EC1B8ne180100IS3_S3_Li0EEEOT_OT0_, symObjAddr: 0x26A0, symBinAddr: 0x100003470, symSize: 0x30 }
  - { offset: 0x14297, size: 0x8, addend: 0x0, symName: __ZNSt3__14pairINS_16reverse_iteratorIPxEES3_EC2B8ne180100IS3_S3_Li0EEEOT_OT0_, symObjAddr: 0x26D0, symBinAddr: 0x1000034A0, symSize: 0x40 }
  - { offset: 0x142FA, size: 0x8, addend: 0x0, symName: __ZNSt3__18_IterOpsINS_17_ClassicAlgPolicyEE11__iter_moveB8ne180100IRNS_16reverse_iteratorIPxEELi0EEEDTclsr3stdE4movedeclsr3stdE7declvalIRT_EEEEOS8_, symObjAddr: 0x2750, symBinAddr: 0x100003520, symSize: 0x20 }
  - { offset: 0x1432C, size: 0x8, addend: 0x0, symName: __ZNKSt3__116reverse_iteratorIPxEdeB8ne180100Ev, symObjAddr: 0x2770, symBinAddr: 0x100003540, symSize: 0x30 }
  - { offset: 0x14360, size: 0x8, addend: 0x0, symName: __ZNSt3__116reverse_iteratorIPxEppB8ne180100Ev, symObjAddr: 0x27A0, symBinAddr: 0x100003570, symSize: 0x20 }
  - { offset: 0x14386, size: 0x8, addend: 0x0, symName: __ZNSt3__18_IterOpsINS_17_ClassicAlgPolicyEE25__validate_iter_referenceB8ne180100IRNS_16reverse_iteratorIPxEEEEvv, symObjAddr: 0x27C0, symBinAddr: 0x100003590, symSize: 0x10 }
  - { offset: 0x143A4, size: 0x8, addend: 0x0, symName: __ZNSt3__118__unwrap_iter_implINS_16reverse_iteratorIPxEELb0EE8__unwrapB8ne180100ES3_, symObjAddr: 0x27D0, symBinAddr: 0x1000035A0, symSize: 0x20 }
  - { offset: 0x143C7, size: 0x8, addend: 0x0, symName: __ZNSt3__119__unwrap_range_implINS_16reverse_iteratorIPxEES3_E8__rewrapB8ne180100ES3_S3_, symObjAddr: 0x27F0, symBinAddr: 0x1000035C0, symSize: 0x60 }
  - { offset: 0x143F8, size: 0x8, addend: 0x0, symName: __ZNSt3__118__unwrap_iter_implINS_16reverse_iteratorIPxEELb0EE8__rewrapB8ne180100ES3_S3_, symObjAddr: 0x2850, symBinAddr: 0x100003620, symSize: 0x30 }
  - { offset: 0x14426, size: 0x8, addend: 0x0, symName: __ZNSt3__116reverse_iteratorIPxEC2B8ne180100ES1_, symObjAddr: 0x2880, symBinAddr: 0x100003650, symSize: 0x30 }
  - { offset: 0x1445E, size: 0x8, addend: 0x0, symName: __ZNSt3__114__split_bufferIxRNS_9allocatorIxEEED2Ev, symObjAddr: 0x28B0, symBinAddr: 0x100003680, symSize: 0x70 }
  - { offset: 0x1448A, size: 0x8, addend: 0x0, symName: __ZNSt3__114__split_bufferIxRNS_9allocatorIxEEE5clearB8ne180100Ev, symObjAddr: 0x2920, symBinAddr: 0x1000036F0, symSize: 0x20 }
  - { offset: 0x144B0, size: 0x8, addend: 0x0, symName: __ZNKSt3__114__split_bufferIxRNS_9allocatorIxEEE8capacityB8ne180100Ev, symObjAddr: 0x2940, symBinAddr: 0x100003710, symSize: 0x30 }
  - { offset: 0x144D6, size: 0x8, addend: 0x0, symName: __ZNSt3__114__split_bufferIxRNS_9allocatorIxEEE17__destruct_at_endB8ne180100EPx, symObjAddr: 0x2970, symBinAddr: 0x100003740, symSize: 0x30 }
  - { offset: 0x1450A, size: 0x8, addend: 0x0, symName: __ZNSt3__114__split_bufferIxRNS_9allocatorIxEEE17__destruct_at_endB8ne180100EPxNS_17integral_constantIbLb0EEE, symObjAddr: 0x29A0, symBinAddr: 0x100003770, symSize: 0x80 }
  - { offset: 0x1454B, size: 0x8, addend: 0x0, symName: __ZNKSt3__114__split_bufferIxRNS_9allocatorIxEEE9__end_capB8ne180100Ev, symObjAddr: 0x2A20, symBinAddr: 0x1000037F0, symSize: 0x20 }
  - { offset: 0x14571, size: 0x8, addend: 0x0, symName: __ZNKSt3__117__compressed_pairIPxRNS_9allocatorIxEEE5firstB8ne180100Ev, symObjAddr: 0x2A40, symBinAddr: 0x100003810, symSize: 0x20 }
  - { offset: 0x14597, size: 0x8, addend: 0x0, symName: __ZNSt3__14pairIxxEC2B8ne180100IiiLi0EEEOT_OT0_, symObjAddr: 0x2A60, symBinAddr: 0x100003830, symSize: 0x30 }
  - { offset: 0x145F5, size: 0x8, addend: 0x0, symName: __ZNSt3__113unordered_mapIxxNS_4hashIxEENS_8equal_toIxEENS_9allocatorINS_4pairIKxxEEEEEC2B8ne180100Ev, symObjAddr: 0x2A90, symBinAddr: 0x100003860, symSize: 0x20 }
  - { offset: 0x1461F, size: 0x8, addend: 0x0, symName: __ZNSt3__112__hash_tableINS_17__hash_value_typeIxxEENS_22__unordered_map_hasherIxS2_NS_4hashIxEENS_8equal_toIxEELb1EEENS_21__unordered_map_equalIxS2_S7_S5_Lb1EEENS_9allocatorIS2_EEEC1Ev, symObjAddr: 0x2AB0, symBinAddr: 0x100003880, symSize: 0x20 }
  - { offset: 0x1464B, size: 0x8, addend: 0x0, symName: __ZNSt3__112__hash_tableINS_17__hash_value_typeIxxEENS_22__unordered_map_hasherIxS2_NS_4hashIxEENS_8equal_toIxEELb1EEENS_21__unordered_map_equalIxS2_S7_S5_Lb1EEENS_9allocatorIS2_EEEC2Ev, symObjAddr: 0x2AD0, symBinAddr: 0x1000038A0, symSize: 0x80 }
  - { offset: 0x14677, size: 0x8, addend: 0x0, symName: __ZNSt3__110unique_ptrIA_PNS_16__hash_node_baseIPNS_11__hash_nodeINS_17__hash_value_typeIxxEEPvEEEENS_25__bucket_list_deallocatorINS_9allocatorIS9_EEEEEC1B8ne180100ILb1EvEEv, symObjAddr: 0x2B50, symBinAddr: 0x100003920, symSize: 0x20 }
  - { offset: 0x146AC, size: 0x8, addend: 0x0, symName: __ZNSt3__117__compressed_pairINS_16__hash_node_baseIPNS_11__hash_nodeINS_17__hash_value_typeIxxEEPvEEEENS_9allocatorIS6_EEEC1B8ne180100ILb1EvEEv, symObjAddr: 0x2B70, symBinAddr: 0x100003940, symSize: 0x20 }
  - { offset: 0x146E6, size: 0x8, addend: 0x0, symName: __ZNSt3__117__compressed_pairImNS_22__unordered_map_hasherIxNS_17__hash_value_typeIxxEENS_4hashIxEENS_8equal_toIxEELb1EEEEC1B8ne180100IiNS_18__default_init_tagEEEOT_OT0_, symObjAddr: 0x2B90, symBinAddr: 0x100003960, symSize: 0x30 }
  - { offset: 0x14743, size: 0x8, addend: 0x0, symName: __ZNSt3__117__compressed_pairIfNS_21__unordered_map_equalIxNS_17__hash_value_typeIxxEENS_8equal_toIxEENS_4hashIxEELb1EEEEC1B8ne180100IfNS_18__default_init_tagEEEOT_OT0_, symObjAddr: 0x2BC0, symBinAddr: 0x100003990, symSize: 0x30 }
  - { offset: 0x1479B, size: 0x8, addend: 0x0, symName: __ZNSt3__110unique_ptrIA_PNS_16__hash_node_baseIPNS_11__hash_nodeINS_17__hash_value_typeIxxEEPvEEEENS_25__bucket_list_deallocatorINS_9allocatorIS9_EEEEEC2B8ne180100ILb1EvEEv, symObjAddr: 0x2BF0, symBinAddr: 0x1000039C0, symSize: 0x30 }
  - { offset: 0x147D5, size: 0x8, addend: 0x0, symName: __ZNSt3__117__compressed_pairIPPNS_16__hash_node_baseIPNS_11__hash_nodeINS_17__hash_value_typeIxxEEPvEEEENS_25__bucket_list_deallocatorINS_9allocatorIS9_EEEEEC1B8ne180100INS_16__value_init_tagESH_EEOT_OT0_, symObjAddr: 0x2C20, symBinAddr: 0x1000039F0, symSize: 0x30 }
  - { offset: 0x1482D, size: 0x8, addend: 0x0, symName: __ZNSt3__117__compressed_pairIPPNS_16__hash_node_baseIPNS_11__hash_nodeINS_17__hash_value_typeIxxEEPvEEEENS_25__bucket_list_deallocatorINS_9allocatorIS9_EEEEEC2B8ne180100INS_16__value_init_tagESH_EEOT_OT0_, symObjAddr: 0x2C50, symBinAddr: 0x100003A20, symSize: 0x40 }
  - { offset: 0x14885, size: 0x8, addend: 0x0, symName: __ZNSt3__122__compressed_pair_elemIPPNS_16__hash_node_baseIPNS_11__hash_nodeINS_17__hash_value_typeIxxEEPvEEEELi0ELb0EEC2B8ne180100ENS_16__value_init_tagE, symObjAddr: 0x2C90, symBinAddr: 0x100003A60, symSize: 0x20 }
  - { offset: 0x148BA, size: 0x8, addend: 0x0, symName: __ZNSt3__122__compressed_pair_elemINS_25__bucket_list_deallocatorINS_9allocatorIPNS_16__hash_node_baseIPNS_11__hash_nodeINS_17__hash_value_typeIxxEEPvEEEEEEEELi1ELb0EEC2B8ne180100ENS_16__value_init_tagE, symObjAddr: 0x2CB0, symBinAddr: 0x100003A80, symSize: 0x20 }
  - { offset: 0x148EF, size: 0x8, addend: 0x0, symName: __ZNSt3__125__bucket_list_deallocatorINS_9allocatorIPNS_16__hash_node_baseIPNS_11__hash_nodeINS_17__hash_value_typeIxxEEPvEEEEEEEC1B8ne180100Ev, symObjAddr: 0x2CD0, symBinAddr: 0x100003AA0, symSize: 0x20 }
  - { offset: 0x14919, size: 0x8, addend: 0x0, symName: __ZNSt3__125__bucket_list_deallocatorINS_9allocatorIPNS_16__hash_node_baseIPNS_11__hash_nodeINS_17__hash_value_typeIxxEEPvEEEEEEEC2B8ne180100Ev, symObjAddr: 0x2CF0, symBinAddr: 0x100003AC0, symSize: 0x40 }
  - { offset: 0x14943, size: 0x8, addend: 0x0, symName: __ZNSt3__117__compressed_pairImNS_9allocatorIPNS_16__hash_node_baseIPNS_11__hash_nodeINS_17__hash_value_typeIxxEEPvEEEEEEEC1B8ne180100IiNS_18__default_init_tagEEEOT_OT0_, symObjAddr: 0x2D30, symBinAddr: 0x100003B00, symSize: 0x30 }
  - { offset: 0x1499B, size: 0x8, addend: 0x0, symName: __ZNSt3__117__compressed_pairImNS_9allocatorIPNS_16__hash_node_baseIPNS_11__hash_nodeINS_17__hash_value_typeIxxEEPvEEEEEEEC2B8ne180100IiNS_18__default_init_tagEEEOT_OT0_, symObjAddr: 0x2D60, symBinAddr: 0x100003B30, symSize: 0x40 }
  - { offset: 0x149F3, size: 0x8, addend: 0x0, symName: __ZNSt3__122__compressed_pair_elemImLi0ELb0EEC2B8ne180100IivEEOT_, symObjAddr: 0x2DA0, symBinAddr: 0x100003B70, symSize: 0x20 }
  - { offset: 0x14A35, size: 0x8, addend: 0x0, symName: __ZNSt3__122__compressed_pair_elemINS_9allocatorIPNS_16__hash_node_baseIPNS_11__hash_nodeINS_17__hash_value_typeIxxEEPvEEEEEELi1ELb1EEC2B8ne180100ENS_18__default_init_tagE, symObjAddr: 0x2DC0, symBinAddr: 0x100003B90, symSize: 0x20 }
  - { offset: 0x14A6A, size: 0x8, addend: 0x0, symName: __ZNSt3__19allocatorIPNS_16__hash_node_baseIPNS_11__hash_nodeINS_17__hash_value_typeIxxEEPvEEEEEC2B8ne180100Ev, symObjAddr: 0x2DE0, symBinAddr: 0x100003BB0, symSize: 0x20 }
  - { offset: 0x14A94, size: 0x8, addend: 0x0, symName: __ZNSt3__116__non_trivial_ifILb1ENS_9allocatorIPNS_16__hash_node_baseIPNS_11__hash_nodeINS_17__hash_value_typeIxxEEPvEEEEEEEC2B8ne180100Ev, symObjAddr: 0x2E00, symBinAddr: 0x100003BD0, symSize: 0x10 }
  - { offset: 0x14ABE, size: 0x8, addend: 0x0, symName: __ZNSt3__117__compressed_pairINS_16__hash_node_baseIPNS_11__hash_nodeINS_17__hash_value_typeIxxEEPvEEEENS_9allocatorIS6_EEEC2B8ne180100ILb1EvEEv, symObjAddr: 0x2E10, symBinAddr: 0x100003BE0, symSize: 0x30 }
  - { offset: 0x14AF3, size: 0x8, addend: 0x0, symName: __ZNSt3__122__compressed_pair_elemINS_16__hash_node_baseIPNS_11__hash_nodeINS_17__hash_value_typeIxxEEPvEEEELi0ELb0EEC2B8ne180100ENS_16__value_init_tagE, symObjAddr: 0x2E40, symBinAddr: 0x100003C10, symSize: 0x20 }
  - { offset: 0x14B28, size: 0x8, addend: 0x0, symName: __ZNSt3__122__compressed_pair_elemINS_9allocatorINS_11__hash_nodeINS_17__hash_value_typeIxxEEPvEEEELi1ELb1EEC2B8ne180100ENS_16__value_init_tagE, symObjAddr: 0x2E60, symBinAddr: 0x100003C30, symSize: 0x20 }
  - { offset: 0x14B5D, size: 0x8, addend: 0x0, symName: __ZNSt3__116__hash_node_baseIPNS_11__hash_nodeINS_17__hash_value_typeIxxEEPvEEEC1B8ne180100Ev, symObjAddr: 0x2E80, symBinAddr: 0x100003C50, symSize: 0x20 }
  - { offset: 0x14B87, size: 0x8, addend: 0x0, symName: __ZNSt3__116__hash_node_baseIPNS_11__hash_nodeINS_17__hash_value_typeIxxEEPvEEEC2B8ne180100Ev, symObjAddr: 0x2EA0, symBinAddr: 0x100003C70, symSize: 0x20 }
  - { offset: 0x14BB1, size: 0x8, addend: 0x0, symName: __ZNSt3__19allocatorINS_11__hash_nodeINS_17__hash_value_typeIxxEEPvEEEC2B8ne180100Ev, symObjAddr: 0x2EC0, symBinAddr: 0x100003C90, symSize: 0x20 }
  - { offset: 0x14BDB, size: 0x8, addend: 0x0, symName: __ZNSt3__116__non_trivial_ifILb1ENS_9allocatorINS_11__hash_nodeINS_17__hash_value_typeIxxEEPvEEEEEC2B8ne180100Ev, symObjAddr: 0x2EE0, symBinAddr: 0x100003CB0, symSize: 0x10 }
  - { offset: 0x14C05, size: 0x8, addend: 0x0, symName: __ZNSt3__117__compressed_pairImNS_22__unordered_map_hasherIxNS_17__hash_value_typeIxxEENS_4hashIxEENS_8equal_toIxEELb1EEEEC2B8ne180100IiNS_18__default_init_tagEEEOT_OT0_, symObjAddr: 0x2EF0, symBinAddr: 0x100003CC0, symSize: 0x40 }
  - { offset: 0x14C5D, size: 0x8, addend: 0x0, symName: __ZNSt3__122__compressed_pair_elemINS_22__unordered_map_hasherIxNS_17__hash_value_typeIxxEENS_4hashIxEENS_8equal_toIxEELb1EEELi1ELb1EEC2B8ne180100ENS_18__default_init_tagE, symObjAddr: 0x2F30, symBinAddr: 0x100003D00, symSize: 0x20 }
  - { offset: 0x14C92, size: 0x8, addend: 0x0, symName: __ZNSt3__122__unordered_map_hasherIxNS_17__hash_value_typeIxxEENS_4hashIxEENS_8equal_toIxEELb1EEC2B8ne180100Ev, symObjAddr: 0x2F50, symBinAddr: 0x100003D20, symSize: 0x10 }
  - { offset: 0x14CBC, size: 0x8, addend: 0x0, symName: __ZNSt3__117__compressed_pairIfNS_21__unordered_map_equalIxNS_17__hash_value_typeIxxEENS_8equal_toIxEENS_4hashIxEELb1EEEEC2B8ne180100IfNS_18__default_init_tagEEEOT_OT0_, symObjAddr: 0x2F60, symBinAddr: 0x100003D30, symSize: 0x40 }
  - { offset: 0x14D14, size: 0x8, addend: 0x0, symName: __ZNSt3__122__compressed_pair_elemIfLi0ELb0EEC2B8ne180100IfvEEOT_, symObjAddr: 0x2FA0, symBinAddr: 0x100003D70, symSize: 0x20 }
  - { offset: 0x14D56, size: 0x8, addend: 0x0, symName: __ZNSt3__122__compressed_pair_elemINS_21__unordered_map_equalIxNS_17__hash_value_typeIxxEENS_8equal_toIxEENS_4hashIxEELb1EEELi1ELb1EEC2B8ne180100ENS_18__default_init_tagE, symObjAddr: 0x2FC0, symBinAddr: 0x100003D90, symSize: 0x20 }
  - { offset: 0x14D8B, size: 0x8, addend: 0x0, symName: __ZNSt3__121__unordered_map_equalIxNS_17__hash_value_typeIxxEENS_8equal_toIxEENS_4hashIxEELb1EEC2B8ne180100Ev, symObjAddr: 0x2FE0, symBinAddr: 0x100003DB0, symSize: 0x10 }
  - { offset: 0x14DB5, size: 0x8, addend: 0x0, symName: __ZNSt3__113unordered_mapIxxNS_4hashIxEENS_8equal_toIxEENS_9allocatorINS_4pairIKxxEEEEED2B8ne180100Ev, symObjAddr: 0x2FF0, symBinAddr: 0x100003DC0, symSize: 0x20 }
  - { offset: 0x14DDF, size: 0x8, addend: 0x0, symName: __ZNSt3__112__hash_tableINS_17__hash_value_typeIxxEENS_22__unordered_map_hasherIxS2_NS_4hashIxEENS_8equal_toIxEELb1EEENS_21__unordered_map_equalIxS2_S7_S5_Lb1EEENS_9allocatorIS2_EEED1Ev, symObjAddr: 0x3010, symBinAddr: 0x100003DE0, symSize: 0x20 }
  - { offset: 0x14E0B, size: 0x8, addend: 0x0, symName: __ZNSt3__112__hash_tableINS_17__hash_value_typeIxxEENS_22__unordered_map_hasherIxS2_NS_4hashIxEENS_8equal_toIxEELb1EEENS_21__unordered_map_equalIxS2_S7_S5_Lb1EEENS_9allocatorIS2_EEED2Ev, symObjAddr: 0x3030, symBinAddr: 0x100003E00, symSize: 0x40 }
  - { offset: 0x14E37, size: 0x8, addend: 0x0, symName: __ZNSt3__112__hash_tableINS_17__hash_value_typeIxxEENS_22__unordered_map_hasherIxS2_NS_4hashIxEENS_8equal_toIxEELb1EEENS_21__unordered_map_equalIxS2_S7_S5_Lb1EEENS_9allocatorIS2_EEE17__deallocate_nodeEPNS_16__hash_node_baseIPNS_11__hash_nodeIS2_PvEEEE, symObjAddr: 0x3070, symBinAddr: 0x100003E40, symSize: 0xC0 }
  - { offset: 0x14EA2, size: 0x8, addend: 0x0, symName: __ZNSt3__117__compressed_pairINS_16__hash_node_baseIPNS_11__hash_nodeINS_17__hash_value_typeIxxEEPvEEEENS_9allocatorIS6_EEE5firstB8ne180100Ev, symObjAddr: 0x3130, symBinAddr: 0x100003F00, symSize: 0x20 }
  - { offset: 0x14EC8, size: 0x8, addend: 0x0, symName: __ZNSt3__110unique_ptrIA_PNS_16__hash_node_baseIPNS_11__hash_nodeINS_17__hash_value_typeIxxEEPvEEEENS_25__bucket_list_deallocatorINS_9allocatorIS9_EEEEED1B8ne180100Ev, symObjAddr: 0x3150, symBinAddr: 0x100003F20, symSize: 0x20 }
  - { offset: 0x14EF2, size: 0x8, addend: 0x0, symName: __ZNSt3__112__hash_tableINS_17__hash_value_typeIxxEENS_22__unordered_map_hasherIxS2_NS_4hashIxEENS_8equal_toIxEELb1EEENS_21__unordered_map_equalIxS2_S7_S5_Lb1EEENS_9allocatorIS2_EEE12__node_allocB8ne180100Ev, symObjAddr: 0x3170, symBinAddr: 0x100003F40, symSize: 0x20 }
  - { offset: 0x14F18, size: 0x8, addend: 0x0, symName: __ZNSt3__116__hash_node_baseIPNS_11__hash_nodeINS_17__hash_value_typeIxxEEPvEEE8__upcastB8ne180100Ev, symObjAddr: 0x3190, symBinAddr: 0x100003F60, symSize: 0x20 }
  - { offset: 0x14F3E, size: 0x8, addend: 0x0, symName: __ZNSt3__116allocator_traitsINS_9allocatorINS_11__hash_nodeINS_17__hash_value_typeIxxEEPvEEEEE7destroyB8ne180100INS_4pairIKxxEEvvEEvRS7_PT_, symObjAddr: 0x31B0, symBinAddr: 0x100003F80, symSize: 0x20 }
  - { offset: 0x14F78, size: 0x8, addend: 0x0, symName: __ZNSt3__122__hash_key_value_typesINS_17__hash_value_typeIxxEEE9__get_ptrB8ne180100ERS2_, symObjAddr: 0x31D0, symBinAddr: 0x100003FA0, symSize: 0x20 }
  - { offset: 0x14F9B, size: 0x8, addend: 0x0, symName: __ZNSt3__111__hash_nodeINS_17__hash_value_typeIxxEEPvE11__get_valueB8ne180100Ev, symObjAddr: 0x31F0, symBinAddr: 0x100003FC0, symSize: 0x20 }
  - { offset: 0x14FC1, size: 0x8, addend: 0x0, symName: __ZNSt3__116allocator_traitsINS_9allocatorINS_11__hash_nodeINS_17__hash_value_typeIxxEEPvEEEEE10deallocateB8ne180100ERS7_PS6_m, symObjAddr: 0x3230, symBinAddr: 0x100004000, symSize: 0x30 }
  - { offset: 0x15003, size: 0x8, addend: 0x0, symName: __ZNSt3__117__compressed_pairINS_16__hash_node_baseIPNS_11__hash_nodeINS_17__hash_value_typeIxxEEPvEEEENS_9allocatorIS6_EEE6secondB8ne180100Ev, symObjAddr: 0x3260, symBinAddr: 0x100004030, symSize: 0x20 }
  - { offset: 0x15029, size: 0x8, addend: 0x0, symName: __ZNSt3__122__compressed_pair_elemINS_9allocatorINS_11__hash_nodeINS_17__hash_value_typeIxxEEPvEEEELi1ELb1EE5__getB8ne180100Ev, symObjAddr: 0x3280, symBinAddr: 0x100004050, symSize: 0x10 }
  - { offset: 0x1504F, size: 0x8, addend: 0x0, symName: __ZNSt3__114pointer_traitsIPNS_16__hash_node_baseIPNS_11__hash_nodeINS_17__hash_value_typeIxxEEPvEEEEE10pointer_toB8ne180100ERS8_, symObjAddr: 0x3290, symBinAddr: 0x100004060, symSize: 0x10 }
  - { offset: 0x15072, size: 0x8, addend: 0x0, symName: __ZNSt3__117__hash_value_typeIxxE11__get_valueB8ne180100Ev, symObjAddr: 0x32B0, symBinAddr: 0x100004080, symSize: 0x20 }
  - { offset: 0x15098, size: 0x8, addend: 0x0, symName: __ZNSt3__111__hash_nodeINS_17__hash_value_typeIxxEEPvED1B8ne180100Ev, symObjAddr: 0x3300, symBinAddr: 0x1000040D0, symSize: 0x20 }
  - { offset: 0x150C2, size: 0x8, addend: 0x0, symName: __ZNSt3__111__hash_nodeINS_17__hash_value_typeIxxEEPvED2B8ne180100Ev, symObjAddr: 0x3320, symBinAddr: 0x1000040F0, symSize: 0x10 }
  - { offset: 0x150EC, size: 0x8, addend: 0x0, symName: __ZNSt3__19allocatorINS_11__hash_nodeINS_17__hash_value_typeIxxEEPvEEE10deallocateB8ne180100EPS5_m, symObjAddr: 0x3330, symBinAddr: 0x100004100, symSize: 0x40 }
  - { offset: 0x1512E, size: 0x8, addend: 0x0, symName: __ZNSt3__122__compressed_pair_elemINS_16__hash_node_baseIPNS_11__hash_nodeINS_17__hash_value_typeIxxEEPvEEEELi0ELb0EE5__getB8ne180100Ev, symObjAddr: 0x3370, symBinAddr: 0x100004140, symSize: 0x10 }
  - { offset: 0x15154, size: 0x8, addend: 0x0, symName: __ZNSt3__110unique_ptrIA_PNS_16__hash_node_baseIPNS_11__hash_nodeINS_17__hash_value_typeIxxEEPvEEEENS_25__bucket_list_deallocatorINS_9allocatorIS9_EEEEED2B8ne180100Ev, symObjAddr: 0x3380, symBinAddr: 0x100004150, symSize: 0x20 }
  - { offset: 0x1517E, size: 0x8, addend: 0x0, symName: __ZNSt3__110unique_ptrIA_PNS_16__hash_node_baseIPNS_11__hash_nodeINS_17__hash_value_typeIxxEEPvEEEENS_25__bucket_list_deallocatorINS_9allocatorIS9_EEEEE5resetB8ne180100EDn, symObjAddr: 0x33A0, symBinAddr: 0x100004170, symSize: 0x60 }
  - { offset: 0x151BE, size: 0x8, addend: 0x0, symName: __ZNSt3__117__compressed_pairIPPNS_16__hash_node_baseIPNS_11__hash_nodeINS_17__hash_value_typeIxxEEPvEEEENS_25__bucket_list_deallocatorINS_9allocatorIS9_EEEEE5firstB8ne180100Ev, symObjAddr: 0x3400, symBinAddr: 0x1000041D0, symSize: 0x20 }
  - { offset: 0x151E4, size: 0x8, addend: 0x0, symName: __ZNSt3__117__compressed_pairIPPNS_16__hash_node_baseIPNS_11__hash_nodeINS_17__hash_value_typeIxxEEPvEEEENS_25__bucket_list_deallocatorINS_9allocatorIS9_EEEEE6secondB8ne180100Ev, symObjAddr: 0x3420, symBinAddr: 0x1000041F0, symSize: 0x20 }
  - { offset: 0x1520A, size: 0x8, addend: 0x0, symName: __ZNSt3__125__bucket_list_deallocatorINS_9allocatorIPNS_16__hash_node_baseIPNS_11__hash_nodeINS_17__hash_value_typeIxxEEPvEEEEEEEclB8ne180100EPSA_, symObjAddr: 0x3440, symBinAddr: 0x100004210, symSize: 0x50 }
  - { offset: 0x1523F, size: 0x8, addend: 0x0, symName: __ZNSt3__122__compressed_pair_elemIPPNS_16__hash_node_baseIPNS_11__hash_nodeINS_17__hash_value_typeIxxEEPvEEEELi0ELb0EE5__getB8ne180100Ev, symObjAddr: 0x3490, symBinAddr: 0x100004260, symSize: 0x10 }
  - { offset: 0x15265, size: 0x8, addend: 0x0, symName: __ZNSt3__122__compressed_pair_elemINS_25__bucket_list_deallocatorINS_9allocatorIPNS_16__hash_node_baseIPNS_11__hash_nodeINS_17__hash_value_typeIxxEEPvEEEEEEEELi1ELb0EE5__getB8ne180100Ev, symObjAddr: 0x34A0, symBinAddr: 0x100004270, symSize: 0x10 }
  - { offset: 0x1528B, size: 0x8, addend: 0x0, symName: __ZNSt3__116allocator_traitsINS_9allocatorIPNS_16__hash_node_baseIPNS_11__hash_nodeINS_17__hash_value_typeIxxEEPvEEEEEEE10deallocateB8ne180100ERSB_PSA_m, symObjAddr: 0x34B0, symBinAddr: 0x100004280, symSize: 0x30 }
  - { offset: 0x152CD, size: 0x8, addend: 0x0, symName: __ZNSt3__125__bucket_list_deallocatorINS_9allocatorIPNS_16__hash_node_baseIPNS_11__hash_nodeINS_17__hash_value_typeIxxEEPvEEEEEEE7__allocB8ne180100Ev, symObjAddr: 0x34E0, symBinAddr: 0x1000042B0, symSize: 0x20 }
  - { offset: 0x152F3, size: 0x8, addend: 0x0, symName: __ZNSt3__125__bucket_list_deallocatorINS_9allocatorIPNS_16__hash_node_baseIPNS_11__hash_nodeINS_17__hash_value_typeIxxEEPvEEEEEEE4sizeB8ne180100Ev, symObjAddr: 0x3500, symBinAddr: 0x1000042D0, symSize: 0x20 }
  - { offset: 0x15319, size: 0x8, addend: 0x0, symName: __ZNSt3__19allocatorIPNS_16__hash_node_baseIPNS_11__hash_nodeINS_17__hash_value_typeIxxEEPvEEEEE10deallocateB8ne180100EPS9_m, symObjAddr: 0x3520, symBinAddr: 0x1000042F0, symSize: 0x40 }
  - { offset: 0x1535B, size: 0x8, addend: 0x0, symName: __ZNSt3__117__compressed_pairImNS_9allocatorIPNS_16__hash_node_baseIPNS_11__hash_nodeINS_17__hash_value_typeIxxEEPvEEEEEEE6secondB8ne180100Ev, symObjAddr: 0x3560, symBinAddr: 0x100004330, symSize: 0x20 }
  - { offset: 0x15381, size: 0x8, addend: 0x0, symName: __ZNSt3__122__compressed_pair_elemINS_9allocatorIPNS_16__hash_node_baseIPNS_11__hash_nodeINS_17__hash_value_typeIxxEEPvEEEEEELi1ELb1EE5__getB8ne180100Ev, symObjAddr: 0x3580, symBinAddr: 0x100004350, symSize: 0x10 }
  - { offset: 0x153A7, size: 0x8, addend: 0x0, symName: __ZNSt3__117__compressed_pairImNS_9allocatorIPNS_16__hash_node_baseIPNS_11__hash_nodeINS_17__hash_value_typeIxxEEPvEEEEEEE5firstB8ne180100Ev, symObjAddr: 0x3590, symBinAddr: 0x100004360, symSize: 0x20 }
  - { offset: 0x153CD, size: 0x8, addend: 0x0, symName: __ZNSt3__122__compressed_pair_elemImLi0ELb0EE5__getB8ne180100Ev, symObjAddr: 0x35B0, symBinAddr: 0x100004380, symSize: 0x10 }
  - { offset: 0x153F3, size: 0x8, addend: 0x0, symName: __ZNSt3__113unordered_mapIxNS_4pairIxxEENS_4hashIxEENS_8equal_toIxEENS_9allocatorINS1_IKxS2_EEEEEC2B8ne180100Ev, symObjAddr: 0x35C0, symBinAddr: 0x100004390, symSize: 0x20 }
  - { offset: 0x1541D, size: 0x8, addend: 0x0, symName: __ZNSt3__112__hash_tableINS_17__hash_value_typeIxNS_4pairIxxEEEENS_22__unordered_map_hasherIxS4_NS_4hashIxEENS_8equal_toIxEELb1EEENS_21__unordered_map_equalIxS4_S9_S7_Lb1EEENS_9allocatorIS4_EEEC1Ev, symObjAddr: 0x35E0, symBinAddr: 0x1000043B0, symSize: 0x20 }
  - { offset: 0x15449, size: 0x8, addend: 0x0, symName: __ZNSt3__112__hash_tableINS_17__hash_value_typeIxNS_4pairIxxEEEENS_22__unordered_map_hasherIxS4_NS_4hashIxEENS_8equal_toIxEELb1EEENS_21__unordered_map_equalIxS4_S9_S7_Lb1EEENS_9allocatorIS4_EEEC2Ev, symObjAddr: 0x3600, symBinAddr: 0x1000043D0, symSize: 0x80 }
  - { offset: 0x15475, size: 0x8, addend: 0x0, symName: __ZNSt3__110unique_ptrIA_PNS_16__hash_node_baseIPNS_11__hash_nodeINS_17__hash_value_typeIxNS_4pairIxxEEEEPvEEEENS_25__bucket_list_deallocatorINS_9allocatorISB_EEEEEC1B8ne180100ILb1EvEEv, symObjAddr: 0x3680, symBinAddr: 0x100004450, symSize: 0x20 }
  - { offset: 0x154AA, size: 0x8, addend: 0x0, symName: __ZNSt3__117__compressed_pairINS_16__hash_node_baseIPNS_11__hash_nodeINS_17__hash_value_typeIxNS_4pairIxxEEEEPvEEEENS_9allocatorIS8_EEEC1B8ne180100ILb1EvEEv, symObjAddr: 0x36A0, symBinAddr: 0x100004470, symSize: 0x20 }
  - { offset: 0x154DF, size: 0x8, addend: 0x0, symName: __ZNSt3__117__compressed_pairImNS_22__unordered_map_hasherIxNS_17__hash_value_typeIxNS_4pairIxxEEEENS_4hashIxEENS_8equal_toIxEELb1EEEEC1B8ne180100IiNS_18__default_init_tagEEEOT_OT0_, symObjAddr: 0x36C0, symBinAddr: 0x100004490, symSize: 0x30 }
  - { offset: 0x15537, size: 0x8, addend: 0x0, symName: __ZNSt3__117__compressed_pairIfNS_21__unordered_map_equalIxNS_17__hash_value_typeIxNS_4pairIxxEEEENS_8equal_toIxEENS_4hashIxEELb1EEEEC1B8ne180100IfNS_18__default_init_tagEEEOT_OT0_, symObjAddr: 0x36F0, symBinAddr: 0x1000044C0, symSize: 0x30 }
  - { offset: 0x1558F, size: 0x8, addend: 0x0, symName: __ZNSt3__110unique_ptrIA_PNS_16__hash_node_baseIPNS_11__hash_nodeINS_17__hash_value_typeIxNS_4pairIxxEEEEPvEEEENS_25__bucket_list_deallocatorINS_9allocatorISB_EEEEEC2B8ne180100ILb1EvEEv, symObjAddr: 0x3720, symBinAddr: 0x1000044F0, symSize: 0x30 }
  - { offset: 0x155C4, size: 0x8, addend: 0x0, symName: __ZNSt3__117__compressed_pairIPPNS_16__hash_node_baseIPNS_11__hash_nodeINS_17__hash_value_typeIxNS_4pairIxxEEEEPvEEEENS_25__bucket_list_deallocatorINS_9allocatorISB_EEEEEC1B8ne180100INS_16__value_init_tagESJ_EEOT_OT0_, symObjAddr: 0x3750, symBinAddr: 0x100004520, symSize: 0x30 }
  - { offset: 0x1561C, size: 0x8, addend: 0x0, symName: __ZNSt3__117__compressed_pairIPPNS_16__hash_node_baseIPNS_11__hash_nodeINS_17__hash_value_typeIxNS_4pairIxxEEEEPvEEEENS_25__bucket_list_deallocatorINS_9allocatorISB_EEEEEC2B8ne180100INS_16__value_init_tagESJ_EEOT_OT0_, symObjAddr: 0x3780, symBinAddr: 0x100004550, symSize: 0x40 }
  - { offset: 0x15674, size: 0x8, addend: 0x0, symName: __ZNSt3__122__compressed_pair_elemIPPNS_16__hash_node_baseIPNS_11__hash_nodeINS_17__hash_value_typeIxNS_4pairIxxEEEEPvEEEELi0ELb0EEC2B8ne180100ENS_16__value_init_tagE, symObjAddr: 0x37C0, symBinAddr: 0x100004590, symSize: 0x20 }
  - { offset: 0x156A9, size: 0x8, addend: 0x0, symName: __ZNSt3__122__compressed_pair_elemINS_25__bucket_list_deallocatorINS_9allocatorIPNS_16__hash_node_baseIPNS_11__hash_nodeINS_17__hash_value_typeIxNS_4pairIxxEEEEPvEEEEEEEELi1ELb0EEC2B8ne180100ENS_16__value_init_tagE, symObjAddr: 0x37E0, symBinAddr: 0x1000045B0, symSize: 0x20 }
  - { offset: 0x156DE, size: 0x8, addend: 0x0, symName: __ZNSt3__125__bucket_list_deallocatorINS_9allocatorIPNS_16__hash_node_baseIPNS_11__hash_nodeINS_17__hash_value_typeIxNS_4pairIxxEEEEPvEEEEEEEC1B8ne180100Ev, symObjAddr: 0x3800, symBinAddr: 0x1000045D0, symSize: 0x20 }
  - { offset: 0x15708, size: 0x8, addend: 0x0, symName: __ZNSt3__125__bucket_list_deallocatorINS_9allocatorIPNS_16__hash_node_baseIPNS_11__hash_nodeINS_17__hash_value_typeIxNS_4pairIxxEEEEPvEEEEEEEC2B8ne180100Ev, symObjAddr: 0x3820, symBinAddr: 0x1000045F0, symSize: 0x40 }
  - { offset: 0x15732, size: 0x8, addend: 0x0, symName: __ZNSt3__117__compressed_pairImNS_9allocatorIPNS_16__hash_node_baseIPNS_11__hash_nodeINS_17__hash_value_typeIxNS_4pairIxxEEEEPvEEEEEEEC1B8ne180100IiNS_18__default_init_tagEEEOT_OT0_, symObjAddr: 0x3860, symBinAddr: 0x100004630, symSize: 0x30 }
  - { offset: 0x1578A, size: 0x8, addend: 0x0, symName: __ZNSt3__117__compressed_pairImNS_9allocatorIPNS_16__hash_node_baseIPNS_11__hash_nodeINS_17__hash_value_typeIxNS_4pairIxxEEEEPvEEEEEEEC2B8ne180100IiNS_18__default_init_tagEEEOT_OT0_, symObjAddr: 0x3890, symBinAddr: 0x100004660, symSize: 0x40 }
  - { offset: 0x157E2, size: 0x8, addend: 0x0, symName: __ZNSt3__122__compressed_pair_elemINS_9allocatorIPNS_16__hash_node_baseIPNS_11__hash_nodeINS_17__hash_value_typeIxNS_4pairIxxEEEEPvEEEEEELi1ELb1EEC2B8ne180100ENS_18__default_init_tagE, symObjAddr: 0x38D0, symBinAddr: 0x1000046A0, symSize: 0x20 }
  - { offset: 0x15817, size: 0x8, addend: 0x0, symName: __ZNSt3__19allocatorIPNS_16__hash_node_baseIPNS_11__hash_nodeINS_17__hash_value_typeIxNS_4pairIxxEEEEPvEEEEEC2B8ne180100Ev, symObjAddr: 0x38F0, symBinAddr: 0x1000046C0, symSize: 0x20 }
  - { offset: 0x15841, size: 0x8, addend: 0x0, symName: __ZNSt3__116__non_trivial_ifILb1ENS_9allocatorIPNS_16__hash_node_baseIPNS_11__hash_nodeINS_17__hash_value_typeIxNS_4pairIxxEEEEPvEEEEEEEC2B8ne180100Ev, symObjAddr: 0x3910, symBinAddr: 0x1000046E0, symSize: 0x10 }
  - { offset: 0x1586B, size: 0x8, addend: 0x0, symName: __ZNSt3__117__compressed_pairINS_16__hash_node_baseIPNS_11__hash_nodeINS_17__hash_value_typeIxNS_4pairIxxEEEEPvEEEENS_9allocatorIS8_EEEC2B8ne180100ILb1EvEEv, symObjAddr: 0x3920, symBinAddr: 0x1000046F0, symSize: 0x30 }
  - { offset: 0x158A0, size: 0x8, addend: 0x0, symName: __ZNSt3__122__compressed_pair_elemINS_16__hash_node_baseIPNS_11__hash_nodeINS_17__hash_value_typeIxNS_4pairIxxEEEEPvEEEELi0ELb0EEC2B8ne180100ENS_16__value_init_tagE, symObjAddr: 0x3950, symBinAddr: 0x100004720, symSize: 0x20 }
  - { offset: 0x158D5, size: 0x8, addend: 0x0, symName: __ZNSt3__122__compressed_pair_elemINS_9allocatorINS_11__hash_nodeINS_17__hash_value_typeIxNS_4pairIxxEEEEPvEEEELi1ELb1EEC2B8ne180100ENS_16__value_init_tagE, symObjAddr: 0x3970, symBinAddr: 0x100004740, symSize: 0x20 }
  - { offset: 0x1590A, size: 0x8, addend: 0x0, symName: __ZNSt3__116__hash_node_baseIPNS_11__hash_nodeINS_17__hash_value_typeIxNS_4pairIxxEEEEPvEEEC1B8ne180100Ev, symObjAddr: 0x3990, symBinAddr: 0x100004760, symSize: 0x20 }
  - { offset: 0x15934, size: 0x8, addend: 0x0, symName: __ZNSt3__116__hash_node_baseIPNS_11__hash_nodeINS_17__hash_value_typeIxNS_4pairIxxEEEEPvEEEC2B8ne180100Ev, symObjAddr: 0x39B0, symBinAddr: 0x100004780, symSize: 0x20 }
  - { offset: 0x1595E, size: 0x8, addend: 0x0, symName: __ZNSt3__19allocatorINS_11__hash_nodeINS_17__hash_value_typeIxNS_4pairIxxEEEEPvEEEC2B8ne180100Ev, symObjAddr: 0x39D0, symBinAddr: 0x1000047A0, symSize: 0x20 }
  - { offset: 0x15988, size: 0x8, addend: 0x0, symName: __ZNSt3__116__non_trivial_ifILb1ENS_9allocatorINS_11__hash_nodeINS_17__hash_value_typeIxNS_4pairIxxEEEEPvEEEEEC2B8ne180100Ev, symObjAddr: 0x39F0, symBinAddr: 0x1000047C0, symSize: 0x10 }
  - { offset: 0x159B2, size: 0x8, addend: 0x0, symName: __ZNSt3__117__compressed_pairImNS_22__unordered_map_hasherIxNS_17__hash_value_typeIxNS_4pairIxxEEEENS_4hashIxEENS_8equal_toIxEELb1EEEEC2B8ne180100IiNS_18__default_init_tagEEEOT_OT0_, symObjAddr: 0x3A00, symBinAddr: 0x1000047D0, symSize: 0x40 }
  - { offset: 0x15A0A, size: 0x8, addend: 0x0, symName: __ZNSt3__122__compressed_pair_elemINS_22__unordered_map_hasherIxNS_17__hash_value_typeIxNS_4pairIxxEEEENS_4hashIxEENS_8equal_toIxEELb1EEELi1ELb1EEC2B8ne180100ENS_18__default_init_tagE, symObjAddr: 0x3A40, symBinAddr: 0x100004810, symSize: 0x20 }
  - { offset: 0x15A3F, size: 0x8, addend: 0x0, symName: __ZNSt3__122__unordered_map_hasherIxNS_17__hash_value_typeIxNS_4pairIxxEEEENS_4hashIxEENS_8equal_toIxEELb1EEC2B8ne180100Ev, symObjAddr: 0x3A60, symBinAddr: 0x100004830, symSize: 0x10 }
  - { offset: 0x15A69, size: 0x8, addend: 0x0, symName: __ZNSt3__117__compressed_pairIfNS_21__unordered_map_equalIxNS_17__hash_value_typeIxNS_4pairIxxEEEENS_8equal_toIxEENS_4hashIxEELb1EEEEC2B8ne180100IfNS_18__default_init_tagEEEOT_OT0_, symObjAddr: 0x3A70, symBinAddr: 0x100004840, symSize: 0x40 }
  - { offset: 0x15AC1, size: 0x8, addend: 0x0, symName: __ZNSt3__122__compressed_pair_elemINS_21__unordered_map_equalIxNS_17__hash_value_typeIxNS_4pairIxxEEEENS_8equal_toIxEENS_4hashIxEELb1EEELi1ELb1EEC2B8ne180100ENS_18__default_init_tagE, symObjAddr: 0x3AB0, symBinAddr: 0x100004880, symSize: 0x20 }
  - { offset: 0x15AF6, size: 0x8, addend: 0x0, symName: __ZNSt3__121__unordered_map_equalIxNS_17__hash_value_typeIxNS_4pairIxxEEEENS_8equal_toIxEENS_4hashIxEELb1EEC2B8ne180100Ev, symObjAddr: 0x3AD0, symBinAddr: 0x1000048A0, symSize: 0x10 }
  - { offset: 0x15B20, size: 0x8, addend: 0x0, symName: __ZNSt3__113unordered_mapIxNS_4pairIxxEENS_4hashIxEENS_8equal_toIxEENS_9allocatorINS1_IKxS2_EEEEED2B8ne180100Ev, symObjAddr: 0x3AE0, symBinAddr: 0x1000048B0, symSize: 0x20 }
  - { offset: 0x15B4A, size: 0x8, addend: 0x0, symName: __ZNSt3__112__hash_tableINS_17__hash_value_typeIxNS_4pairIxxEEEENS_22__unordered_map_hasherIxS4_NS_4hashIxEENS_8equal_toIxEELb1EEENS_21__unordered_map_equalIxS4_S9_S7_Lb1EEENS_9allocatorIS4_EEED1Ev, symObjAddr: 0x3B00, symBinAddr: 0x1000048D0, symSize: 0x20 }
  - { offset: 0x15B76, size: 0x8, addend: 0x0, symName: __ZNSt3__112__hash_tableINS_17__hash_value_typeIxNS_4pairIxxEEEENS_22__unordered_map_hasherIxS4_NS_4hashIxEENS_8equal_toIxEELb1EEENS_21__unordered_map_equalIxS4_S9_S7_Lb1EEENS_9allocatorIS4_EEED2Ev, symObjAddr: 0x3B20, symBinAddr: 0x1000048F0, symSize: 0x40 }
  - { offset: 0x15BA2, size: 0x8, addend: 0x0, symName: __ZNSt3__112__hash_tableINS_17__hash_value_typeIxNS_4pairIxxEEEENS_22__unordered_map_hasherIxS4_NS_4hashIxEENS_8equal_toIxEELb1EEENS_21__unordered_map_equalIxS4_S9_S7_Lb1EEENS_9allocatorIS4_EEE17__deallocate_nodeEPNS_16__hash_node_baseIPNS_11__hash_nodeIS4_PvEEEE, symObjAddr: 0x3B60, symBinAddr: 0x100004930, symSize: 0xC0 }
  - { offset: 0x15C0D, size: 0x8, addend: 0x0, symName: __ZNSt3__117__compressed_pairINS_16__hash_node_baseIPNS_11__hash_nodeINS_17__hash_value_typeIxNS_4pairIxxEEEEPvEEEENS_9allocatorIS8_EEE5firstB8ne180100Ev, symObjAddr: 0x3C20, symBinAddr: 0x1000049F0, symSize: 0x20 }
  - { offset: 0x15C33, size: 0x8, addend: 0x0, symName: __ZNSt3__110unique_ptrIA_PNS_16__hash_node_baseIPNS_11__hash_nodeINS_17__hash_value_typeIxNS_4pairIxxEEEEPvEEEENS_25__bucket_list_deallocatorINS_9allocatorISB_EEEEED1B8ne180100Ev, symObjAddr: 0x3C40, symBinAddr: 0x100004A10, symSize: 0x20 }
  - { offset: 0x15C5D, size: 0x8, addend: 0x0, symName: __ZNSt3__112__hash_tableINS_17__hash_value_typeIxNS_4pairIxxEEEENS_22__unordered_map_hasherIxS4_NS_4hashIxEENS_8equal_toIxEELb1EEENS_21__unordered_map_equalIxS4_S9_S7_Lb1EEENS_9allocatorIS4_EEE12__node_allocB8ne180100Ev, symObjAddr: 0x3C60, symBinAddr: 0x100004A30, symSize: 0x20 }
  - { offset: 0x15C83, size: 0x8, addend: 0x0, symName: __ZNSt3__116__hash_node_baseIPNS_11__hash_nodeINS_17__hash_value_typeIxNS_4pairIxxEEEEPvEEE8__upcastB8ne180100Ev, symObjAddr: 0x3C80, symBinAddr: 0x100004A50, symSize: 0x20 }
  - { offset: 0x15CA9, size: 0x8, addend: 0x0, symName: __ZNSt3__116allocator_traitsINS_9allocatorINS_11__hash_nodeINS_17__hash_value_typeIxNS_4pairIxxEEEEPvEEEEE7destroyB8ne180100INS4_IKxS5_EEvvEEvRS9_PT_, symObjAddr: 0x3CA0, symBinAddr: 0x100004A70, symSize: 0x20 }
  - { offset: 0x15CE3, size: 0x8, addend: 0x0, symName: __ZNSt3__122__hash_key_value_typesINS_17__hash_value_typeIxNS_4pairIxxEEEEE9__get_ptrB8ne180100ERS4_, symObjAddr: 0x3CC0, symBinAddr: 0x100004A90, symSize: 0x20 }
  - { offset: 0x15D06, size: 0x8, addend: 0x0, symName: __ZNSt3__111__hash_nodeINS_17__hash_value_typeIxNS_4pairIxxEEEEPvE11__get_valueB8ne180100Ev, symObjAddr: 0x3CE0, symBinAddr: 0x100004AB0, symSize: 0x20 }
  - { offset: 0x15D2C, size: 0x8, addend: 0x0, symName: __ZNSt3__116allocator_traitsINS_9allocatorINS_11__hash_nodeINS_17__hash_value_typeIxNS_4pairIxxEEEEPvEEEEE10deallocateB8ne180100ERS9_PS8_m, symObjAddr: 0x3D20, symBinAddr: 0x100004AF0, symSize: 0x30 }
  - { offset: 0x15D6E, size: 0x8, addend: 0x0, symName: __ZNSt3__117__compressed_pairINS_16__hash_node_baseIPNS_11__hash_nodeINS_17__hash_value_typeIxNS_4pairIxxEEEEPvEEEENS_9allocatorIS8_EEE6secondB8ne180100Ev, symObjAddr: 0x3D50, symBinAddr: 0x100004B20, symSize: 0x20 }
  - { offset: 0x15D94, size: 0x8, addend: 0x0, symName: __ZNSt3__122__compressed_pair_elemINS_9allocatorINS_11__hash_nodeINS_17__hash_value_typeIxNS_4pairIxxEEEEPvEEEELi1ELb1EE5__getB8ne180100Ev, symObjAddr: 0x3D70, symBinAddr: 0x100004B40, symSize: 0x10 }
  - { offset: 0x15DBA, size: 0x8, addend: 0x0, symName: __ZNSt3__114pointer_traitsIPNS_16__hash_node_baseIPNS_11__hash_nodeINS_17__hash_value_typeIxNS_4pairIxxEEEEPvEEEEE10pointer_toB8ne180100ERSA_, symObjAddr: 0x3D80, symBinAddr: 0x100004B50, symSize: 0x10 }
  - { offset: 0x15DDD, size: 0x8, addend: 0x0, symName: __ZNSt3__117__hash_value_typeIxNS_4pairIxxEEE11__get_valueB8ne180100Ev, symObjAddr: 0x3DA0, symBinAddr: 0x100004B70, symSize: 0x20 }
  - { offset: 0x15E03, size: 0x8, addend: 0x0, symName: __ZNSt3__111__hash_nodeINS_17__hash_value_typeIxNS_4pairIxxEEEEPvED1B8ne180100Ev, symObjAddr: 0x3DF0, symBinAddr: 0x100004BC0, symSize: 0x20 }
  - { offset: 0x15E2D, size: 0x8, addend: 0x0, symName: __ZNSt3__111__hash_nodeINS_17__hash_value_typeIxNS_4pairIxxEEEEPvED2B8ne180100Ev, symObjAddr: 0x3E10, symBinAddr: 0x100004BE0, symSize: 0x10 }
  - { offset: 0x15E57, size: 0x8, addend: 0x0, symName: __ZNSt3__19allocatorINS_11__hash_nodeINS_17__hash_value_typeIxNS_4pairIxxEEEEPvEEE10deallocateB8ne180100EPS7_m, symObjAddr: 0x3E20, symBinAddr: 0x100004BF0, symSize: 0x50 }
  - { offset: 0x15E99, size: 0x8, addend: 0x0, symName: __ZNSt3__122__compressed_pair_elemINS_16__hash_node_baseIPNS_11__hash_nodeINS_17__hash_value_typeIxNS_4pairIxxEEEEPvEEEELi0ELb0EE5__getB8ne180100Ev, symObjAddr: 0x3E70, symBinAddr: 0x100004C40, symSize: 0x10 }
  - { offset: 0x15EBF, size: 0x8, addend: 0x0, symName: __ZNSt3__110unique_ptrIA_PNS_16__hash_node_baseIPNS_11__hash_nodeINS_17__hash_value_typeIxNS_4pairIxxEEEEPvEEEENS_25__bucket_list_deallocatorINS_9allocatorISB_EEEEED2B8ne180100Ev, symObjAddr: 0x3E80, symBinAddr: 0x100004C50, symSize: 0x20 }
  - { offset: 0x15EE9, size: 0x8, addend: 0x0, symName: __ZNSt3__110unique_ptrIA_PNS_16__hash_node_baseIPNS_11__hash_nodeINS_17__hash_value_typeIxNS_4pairIxxEEEEPvEEEENS_25__bucket_list_deallocatorINS_9allocatorISB_EEEEE5resetB8ne180100EDn, symObjAddr: 0x3EA0, symBinAddr: 0x100004C70, symSize: 0x60 }
  - { offset: 0x15F29, size: 0x8, addend: 0x0, symName: __ZNSt3__117__compressed_pairIPPNS_16__hash_node_baseIPNS_11__hash_nodeINS_17__hash_value_typeIxNS_4pairIxxEEEEPvEEEENS_25__bucket_list_deallocatorINS_9allocatorISB_EEEEE5firstB8ne180100Ev, symObjAddr: 0x3F00, symBinAddr: 0x100004CD0, symSize: 0x20 }
  - { offset: 0x15F4F, size: 0x8, addend: 0x0, symName: __ZNSt3__117__compressed_pairIPPNS_16__hash_node_baseIPNS_11__hash_nodeINS_17__hash_value_typeIxNS_4pairIxxEEEEPvEEEENS_25__bucket_list_deallocatorINS_9allocatorISB_EEEEE6secondB8ne180100Ev, symObjAddr: 0x3F20, symBinAddr: 0x100004CF0, symSize: 0x20 }
  - { offset: 0x15F75, size: 0x8, addend: 0x0, symName: __ZNSt3__125__bucket_list_deallocatorINS_9allocatorIPNS_16__hash_node_baseIPNS_11__hash_nodeINS_17__hash_value_typeIxNS_4pairIxxEEEEPvEEEEEEEclB8ne180100EPSC_, symObjAddr: 0x3F40, symBinAddr: 0x100004D10, symSize: 0x50 }
  - { offset: 0x15FAA, size: 0x8, addend: 0x0, symName: __ZNSt3__122__compressed_pair_elemIPPNS_16__hash_node_baseIPNS_11__hash_nodeINS_17__hash_value_typeIxNS_4pairIxxEEEEPvEEEELi0ELb0EE5__getB8ne180100Ev, symObjAddr: 0x3F90, symBinAddr: 0x100004D60, symSize: 0x10 }
  - { offset: 0x15FD0, size: 0x8, addend: 0x0, symName: __ZNSt3__122__compressed_pair_elemINS_25__bucket_list_deallocatorINS_9allocatorIPNS_16__hash_node_baseIPNS_11__hash_nodeINS_17__hash_value_typeIxNS_4pairIxxEEEEPvEEEEEEEELi1ELb0EE5__getB8ne180100Ev, symObjAddr: 0x3FA0, symBinAddr: 0x100004D70, symSize: 0x10 }
  - { offset: 0x15FF6, size: 0x8, addend: 0x0, symName: __ZNSt3__116allocator_traitsINS_9allocatorIPNS_16__hash_node_baseIPNS_11__hash_nodeINS_17__hash_value_typeIxNS_4pairIxxEEEEPvEEEEEEE10deallocateB8ne180100ERSD_PSC_m, symObjAddr: 0x3FB0, symBinAddr: 0x100004D80, symSize: 0x30 }
  - { offset: 0x16038, size: 0x8, addend: 0x0, symName: __ZNSt3__125__bucket_list_deallocatorINS_9allocatorIPNS_16__hash_node_baseIPNS_11__hash_nodeINS_17__hash_value_typeIxNS_4pairIxxEEEEPvEEEEEEE7__allocB8ne180100Ev, symObjAddr: 0x3FE0, symBinAddr: 0x100004DB0, symSize: 0x20 }
  - { offset: 0x1605E, size: 0x8, addend: 0x0, symName: __ZNSt3__125__bucket_list_deallocatorINS_9allocatorIPNS_16__hash_node_baseIPNS_11__hash_nodeINS_17__hash_value_typeIxNS_4pairIxxEEEEPvEEEEEEE4sizeB8ne180100Ev, symObjAddr: 0x4000, symBinAddr: 0x100004DD0, symSize: 0x20 }
  - { offset: 0x16084, size: 0x8, addend: 0x0, symName: __ZNSt3__19allocatorIPNS_16__hash_node_baseIPNS_11__hash_nodeINS_17__hash_value_typeIxNS_4pairIxxEEEEPvEEEEE10deallocateB8ne180100EPSB_m, symObjAddr: 0x4020, symBinAddr: 0x100004DF0, symSize: 0x40 }
  - { offset: 0x160C6, size: 0x8, addend: 0x0, symName: __ZNSt3__117__compressed_pairImNS_9allocatorIPNS_16__hash_node_baseIPNS_11__hash_nodeINS_17__hash_value_typeIxNS_4pairIxxEEEEPvEEEEEEE6secondB8ne180100Ev, symObjAddr: 0x4060, symBinAddr: 0x100004E30, symSize: 0x20 }
  - { offset: 0x160EC, size: 0x8, addend: 0x0, symName: __ZNSt3__122__compressed_pair_elemINS_9allocatorIPNS_16__hash_node_baseIPNS_11__hash_nodeINS_17__hash_value_typeIxNS_4pairIxxEEEEPvEEEEEELi1ELb1EE5__getB8ne180100Ev, symObjAddr: 0x4080, symBinAddr: 0x100004E50, symSize: 0x10 }
  - { offset: 0x16112, size: 0x8, addend: 0x0, symName: __ZNSt3__117__compressed_pairImNS_9allocatorIPNS_16__hash_node_baseIPNS_11__hash_nodeINS_17__hash_value_typeIxNS_4pairIxxEEEEPvEEEEEEE5firstB8ne180100Ev, symObjAddr: 0x4090, symBinAddr: 0x100004E60, symSize: 0x20 }
  - { offset: 0x16138, size: 0x8, addend: 0x0, symName: __ZNSt3__13setIxNS_4lessIxEENS_9allocatorIxEEEC2B8ne180100Ev, symObjAddr: 0x40B0, symBinAddr: 0x100004E80, symSize: 0x20 }
  - { offset: 0x16162, size: 0x8, addend: 0x0, symName: __ZNSt3__16__treeIxNS_4lessIxEENS_9allocatorIxEEEC1ERKS2_, symObjAddr: 0x40D0, symBinAddr: 0x100004EA0, symSize: 0x30 }
  - { offset: 0x1619D, size: 0x8, addend: 0x0, symName: __ZNSt3__16__treeIxNS_4lessIxEENS_9allocatorIxEEEC2ERKS2_, symObjAddr: 0x4100, symBinAddr: 0x100004ED0, symSize: 0x80 }
  - { offset: 0x161D8, size: 0x8, addend: 0x0, symName: __ZNSt3__117__compressed_pairINS_15__tree_end_nodeIPNS_16__tree_node_baseIPvEEEENS_9allocatorINS_11__tree_nodeIxS3_EEEEEC1B8ne180100ILb1EvEEv, symObjAddr: 0x4180, symBinAddr: 0x100004F50, symSize: 0x20 }
  - { offset: 0x1620D, size: 0x8, addend: 0x0, symName: __ZNSt3__117__compressed_pairImNS_4lessIxEEEC1B8ne180100IiRKS2_EEOT_OT0_, symObjAddr: 0x41A0, symBinAddr: 0x100004F70, symSize: 0x30 }
  - { offset: 0x16265, size: 0x8, addend: 0x0, symName: __ZNSt3__16__treeIxNS_4lessIxEENS_9allocatorIxEEE10__end_nodeB8ne180100Ev, symObjAddr: 0x41D0, symBinAddr: 0x100004FA0, symSize: 0x30 }
  - { offset: 0x1628B, size: 0x8, addend: 0x0, symName: __ZNSt3__16__treeIxNS_4lessIxEENS_9allocatorIxEEE12__begin_nodeB8ne180100Ev, symObjAddr: 0x4200, symBinAddr: 0x100004FD0, symSize: 0x10 }
  - { offset: 0x162B1, size: 0x8, addend: 0x0, symName: __ZNSt3__117__compressed_pairINS_15__tree_end_nodeIPNS_16__tree_node_baseIPvEEEENS_9allocatorINS_11__tree_nodeIxS3_EEEEEC2B8ne180100ILb1EvEEv, symObjAddr: 0x4210, symBinAddr: 0x100004FE0, symSize: 0x30 }
  - { offset: 0x162E6, size: 0x8, addend: 0x0, symName: __ZNSt3__122__compressed_pair_elemINS_15__tree_end_nodeIPNS_16__tree_node_baseIPvEEEELi0ELb0EEC2B8ne180100ENS_16__value_init_tagE, symObjAddr: 0x4240, symBinAddr: 0x100005010, symSize: 0x20 }
  - { offset: 0x1631B, size: 0x8, addend: 0x0, symName: __ZNSt3__122__compressed_pair_elemINS_9allocatorINS_11__tree_nodeIxPvEEEELi1ELb1EEC2B8ne180100ENS_16__value_init_tagE, symObjAddr: 0x4260, symBinAddr: 0x100005030, symSize: 0x20 }
  - { offset: 0x16350, size: 0x8, addend: 0x0, symName: __ZNSt3__115__tree_end_nodeIPNS_16__tree_node_baseIPvEEEC1B8ne180100Ev, symObjAddr: 0x4280, symBinAddr: 0x100005050, symSize: 0x20 }
  - { offset: 0x1637A, size: 0x8, addend: 0x0, symName: __ZNSt3__115__tree_end_nodeIPNS_16__tree_node_baseIPvEEEC2B8ne180100Ev, symObjAddr: 0x42A0, symBinAddr: 0x100005070, symSize: 0x20 }
  - { offset: 0x163A4, size: 0x8, addend: 0x0, symName: __ZNSt3__19allocatorINS_11__tree_nodeIxPvEEEC2B8ne180100Ev, symObjAddr: 0x42C0, symBinAddr: 0x100005090, symSize: 0x20 }
  - { offset: 0x163CE, size: 0x8, addend: 0x0, symName: __ZNSt3__116__non_trivial_ifILb1ENS_9allocatorINS_11__tree_nodeIxPvEEEEEC2B8ne180100Ev, symObjAddr: 0x42E0, symBinAddr: 0x1000050B0, symSize: 0x10 }
  - { offset: 0x163F8, size: 0x8, addend: 0x0, symName: __ZNSt3__117__compressed_pairImNS_4lessIxEEEC2B8ne180100IiRKS2_EEOT_OT0_, symObjAddr: 0x42F0, symBinAddr: 0x1000050C0, symSize: 0x40 }
  - { offset: 0x16450, size: 0x8, addend: 0x0, symName: __ZNSt3__122__compressed_pair_elemINS_4lessIxEELi1ELb1EEC2B8ne180100IRKS2_vEEOT_, symObjAddr: 0x4330, symBinAddr: 0x100005100, symSize: 0x10 }
  - { offset: 0x16492, size: 0x8, addend: 0x0, symName: __ZNSt3__114pointer_traitsIPNS_15__tree_end_nodeIPNS_16__tree_node_baseIPvEEEEE10pointer_toB8ne180100ERS6_, symObjAddr: 0x4340, symBinAddr: 0x100005110, symSize: 0x10 }
  - { offset: 0x164B5, size: 0x8, addend: 0x0, symName: __ZNSt3__117__compressed_pairINS_15__tree_end_nodeIPNS_16__tree_node_baseIPvEEEENS_9allocatorINS_11__tree_nodeIxS3_EEEEE5firstB8ne180100Ev, symObjAddr: 0x4350, symBinAddr: 0x100005120, symSize: 0x20 }
  - { offset: 0x164DB, size: 0x8, addend: 0x0, symName: __ZNSt3__122__compressed_pair_elemINS_15__tree_end_nodeIPNS_16__tree_node_baseIPvEEEELi0ELb0EE5__getB8ne180100Ev, symObjAddr: 0x4370, symBinAddr: 0x100005140, symSize: 0x10 }
  - { offset: 0x16501, size: 0x8, addend: 0x0, symName: __ZNSt3__13setIxNS_4lessIxEENS_9allocatorIxEEED2B8ne180100Ev, symObjAddr: 0x4380, symBinAddr: 0x100005150, symSize: 0x20 }
  - { offset: 0x1652B, size: 0x8, addend: 0x0, symName: __ZNSt3__16__treeIxNS_4lessIxEENS_9allocatorIxEEED1Ev, symObjAddr: 0x43A0, symBinAddr: 0x100005170, symSize: 0x20 }
  - { offset: 0x16557, size: 0x8, addend: 0x0, symName: __ZNSt3__16__treeIxNS_4lessIxEENS_9allocatorIxEEED2Ev, symObjAddr: 0x43C0, symBinAddr: 0x100005190, symSize: 0x30 }
  - { offset: 0x16583, size: 0x8, addend: 0x0, symName: __ZNSt3__16__treeIxNS_4lessIxEENS_9allocatorIxEEE7destroyEPNS_11__tree_nodeIxPvEE, symObjAddr: 0x43F0, symBinAddr: 0x1000051C0, symSize: 0xB0 }
  - { offset: 0x165D0, size: 0x8, addend: 0x0, symName: __ZNKSt3__16__treeIxNS_4lessIxEENS_9allocatorIxEEE6__rootB8ne180100Ev, symObjAddr: 0x44A0, symBinAddr: 0x100005270, symSize: 0x20 }
  - { offset: 0x165F6, size: 0x8, addend: 0x0, symName: __ZNSt3__16__treeIxNS_4lessIxEENS_9allocatorIxEEE12__node_allocB8ne180100Ev, symObjAddr: 0x44C0, symBinAddr: 0x100005290, symSize: 0x20 }
  - { offset: 0x1661C, size: 0x8, addend: 0x0, symName: __ZNSt3__116allocator_traitsINS_9allocatorINS_11__tree_nodeIxPvEEEEE7destroyB8ne180100IxvvEEvRS5_PT_, symObjAddr: 0x44E0, symBinAddr: 0x1000052B0, symSize: 0x20 }
  - { offset: 0x16656, size: 0x8, addend: 0x0, symName: __ZNSt3__122__tree_key_value_typesIxE9__get_ptrB8ne180100ERx, symObjAddr: 0x4500, symBinAddr: 0x1000052D0, symSize: 0x10 }
  - { offset: 0x1667A, size: 0x8, addend: 0x0, symName: __ZNSt3__116allocator_traitsINS_9allocatorINS_11__tree_nodeIxPvEEEEE10deallocateB8ne180100ERS5_PS4_m, symObjAddr: 0x4510, symBinAddr: 0x1000052E0, symSize: 0x30 }
  - { offset: 0x166BC, size: 0x8, addend: 0x0, symName: __ZNSt3__117__compressed_pairINS_15__tree_end_nodeIPNS_16__tree_node_baseIPvEEEENS_9allocatorINS_11__tree_nodeIxS3_EEEEE6secondB8ne180100Ev, symObjAddr: 0x4540, symBinAddr: 0x100005310, symSize: 0x20 }
  - { offset: 0x166E2, size: 0x8, addend: 0x0, symName: __ZNSt3__122__compressed_pair_elemINS_9allocatorINS_11__tree_nodeIxPvEEEELi1ELb1EE5__getB8ne180100Ev, symObjAddr: 0x4560, symBinAddr: 0x100005330, symSize: 0x10 }
  - { offset: 0x16708, size: 0x8, addend: 0x0, symName: __ZNSt3__19allocatorINS_11__tree_nodeIxPvEEE10deallocateB8ne180100EPS3_m, symObjAddr: 0x4570, symBinAddr: 0x100005340, symSize: 0x50 }
  - { offset: 0x1674A, size: 0x8, addend: 0x0, symName: __ZNKSt3__16__treeIxNS_4lessIxEENS_9allocatorIxEEE10__end_nodeB8ne180100Ev, symObjAddr: 0x45C0, symBinAddr: 0x100005390, symSize: 0x30 }
  - { offset: 0x16770, size: 0x8, addend: 0x0, symName: __ZNKSt3__117__compressed_pairINS_15__tree_end_nodeIPNS_16__tree_node_baseIPvEEEENS_9allocatorINS_11__tree_nodeIxS3_EEEEE5firstB8ne180100Ev, symObjAddr: 0x45F0, symBinAddr: 0x1000053C0, symSize: 0x20 }
  - { offset: 0x16796, size: 0x8, addend: 0x0, symName: __ZNKSt3__122__compressed_pair_elemINS_15__tree_end_nodeIPNS_16__tree_node_baseIPvEEEELi0ELb0EE5__getB8ne180100Ev, symObjAddr: 0x4610, symBinAddr: 0x1000053E0, symSize: 0x10 }
  - { offset: 0x167BC, size: 0x8, addend: 0x0, symName: __ZNSt3__16__treeIxNS_4lessIxEENS_9allocatorIxEEE15__insert_uniqueB8ne180100ERKx, symObjAddr: 0x4620, symBinAddr: 0x1000053F0, symSize: 0x50 }
  - { offset: 0x167F1, size: 0x8, addend: 0x0, symName: __ZNSt3__14pairINS_21__tree_const_iteratorIxPNS_11__tree_nodeIxPvEElEEbEC1B8ne180100INS_15__tree_iteratorIxS5_lEEbLi0EEEONS0_IT_T0_EE, symObjAddr: 0x4670, symBinAddr: 0x100005440, symSize: 0x30 }
  - { offset: 0x16841, size: 0x8, addend: 0x0, symName: __ZNSt3__16__treeIxNS_4lessIxEENS_9allocatorIxEEE25__emplace_unique_key_argsIxJRKxEEENS_4pairINS_15__tree_iteratorIxPNS_11__tree_nodeIxPvEElEEbEERKT_DpOT0_, symObjAddr: 0x46A0, symBinAddr: 0x100005470, symSize: 0xE0 }
  - { offset: 0x168F6, size: 0x8, addend: 0x0, symName: __ZNSt3__122__tree_key_value_typesIxE9__get_keyB8ne180100ERKx, symObjAddr: 0x4780, symBinAddr: 0x100005550, symSize: 0x10 }
  - { offset: 0x1691A, size: 0x8, addend: 0x0, symName: __ZNSt3__16__treeIxNS_4lessIxEENS_9allocatorIxEEE12__find_equalIxEERPNS_16__tree_node_baseIPvEERPNS_15__tree_end_nodeISA_EERKT_, symObjAddr: 0x4790, symBinAddr: 0x100005560, symSize: 0x180 }
  - { offset: 0x16987, size: 0x8, addend: 0x0, symName: __ZNSt3__16__treeIxNS_4lessIxEENS_9allocatorIxEEE16__construct_nodeIJRKxEEENS_10unique_ptrINS_11__tree_nodeIxPvEENS_22__tree_node_destructorINS3_ISC_EEEEEEDpOT_, symObjAddr: 0x4910, symBinAddr: 0x1000056E0, symSize: 0xF0 }
  - { offset: 0x169E8, size: 0x8, addend: 0x0, symName: __ZNSt3__16__treeIxNS_4lessIxEENS_9allocatorIxEEE16__insert_node_atEPNS_15__tree_end_nodeIPNS_16__tree_node_baseIPvEEEERSA_SA_, symObjAddr: 0x4A00, symBinAddr: 0x1000057D0, symSize: 0xC0 }
  - { offset: 0x16A3D, size: 0x8, addend: 0x0, symName: __ZNKSt3__110unique_ptrINS_11__tree_nodeIxPvEENS_22__tree_node_destructorINS_9allocatorIS3_EEEEE3getB8ne180100Ev, symObjAddr: 0x4AC0, symBinAddr: 0x100005890, symSize: 0x20 }
  - { offset: 0x16A63, size: 0x8, addend: 0x0, symName: __ZNSt3__110unique_ptrINS_11__tree_nodeIxPvEENS_22__tree_node_destructorINS_9allocatorIS3_EEEEE7releaseB8ne180100Ev, symObjAddr: 0x4AE0, symBinAddr: 0x1000058B0, symSize: 0x40 }
  - { offset: 0x16A98, size: 0x8, addend: 0x0, symName: __ZNSt3__110unique_ptrINS_11__tree_nodeIxPvEENS_22__tree_node_destructorINS_9allocatorIS3_EEEEED1B8ne180100Ev, symObjAddr: 0x4B20, symBinAddr: 0x1000058F0, symSize: 0x20 }
  - { offset: 0x16AC2, size: 0x8, addend: 0x0, symName: __ZNSt3__115__tree_iteratorIxPNS_11__tree_nodeIxPvEElEC1B8ne180100ES4_, symObjAddr: 0x4B40, symBinAddr: 0x100005910, symSize: 0x30 }
  - { offset: 0x16B05, size: 0x8, addend: 0x0, symName: __ZNSt3__14pairINS_15__tree_iteratorIxPNS_11__tree_nodeIxPvEElEEbEC1B8ne180100IS6_RbLi0EEEOT_OT0_, symObjAddr: 0x4B70, symBinAddr: 0x100005940, symSize: 0x30 }
  - { offset: 0x16B63, size: 0x8, addend: 0x0, symName: __ZNKSt3__16__treeIxNS_4lessIxEENS_9allocatorIxEEE10__root_ptrB8ne180100Ev, symObjAddr: 0x4BA0, symBinAddr: 0x100005970, symSize: 0x20 }
  - { offset: 0x16B89, size: 0x8, addend: 0x0, symName: __ZNSt3__16__treeIxNS_4lessIxEENS_9allocatorIxEEE10value_compB8ne180100Ev, symObjAddr: 0x4BC0, symBinAddr: 0x100005990, symSize: 0x20 }
  - { offset: 0x16BAF, size: 0x8, addend: 0x0, symName: __ZNKSt3__14lessIxEclB8ne180100ERKxS3_, symObjAddr: 0x4BE0, symBinAddr: 0x1000059B0, symSize: 0x30 }
  - { offset: 0x16BF3, size: 0x8, addend: 0x0, symName: __ZNSt3__117__compressed_pairImNS_4lessIxEEE6secondB8ne180100Ev, symObjAddr: 0x4C10, symBinAddr: 0x1000059E0, symSize: 0x20 }
  - { offset: 0x16C19, size: 0x8, addend: 0x0, symName: __ZNSt3__122__compressed_pair_elemINS_4lessIxEELi1ELb1EE5__getB8ne180100Ev, symObjAddr: 0x4C30, symBinAddr: 0x100005A00, symSize: 0x10 }
  - { offset: 0x16C3F, size: 0x8, addend: 0x0, symName: __ZNSt3__116allocator_traitsINS_9allocatorINS_11__tree_nodeIxPvEEEEE8allocateB8ne180100ERS5_m, symObjAddr: 0x4C40, symBinAddr: 0x100005A10, symSize: 0x30 }
  - { offset: 0x16C72, size: 0x8, addend: 0x0, symName: __ZNSt3__122__tree_node_destructorINS_9allocatorINS_11__tree_nodeIxPvEEEEEC1B8ne180100ERS5_b, symObjAddr: 0x4C70, symBinAddr: 0x100005A40, symSize: 0x40 }
  - { offset: 0x16CBF, size: 0x8, addend: 0x0, symName: __ZNSt3__110unique_ptrINS_11__tree_nodeIxPvEENS_22__tree_node_destructorINS_9allocatorIS3_EEEEEC1B8ne180100ILb1EvEEPS3_NS_16__dependent_typeINS_27__unique_ptr_deleter_sfinaeIS7_EEXT_EE20__good_rval_ref_typeE, symObjAddr: 0x4CB0, symBinAddr: 0x100005A80, symSize: 0x30 }
  - { offset: 0x16D10, size: 0x8, addend: 0x0, symName: __ZNSt3__116allocator_traitsINS_9allocatorINS_11__tree_nodeIxPvEEEEE9constructB8ne180100IxJRKxEvvEEvRS5_PT_DpOT0_, symObjAddr: 0x4CE0, symBinAddr: 0x100005AB0, symSize: 0x30 }
  - { offset: 0x16D64, size: 0x8, addend: 0x0, symName: __ZNKSt3__110unique_ptrINS_11__tree_nodeIxPvEENS_22__tree_node_destructorINS_9allocatorIS3_EEEEEptB8ne180100Ev, symObjAddr: 0x4D10, symBinAddr: 0x100005AE0, symSize: 0x20 }
  - { offset: 0x16D8A, size: 0x8, addend: 0x0, symName: __ZNSt3__110unique_ptrINS_11__tree_nodeIxPvEENS_22__tree_node_destructorINS_9allocatorIS3_EEEEE11get_deleterB8ne180100Ev, symObjAddr: 0x4D30, symBinAddr: 0x100005B00, symSize: 0x20 }
  - { offset: 0x16DB0, size: 0x8, addend: 0x0, symName: __ZNSt3__19allocatorINS_11__tree_nodeIxPvEEE8allocateB8ne180100Em, symObjAddr: 0x4D50, symBinAddr: 0x100005B20, symSize: 0x50 }
  - { offset: 0x16DEE, size: 0x8, addend: 0x0, symName: __ZNSt3__116allocator_traitsINS_9allocatorINS_11__tree_nodeIxPvEEEEE8max_sizeB8ne180100IS5_vvEEmRKS5_, symObjAddr: 0x4DA0, symBinAddr: 0x100005B70, symSize: 0x30 }
  - { offset: 0x16E19, size: 0x8, addend: 0x0, symName: __ZNSt3__122__tree_node_destructorINS_9allocatorINS_11__tree_nodeIxPvEEEEEC2B8ne180100ERS5_b, symObjAddr: 0x4DD0, symBinAddr: 0x100005BA0, symSize: 0x30 }
  - { offset: 0x16E61, size: 0x8, addend: 0x0, symName: __ZNSt3__110unique_ptrINS_11__tree_nodeIxPvEENS_22__tree_node_destructorINS_9allocatorIS3_EEEEEC2B8ne180100ILb1EvEEPS3_NS_16__dependent_typeINS_27__unique_ptr_deleter_sfinaeIS7_EEXT_EE20__good_rval_ref_typeE, symObjAddr: 0x4E00, symBinAddr: 0x100005BD0, symSize: 0x40 }
  - { offset: 0x16EB2, size: 0x8, addend: 0x0, symName: __ZNSt3__117__compressed_pairIPNS_11__tree_nodeIxPvEENS_22__tree_node_destructorINS_9allocatorIS3_EEEEEC1B8ne180100IRS4_S8_EEOT_OT0_, symObjAddr: 0x4E40, symBinAddr: 0x100005C10, symSize: 0x30 }
  - { offset: 0x16F0A, size: 0x8, addend: 0x0, symName: __ZNSt3__117__compressed_pairIPNS_11__tree_nodeIxPvEENS_22__tree_node_destructorINS_9allocatorIS3_EEEEEC2B8ne180100IRS4_S8_EEOT_OT0_, symObjAddr: 0x4E70, symBinAddr: 0x100005C40, symSize: 0x40 }
  - { offset: 0x16F62, size: 0x8, addend: 0x0, symName: __ZNSt3__122__compressed_pair_elemIPNS_11__tree_nodeIxPvEELi0ELb0EEC2B8ne180100IRS4_vEEOT_, symObjAddr: 0x4EB0, symBinAddr: 0x100005C80, symSize: 0x20 }
  - { offset: 0x16FA4, size: 0x8, addend: 0x0, symName: __ZNSt3__122__compressed_pair_elemINS_22__tree_node_destructorINS_9allocatorINS_11__tree_nodeIxPvEEEEEELi1ELb0EEC2B8ne180100IS7_vEEOT_, symObjAddr: 0x4ED0, symBinAddr: 0x100005CA0, symSize: 0x30 }
  - { offset: 0x16FE6, size: 0x8, addend: 0x0, symName: __ZNKSt3__117__compressed_pairIPNS_11__tree_nodeIxPvEENS_22__tree_node_destructorINS_9allocatorIS3_EEEEE5firstB8ne180100Ev, symObjAddr: 0x4F00, symBinAddr: 0x100005CD0, symSize: 0x20 }
  - { offset: 0x1700C, size: 0x8, addend: 0x0, symName: __ZNKSt3__122__compressed_pair_elemIPNS_11__tree_nodeIxPvEELi0ELb0EE5__getB8ne180100Ev, symObjAddr: 0x4F20, symBinAddr: 0x100005CF0, symSize: 0x10 }
  - { offset: 0x17032, size: 0x8, addend: 0x0, symName: __ZNSt3__117__compressed_pairIPNS_11__tree_nodeIxPvEENS_22__tree_node_destructorINS_9allocatorIS3_EEEEE6secondB8ne180100Ev, symObjAddr: 0x4F30, symBinAddr: 0x100005D00, symSize: 0x20 }
  - { offset: 0x17058, size: 0x8, addend: 0x0, symName: __ZNSt3__122__compressed_pair_elemINS_22__tree_node_destructorINS_9allocatorINS_11__tree_nodeIxPvEEEEEELi1ELb0EE5__getB8ne180100Ev, symObjAddr: 0x4F50, symBinAddr: 0x100005D20, symSize: 0x10 }
  - { offset: 0x1707E, size: 0x8, addend: 0x0, symName: __ZNSt3__16__treeIxNS_4lessIxEENS_9allocatorIxEEE4sizeB8ne180100Ev, symObjAddr: 0x5280, symBinAddr: 0x100006050, symSize: 0x20 }
  - { offset: 0x170A4, size: 0x8, addend: 0x0, symName: __ZNKSt3__116__tree_node_baseIPvE15__parent_unsafeB8ne180100Ev, symObjAddr: 0x52A0, symBinAddr: 0x100006070, symSize: 0x20 }
  - { offset: 0x170CA, size: 0x8, addend: 0x0, symName: __ZNSt3__116__tree_node_baseIPvE12__set_parentB8ne180100EPS2_, symObjAddr: 0x5480, symBinAddr: 0x100006250, symSize: 0x20 }
  - { offset: 0x170FF, size: 0x8, addend: 0x0, symName: __ZNSt3__117__compressed_pairImNS_4lessIxEEE5firstB8ne180100Ev, symObjAddr: 0x54A0, symBinAddr: 0x100006270, symSize: 0x20 }
  - { offset: 0x17125, size: 0x8, addend: 0x0, symName: __ZNSt3__117__compressed_pairIPNS_11__tree_nodeIxPvEENS_22__tree_node_destructorINS_9allocatorIS3_EEEEE5firstB8ne180100Ev, symObjAddr: 0x54C0, symBinAddr: 0x100006290, symSize: 0x20 }
  - { offset: 0x1714B, size: 0x8, addend: 0x0, symName: __ZNSt3__122__compressed_pair_elemIPNS_11__tree_nodeIxPvEELi0ELb0EE5__getB8ne180100Ev, symObjAddr: 0x54E0, symBinAddr: 0x1000062B0, symSize: 0x10 }
  - { offset: 0x17171, size: 0x8, addend: 0x0, symName: __ZNSt3__110unique_ptrINS_11__tree_nodeIxPvEENS_22__tree_node_destructorINS_9allocatorIS3_EEEEED2B8ne180100Ev, symObjAddr: 0x54F0, symBinAddr: 0x1000062C0, symSize: 0x20 }
  - { offset: 0x1719B, size: 0x8, addend: 0x0, symName: __ZNSt3__110unique_ptrINS_11__tree_nodeIxPvEENS_22__tree_node_destructorINS_9allocatorIS3_EEEEE5resetB8ne180100EPS3_, symObjAddr: 0x5510, symBinAddr: 0x1000062E0, symSize: 0x70 }
  - { offset: 0x171DF, size: 0x8, addend: 0x0, symName: __ZNSt3__122__tree_node_destructorINS_9allocatorINS_11__tree_nodeIxPvEEEEEclB8ne180100EPS4_, symObjAddr: 0x5580, symBinAddr: 0x100006350, symSize: 0x70 }
  - { offset: 0x17214, size: 0x8, addend: 0x0, symName: __ZNSt3__115__tree_iteratorIxPNS_11__tree_nodeIxPvEElEC2B8ne180100ES4_, symObjAddr: 0x55F0, symBinAddr: 0x1000063C0, symSize: 0x20 }
  - { offset: 0x1724D, size: 0x8, addend: 0x0, symName: __ZNSt3__14pairINS_15__tree_iteratorIxPNS_11__tree_nodeIxPvEElEEbEC2B8ne180100IS6_RbLi0EEEOT_OT0_, symObjAddr: 0x5610, symBinAddr: 0x1000063E0, symSize: 0x30 }
  - { offset: 0x172AB, size: 0x8, addend: 0x0, symName: __ZNSt3__14pairINS_21__tree_const_iteratorIxPNS_11__tree_nodeIxPvEElEEbEC2B8ne180100INS_15__tree_iteratorIxS5_lEEbLi0EEEONS0_IT_T0_EE, symObjAddr: 0x5640, symBinAddr: 0x100006410, symSize: 0x50 }
  - { offset: 0x172FB, size: 0x8, addend: 0x0, symName: __ZNSt3__121__tree_const_iteratorIxPNS_11__tree_nodeIxPvEElEC1B8ne180100ENS_15__tree_iteratorIxS4_lEE, symObjAddr: 0x5690, symBinAddr: 0x100006460, symSize: 0x30 }
  - { offset: 0x17334, size: 0x8, addend: 0x0, symName: __ZNSt3__121__tree_const_iteratorIxPNS_11__tree_nodeIxPvEElEC2B8ne180100ENS_15__tree_iteratorIxS4_lEE, symObjAddr: 0x56C0, symBinAddr: 0x100006490, symSize: 0x20 }
  - { offset: 0x17381, size: 0x8, addend: 0x0, symName: __ZNSt3__112__hash_tableINS_17__hash_value_typeIxNS_4pairIxxEEEENS_22__unordered_map_hasherIxS4_NS_4hashIxEENS_8equal_toIxEELb1EEENS_21__unordered_map_equalIxS4_S9_S7_Lb1EEENS_9allocatorIS4_EEE25__emplace_unique_key_argsIxJRKNS_21piecewise_construct_tENS_5tupleIJRKxEEENSK_IJEEEEEENS2_INS_15__hash_iteratorIPNS_11__hash_nodeIS4_PvEEEEbEERKT_DpOT0_, symObjAddr: 0x56E0, symBinAddr: 0x1000064B0, symSize: 0x660 }
  - { offset: 0x1748A, size: 0x8, addend: 0x0, symName: __ZNKSt3__115__hash_iteratorIPNS_11__hash_nodeINS_17__hash_value_typeIxNS_4pairIxxEEEEPvEEEptB8ne180100Ev, symObjAddr: 0x5D80, symBinAddr: 0x100006B50, symSize: 0x30 }
  - { offset: 0x174B0, size: 0x8, addend: 0x0, symName: __ZNSt3__112__hash_tableINS_17__hash_value_typeIxNS_4pairIxxEEEENS_22__unordered_map_hasherIxS4_NS_4hashIxEENS_8equal_toIxEELb1EEENS_21__unordered_map_equalIxS4_S9_S7_Lb1EEENS_9allocatorIS4_EEE13hash_functionB8ne180100Ev, symObjAddr: 0x5DB0, symBinAddr: 0x100006B80, symSize: 0x20 }
  - { offset: 0x174D6, size: 0x8, addend: 0x0, symName: __ZNKSt3__122__unordered_map_hasherIxNS_17__hash_value_typeIxNS_4pairIxxEEEENS_4hashIxEENS_8equal_toIxEELb1EEclB8ne180100ERKx, symObjAddr: 0x5DD0, symBinAddr: 0x100006BA0, symSize: 0x30 }
  - { offset: 0x1750B, size: 0x8, addend: 0x0, symName: __ZNKSt3__112__hash_tableINS_17__hash_value_typeIxNS_4pairIxxEEEENS_22__unordered_map_hasherIxS4_NS_4hashIxEENS_8equal_toIxEELb1EEENS_21__unordered_map_equalIxS4_S9_S7_Lb1EEENS_9allocatorIS4_EEE12bucket_countB8ne180100Ev, symObjAddr: 0x5E00, symBinAddr: 0x100006BD0, symSize: 0x30 }
  - { offset: 0x17531, size: 0x8, addend: 0x0, symName: __ZNKSt3__110unique_ptrIA_PNS_16__hash_node_baseIPNS_11__hash_nodeINS_17__hash_value_typeIxNS_4pairIxxEEEEPvEEEENS_25__bucket_list_deallocatorINS_9allocatorISB_EEEEEixB8ne180100Em, symObjAddr: 0x5EB0, symBinAddr: 0x100006C80, symSize: 0x30 }
  - { offset: 0x17566, size: 0x8, addend: 0x0, symName: __ZNKSt3__116__hash_node_baseIPNS_11__hash_nodeINS_17__hash_value_typeIxNS_4pairIxxEEEEPvEEE6__hashB8ne180100Ev, symObjAddr: 0x5EE0, symBinAddr: 0x100006CB0, symSize: 0x20 }
  - { offset: 0x1758C, size: 0x8, addend: 0x0, symName: __ZNSt3__112__hash_tableINS_17__hash_value_typeIxNS_4pairIxxEEEENS_22__unordered_map_hasherIxS4_NS_4hashIxEENS_8equal_toIxEELb1EEENS_21__unordered_map_equalIxS4_S9_S7_Lb1EEENS_9allocatorIS4_EEE6key_eqB8ne180100Ev, symObjAddr: 0x5F00, symBinAddr: 0x100006CD0, symSize: 0x20 }
  - { offset: 0x175B2, size: 0x8, addend: 0x0, symName: __ZNKSt3__121__unordered_map_equalIxNS_17__hash_value_typeIxNS_4pairIxxEEEENS_8equal_toIxEENS_4hashIxEELb1EEclB8ne180100ERKS4_RKx, symObjAddr: 0x5F20, symBinAddr: 0x100006CF0, symSize: 0x40 }
  - { offset: 0x175F6, size: 0x8, addend: 0x0, symName: __ZNSt3__112__hash_tableINS_17__hash_value_typeIxNS_4pairIxxEEEENS_22__unordered_map_hasherIxS4_NS_4hashIxEENS_8equal_toIxEELb1EEENS_21__unordered_map_equalIxS4_S9_S7_Lb1EEENS_9allocatorIS4_EEE21__construct_node_hashIRKNS_21piecewise_construct_tEJNS_5tupleIJRKxEEENSK_IJEEEEEENS_10unique_ptrINS_11__hash_nodeIS4_PvEENS_22__hash_node_destructorINSD_ISS_EEEEEEmOT_DpOT0_, symObjAddr: 0x5F60, symBinAddr: 0x100006D30, symSize: 0x160 }
  - { offset: 0x17692, size: 0x8, addend: 0x0, symName: __ZNSt3__112__hash_tableINS_17__hash_value_typeIxNS_4pairIxxEEEENS_22__unordered_map_hasherIxS4_NS_4hashIxEENS_8equal_toIxEELb1EEENS_21__unordered_map_equalIxS4_S9_S7_Lb1EEENS_9allocatorIS4_EEE4sizeB8ne180100Ev, symObjAddr: 0x60C0, symBinAddr: 0x100006E90, symSize: 0x20 }
  - { offset: 0x176B8, size: 0x8, addend: 0x0, symName: __ZNSt3__112__hash_tableINS_17__hash_value_typeIxNS_4pairIxxEEEENS_22__unordered_map_hasherIxS4_NS_4hashIxEENS_8equal_toIxEELb1EEENS_21__unordered_map_equalIxS4_S9_S7_Lb1EEENS_9allocatorIS4_EEE15max_load_factorB8ne180100Ev, symObjAddr: 0x60E0, symBinAddr: 0x100006EB0, symSize: 0x20 }
  - { offset: 0x176DE, size: 0x8, addend: 0x0, symName: __ZNSt3__112__hash_tableINS_17__hash_value_typeIxNS_4pairIxxEEEENS_22__unordered_map_hasherIxS4_NS_4hashIxEENS_8equal_toIxEELb1EEENS_21__unordered_map_equalIxS4_S9_S7_Lb1EEENS_9allocatorIS4_EEE15__rehash_uniqueB8ne180100Em, symObjAddr: 0x6100, symBinAddr: 0x100006ED0, symSize: 0x30 }
  - { offset: 0x17713, size: 0x8, addend: 0x0, symName: __ZNSt3__116__hash_node_baseIPNS_11__hash_nodeINS_17__hash_value_typeIxNS_4pairIxxEEEEPvEEE5__ptrB8ne180100Ev, symObjAddr: 0x6190, symBinAddr: 0x100006F60, symSize: 0x20 }
  - { offset: 0x17739, size: 0x8, addend: 0x0, symName: __ZNKSt3__110unique_ptrINS_11__hash_nodeINS_17__hash_value_typeIxNS_4pairIxxEEEEPvEENS_22__hash_node_destructorINS_9allocatorIS7_EEEEEptB8ne180100Ev, symObjAddr: 0x61B0, symBinAddr: 0x100006F80, symSize: 0x20 }
  - { offset: 0x1775F, size: 0x8, addend: 0x0, symName: __ZNKSt3__110unique_ptrINS_11__hash_nodeINS_17__hash_value_typeIxNS_4pairIxxEEEEPvEENS_22__hash_node_destructorINS_9allocatorIS7_EEEEE3getB8ne180100Ev, symObjAddr: 0x61D0, symBinAddr: 0x100006FA0, symSize: 0x20 }
  - { offset: 0x17785, size: 0x8, addend: 0x0, symName: __ZNSt3__110unique_ptrINS_11__hash_nodeINS_17__hash_value_typeIxNS_4pairIxxEEEEPvEENS_22__hash_node_destructorINS_9allocatorIS7_EEEEE7releaseB8ne180100Ev, symObjAddr: 0x61F0, symBinAddr: 0x100006FC0, symSize: 0x40 }
  - { offset: 0x177BA, size: 0x8, addend: 0x0, symName: __ZNSt3__110unique_ptrINS_11__hash_nodeINS_17__hash_value_typeIxNS_4pairIxxEEEEPvEENS_22__hash_node_destructorINS_9allocatorIS7_EEEEED1B8ne180100Ev, symObjAddr: 0x6230, symBinAddr: 0x100007000, symSize: 0x20 }
  - { offset: 0x177E4, size: 0x8, addend: 0x0, symName: __ZNSt3__115__hash_iteratorIPNS_11__hash_nodeINS_17__hash_value_typeIxNS_4pairIxxEEEEPvEEEC1B8ne180100EPNS_16__hash_node_baseIS8_EE, symObjAddr: 0x6250, symBinAddr: 0x100007020, symSize: 0x30 }
  - { offset: 0x17822, size: 0x8, addend: 0x0, symName: __ZNSt3__14pairINS_15__hash_iteratorIPNS_11__hash_nodeINS_17__hash_value_typeIxNS0_IxxEEEEPvEEEEbEC1B8ne180100IS9_RbLi0EEEOT_OT0_, symObjAddr: 0x6280, symBinAddr: 0x100007050, symSize: 0x30 }
  - { offset: 0x17880, size: 0x8, addend: 0x0, symName: __ZNSt3__117__compressed_pairImNS_22__unordered_map_hasherIxNS_17__hash_value_typeIxNS_4pairIxxEEEENS_4hashIxEENS_8equal_toIxEELb1EEEE6secondB8ne180100Ev, symObjAddr: 0x62B0, symBinAddr: 0x100007080, symSize: 0x20 }
  - { offset: 0x178A6, size: 0x8, addend: 0x0, symName: __ZNSt3__122__compressed_pair_elemINS_22__unordered_map_hasherIxNS_17__hash_value_typeIxNS_4pairIxxEEEENS_4hashIxEENS_8equal_toIxEELb1EEELi1ELb1EE5__getB8ne180100Ev, symObjAddr: 0x62D0, symBinAddr: 0x1000070A0, symSize: 0x10 }
  - { offset: 0x178CC, size: 0x8, addend: 0x0, symName: __ZNKSt3__113__scalar_hashIxLm1EEclB8ne180100Ex, symObjAddr: 0x62E0, symBinAddr: 0x1000070B0, symSize: 0x20 }
  - { offset: 0x17932, size: 0x8, addend: 0x0, symName: __ZNKSt3__110unique_ptrIA_PNS_16__hash_node_baseIPNS_11__hash_nodeINS_17__hash_value_typeIxNS_4pairIxxEEEEPvEEEENS_25__bucket_list_deallocatorINS_9allocatorISB_EEEEE11get_deleterB8ne180100Ev, symObjAddr: 0x6300, symBinAddr: 0x1000070D0, symSize: 0x20 }
  - { offset: 0x17958, size: 0x8, addend: 0x0, symName: __ZNKSt3__125__bucket_list_deallocatorINS_9allocatorIPNS_16__hash_node_baseIPNS_11__hash_nodeINS_17__hash_value_typeIxNS_4pairIxxEEEEPvEEEEEEE4sizeB8ne180100Ev, symObjAddr: 0x6320, symBinAddr: 0x1000070F0, symSize: 0x20 }
  - { offset: 0x1797E, size: 0x8, addend: 0x0, symName: __ZNKSt3__117__compressed_pairIPPNS_16__hash_node_baseIPNS_11__hash_nodeINS_17__hash_value_typeIxNS_4pairIxxEEEEPvEEEENS_25__bucket_list_deallocatorINS_9allocatorISB_EEEEE6secondB8ne180100Ev, symObjAddr: 0x6340, symBinAddr: 0x100007110, symSize: 0x20 }
  - { offset: 0x179A4, size: 0x8, addend: 0x0, symName: __ZNKSt3__122__compressed_pair_elemINS_25__bucket_list_deallocatorINS_9allocatorIPNS_16__hash_node_baseIPNS_11__hash_nodeINS_17__hash_value_typeIxNS_4pairIxxEEEEPvEEEEEEEELi1ELb0EE5__getB8ne180100Ev, symObjAddr: 0x6360, symBinAddr: 0x100007130, symSize: 0x10 }
  - { offset: 0x179CA, size: 0x8, addend: 0x0, symName: __ZNKSt3__117__compressed_pairImNS_9allocatorIPNS_16__hash_node_baseIPNS_11__hash_nodeINS_17__hash_value_typeIxNS_4pairIxxEEEEPvEEEEEEE5firstB8ne180100Ev, symObjAddr: 0x6370, symBinAddr: 0x100007140, symSize: 0x20 }
  - { offset: 0x179F0, size: 0x8, addend: 0x0, symName: __ZNKSt3__122__compressed_pair_elemImLi0ELb0EE5__getB8ne180100Ev, symObjAddr: 0x6390, symBinAddr: 0x100007160, symSize: 0x10 }
  - { offset: 0x17A16, size: 0x8, addend: 0x0, symName: __ZNKSt3__117__compressed_pairIPPNS_16__hash_node_baseIPNS_11__hash_nodeINS_17__hash_value_typeIxNS_4pairIxxEEEEPvEEEENS_25__bucket_list_deallocatorINS_9allocatorISB_EEEEE5firstB8ne180100Ev, symObjAddr: 0x63A0, symBinAddr: 0x100007170, symSize: 0x20 }
  - { offset: 0x17A3C, size: 0x8, addend: 0x0, symName: __ZNKSt3__122__compressed_pair_elemIPPNS_16__hash_node_baseIPNS_11__hash_nodeINS_17__hash_value_typeIxNS_4pairIxxEEEEPvEEEELi0ELb0EE5__getB8ne180100Ev, symObjAddr: 0x63C0, symBinAddr: 0x100007190, symSize: 0x10 }
  - { offset: 0x17A62, size: 0x8, addend: 0x0, symName: __ZNSt3__117__compressed_pairIfNS_21__unordered_map_equalIxNS_17__hash_value_typeIxNS_4pairIxxEEEENS_8equal_toIxEENS_4hashIxEELb1EEEE6secondB8ne180100Ev, symObjAddr: 0x63D0, symBinAddr: 0x1000071A0, symSize: 0x20 }
  - { offset: 0x17A88, size: 0x8, addend: 0x0, symName: __ZNSt3__122__compressed_pair_elemINS_21__unordered_map_equalIxNS_17__hash_value_typeIxNS_4pairIxxEEEENS_8equal_toIxEENS_4hashIxEELb1EEELi1ELb1EE5__getB8ne180100Ev, symObjAddr: 0x63F0, symBinAddr: 0x1000071C0, symSize: 0x10 }
  - { offset: 0x17AAE, size: 0x8, addend: 0x0, symName: __ZNKSt3__18equal_toIxEclB8ne180100ERKxS3_, symObjAddr: 0x6400, symBinAddr: 0x1000071D0, symSize: 0x30 }
  - { offset: 0x17AF2, size: 0x8, addend: 0x0, symName: __ZNKSt3__117__hash_value_typeIxNS_4pairIxxEEE11__get_valueB8ne180100Ev, symObjAddr: 0x6430, symBinAddr: 0x100007200, symSize: 0x20 }
  - { offset: 0x17B18, size: 0x8, addend: 0x0, symName: __ZNSt3__116allocator_traitsINS_9allocatorINS_11__hash_nodeINS_17__hash_value_typeIxNS_4pairIxxEEEEPvEEEEE8allocateB8ne180100ERS9_m, symObjAddr: 0x6480, symBinAddr: 0x100007250, symSize: 0x30 }
  - { offset: 0x17B4B, size: 0x8, addend: 0x0, symName: __ZNSt3__122__hash_node_destructorINS_9allocatorINS_11__hash_nodeINS_17__hash_value_typeIxNS_4pairIxxEEEEPvEEEEEC1B8ne180100ERS9_b, symObjAddr: 0x64B0, symBinAddr: 0x100007280, symSize: 0x40 }
  - { offset: 0x17B98, size: 0x8, addend: 0x0, symName: __ZNSt3__110unique_ptrINS_11__hash_nodeINS_17__hash_value_typeIxNS_4pairIxxEEEEPvEENS_22__hash_node_destructorINS_9allocatorIS7_EEEEEC1B8ne180100ILb1EvEEPS7_NS_16__dependent_typeINS_27__unique_ptr_deleter_sfinaeISB_EEXT_EE20__good_rval_ref_typeE, symObjAddr: 0x64F0, symBinAddr: 0x1000072C0, symSize: 0x30 }
  - { offset: 0x17BE9, size: 0x8, addend: 0x0, symName: __ZNKSt3__110unique_ptrINS_11__hash_nodeINS_17__hash_value_typeIxNS_4pairIxxEEEEPvEENS_22__hash_node_destructorINS_9allocatorIS7_EEEEEdeB8ne180100Ev, symObjAddr: 0x6550, symBinAddr: 0x100007320, symSize: 0x20 }
  - { offset: 0x17C0F, size: 0x8, addend: 0x0, symName: __ZNSt3__116allocator_traitsINS_9allocatorINS_11__hash_nodeINS_17__hash_value_typeIxNS_4pairIxxEEEEPvEEEEE9constructB8ne180100INS4_IKxS5_EEJRKNS_21piecewise_construct_tENS_5tupleIJRSC_EEENSH_IJEEEEvvEEvRS9_PT_DpOT0_, symObjAddr: 0x6570, symBinAddr: 0x100007340, symSize: 0x40 }
  - { offset: 0x17C8B, size: 0x8, addend: 0x0, symName: __ZNSt3__110unique_ptrINS_11__hash_nodeINS_17__hash_value_typeIxNS_4pairIxxEEEEPvEENS_22__hash_node_destructorINS_9allocatorIS7_EEEEE11get_deleterB8ne180100Ev, symObjAddr: 0x65B0, symBinAddr: 0x100007380, symSize: 0x20 }
  - { offset: 0x17CB1, size: 0x8, addend: 0x0, symName: __ZNSt3__19allocatorINS_11__hash_nodeINS_17__hash_value_typeIxNS_4pairIxxEEEEPvEEE8allocateB8ne180100Em, symObjAddr: 0x65D0, symBinAddr: 0x1000073A0, symSize: 0x50 }
  - { offset: 0x17CEF, size: 0x8, addend: 0x0, symName: __ZNSt3__116allocator_traitsINS_9allocatorINS_11__hash_nodeINS_17__hash_value_typeIxNS_4pairIxxEEEEPvEEEEE8max_sizeB8ne180100IS9_vvEEmRKS9_, symObjAddr: 0x6620, symBinAddr: 0x1000073F0, symSize: 0x30 }
  - { offset: 0x17D1A, size: 0x8, addend: 0x0, symName: __ZNSt3__122__hash_node_destructorINS_9allocatorINS_11__hash_nodeINS_17__hash_value_typeIxNS_4pairIxxEEEEPvEEEEEC2B8ne180100ERS9_b, symObjAddr: 0x6650, symBinAddr: 0x100007420, symSize: 0x30 }
  - { offset: 0x17D62, size: 0x8, addend: 0x0, symName: __ZNSt3__110unique_ptrINS_11__hash_nodeINS_17__hash_value_typeIxNS_4pairIxxEEEEPvEENS_22__hash_node_destructorINS_9allocatorIS7_EEEEEC2B8ne180100ILb1EvEEPS7_NS_16__dependent_typeINS_27__unique_ptr_deleter_sfinaeISB_EEXT_EE20__good_rval_ref_typeE, symObjAddr: 0x6680, symBinAddr: 0x100007450, symSize: 0x40 }
  - { offset: 0x17DB3, size: 0x8, addend: 0x0, symName: __ZNSt3__117__compressed_pairIPNS_11__hash_nodeINS_17__hash_value_typeIxNS_4pairIxxEEEEPvEENS_22__hash_node_destructorINS_9allocatorIS7_EEEEEC1B8ne180100IRS8_SC_EEOT_OT0_, symObjAddr: 0x66C0, symBinAddr: 0x100007490, symSize: 0x30 }
  - { offset: 0x17E0B, size: 0x8, addend: 0x0, symName: __ZNSt3__117__compressed_pairIPNS_11__hash_nodeINS_17__hash_value_typeIxNS_4pairIxxEEEEPvEENS_22__hash_node_destructorINS_9allocatorIS7_EEEEEC2B8ne180100IRS8_SC_EEOT_OT0_, symObjAddr: 0x66F0, symBinAddr: 0x1000074C0, symSize: 0x40 }
  - { offset: 0x17E63, size: 0x8, addend: 0x0, symName: __ZNSt3__122__compressed_pair_elemIPNS_11__hash_nodeINS_17__hash_value_typeIxNS_4pairIxxEEEEPvEELi0ELb0EEC2B8ne180100IRS8_vEEOT_, symObjAddr: 0x6730, symBinAddr: 0x100007500, symSize: 0x20 }
  - { offset: 0x17EA5, size: 0x8, addend: 0x0, symName: __ZNSt3__122__compressed_pair_elemINS_22__hash_node_destructorINS_9allocatorINS_11__hash_nodeINS_17__hash_value_typeIxNS_4pairIxxEEEEPvEEEEEELi1ELb0EEC2B8ne180100ISB_vEEOT_, symObjAddr: 0x6750, symBinAddr: 0x100007520, symSize: 0x30 }
  - { offset: 0x17EE7, size: 0x8, addend: 0x0, symName: __ZNSt3__111__hash_nodeINS_17__hash_value_typeIxNS_4pairIxxEEEEPvEC1B8ne180100EPNS_16__hash_node_baseIPS6_EEm, symObjAddr: 0x67C0, symBinAddr: 0x100007590, symSize: 0x30 }
  - { offset: 0x17F2D, size: 0x8, addend: 0x0, symName: __ZNSt3__111__hash_nodeINS_17__hash_value_typeIxNS_4pairIxxEEEEPvEC2B8ne180100EPNS_16__hash_node_baseIPS6_EEm, symObjAddr: 0x67F0, symBinAddr: 0x1000075C0, symSize: 0x40 }
  - { offset: 0x17F73, size: 0x8, addend: 0x0, symName: __ZNSt3__116__hash_node_baseIPNS_11__hash_nodeINS_17__hash_value_typeIxNS_4pairIxxEEEEPvEEEC2B8ne180100EPS9_, symObjAddr: 0x6830, symBinAddr: 0x100007600, symSize: 0x20 }
  - { offset: 0x17FAB, size: 0x8, addend: 0x0, symName: __ZNKSt3__117__compressed_pairIPNS_11__hash_nodeINS_17__hash_value_typeIxNS_4pairIxxEEEEPvEENS_22__hash_node_destructorINS_9allocatorIS7_EEEEE5firstB8ne180100Ev, symObjAddr: 0x6850, symBinAddr: 0x100007620, symSize: 0x20 }
  - { offset: 0x17FD1, size: 0x8, addend: 0x0, symName: __ZNKSt3__122__compressed_pair_elemIPNS_11__hash_nodeINS_17__hash_value_typeIxNS_4pairIxxEEEEPvEELi0ELb0EE5__getB8ne180100Ev, symObjAddr: 0x6870, symBinAddr: 0x100007640, symSize: 0x10 }
  - { offset: 0x17FF7, size: 0x8, addend: 0x0, symName: __ZNSt3__14pairIKxNS0_IxxEEEC1B8ne180100IJRS1_EJEEENS_21piecewise_construct_tENS_5tupleIJDpT_EEENS7_IJDpT0_EEE, symObjAddr: 0x6900, symBinAddr: 0x1000076D0, symSize: 0x40 }
  - { offset: 0x1805E, size: 0x8, addend: 0x0, symName: __ZNSt3__14pairIKxNS0_IxxEEEC1B8ne180100IJRS1_EJEJLm0EEJEEENS_21piecewise_construct_tERNS_5tupleIJDpT_EEERNS7_IJDpT0_EEENS_15__tuple_indicesIJXspT1_EEEENSG_IJXspT2_EEEE, symObjAddr: 0x6940, symBinAddr: 0x100007710, symSize: 0x30 }
  - { offset: 0x180EB, size: 0x8, addend: 0x0, symName: __ZNSt3__14pairIKxNS0_IxxEEEC2B8ne180100IJRS1_EJEJLm0EEJEEENS_21piecewise_construct_tERNS_5tupleIJDpT_EEERNS7_IJDpT0_EEENS_15__tuple_indicesIJXspT1_EEEENSG_IJXspT2_EEEE, symObjAddr: 0x6970, symBinAddr: 0x100007740, symSize: 0x40 }
  - { offset: 0x18178, size: 0x8, addend: 0x0, symName: __ZNSt3__14pairIxxEC1B8ne180100ILb1ELi0EEEv, symObjAddr: 0x69D0, symBinAddr: 0x1000077A0, symSize: 0x20 }
  - { offset: 0x181B2, size: 0x8, addend: 0x0, symName: __ZNSt3__112__tuple_leafILm0ERKxLb0EE3getB8ne180100Ev, symObjAddr: 0x69F0, symBinAddr: 0x1000077C0, symSize: 0x20 }
  - { offset: 0x181D8, size: 0x8, addend: 0x0, symName: __ZNSt3__14pairIxxEC2B8ne180100ILb1ELi0EEEv, symObjAddr: 0x6A10, symBinAddr: 0x1000077E0, symSize: 0x20 }
  - { offset: 0x18212, size: 0x8, addend: 0x0, symName: __ZNSt3__117__compressed_pairIPNS_11__hash_nodeINS_17__hash_value_typeIxNS_4pairIxxEEEEPvEENS_22__hash_node_destructorINS_9allocatorIS7_EEEEE6secondB8ne180100Ev, symObjAddr: 0x6A30, symBinAddr: 0x100007800, symSize: 0x20 }
  - { offset: 0x18238, size: 0x8, addend: 0x0, symName: __ZNSt3__122__compressed_pair_elemINS_22__hash_node_destructorINS_9allocatorINS_11__hash_nodeINS_17__hash_value_typeIxNS_4pairIxxEEEEPvEEEEEELi1ELb0EE5__getB8ne180100Ev, symObjAddr: 0x6A50, symBinAddr: 0x100007820, symSize: 0x10 }
  - { offset: 0x1825E, size: 0x8, addend: 0x0, symName: __ZNSt3__117__compressed_pairImNS_22__unordered_map_hasherIxNS_17__hash_value_typeIxNS_4pairIxxEEEENS_4hashIxEENS_8equal_toIxEELb1EEEE5firstB8ne180100Ev, symObjAddr: 0x6A60, symBinAddr: 0x100007830, symSize: 0x20 }
  - { offset: 0x18284, size: 0x8, addend: 0x0, symName: __ZNSt3__117__compressed_pairIfNS_21__unordered_map_equalIxNS_17__hash_value_typeIxNS_4pairIxxEEEENS_8equal_toIxEENS_4hashIxEELb1EEEE5firstB8ne180100Ev, symObjAddr: 0x6A80, symBinAddr: 0x100007850, symSize: 0x20 }
  - { offset: 0x182AA, size: 0x8, addend: 0x0, symName: __ZNSt3__122__compressed_pair_elemIfLi0ELb0EE5__getB8ne180100Ev, symObjAddr: 0x6AA0, symBinAddr: 0x100007870, symSize: 0x10 }
  - { offset: 0x182D0, size: 0x8, addend: 0x0, symName: __ZNSt3__112__hash_tableINS_17__hash_value_typeIxNS_4pairIxxEEEENS_22__unordered_map_hasherIxS4_NS_4hashIxEENS_8equal_toIxEELb1EEENS_21__unordered_map_equalIxS4_S9_S7_Lb1EEENS_9allocatorIS4_EEE8__rehashILb1EEEvm, symObjAddr: 0x6AB0, symBinAddr: 0x100007880, symSize: 0x230 }
  - { offset: 0x18320, size: 0x8, addend: 0x0, symName: __ZNSt3__112__hash_tableINS_17__hash_value_typeIxNS_4pairIxxEEEENS_22__unordered_map_hasherIxS4_NS_4hashIxEENS_8equal_toIxEELb1EEENS_21__unordered_map_equalIxS4_S9_S7_Lb1EEENS_9allocatorIS4_EEE11__do_rehashILb1EEEvm, symObjAddr: 0x6CE0, symBinAddr: 0x100007AB0, symSize: 0x250 }
  - { offset: 0x18403, size: 0x8, addend: 0x0, symName: __ZNSt3__110unique_ptrIA_PNS_16__hash_node_baseIPNS_11__hash_nodeINS_17__hash_value_typeIxNS_4pairIxxEEEEPvEEEENS_25__bucket_list_deallocatorINS_9allocatorISB_EEEEE11get_deleterB8ne180100Ev, symObjAddr: 0x6F90, symBinAddr: 0x100007D60, symSize: 0x20 }
  - { offset: 0x18429, size: 0x8, addend: 0x0, symName: __ZNSt3__110unique_ptrIA_PNS_16__hash_node_baseIPNS_11__hash_nodeINS_17__hash_value_typeIxNS_4pairIxxEEEEPvEEEENS_25__bucket_list_deallocatorINS_9allocatorISB_EEEEE5resetB8ne180100IPSB_Li0EEEvT_, symObjAddr: 0x6FB0, symBinAddr: 0x100007D80, symSize: 0x70 }
  - { offset: 0x1847C, size: 0x8, addend: 0x0, symName: __ZNSt3__116allocator_traitsINS_9allocatorIPNS_16__hash_node_baseIPNS_11__hash_nodeINS_17__hash_value_typeIxNS_4pairIxxEEEEPvEEEEEEE8allocateB8ne180100ERSD_m, symObjAddr: 0x7020, symBinAddr: 0x100007DF0, symSize: 0x30 }
  - { offset: 0x184AF, size: 0x8, addend: 0x0, symName: __ZNSt3__19allocatorIPNS_16__hash_node_baseIPNS_11__hash_nodeINS_17__hash_value_typeIxNS_4pairIxxEEEEPvEEEEE8allocateB8ne180100Em, symObjAddr: 0x7050, symBinAddr: 0x100007E20, symSize: 0x50 }
  - { offset: 0x184ED, size: 0x8, addend: 0x0, symName: __ZNSt3__116allocator_traitsINS_9allocatorIPNS_16__hash_node_baseIPNS_11__hash_nodeINS_17__hash_value_typeIxNS_4pairIxxEEEEPvEEEEEEE8max_sizeB8ne180100ISD_vvEEmRKSD_, symObjAddr: 0x70A0, symBinAddr: 0x100007E70, symSize: 0x20 }
  - { offset: 0x18518, size: 0x8, addend: 0x0, symName: __ZNSt3__117__compressed_pairIPNS_11__hash_nodeINS_17__hash_value_typeIxNS_4pairIxxEEEEPvEENS_22__hash_node_destructorINS_9allocatorIS7_EEEEE5firstB8ne180100Ev, symObjAddr: 0x70E0, symBinAddr: 0x100007EB0, symSize: 0x20 }
  - { offset: 0x1853E, size: 0x8, addend: 0x0, symName: __ZNSt3__122__compressed_pair_elemIPNS_11__hash_nodeINS_17__hash_value_typeIxNS_4pairIxxEEEEPvEELi0ELb0EE5__getB8ne180100Ev, symObjAddr: 0x7100, symBinAddr: 0x100007ED0, symSize: 0x10 }
  - { offset: 0x18564, size: 0x8, addend: 0x0, symName: __ZNSt3__110unique_ptrINS_11__hash_nodeINS_17__hash_value_typeIxNS_4pairIxxEEEEPvEENS_22__hash_node_destructorINS_9allocatorIS7_EEEEED2B8ne180100Ev, symObjAddr: 0x7110, symBinAddr: 0x100007EE0, symSize: 0x20 }
  - { offset: 0x1858E, size: 0x8, addend: 0x0, symName: __ZNSt3__110unique_ptrINS_11__hash_nodeINS_17__hash_value_typeIxNS_4pairIxxEEEEPvEENS_22__hash_node_destructorINS_9allocatorIS7_EEEEE5resetB8ne180100EPS7_, symObjAddr: 0x7130, symBinAddr: 0x100007F00, symSize: 0x70 }
  - { offset: 0x185D2, size: 0x8, addend: 0x0, symName: __ZNSt3__122__hash_node_destructorINS_9allocatorINS_11__hash_nodeINS_17__hash_value_typeIxNS_4pairIxxEEEEPvEEEEEclB8ne180100EPS8_, symObjAddr: 0x71A0, symBinAddr: 0x100007F70, symSize: 0x90 }
  - { offset: 0x18607, size: 0x8, addend: 0x0, symName: __ZNSt3__115__hash_iteratorIPNS_11__hash_nodeINS_17__hash_value_typeIxNS_4pairIxxEEEEPvEEEC2B8ne180100EPNS_16__hash_node_baseIS8_EE, symObjAddr: 0x7230, symBinAddr: 0x100008000, symSize: 0x20 }
  - { offset: 0x18640, size: 0x8, addend: 0x0, symName: __ZNSt3__14pairINS_15__hash_iteratorIPNS_11__hash_nodeINS_17__hash_value_typeIxNS0_IxxEEEEPvEEEEbEC2B8ne180100IS9_RbLi0EEEOT_OT0_, symObjAddr: 0x7250, symBinAddr: 0x100008020, symSize: 0x30 }
  - { offset: 0x1869E, size: 0x8, addend: 0x0, symName: __ZNSt3__15tupleIJRKxEEC1B8ne180100INS_4_AndELi0EEES2_, symObjAddr: 0x7280, symBinAddr: 0x100008050, symSize: 0x30 }
  - { offset: 0x186E6, size: 0x8, addend: 0x0, symName: __ZNSt3__15tupleIJRKxEEC2B8ne180100INS_4_AndELi0EEES2_, symObjAddr: 0x72B0, symBinAddr: 0x100008080, symSize: 0x30 }
  - { offset: 0x1872E, size: 0x8, addend: 0x0, symName: __ZNSt3__112__tuple_implINS_15__tuple_indicesIJLm0EEEEJRKxEEC1B8ne180100IJLm0EEJS4_EJEJEJS4_EEENS1_IJXspT_EEEENS_13__tuple_typesIJDpT0_EEENS1_IJXspT1_EEEENS8_IJDpT2_EEEDpOT3_, symObjAddr: 0x72E0, symBinAddr: 0x1000080B0, symSize: 0x30 }
  - { offset: 0x187BF, size: 0x8, addend: 0x0, symName: __ZNSt3__112__tuple_implINS_15__tuple_indicesIJLm0EEEEJRKxEEC2B8ne180100IJLm0EEJS4_EJEJEJS4_EEENS1_IJXspT_EEEENS_13__tuple_typesIJDpT0_EEENS1_IJXspT1_EEEENS8_IJDpT2_EEEDpOT3_, symObjAddr: 0x7310, symBinAddr: 0x1000080E0, symSize: 0x30 }
  - { offset: 0x18850, size: 0x8, addend: 0x0, symName: __ZNSt3__112__tuple_leafILm0ERKxLb0EEC2B8ne180100IS2_vEEOT_, symObjAddr: 0x7340, symBinAddr: 0x100008110, symSize: 0x20 }
  - { offset: 0x18893, size: 0x8, addend: 0x0, symName: __ZNSt3__114pointer_traitsIPNS_17__hash_value_typeIxNS_4pairIxxEEEEE10pointer_toB8ne180100ERS4_, symObjAddr: 0x7360, symBinAddr: 0x100008130, symSize: 0x10 }
  - { offset: 0x188B6, size: 0x8, addend: 0x0, symName: __ZNSt3__112__hash_tableINS_17__hash_value_typeIxxEENS_22__unordered_map_hasherIxS2_NS_4hashIxEENS_8equal_toIxEELb1EEENS_21__unordered_map_equalIxS2_S7_S5_Lb1EEENS_9allocatorIS2_EEE25__emplace_unique_key_argsIxJRKNS_21piecewise_construct_tENS_5tupleIJRKxEEENSI_IJEEEEEENS_4pairINS_15__hash_iteratorIPNS_11__hash_nodeIS2_PvEEEEbEERKT_DpOT0_, symObjAddr: 0x7370, symBinAddr: 0x100008140, symSize: 0x610 }
  - { offset: 0x189BF, size: 0x8, addend: 0x0, symName: __ZNKSt3__115__hash_iteratorIPNS_11__hash_nodeINS_17__hash_value_typeIxxEEPvEEEptB8ne180100Ev, symObjAddr: 0x7980, symBinAddr: 0x100008750, symSize: 0x30 }
  - { offset: 0x189E5, size: 0x8, addend: 0x0, symName: __ZNSt3__112__hash_tableINS_17__hash_value_typeIxxEENS_22__unordered_map_hasherIxS2_NS_4hashIxEENS_8equal_toIxEELb1EEENS_21__unordered_map_equalIxS2_S7_S5_Lb1EEENS_9allocatorIS2_EEE13hash_functionB8ne180100Ev, symObjAddr: 0x79B0, symBinAddr: 0x100008780, symSize: 0x20 }
  - { offset: 0x18A0B, size: 0x8, addend: 0x0, symName: __ZNKSt3__122__unordered_map_hasherIxNS_17__hash_value_typeIxxEENS_4hashIxEENS_8equal_toIxEELb1EEclB8ne180100ERKx, symObjAddr: 0x79D0, symBinAddr: 0x1000087A0, symSize: 0x30 }
  - { offset: 0x18A40, size: 0x8, addend: 0x0, symName: __ZNKSt3__112__hash_tableINS_17__hash_value_typeIxxEENS_22__unordered_map_hasherIxS2_NS_4hashIxEENS_8equal_toIxEELb1EEENS_21__unordered_map_equalIxS2_S7_S5_Lb1EEENS_9allocatorIS2_EEE12bucket_countB8ne180100Ev, symObjAddr: 0x7A00, symBinAddr: 0x1000087D0, symSize: 0x30 }
  - { offset: 0x18A66, size: 0x8, addend: 0x0, symName: __ZNKSt3__110unique_ptrIA_PNS_16__hash_node_baseIPNS_11__hash_nodeINS_17__hash_value_typeIxxEEPvEEEENS_25__bucket_list_deallocatorINS_9allocatorIS9_EEEEEixB8ne180100Em, symObjAddr: 0x7A30, symBinAddr: 0x100008800, symSize: 0x30 }
  - { offset: 0x18A9B, size: 0x8, addend: 0x0, symName: __ZNKSt3__116__hash_node_baseIPNS_11__hash_nodeINS_17__hash_value_typeIxxEEPvEEE6__hashB8ne180100Ev, symObjAddr: 0x7A60, symBinAddr: 0x100008830, symSize: 0x20 }
  - { offset: 0x18AC1, size: 0x8, addend: 0x0, symName: __ZNSt3__112__hash_tableINS_17__hash_value_typeIxxEENS_22__unordered_map_hasherIxS2_NS_4hashIxEENS_8equal_toIxEELb1EEENS_21__unordered_map_equalIxS2_S7_S5_Lb1EEENS_9allocatorIS2_EEE6key_eqB8ne180100Ev, symObjAddr: 0x7A80, symBinAddr: 0x100008850, symSize: 0x20 }
  - { offset: 0x18AE7, size: 0x8, addend: 0x0, symName: __ZNKSt3__121__unordered_map_equalIxNS_17__hash_value_typeIxxEENS_8equal_toIxEENS_4hashIxEELb1EEclB8ne180100ERKS2_RKx, symObjAddr: 0x7AA0, symBinAddr: 0x100008870, symSize: 0x40 }
  - { offset: 0x18B2B, size: 0x8, addend: 0x0, symName: __ZNSt3__112__hash_tableINS_17__hash_value_typeIxxEENS_22__unordered_map_hasherIxS2_NS_4hashIxEENS_8equal_toIxEELb1EEENS_21__unordered_map_equalIxS2_S7_S5_Lb1EEENS_9allocatorIS2_EEE21__construct_node_hashIRKNS_21piecewise_construct_tEJNS_5tupleIJRKxEEENSI_IJEEEEEENS_10unique_ptrINS_11__hash_nodeIS2_PvEENS_22__hash_node_destructorINSB_ISQ_EEEEEEmOT_DpOT0_, symObjAddr: 0x7AE0, symBinAddr: 0x1000088B0, symSize: 0x160 }
  - { offset: 0x18BC7, size: 0x8, addend: 0x0, symName: __ZNSt3__112__hash_tableINS_17__hash_value_typeIxxEENS_22__unordered_map_hasherIxS2_NS_4hashIxEENS_8equal_toIxEELb1EEENS_21__unordered_map_equalIxS2_S7_S5_Lb1EEENS_9allocatorIS2_EEE4sizeB8ne180100Ev, symObjAddr: 0x7C40, symBinAddr: 0x100008A10, symSize: 0x20 }
  - { offset: 0x18BED, size: 0x8, addend: 0x0, symName: __ZNSt3__112__hash_tableINS_17__hash_value_typeIxxEENS_22__unordered_map_hasherIxS2_NS_4hashIxEENS_8equal_toIxEELb1EEENS_21__unordered_map_equalIxS2_S7_S5_Lb1EEENS_9allocatorIS2_EEE15max_load_factorB8ne180100Ev, symObjAddr: 0x7C60, symBinAddr: 0x100008A30, symSize: 0x20 }
  - { offset: 0x18C13, size: 0x8, addend: 0x0, symName: __ZNSt3__112__hash_tableINS_17__hash_value_typeIxxEENS_22__unordered_map_hasherIxS2_NS_4hashIxEENS_8equal_toIxEELb1EEENS_21__unordered_map_equalIxS2_S7_S5_Lb1EEENS_9allocatorIS2_EEE15__rehash_uniqueB8ne180100Em, symObjAddr: 0x7C80, symBinAddr: 0x100008A50, symSize: 0x30 }
  - { offset: 0x18C48, size: 0x8, addend: 0x0, symName: __ZNSt3__116__hash_node_baseIPNS_11__hash_nodeINS_17__hash_value_typeIxxEEPvEEE5__ptrB8ne180100Ev, symObjAddr: 0x7CB0, symBinAddr: 0x100008A80, symSize: 0x20 }
  - { offset: 0x18C6E, size: 0x8, addend: 0x0, symName: __ZNKSt3__110unique_ptrINS_11__hash_nodeINS_17__hash_value_typeIxxEEPvEENS_22__hash_node_destructorINS_9allocatorIS5_EEEEEptB8ne180100Ev, symObjAddr: 0x7CD0, symBinAddr: 0x100008AA0, symSize: 0x20 }
  - { offset: 0x18C94, size: 0x8, addend: 0x0, symName: __ZNKSt3__110unique_ptrINS_11__hash_nodeINS_17__hash_value_typeIxxEEPvEENS_22__hash_node_destructorINS_9allocatorIS5_EEEEE3getB8ne180100Ev, symObjAddr: 0x7CF0, symBinAddr: 0x100008AC0, symSize: 0x20 }
  - { offset: 0x18CBA, size: 0x8, addend: 0x0, symName: __ZNSt3__110unique_ptrINS_11__hash_nodeINS_17__hash_value_typeIxxEEPvEENS_22__hash_node_destructorINS_9allocatorIS5_EEEEE7releaseB8ne180100Ev, symObjAddr: 0x7D10, symBinAddr: 0x100008AE0, symSize: 0x40 }
  - { offset: 0x18CEF, size: 0x8, addend: 0x0, symName: __ZNSt3__110unique_ptrINS_11__hash_nodeINS_17__hash_value_typeIxxEEPvEENS_22__hash_node_destructorINS_9allocatorIS5_EEEEED1B8ne180100Ev, symObjAddr: 0x7D50, symBinAddr: 0x100008B20, symSize: 0x20 }
  - { offset: 0x18D19, size: 0x8, addend: 0x0, symName: __ZNSt3__115__hash_iteratorIPNS_11__hash_nodeINS_17__hash_value_typeIxxEEPvEEEC1B8ne180100EPNS_16__hash_node_baseIS6_EE, symObjAddr: 0x7D70, symBinAddr: 0x100008B40, symSize: 0x30 }
  - { offset: 0x18D57, size: 0x8, addend: 0x0, symName: __ZNSt3__14pairINS_15__hash_iteratorIPNS_11__hash_nodeINS_17__hash_value_typeIxxEEPvEEEEbEC1B8ne180100IS8_RbLi0EEEOT_OT0_, symObjAddr: 0x7DA0, symBinAddr: 0x100008B70, symSize: 0x30 }
  - { offset: 0x18DB5, size: 0x8, addend: 0x0, symName: __ZNSt3__117__compressed_pairImNS_22__unordered_map_hasherIxNS_17__hash_value_typeIxxEENS_4hashIxEENS_8equal_toIxEELb1EEEE6secondB8ne180100Ev, symObjAddr: 0x7DD0, symBinAddr: 0x100008BA0, symSize: 0x20 }
  - { offset: 0x18DDB, size: 0x8, addend: 0x0, symName: __ZNSt3__122__compressed_pair_elemINS_22__unordered_map_hasherIxNS_17__hash_value_typeIxxEENS_4hashIxEENS_8equal_toIxEELb1EEELi1ELb1EE5__getB8ne180100Ev, symObjAddr: 0x7DF0, symBinAddr: 0x100008BC0, symSize: 0x10 }
  - { offset: 0x18E01, size: 0x8, addend: 0x0, symName: __ZNKSt3__110unique_ptrIA_PNS_16__hash_node_baseIPNS_11__hash_nodeINS_17__hash_value_typeIxxEEPvEEEENS_25__bucket_list_deallocatorINS_9allocatorIS9_EEEEE11get_deleterB8ne180100Ev, symObjAddr: 0x7E00, symBinAddr: 0x100008BD0, symSize: 0x20 }
  - { offset: 0x18E27, size: 0x8, addend: 0x0, symName: __ZNKSt3__125__bucket_list_deallocatorINS_9allocatorIPNS_16__hash_node_baseIPNS_11__hash_nodeINS_17__hash_value_typeIxxEEPvEEEEEEE4sizeB8ne180100Ev, symObjAddr: 0x7E20, symBinAddr: 0x100008BF0, symSize: 0x20 }
  - { offset: 0x18E4D, size: 0x8, addend: 0x0, symName: __ZNKSt3__117__compressed_pairIPPNS_16__hash_node_baseIPNS_11__hash_nodeINS_17__hash_value_typeIxxEEPvEEEENS_25__bucket_list_deallocatorINS_9allocatorIS9_EEEEE6secondB8ne180100Ev, symObjAddr: 0x7E40, symBinAddr: 0x100008C10, symSize: 0x20 }
  - { offset: 0x18E73, size: 0x8, addend: 0x0, symName: __ZNKSt3__122__compressed_pair_elemINS_25__bucket_list_deallocatorINS_9allocatorIPNS_16__hash_node_baseIPNS_11__hash_nodeINS_17__hash_value_typeIxxEEPvEEEEEEEELi1ELb0EE5__getB8ne180100Ev, symObjAddr: 0x7E60, symBinAddr: 0x100008C30, symSize: 0x10 }
  - { offset: 0x18E99, size: 0x8, addend: 0x0, symName: __ZNKSt3__117__compressed_pairImNS_9allocatorIPNS_16__hash_node_baseIPNS_11__hash_nodeINS_17__hash_value_typeIxxEEPvEEEEEEE5firstB8ne180100Ev, symObjAddr: 0x7E70, symBinAddr: 0x100008C40, symSize: 0x20 }
  - { offset: 0x18EBF, size: 0x8, addend: 0x0, symName: __ZNKSt3__117__compressed_pairIPPNS_16__hash_node_baseIPNS_11__hash_nodeINS_17__hash_value_typeIxxEEPvEEEENS_25__bucket_list_deallocatorINS_9allocatorIS9_EEEEE5firstB8ne180100Ev, symObjAddr: 0x7E90, symBinAddr: 0x100008C60, symSize: 0x20 }
  - { offset: 0x18EE5, size: 0x8, addend: 0x0, symName: __ZNKSt3__122__compressed_pair_elemIPPNS_16__hash_node_baseIPNS_11__hash_nodeINS_17__hash_value_typeIxxEEPvEEEELi0ELb0EE5__getB8ne180100Ev, symObjAddr: 0x7EB0, symBinAddr: 0x100008C80, symSize: 0x10 }
  - { offset: 0x18F0B, size: 0x8, addend: 0x0, symName: __ZNSt3__117__compressed_pairIfNS_21__unordered_map_equalIxNS_17__hash_value_typeIxxEENS_8equal_toIxEENS_4hashIxEELb1EEEE6secondB8ne180100Ev, symObjAddr: 0x7EC0, symBinAddr: 0x100008C90, symSize: 0x20 }
  - { offset: 0x18F31, size: 0x8, addend: 0x0, symName: __ZNSt3__122__compressed_pair_elemINS_21__unordered_map_equalIxNS_17__hash_value_typeIxxEENS_8equal_toIxEENS_4hashIxEELb1EEELi1ELb1EE5__getB8ne180100Ev, symObjAddr: 0x7EE0, symBinAddr: 0x100008CB0, symSize: 0x10 }
  - { offset: 0x18F57, size: 0x8, addend: 0x0, symName: __ZNKSt3__117__hash_value_typeIxxE11__get_valueB8ne180100Ev, symObjAddr: 0x7EF0, symBinAddr: 0x100008CC0, symSize: 0x20 }
  - { offset: 0x18F7D, size: 0x8, addend: 0x0, symName: __ZNSt3__116allocator_traitsINS_9allocatorINS_11__hash_nodeINS_17__hash_value_typeIxxEEPvEEEEE8allocateB8ne180100ERS7_m, symObjAddr: 0x7F40, symBinAddr: 0x100008D10, symSize: 0x30 }
  - { offset: 0x18FB0, size: 0x8, addend: 0x0, symName: __ZNSt3__122__hash_node_destructorINS_9allocatorINS_11__hash_nodeINS_17__hash_value_typeIxxEEPvEEEEEC1B8ne180100ERS7_b, symObjAddr: 0x7F70, symBinAddr: 0x100008D40, symSize: 0x40 }
  - { offset: 0x18FFD, size: 0x8, addend: 0x0, symName: __ZNSt3__110unique_ptrINS_11__hash_nodeINS_17__hash_value_typeIxxEEPvEENS_22__hash_node_destructorINS_9allocatorIS5_EEEEEC1B8ne180100ILb1EvEEPS5_NS_16__dependent_typeINS_27__unique_ptr_deleter_sfinaeIS9_EEXT_EE20__good_rval_ref_typeE, symObjAddr: 0x7FB0, symBinAddr: 0x100008D80, symSize: 0x30 }
  - { offset: 0x1904E, size: 0x8, addend: 0x0, symName: __ZNKSt3__110unique_ptrINS_11__hash_nodeINS_17__hash_value_typeIxxEEPvEENS_22__hash_node_destructorINS_9allocatorIS5_EEEEEdeB8ne180100Ev, symObjAddr: 0x8010, symBinAddr: 0x100008DE0, symSize: 0x20 }
  - { offset: 0x19074, size: 0x8, addend: 0x0, symName: __ZNSt3__116allocator_traitsINS_9allocatorINS_11__hash_nodeINS_17__hash_value_typeIxxEEPvEEEEE9constructB8ne180100INS_4pairIKxxEEJRKNS_21piecewise_construct_tENS_5tupleIJRSB_EEENSG_IJEEEEvvEEvRS7_PT_DpOT0_, symObjAddr: 0x8030, symBinAddr: 0x100008E00, symSize: 0x40 }
  - { offset: 0x190F0, size: 0x8, addend: 0x0, symName: __ZNSt3__110unique_ptrINS_11__hash_nodeINS_17__hash_value_typeIxxEEPvEENS_22__hash_node_destructorINS_9allocatorIS5_EEEEE11get_deleterB8ne180100Ev, symObjAddr: 0x8070, symBinAddr: 0x100008E40, symSize: 0x20 }
  - { offset: 0x19116, size: 0x8, addend: 0x0, symName: __ZNSt3__19allocatorINS_11__hash_nodeINS_17__hash_value_typeIxxEEPvEEE8allocateB8ne180100Em, symObjAddr: 0x8090, symBinAddr: 0x100008E60, symSize: 0x50 }
  - { offset: 0x19154, size: 0x8, addend: 0x0, symName: __ZNSt3__116allocator_traitsINS_9allocatorINS_11__hash_nodeINS_17__hash_value_typeIxxEEPvEEEEE8max_sizeB8ne180100IS7_vvEEmRKS7_, symObjAddr: 0x80E0, symBinAddr: 0x100008EB0, symSize: 0x20 }
  - { offset: 0x1917F, size: 0x8, addend: 0x0, symName: __ZNSt3__122__hash_node_destructorINS_9allocatorINS_11__hash_nodeINS_17__hash_value_typeIxxEEPvEEEEEC2B8ne180100ERS7_b, symObjAddr: 0x8100, symBinAddr: 0x100008ED0, symSize: 0x30 }
  - { offset: 0x191C7, size: 0x8, addend: 0x0, symName: __ZNSt3__110unique_ptrINS_11__hash_nodeINS_17__hash_value_typeIxxEEPvEENS_22__hash_node_destructorINS_9allocatorIS5_EEEEEC2B8ne180100ILb1EvEEPS5_NS_16__dependent_typeINS_27__unique_ptr_deleter_sfinaeIS9_EEXT_EE20__good_rval_ref_typeE, symObjAddr: 0x8130, symBinAddr: 0x100008F00, symSize: 0x40 }
  - { offset: 0x19218, size: 0x8, addend: 0x0, symName: __ZNSt3__117__compressed_pairIPNS_11__hash_nodeINS_17__hash_value_typeIxxEEPvEENS_22__hash_node_destructorINS_9allocatorIS5_EEEEEC1B8ne180100IRS6_SA_EEOT_OT0_, symObjAddr: 0x8170, symBinAddr: 0x100008F40, symSize: 0x30 }
  - { offset: 0x19270, size: 0x8, addend: 0x0, symName: __ZNSt3__117__compressed_pairIPNS_11__hash_nodeINS_17__hash_value_typeIxxEEPvEENS_22__hash_node_destructorINS_9allocatorIS5_EEEEEC2B8ne180100IRS6_SA_EEOT_OT0_, symObjAddr: 0x81A0, symBinAddr: 0x100008F70, symSize: 0x40 }
  - { offset: 0x192C8, size: 0x8, addend: 0x0, symName: __ZNSt3__122__compressed_pair_elemIPNS_11__hash_nodeINS_17__hash_value_typeIxxEEPvEELi0ELb0EEC2B8ne180100IRS6_vEEOT_, symObjAddr: 0x81E0, symBinAddr: 0x100008FB0, symSize: 0x20 }
  - { offset: 0x1930A, size: 0x8, addend: 0x0, symName: __ZNSt3__122__compressed_pair_elemINS_22__hash_node_destructorINS_9allocatorINS_11__hash_nodeINS_17__hash_value_typeIxxEEPvEEEEEELi1ELb0EEC2B8ne180100IS9_vEEOT_, symObjAddr: 0x8200, symBinAddr: 0x100008FD0, symSize: 0x30 }
  - { offset: 0x1934C, size: 0x8, addend: 0x0, symName: __ZNSt3__111__hash_nodeINS_17__hash_value_typeIxxEEPvEC1B8ne180100EPNS_16__hash_node_baseIPS4_EEm, symObjAddr: 0x8270, symBinAddr: 0x100009040, symSize: 0x30 }
  - { offset: 0x19392, size: 0x8, addend: 0x0, symName: __ZNSt3__111__hash_nodeINS_17__hash_value_typeIxxEEPvEC2B8ne180100EPNS_16__hash_node_baseIPS4_EEm, symObjAddr: 0x82A0, symBinAddr: 0x100009070, symSize: 0x40 }
  - { offset: 0x193D8, size: 0x8, addend: 0x0, symName: __ZNSt3__116__hash_node_baseIPNS_11__hash_nodeINS_17__hash_value_typeIxxEEPvEEEC2B8ne180100EPS7_, symObjAddr: 0x82E0, symBinAddr: 0x1000090B0, symSize: 0x20 }
  - { offset: 0x19410, size: 0x8, addend: 0x0, symName: __ZNKSt3__117__compressed_pairIPNS_11__hash_nodeINS_17__hash_value_typeIxxEEPvEENS_22__hash_node_destructorINS_9allocatorIS5_EEEEE5firstB8ne180100Ev, symObjAddr: 0x8300, symBinAddr: 0x1000090D0, symSize: 0x20 }
  - { offset: 0x19436, size: 0x8, addend: 0x0, symName: __ZNKSt3__122__compressed_pair_elemIPNS_11__hash_nodeINS_17__hash_value_typeIxxEEPvEELi0ELb0EE5__getB8ne180100Ev, symObjAddr: 0x8320, symBinAddr: 0x1000090F0, symSize: 0x10 }
  - { offset: 0x1945C, size: 0x8, addend: 0x0, symName: __ZNSt3__14pairIKxxEC1B8ne180100IJRS1_EJEEENS_21piecewise_construct_tENS_5tupleIJDpT_EEENS6_IJDpT0_EEE, symObjAddr: 0x83B0, symBinAddr: 0x100009180, symSize: 0x40 }
  - { offset: 0x194C3, size: 0x8, addend: 0x0, symName: __ZNSt3__14pairIKxxEC1B8ne180100IJRS1_EJEJLm0EEJEEENS_21piecewise_construct_tERNS_5tupleIJDpT_EEERNS6_IJDpT0_EEENS_15__tuple_indicesIJXspT1_EEEENSF_IJXspT2_EEEE, symObjAddr: 0x83F0, symBinAddr: 0x1000091C0, symSize: 0x30 }
  - { offset: 0x19550, size: 0x8, addend: 0x0, symName: __ZNSt3__14pairIKxxEC2B8ne180100IJRS1_EJEJLm0EEJEEENS_21piecewise_construct_tERNS_5tupleIJDpT_EEERNS6_IJDpT0_EEENS_15__tuple_indicesIJXspT1_EEEENSF_IJXspT2_EEEE, symObjAddr: 0x8420, symBinAddr: 0x1000091F0, symSize: 0x40 }
  - { offset: 0x195DD, size: 0x8, addend: 0x0, symName: __ZNSt3__117__compressed_pairIPNS_11__hash_nodeINS_17__hash_value_typeIxxEEPvEENS_22__hash_node_destructorINS_9allocatorIS5_EEEEE6secondB8ne180100Ev, symObjAddr: 0x8460, symBinAddr: 0x100009230, symSize: 0x20 }
  - { offset: 0x19603, size: 0x8, addend: 0x0, symName: __ZNSt3__122__compressed_pair_elemINS_22__hash_node_destructorINS_9allocatorINS_11__hash_nodeINS_17__hash_value_typeIxxEEPvEEEEEELi1ELb0EE5__getB8ne180100Ev, symObjAddr: 0x8480, symBinAddr: 0x100009250, symSize: 0x10 }
  - { offset: 0x19629, size: 0x8, addend: 0x0, symName: __ZNSt3__117__compressed_pairImNS_22__unordered_map_hasherIxNS_17__hash_value_typeIxxEENS_4hashIxEENS_8equal_toIxEELb1EEEE5firstB8ne180100Ev, symObjAddr: 0x8490, symBinAddr: 0x100009260, symSize: 0x20 }
  - { offset: 0x1964F, size: 0x8, addend: 0x0, symName: __ZNSt3__117__compressed_pairIfNS_21__unordered_map_equalIxNS_17__hash_value_typeIxxEENS_8equal_toIxEENS_4hashIxEELb1EEEE5firstB8ne180100Ev, symObjAddr: 0x84B0, symBinAddr: 0x100009280, symSize: 0x20 }
  - { offset: 0x19675, size: 0x8, addend: 0x0, symName: __ZNSt3__112__hash_tableINS_17__hash_value_typeIxxEENS_22__unordered_map_hasherIxS2_NS_4hashIxEENS_8equal_toIxEELb1EEENS_21__unordered_map_equalIxS2_S7_S5_Lb1EEENS_9allocatorIS2_EEE8__rehashILb1EEEvm, symObjAddr: 0x84D0, symBinAddr: 0x1000092A0, symSize: 0x230 }
  - { offset: 0x196C5, size: 0x8, addend: 0x0, symName: __ZNSt3__112__hash_tableINS_17__hash_value_typeIxxEENS_22__unordered_map_hasherIxS2_NS_4hashIxEENS_8equal_toIxEELb1EEENS_21__unordered_map_equalIxS2_S7_S5_Lb1EEENS_9allocatorIS2_EEE11__do_rehashILb1EEEvm, symObjAddr: 0x8700, symBinAddr: 0x1000094D0, symSize: 0x250 }
  - { offset: 0x197A8, size: 0x8, addend: 0x0, symName: __ZNSt3__110unique_ptrIA_PNS_16__hash_node_baseIPNS_11__hash_nodeINS_17__hash_value_typeIxxEEPvEEEENS_25__bucket_list_deallocatorINS_9allocatorIS9_EEEEE11get_deleterB8ne180100Ev, symObjAddr: 0x8950, symBinAddr: 0x100009720, symSize: 0x20 }
  - { offset: 0x197CE, size: 0x8, addend: 0x0, symName: __ZNSt3__110unique_ptrIA_PNS_16__hash_node_baseIPNS_11__hash_nodeINS_17__hash_value_typeIxxEEPvEEEENS_25__bucket_list_deallocatorINS_9allocatorIS9_EEEEE5resetB8ne180100IPS9_Li0EEEvT_, symObjAddr: 0x8970, symBinAddr: 0x100009740, symSize: 0x70 }
  - { offset: 0x19821, size: 0x8, addend: 0x0, symName: __ZNSt3__116allocator_traitsINS_9allocatorIPNS_16__hash_node_baseIPNS_11__hash_nodeINS_17__hash_value_typeIxxEEPvEEEEEEE8allocateB8ne180100ERSB_m, symObjAddr: 0x89E0, symBinAddr: 0x1000097B0, symSize: 0x30 }
  - { offset: 0x19854, size: 0x8, addend: 0x0, symName: __ZNSt3__19allocatorIPNS_16__hash_node_baseIPNS_11__hash_nodeINS_17__hash_value_typeIxxEEPvEEEEE8allocateB8ne180100Em, symObjAddr: 0x8A10, symBinAddr: 0x1000097E0, symSize: 0x50 }
  - { offset: 0x19892, size: 0x8, addend: 0x0, symName: __ZNSt3__116allocator_traitsINS_9allocatorIPNS_16__hash_node_baseIPNS_11__hash_nodeINS_17__hash_value_typeIxxEEPvEEEEEEE8max_sizeB8ne180100ISB_vvEEmRKSB_, symObjAddr: 0x8A60, symBinAddr: 0x100009830, symSize: 0x20 }
  - { offset: 0x198BD, size: 0x8, addend: 0x0, symName: __ZNSt3__117__compressed_pairIPNS_11__hash_nodeINS_17__hash_value_typeIxxEEPvEENS_22__hash_node_destructorINS_9allocatorIS5_EEEEE5firstB8ne180100Ev, symObjAddr: 0x8A80, symBinAddr: 0x100009850, symSize: 0x20 }
  - { offset: 0x198E3, size: 0x8, addend: 0x0, symName: __ZNSt3__122__compressed_pair_elemIPNS_11__hash_nodeINS_17__hash_value_typeIxxEEPvEELi0ELb0EE5__getB8ne180100Ev, symObjAddr: 0x8AA0, symBinAddr: 0x100009870, symSize: 0x10 }
  - { offset: 0x19909, size: 0x8, addend: 0x0, symName: __ZNSt3__110unique_ptrINS_11__hash_nodeINS_17__hash_value_typeIxxEEPvEENS_22__hash_node_destructorINS_9allocatorIS5_EEEEED2B8ne180100Ev, symObjAddr: 0x8AB0, symBinAddr: 0x100009880, symSize: 0x20 }
  - { offset: 0x19933, size: 0x8, addend: 0x0, symName: __ZNSt3__110unique_ptrINS_11__hash_nodeINS_17__hash_value_typeIxxEEPvEENS_22__hash_node_destructorINS_9allocatorIS5_EEEEE5resetB8ne180100EPS5_, symObjAddr: 0x8AD0, symBinAddr: 0x1000098A0, symSize: 0x70 }
  - { offset: 0x19977, size: 0x8, addend: 0x0, symName: __ZNSt3__122__hash_node_destructorINS_9allocatorINS_11__hash_nodeINS_17__hash_value_typeIxxEEPvEEEEEclB8ne180100EPS6_, symObjAddr: 0x8B40, symBinAddr: 0x100009910, symSize: 0x90 }
  - { offset: 0x199AC, size: 0x8, addend: 0x0, symName: __ZNSt3__115__hash_iteratorIPNS_11__hash_nodeINS_17__hash_value_typeIxxEEPvEEEC2B8ne180100EPNS_16__hash_node_baseIS6_EE, symObjAddr: 0x8BD0, symBinAddr: 0x1000099A0, symSize: 0x20 }
  - { offset: 0x199E5, size: 0x8, addend: 0x0, symName: __ZNSt3__14pairINS_15__hash_iteratorIPNS_11__hash_nodeINS_17__hash_value_typeIxxEEPvEEEEbEC2B8ne180100IS8_RbLi0EEEOT_OT0_, symObjAddr: 0x8BF0, symBinAddr: 0x1000099C0, symSize: 0x30 }
  - { offset: 0x19A43, size: 0x8, addend: 0x0, symName: __ZNSt3__114pointer_traitsIPNS_17__hash_value_typeIxxEEE10pointer_toB8ne180100ERS2_, symObjAddr: 0x8C20, symBinAddr: 0x1000099F0, symSize: 0x10 }
  - { offset: 0x19A66, size: 0x8, addend: 0x0, symName: __ZNSt3__16__treeIxNS_4lessIxEENS_9allocatorIxEEE4findIxEENS_15__tree_iteratorIxPNS_11__tree_nodeIxPvEElEERKT_, symObjAddr: 0x8C30, symBinAddr: 0x100009A00, symSize: 0xE0 }
  - { offset: 0x19AB5, size: 0x8, addend: 0x0, symName: __ZNSt3__16__treeIxNS_4lessIxEENS_9allocatorIxEEE13__lower_boundIxEENS_15__tree_iteratorIxPNS_11__tree_nodeIxPvEElEERKT_SB_PNS_15__tree_end_nodeIPNS_16__tree_node_baseIS9_EEEE, symObjAddr: 0x8D10, symBinAddr: 0x100009AE0, symSize: 0x90 }
  - { offset: 0x19B13, size: 0x8, addend: 0x0, symName: __ZNSt3__16__treeIxNS_4lessIxEENS_9allocatorIxEEE3endB8ne180100Ev, symObjAddr: 0x8DD0, symBinAddr: 0x100009BA0, symSize: 0x30 }
  - { offset: 0x19B39, size: 0x8, addend: 0x0, symName: __ZNKSt3__115__tree_iteratorIxPNS_11__tree_nodeIxPvEElEdeB8ne180100Ev, symObjAddr: 0x8E00, symBinAddr: 0x100009BD0, symSize: 0x20 }
  - { offset: 0x19B5F, size: 0x8, addend: 0x0, symName: __ZNSt3__115__tree_iteratorIxPNS_11__tree_nodeIxPvEElEC1B8ne180100EPNS_15__tree_end_nodeIPNS_16__tree_node_baseIS2_EEEE, symObjAddr: 0x8E20, symBinAddr: 0x100009BF0, symSize: 0x30 }
  - { offset: 0x19B98, size: 0x8, addend: 0x0, symName: __ZNSt3__115__tree_iteratorIxPNS_11__tree_nodeIxPvEElEC2B8ne180100EPNS_15__tree_end_nodeIPNS_16__tree_node_baseIS2_EEEE, symObjAddr: 0x8E50, symBinAddr: 0x100009C20, symSize: 0x20 }
  - { offset: 0x19BD1, size: 0x8, addend: 0x0, symName: __ZNKSt3__115__tree_iteratorIxPNS_11__tree_nodeIxPvEElE8__get_npB8ne180100Ev, symObjAddr: 0x8EA0, symBinAddr: 0x100009C70, symSize: 0x20 }
  - { offset: 0x19BF7, size: 0x8, addend: 0x0, symName: __ZNSt3__112__hash_tableINS_17__hash_value_typeIxxEENS_22__unordered_map_hasherIxS2_NS_4hashIxEENS_8equal_toIxEELb1EEENS_21__unordered_map_equalIxS2_S7_S5_Lb1EEENS_9allocatorIS2_EEE25__emplace_unique_key_argsIxJRKNS_21piecewise_construct_tENS_5tupleIJOxEEENSI_IJEEEEEENS_4pairINS_15__hash_iteratorIPNS_11__hash_nodeIS2_PvEEEEbEERKT_DpOT0_, symObjAddr: 0x8EC0, symBinAddr: 0x100009C90, symSize: 0x5C0 }
  - { offset: 0x19D00, size: 0x8, addend: 0x0, symName: __ZNSt3__112__hash_tableINS_17__hash_value_typeIxxEENS_22__unordered_map_hasherIxS2_NS_4hashIxEENS_8equal_toIxEELb1EEENS_21__unordered_map_equalIxS2_S7_S5_Lb1EEENS_9allocatorIS2_EEE21__construct_node_hashIRKNS_21piecewise_construct_tEJNS_5tupleIJOxEEENSI_IJEEEEEENS_10unique_ptrINS_11__hash_nodeIS2_PvEENS_22__hash_node_destructorINSB_ISP_EEEEEEmOT_DpOT0_, symObjAddr: 0x94B0, symBinAddr: 0x10000A280, symSize: 0x150 }
  - { offset: 0x19D9C, size: 0x8, addend: 0x0, symName: __ZNSt3__116allocator_traitsINS_9allocatorINS_11__hash_nodeINS_17__hash_value_typeIxxEEPvEEEEE9constructB8ne180100INS_4pairIKxxEEJRKNS_21piecewise_construct_tENS_5tupleIJOxEEENSG_IJEEEEvvEEvRS7_PT_DpOT0_, symObjAddr: 0x9600, symBinAddr: 0x10000A3D0, symSize: 0x40 }
  - { offset: 0x19E18, size: 0x8, addend: 0x0, symName: __ZNSt3__14pairIKxxEC1B8ne180100IJOxEJEEENS_21piecewise_construct_tENS_5tupleIJDpT_EEENS6_IJDpT0_EEE, symObjAddr: 0x96C0, symBinAddr: 0x10000A490, symSize: 0x40 }
  - { offset: 0x19E7F, size: 0x8, addend: 0x0, symName: __ZNSt3__14pairIKxxEC1B8ne180100IJOxEJEJLm0EEJEEENS_21piecewise_construct_tERNS_5tupleIJDpT_EEERNS6_IJDpT0_EEENS_15__tuple_indicesIJXspT1_EEEENSF_IJXspT2_EEEE, symObjAddr: 0x9700, symBinAddr: 0x10000A4D0, symSize: 0x30 }
  - { offset: 0x19F0C, size: 0x8, addend: 0x0, symName: __ZNSt3__14pairIKxxEC2B8ne180100IJOxEJEJLm0EEJEEENS_21piecewise_construct_tERNS_5tupleIJDpT_EEERNS6_IJDpT0_EEENS_15__tuple_indicesIJXspT1_EEEENSF_IJXspT2_EEEE, symObjAddr: 0x9730, symBinAddr: 0x10000A500, symSize: 0x40 }
  - { offset: 0x19F99, size: 0x8, addend: 0x0, symName: __ZNSt3__112__tuple_leafILm0EOxLb0EE3getB8ne180100Ev, symObjAddr: 0x9790, symBinAddr: 0x10000A560, symSize: 0x20 }
  - { offset: 0x19FBF, size: 0x8, addend: 0x0, symName: __ZNSt3__15tupleIJOxEEC1B8ne180100IJxELi0EEEDpOT_, symObjAddr: 0x97B0, symBinAddr: 0x10000A580, symSize: 0x30 }
  - { offset: 0x1A009, size: 0x8, addend: 0x0, symName: __ZNSt3__15tupleIJOxEEC2B8ne180100IJxELi0EEEDpOT_, symObjAddr: 0x97E0, symBinAddr: 0x10000A5B0, symSize: 0x30 }
  - { offset: 0x1A053, size: 0x8, addend: 0x0, symName: __ZNSt3__112__tuple_implINS_15__tuple_indicesIJLm0EEEEJOxEEC1B8ne180100IJLm0EEJS3_EJEJEJxEEENS1_IJXspT_EEEENS_13__tuple_typesIJDpT0_EEENS1_IJXspT1_EEEENS7_IJDpT2_EEEDpOT3_, symObjAddr: 0x9810, symBinAddr: 0x10000A5E0, symSize: 0x30 }
  - { offset: 0x1A0E4, size: 0x8, addend: 0x0, symName: __ZNSt3__112__tuple_implINS_15__tuple_indicesIJLm0EEEEJOxEEC2B8ne180100IJLm0EEJS3_EJEJEJxEEENS1_IJXspT_EEEENS_13__tuple_typesIJDpT0_EEENS1_IJXspT1_EEEENS7_IJDpT2_EEEDpOT3_, symObjAddr: 0x9840, symBinAddr: 0x10000A610, symSize: 0x30 }
  - { offset: 0x1A175, size: 0x8, addend: 0x0, symName: __ZNSt3__112__tuple_leafILm0EOxLb0EEC2B8ne180100IxvEEOT_, symObjAddr: 0x9870, symBinAddr: 0x10000A640, symSize: 0x20 }
  - { offset: 0x1A1B8, size: 0x8, addend: 0x0, symName: __ZNKSt3__19basic_iosIcNS_11char_traitsIcEEE5widenB8ne180100Ec, symObjAddr: 0x9890, symBinAddr: 0x10000A660, symSize: 0x80 }
  - { offset: 0x1A231, size: 0x8, addend: 0x0, symName: __ZNKSt3__15ctypeIcE5widenB8ne180100Ec, symObjAddr: 0x9940, symBinAddr: 0x10000A710, symSize: 0x2B }
...
