---
triple:          'x86_64-apple-darwin'
binary-path:     b
relocations:
  - { offset: 0x5C, size: 0x8, addend: 0x0, symName: __ZNSt3__119piecewise_constructE, symObjAddr: 0x2F66, symBinAddr: 0x100003EAE, symSize: 0x0 }
  - { offset: 0x609F, size: 0x8, addend: 0x0, symName: __ZNSt3__124__put_character_sequenceB8ne180100IcNS_11char_traitsIcEEEERNS_13basic_ostreamIT_T0_EES7_PKS4_m, symObjAddr: 0x23A0, symBinAddr: 0x100003220, symSize: 0x1F0 }
  - { offset: 0x711A, size: 0x8, addend: 0x0, symName: __ZNSt3__1neB8ne180100ERKNS_14__map_iteratorINS_15__tree_iteratorINS_12__value_typeIiiEEPNS_11__tree_nodeIS3_PvEElEEEESB_, symObjAddr: 0x300, symBinAddr: 0x100001180, symSize: 0x30 }
  - { offset: 0x7157, size: 0x8, addend: 0x0, symName: __ZNSt3__1lsB8ne180100INS_11char_traitsIcEEEERNS_13basic_ostreamIcT_EES6_PKc, symObjAddr: 0x3A0, symBinAddr: 0x100001220, symSize: 0x40 }
  - { offset: 0x719D, size: 0x8, addend: 0x0, symName: __ZNSt3__14endlB8ne180100IcNS_11char_traitsIcEEEERNS_13basic_ostreamIT_T0_EES7_, symObjAddr: 0x400, symBinAddr: 0x100001280, symSize: 0x50 }
  - { offset: 0x7210, size: 0x8, addend: 0x0, symName: __ZNSt3__112__destroy_atB8ne180100INS_4pairIKiiEELi0EEEvPT_, symObjAddr: 0x9B0, symBinAddr: 0x100001830, symSize: 0x10 }
  - { offset: 0x7247, size: 0x8, addend: 0x0, symName: __ZNSt3__17launderB8ne180100INS_4pairIKiiEEEEPT_S5_, symObjAddr: 0x9E0, symBinAddr: 0x100001860, symSize: 0x20 }
  - { offset: 0x727E, size: 0x8, addend: 0x0, symName: __ZNSt3__19__launderB8ne180100INS_4pairIKiiEEEEPT_S5_, symObjAddr: 0xA00, symBinAddr: 0x100001880, symSize: 0x10 }
  - { offset: 0x72B5, size: 0x8, addend: 0x0, symName: __ZNSt3__119__libcpp_deallocateB8ne180100EPvmm, symObjAddr: 0xA60, symBinAddr: 0x1000018E0, symSize: 0x60 }
  - { offset: 0x731A, size: 0x8, addend: 0x0, symName: __ZNSt3__124__is_overaligned_for_newB8ne180100Em, symObjAddr: 0xAC0, symBinAddr: 0x100001940, symSize: 0x20 }
  - { offset: 0x7348, size: 0x8, addend: 0x0, symName: __ZNSt3__127__do_deallocate_handle_sizeB8ne180100IJSt11align_val_tEEEvPvmDpT_, symObjAddr: 0xAE0, symBinAddr: 0x100001960, symSize: 0x30 }
  - { offset: 0x739B, size: 0x8, addend: 0x0, symName: __ZNSt3__127__do_deallocate_handle_sizeB8ne180100IJEEEvPvmDpT_, symObjAddr: 0xB10, symBinAddr: 0x100001990, symSize: 0x20 }
  - { offset: 0x73D9, size: 0x8, addend: 0x0, symName: __ZNSt3__124__libcpp_operator_deleteB8ne180100IJPvSt11align_val_tEEEvDpT_, symObjAddr: 0xB30, symBinAddr: 0x1000019B0, symSize: 0x30 }
  - { offset: 0x7422, size: 0x8, addend: 0x0, symName: __ZNSt3__124__libcpp_operator_deleteB8ne180100IJPvEEEvDpT_, symObjAddr: 0xB60, symBinAddr: 0x1000019E0, symSize: 0x20 }
  - { offset: 0x748E, size: 0x8, addend: 0x0, symName: __ZNSt3__116forward_as_tupleB8ne180100IJRKiEEENS_5tupleIJDpOT_EEES6_, symObjAddr: 0xCE0, symBinAddr: 0x100001B60, symSize: 0x30 }
  - { offset: 0x74C7, size: 0x8, addend: 0x0, symName: __ZNSt3__116forward_as_tupleB8ne180100IJEEENS_5tupleIJDpOT_EEES4_, symObjAddr: 0xD10, symBinAddr: 0x100001B90, symSize: 0x10 }
  - { offset: 0x74EB, size: 0x8, addend: 0x0, symName: __ZNSt3__17launderB8ne180100IKNS_4pairIKiiEEEEPT_S6_, symObjAddr: 0x12E0, symBinAddr: 0x100002160, symSize: 0x20 }
  - { offset: 0x7522, size: 0x8, addend: 0x0, symName: __ZNSt3__19__launderB8ne180100IKNS_4pairIKiiEEEEPT_S6_, symObjAddr: 0x1300, symBinAddr: 0x100002180, symSize: 0x10 }
  - { offset: 0x7577, size: 0x8, addend: 0x0, symName: __ZNSt3__117__libcpp_allocateB8ne180100Emm, symObjAddr: 0x14F0, symBinAddr: 0x100002370, symSize: 0x60 }
  - { offset: 0x77BD, size: 0x8, addend: 0x0, symName: __ZNSt3__121__libcpp_operator_newB8ne180100IJmSt11align_val_tEEEPvDpT_, symObjAddr: 0x1570, symBinAddr: 0x1000023F0, symSize: 0x30 }
  - { offset: 0x780A, size: 0x8, addend: 0x0, symName: __ZNSt3__121__libcpp_operator_newB8ne180100IJmEEEPvDpT_, symObjAddr: 0x15A0, symBinAddr: 0x100002420, symSize: 0x20 }
  - { offset: 0x7843, size: 0x8, addend: 0x0, symName: __ZNSt3__114__construct_atB8ne180100INS_4pairIKiiEEJRKNS_21piecewise_construct_tENS_5tupleIJRS2_EEENS7_IJEEEEPS3_EEPT_SD_DpOT0_, symObjAddr: 0x16F0, symBinAddr: 0x100002570, symSize: 0x40 }
  - { offset: 0x78BC, size: 0x8, addend: 0x0, symName: __ZNSt3__112construct_atB8ne180100INS_4pairIKiiEEJRKNS_21piecewise_construct_tENS_5tupleIJRS2_EEENS7_IJEEEEPS3_EEPT_SD_DpOT0_, symObjAddr: 0x1730, symBinAddr: 0x1000025B0, symSize: 0x40 }
  - { offset: 0x7940, size: 0x8, addend: 0x0, symName: __ZNSt3__13getB8ne180100ILm0EJRKiEEERNS_13tuple_elementIXT_ENS_5tupleIJDpT0_EEEE4typeERS7_, symObjAddr: 0x1820, symBinAddr: 0x1000026A0, symSize: 0x20 }
  - { offset: 0x7983, size: 0x8, addend: 0x0, symName: __ZNSt3__127__tree_balance_after_insertB8ne180100IPNS_16__tree_node_baseIPvEEEEvT_S5_, symObjAddr: 0x18C0, symBinAddr: 0x100002740, symSize: 0x320 }
  - { offset: 0x79FF, size: 0x8, addend: 0x0, symName: __ZNSt3__120__tree_is_left_childB8ne180100IPNS_16__tree_node_baseIPvEEEEbT_, symObjAddr: 0x1C20, symBinAddr: 0x100002AA0, symSize: 0x30 }
  - { offset: 0x7A34, size: 0x8, addend: 0x0, symName: __ZNSt3__118__tree_left_rotateB8ne180100IPNS_16__tree_node_baseIPvEEEEvT_, symObjAddr: 0x1C50, symBinAddr: 0x100002AD0, symSize: 0xD0 }
  - { offset: 0x7A73, size: 0x8, addend: 0x0, symName: __ZNSt3__119__tree_right_rotateB8ne180100IPNS_16__tree_node_baseIPvEEEEvT_, symObjAddr: 0x1D20, symBinAddr: 0x100002BA0, symSize: 0xC0 }
  - { offset: 0x7B0C, size: 0x8, addend: 0x0, symName: __ZNSt3__1neB8ne180100ERKNS_15__tree_iteratorINS_12__value_typeIiiEEPNS_11__tree_nodeIS2_PvEElEES9_, symObjAddr: 0x2280, symBinAddr: 0x100003100, symSize: 0x30 }
  - { offset: 0x7B49, size: 0x8, addend: 0x0, symName: __ZNSt3__1eqB8ne180100ERKNS_15__tree_iteratorINS_12__value_typeIiiEEPNS_11__tree_nodeIS2_PvEElEES9_, symObjAddr: 0x2350, symBinAddr: 0x1000031D0, symSize: 0x30 }
  - { offset: 0x7B86, size: 0x8, addend: 0x0, symName: __ZNSt3__116__pad_and_outputB8ne180100IcNS_11char_traitsIcEEEENS_19ostreambuf_iteratorIT_T0_EES6_PKS4_S8_S8_RNS_8ios_baseES4_, symObjAddr: 0x25E0, symBinAddr: 0x100003460, symSize: 0x220 }
  - { offset: 0x7C56, size: 0x8, addend: 0x0, symName: __ZNSt3__112__to_addressB8ne180100IcEEPT_S2_, symObjAddr: 0x2B00, symBinAddr: 0x100003980, symSize: 0x10 }
  - { offset: 0x7C8B, size: 0x8, addend: 0x0, symName: __ZNSt3__19use_facetB8ne180100INS_5ctypeIcEEEERKT_RKNS_6localeE, symObjAddr: 0x2D90, symBinAddr: 0x100003C10, symSize: 0x30 }
  - { offset: 0x8158, size: 0x8, addend: 0x0, symName: __ZNSt3__118__constexpr_strlenB8ne180100EPKc, symObjAddr: 0x2E20, symBinAddr: 0x100003CA0, symSize: 0x1B }
  - { offset: 0x8E4F, size: 0x8, addend: 0x0, symName: __ZSt28__throw_bad_array_new_lengthB8ne180100v, symObjAddr: 0x14B0, symBinAddr: 0x100002330, symSize: 0x40 }
  - { offset: 0x968A, size: 0x8, addend: 0x0, symName: _main, symObjAddr: 0x0, symBinAddr: 0x100000E80, symSize: 0x270 }
  - { offset: 0x975A, size: 0x8, addend: 0x0, symName: __ZNSt3__13mapIiiNS_4lessIiEENS_9allocatorINS_4pairIKiiEEEEEC1B8ne180100Ev, symObjAddr: 0x270, symBinAddr: 0x1000010F0, symSize: 0x20 }
  - { offset: 0x9783, size: 0x8, addend: 0x0, symName: __ZNSt3__13mapIiiNS_4lessIiEENS_9allocatorINS_4pairIKiiEEEEEixERS5_, symObjAddr: 0x290, symBinAddr: 0x100001110, symSize: 0x70 }
  - { offset: 0x97B9, size: 0x8, addend: 0x0, symName: __ZNSt3__13mapIiiNS_4lessIiEENS_9allocatorINS_4pairIKiiEEEEE4findB8ne180100ERS5_, symObjAddr: 0x330, symBinAddr: 0x1000011B0, symSize: 0x40 }
  - { offset: 0x97ED, size: 0x8, addend: 0x0, symName: __ZNSt3__13mapIiiNS_4lessIiEENS_9allocatorINS_4pairIKiiEEEEE3endB8ne180100Ev, symObjAddr: 0x370, symBinAddr: 0x1000011F0, symSize: 0x30 }
  - { offset: 0x9812, size: 0x8, addend: 0x0, symName: __ZNSt3__113basic_ostreamIcNS_11char_traitsIcEEElsB8ne180100EPFRS3_S4_E, symObjAddr: 0x3E0, symBinAddr: 0x100001260, symSize: 0x20 }
  - { offset: 0x9844, size: 0x8, addend: 0x0, symName: __ZNSt3__13mapIiiNS_4lessIiEENS_9allocatorINS_4pairIKiiEEEEED1B8ne180100Ev, symObjAddr: 0x450, symBinAddr: 0x1000012D0, symSize: 0x20 }
  - { offset: 0x986C, size: 0x8, addend: 0x0, symName: __ZNSt3__13mapIiiNS_4lessIiEENS_9allocatorINS_4pairIKiiEEEEEC2B8ne180100Ev, symObjAddr: 0x470, symBinAddr: 0x1000012F0, symSize: 0x30 }
  - { offset: 0x9894, size: 0x8, addend: 0x0, symName: __ZNSt3__119__map_value_compareIiNS_12__value_typeIiiEENS_4lessIiEELb1EEC1B8ne180100ES4_, symObjAddr: 0x4A0, symBinAddr: 0x100001320, symSize: 0x20 }
  - { offset: 0x98CC, size: 0x8, addend: 0x0, symName: __ZNSt3__16__treeINS_12__value_typeIiiEENS_19__map_value_compareIiS2_NS_4lessIiEELb1EEENS_9allocatorIS2_EEEC1ERKS6_, symObjAddr: 0x4C0, symBinAddr: 0x100001340, symSize: 0x30 }
  - { offset: 0x9905, size: 0x8, addend: 0x0, symName: __ZNSt3__119__map_value_compareIiNS_12__value_typeIiiEENS_4lessIiEELb1EEC2B8ne180100ES4_, symObjAddr: 0x4F0, symBinAddr: 0x100001370, symSize: 0x10 }
  - { offset: 0x993D, size: 0x8, addend: 0x0, symName: __ZNSt3__16__treeINS_12__value_typeIiiEENS_19__map_value_compareIiS2_NS_4lessIiEELb1EEENS_9allocatorIS2_EEEC2ERKS6_, symObjAddr: 0x500, symBinAddr: 0x100001380, symSize: 0x80 }
  - { offset: 0x9976, size: 0x8, addend: 0x0, symName: __ZNSt3__117__compressed_pairINS_15__tree_end_nodeIPNS_16__tree_node_baseIPvEEEENS_9allocatorINS_11__tree_nodeINS_12__value_typeIiiEES3_EEEEEC1B8ne180100ILb1EvEEv, symObjAddr: 0x580, symBinAddr: 0x100001400, symSize: 0x20 }
  - { offset: 0x99AE, size: 0x8, addend: 0x0, symName: __ZNSt3__117__compressed_pairImNS_19__map_value_compareIiNS_12__value_typeIiiEENS_4lessIiEELb1EEEEC1B8ne180100IiRKS6_EEOT_OT0_, symObjAddr: 0x5B0, symBinAddr: 0x100001430, symSize: 0x30 }
  - { offset: 0x9A05, size: 0x8, addend: 0x0, symName: __ZNSt3__16__treeINS_12__value_typeIiiEENS_19__map_value_compareIiS2_NS_4lessIiEELb1EEENS_9allocatorIS2_EEE10__end_nodeB8ne180100Ev, symObjAddr: 0x5E0, symBinAddr: 0x100001460, symSize: 0x30 }
  - { offset: 0x9A2A, size: 0x8, addend: 0x0, symName: __ZNSt3__16__treeINS_12__value_typeIiiEENS_19__map_value_compareIiS2_NS_4lessIiEELb1EEENS_9allocatorIS2_EEE12__begin_nodeB8ne180100Ev, symObjAddr: 0x610, symBinAddr: 0x100001490, symSize: 0x10 }
  - { offset: 0x9A4E, size: 0x8, addend: 0x0, symName: __ZNSt3__117__compressed_pairINS_15__tree_end_nodeIPNS_16__tree_node_baseIPvEEEENS_9allocatorINS_11__tree_nodeINS_12__value_typeIiiEES3_EEEEEC2B8ne180100ILb1EvEEv, symObjAddr: 0x620, symBinAddr: 0x1000014A0, symSize: 0x30 }
  - { offset: 0x9A81, size: 0x8, addend: 0x0, symName: __ZNSt3__122__compressed_pair_elemINS_15__tree_end_nodeIPNS_16__tree_node_baseIPvEEEELi0ELb0EEC2B8ne180100ENS_16__value_init_tagE, symObjAddr: 0x650, symBinAddr: 0x1000014D0, symSize: 0x20 }
  - { offset: 0x9AB4, size: 0x8, addend: 0x0, symName: __ZNSt3__122__compressed_pair_elemINS_9allocatorINS_11__tree_nodeINS_12__value_typeIiiEEPvEEEELi1ELb1EEC2B8ne180100ENS_16__value_init_tagE, symObjAddr: 0x670, symBinAddr: 0x1000014F0, symSize: 0x20 }
  - { offset: 0x9AE7, size: 0x8, addend: 0x0, symName: __ZNSt3__115__tree_end_nodeIPNS_16__tree_node_baseIPvEEEC1B8ne180100Ev, symObjAddr: 0x690, symBinAddr: 0x100001510, symSize: 0x20 }
  - { offset: 0x9B0F, size: 0x8, addend: 0x0, symName: __ZNSt3__115__tree_end_nodeIPNS_16__tree_node_baseIPvEEEC2B8ne180100Ev, symObjAddr: 0x6B0, symBinAddr: 0x100001530, symSize: 0x20 }
  - { offset: 0x9B37, size: 0x8, addend: 0x0, symName: __ZNSt3__19allocatorINS_11__tree_nodeINS_12__value_typeIiiEEPvEEEC2B8ne180100Ev, symObjAddr: 0x6D0, symBinAddr: 0x100001550, symSize: 0x20 }
  - { offset: 0x9B5F, size: 0x8, addend: 0x0, symName: __ZNSt3__116__non_trivial_ifILb1ENS_9allocatorINS_11__tree_nodeINS_12__value_typeIiiEEPvEEEEEC2B8ne180100Ev, symObjAddr: 0x6F0, symBinAddr: 0x100001570, symSize: 0x10 }
  - { offset: 0x9B87, size: 0x8, addend: 0x0, symName: __ZNSt3__117__compressed_pairImNS_19__map_value_compareIiNS_12__value_typeIiiEENS_4lessIiEELb1EEEEC2B8ne180100IiRKS6_EEOT_OT0_, symObjAddr: 0x700, symBinAddr: 0x100001580, symSize: 0x40 }
  - { offset: 0x9BDD, size: 0x8, addend: 0x0, symName: __ZNSt3__122__compressed_pair_elemImLi0ELb0EEC2B8ne180100IivEEOT_, symObjAddr: 0x740, symBinAddr: 0x1000015C0, symSize: 0x20 }
  - { offset: 0x9C1D, size: 0x8, addend: 0x0, symName: __ZNSt3__122__compressed_pair_elemINS_19__map_value_compareIiNS_12__value_typeIiiEENS_4lessIiEELb1EEELi1ELb1EEC2B8ne180100IRKS6_vEEOT_, symObjAddr: 0x760, symBinAddr: 0x1000015E0, symSize: 0x10 }
  - { offset: 0x9C5E, size: 0x8, addend: 0x0, symName: __ZNSt3__114pointer_traitsIPNS_15__tree_end_nodeIPNS_16__tree_node_baseIPvEEEEE10pointer_toB8ne180100ERS6_, symObjAddr: 0x770, symBinAddr: 0x1000015F0, symSize: 0x10 }
  - { offset: 0x9C81, size: 0x8, addend: 0x0, symName: __ZNSt3__117__compressed_pairINS_15__tree_end_nodeIPNS_16__tree_node_baseIPvEEEENS_9allocatorINS_11__tree_nodeINS_12__value_typeIiiEES3_EEEEE5firstB8ne180100Ev, symObjAddr: 0x780, symBinAddr: 0x100001600, symSize: 0x20 }
  - { offset: 0x9CA6, size: 0x8, addend: 0x0, symName: __ZNSt3__122__compressed_pair_elemINS_15__tree_end_nodeIPNS_16__tree_node_baseIPvEEEELi0ELb0EE5__getB8ne180100Ev, symObjAddr: 0x7A0, symBinAddr: 0x100001620, symSize: 0x10 }
  - { offset: 0x9CCA, size: 0x8, addend: 0x0, symName: __ZNSt3__13mapIiiNS_4lessIiEENS_9allocatorINS_4pairIKiiEEEEED2B8ne180100Ev, symObjAddr: 0x7B0, symBinAddr: 0x100001630, symSize: 0x20 }
  - { offset: 0x9CF3, size: 0x8, addend: 0x0, symName: __ZNSt3__16__treeINS_12__value_typeIiiEENS_19__map_value_compareIiS2_NS_4lessIiEELb1EEENS_9allocatorIS2_EEED1Ev, symObjAddr: 0x7D0, symBinAddr: 0x100001650, symSize: 0x20 }
  - { offset: 0x9D1E, size: 0x8, addend: 0x0, symName: __ZNSt3__16__treeINS_12__value_typeIiiEENS_19__map_value_compareIiS2_NS_4lessIiEELb1EEENS_9allocatorIS2_EEED2Ev, symObjAddr: 0x7F0, symBinAddr: 0x100001670, symSize: 0x30 }
  - { offset: 0x9D49, size: 0x8, addend: 0x0, symName: __ZNSt3__16__treeINS_12__value_typeIiiEENS_19__map_value_compareIiS2_NS_4lessIiEELb1EEENS_9allocatorIS2_EEE7destroyEPNS_11__tree_nodeIS2_PvEE, symObjAddr: 0x820, symBinAddr: 0x1000016A0, symSize: 0xB0 }
  - { offset: 0x9D94, size: 0x8, addend: 0x0, symName: __ZNKSt3__16__treeINS_12__value_typeIiiEENS_19__map_value_compareIiS2_NS_4lessIiEELb1EEENS_9allocatorIS2_EEE6__rootB8ne180100Ev, symObjAddr: 0x8D0, symBinAddr: 0x100001750, symSize: 0x20 }
  - { offset: 0x9DB9, size: 0x8, addend: 0x0, symName: __ZNSt3__16__treeINS_12__value_typeIiiEENS_19__map_value_compareIiS2_NS_4lessIiEELb1EEENS_9allocatorIS2_EEE12__node_allocB8ne180100Ev, symObjAddr: 0x8F0, symBinAddr: 0x100001770, symSize: 0x20 }
  - { offset: 0x9DDE, size: 0x8, addend: 0x0, symName: __ZNSt3__116allocator_traitsINS_9allocatorINS_11__tree_nodeINS_12__value_typeIiiEEPvEEEEE7destroyB8ne180100INS_4pairIKiiEEvvEEvRS7_PT_, symObjAddr: 0x910, symBinAddr: 0x100001790, symSize: 0x20 }
  - { offset: 0x9E19, size: 0x8, addend: 0x0, symName: __ZNSt3__122__tree_key_value_typesINS_12__value_typeIiiEEE9__get_ptrB8ne180100ERS2_, symObjAddr: 0x930, symBinAddr: 0x1000017B0, symSize: 0x20 }
  - { offset: 0x9E3D, size: 0x8, addend: 0x0, symName: __ZNSt3__116allocator_traitsINS_9allocatorINS_11__tree_nodeINS_12__value_typeIiiEEPvEEEEE10deallocateB8ne180100ERS7_PS6_m, symObjAddr: 0x950, symBinAddr: 0x1000017D0, symSize: 0x30 }
  - { offset: 0x9E7F, size: 0x8, addend: 0x0, symName: __ZNSt3__117__compressed_pairINS_15__tree_end_nodeIPNS_16__tree_node_baseIPvEEEENS_9allocatorINS_11__tree_nodeINS_12__value_typeIiiEES3_EEEEE6secondB8ne180100Ev, symObjAddr: 0x980, symBinAddr: 0x100001800, symSize: 0x20 }
  - { offset: 0x9EA4, size: 0x8, addend: 0x0, symName: __ZNSt3__122__compressed_pair_elemINS_9allocatorINS_11__tree_nodeINS_12__value_typeIiiEEPvEEEELi1ELb1EE5__getB8ne180100Ev, symObjAddr: 0x9A0, symBinAddr: 0x100001820, symSize: 0x10 }
  - { offset: 0x9EC9, size: 0x8, addend: 0x0, symName: __ZNSt3__112__value_typeIiiE11__get_valueB8ne180100Ev, symObjAddr: 0x9C0, symBinAddr: 0x100001840, symSize: 0x20 }
  - { offset: 0x9EEE, size: 0x8, addend: 0x0, symName: __ZNSt3__19allocatorINS_11__tree_nodeINS_12__value_typeIiiEEPvEEE10deallocateB8ne180100EPS5_m, symObjAddr: 0xA10, symBinAddr: 0x100001890, symSize: 0x50 }
  - { offset: 0x9F2F, size: 0x8, addend: 0x0, symName: __ZNKSt3__16__treeINS_12__value_typeIiiEENS_19__map_value_compareIiS2_NS_4lessIiEELb1EEENS_9allocatorIS2_EEE10__end_nodeB8ne180100Ev, symObjAddr: 0xB80, symBinAddr: 0x100001A00, symSize: 0x30 }
  - { offset: 0x9F54, size: 0x8, addend: 0x0, symName: __ZNKSt3__117__compressed_pairINS_15__tree_end_nodeIPNS_16__tree_node_baseIPvEEEENS_9allocatorINS_11__tree_nodeINS_12__value_typeIiiEES3_EEEEE5firstB8ne180100Ev, symObjAddr: 0xBB0, symBinAddr: 0x100001A30, symSize: 0x20 }
  - { offset: 0x9F79, size: 0x8, addend: 0x0, symName: __ZNKSt3__122__compressed_pair_elemINS_15__tree_end_nodeIPNS_16__tree_node_baseIPvEEEELi0ELb0EE5__getB8ne180100Ev, symObjAddr: 0xBD0, symBinAddr: 0x100001A50, symSize: 0x10 }
  - { offset: 0x9FB2, size: 0x8, addend: 0x0, symName: __ZNSt3__16__treeINS_12__value_typeIiiEENS_19__map_value_compareIiS2_NS_4lessIiEELb1EEENS_9allocatorIS2_EEE25__emplace_unique_key_argsIiJRKNS_21piecewise_construct_tENS_5tupleIJRKiEEENSE_IJEEEEEENS_4pairINS_15__tree_iteratorIS2_PNS_11__tree_nodeIS2_PvEElEEbEERKT_DpOT0_, symObjAddr: 0xBE0, symBinAddr: 0x100001A60, symSize: 0x100 }
  - { offset: 0xA090, size: 0x8, addend: 0x0, symName: __ZNKSt3__115__tree_iteratorINS_12__value_typeIiiEEPNS_11__tree_nodeIS2_PvEElEptB8ne180100Ev, symObjAddr: 0xD20, symBinAddr: 0x100001BA0, symSize: 0x30 }
  - { offset: 0xA0B5, size: 0x8, addend: 0x0, symName: __ZNSt3__16__treeINS_12__value_typeIiiEENS_19__map_value_compareIiS2_NS_4lessIiEELb1EEENS_9allocatorIS2_EEE12__find_equalIiEERPNS_16__tree_node_baseIPvEERPNS_15__tree_end_nodeISE_EERKT_, symObjAddr: 0xD50, symBinAddr: 0x100001BD0, symSize: 0x180 }
  - { offset: 0xA121, size: 0x8, addend: 0x0, symName: __ZNSt3__16__treeINS_12__value_typeIiiEENS_19__map_value_compareIiS2_NS_4lessIiEELb1EEENS_9allocatorIS2_EEE16__construct_nodeIJRKNS_21piecewise_construct_tENS_5tupleIJRKiEEENSE_IJEEEEEENS_10unique_ptrINS_11__tree_nodeIS2_PvEENS_22__tree_node_destructorINS7_ISM_EEEEEEDpOT_, symObjAddr: 0xED0, symBinAddr: 0x100001D50, symSize: 0x120 }
  - { offset: 0xA1A9, size: 0x8, addend: 0x0, symName: __ZNSt3__16__treeINS_12__value_typeIiiEENS_19__map_value_compareIiS2_NS_4lessIiEELb1EEENS_9allocatorIS2_EEE16__insert_node_atEPNS_15__tree_end_nodeIPNS_16__tree_node_baseIPvEEEERSE_SE_, symObjAddr: 0xFF0, symBinAddr: 0x100001E70, symSize: 0xC0 }
  - { offset: 0xA1FD, size: 0x8, addend: 0x0, symName: __ZNKSt3__110unique_ptrINS_11__tree_nodeINS_12__value_typeIiiEEPvEENS_22__tree_node_destructorINS_9allocatorIS5_EEEEE3getB8ne180100Ev, symObjAddr: 0x10B0, symBinAddr: 0x100001F30, symSize: 0x20 }
  - { offset: 0xA222, size: 0x8, addend: 0x0, symName: __ZNSt3__110unique_ptrINS_11__tree_nodeINS_12__value_typeIiiEEPvEENS_22__tree_node_destructorINS_9allocatorIS5_EEEEE7releaseB8ne180100Ev, symObjAddr: 0x10D0, symBinAddr: 0x100001F50, symSize: 0x40 }
  - { offset: 0xA255, size: 0x8, addend: 0x0, symName: __ZNSt3__110unique_ptrINS_11__tree_nodeINS_12__value_typeIiiEEPvEENS_22__tree_node_destructorINS_9allocatorIS5_EEEEED1B8ne180100Ev, symObjAddr: 0x1110, symBinAddr: 0x100001F90, symSize: 0x20 }
  - { offset: 0xA27D, size: 0x8, addend: 0x0, symName: __ZNSt3__115__tree_iteratorINS_12__value_typeIiiEEPNS_11__tree_nodeIS2_PvEElEC1B8ne180100ES6_, symObjAddr: 0x1130, symBinAddr: 0x100001FB0, symSize: 0x30 }
  - { offset: 0xA2BE, size: 0x8, addend: 0x0, symName: __ZNSt3__14pairINS_15__tree_iteratorINS_12__value_typeIiiEEPNS_11__tree_nodeIS3_PvEElEEbEC1B8ne180100IS8_RbLi0EEEOT_OT0_, symObjAddr: 0x1160, symBinAddr: 0x100001FE0, symSize: 0x30 }
  - { offset: 0xA31B, size: 0x8, addend: 0x0, symName: __ZNKSt3__16__treeINS_12__value_typeIiiEENS_19__map_value_compareIiS2_NS_4lessIiEELb1EEENS_9allocatorIS2_EEE10__root_ptrB8ne180100Ev, symObjAddr: 0x1190, symBinAddr: 0x100002010, symSize: 0x20 }
  - { offset: 0xA340, size: 0x8, addend: 0x0, symName: __ZNSt3__16__treeINS_12__value_typeIiiEENS_19__map_value_compareIiS2_NS_4lessIiEELb1EEENS_9allocatorIS2_EEE10value_compB8ne180100Ev, symObjAddr: 0x11B0, symBinAddr: 0x100002030, symSize: 0x20 }
  - { offset: 0xA365, size: 0x8, addend: 0x0, symName: __ZNKSt3__119__map_value_compareIiNS_12__value_typeIiiEENS_4lessIiEELb1EEclB8ne180100ERKiRKS2_, symObjAddr: 0x11D0, symBinAddr: 0x100002050, symSize: 0x50 }
  - { offset: 0xA3A8, size: 0x8, addend: 0x0, symName: __ZNKSt3__119__map_value_compareIiNS_12__value_typeIiiEENS_4lessIiEELb1EEclB8ne180100ERKS2_RKi, symObjAddr: 0x1220, symBinAddr: 0x1000020A0, symSize: 0x40 }
  - { offset: 0xA3EB, size: 0x8, addend: 0x0, symName: __ZNSt3__117__compressed_pairImNS_19__map_value_compareIiNS_12__value_typeIiiEENS_4lessIiEELb1EEEE6secondB8ne180100Ev, symObjAddr: 0x1260, symBinAddr: 0x1000020E0, symSize: 0x20 }
  - { offset: 0xA410, size: 0x8, addend: 0x0, symName: __ZNSt3__122__compressed_pair_elemINS_19__map_value_compareIiNS_12__value_typeIiiEENS_4lessIiEELb1EEELi1ELb1EE5__getB8ne180100Ev, symObjAddr: 0x1280, symBinAddr: 0x100002100, symSize: 0x10 }
  - { offset: 0xA435, size: 0x8, addend: 0x0, symName: __ZNKSt3__14lessIiEclB8ne180100ERKiS3_, symObjAddr: 0x1290, symBinAddr: 0x100002110, symSize: 0x30 }
  - { offset: 0xA478, size: 0x8, addend: 0x0, symName: __ZNKSt3__112__value_typeIiiE11__get_valueB8ne180100Ev, symObjAddr: 0x12C0, symBinAddr: 0x100002140, symSize: 0x20 }
  - { offset: 0xA49D, size: 0x8, addend: 0x0, symName: __ZNSt3__116allocator_traitsINS_9allocatorINS_11__tree_nodeINS_12__value_typeIiiEEPvEEEEE8allocateB8ne180100ERS7_m, symObjAddr: 0x1310, symBinAddr: 0x100002190, symSize: 0x30 }
  - { offset: 0xA4CF, size: 0x8, addend: 0x0, symName: __ZNSt3__122__tree_node_destructorINS_9allocatorINS_11__tree_nodeINS_12__value_typeIiiEEPvEEEEEC1B8ne180100ERS7_b, symObjAddr: 0x1340, symBinAddr: 0x1000021C0, symSize: 0x40 }
  - { offset: 0xA51A, size: 0x8, addend: 0x0, symName: __ZNSt3__110unique_ptrINS_11__tree_nodeINS_12__value_typeIiiEEPvEENS_22__tree_node_destructorINS_9allocatorIS5_EEEEEC1B8ne180100ILb1EvEEPS5_NS_16__dependent_typeINS_27__unique_ptr_deleter_sfinaeIS9_EEXT_EE20__good_rval_ref_typeE, symObjAddr: 0x1380, symBinAddr: 0x100002200, symSize: 0x30 }
  - { offset: 0xA56A, size: 0x8, addend: 0x0, symName: __ZNSt3__116allocator_traitsINS_9allocatorINS_11__tree_nodeINS_12__value_typeIiiEEPvEEEEE9constructB8ne180100INS_4pairIKiiEEJRKNS_21piecewise_construct_tENS_5tupleIJRSB_EEENSG_IJEEEEvvEEvRS7_PT_DpOT0_, symObjAddr: 0x13B0, symBinAddr: 0x100002230, symSize: 0x40 }
  - { offset: 0xA5E7, size: 0x8, addend: 0x0, symName: __ZNKSt3__110unique_ptrINS_11__tree_nodeINS_12__value_typeIiiEEPvEENS_22__tree_node_destructorINS_9allocatorIS5_EEEEEptB8ne180100Ev, symObjAddr: 0x13F0, symBinAddr: 0x100002270, symSize: 0x20 }
  - { offset: 0xA60C, size: 0x8, addend: 0x0, symName: __ZNSt3__110unique_ptrINS_11__tree_nodeINS_12__value_typeIiiEEPvEENS_22__tree_node_destructorINS_9allocatorIS5_EEEEE11get_deleterB8ne180100Ev, symObjAddr: 0x1410, symBinAddr: 0x100002290, symSize: 0x20 }
  - { offset: 0xA631, size: 0x8, addend: 0x0, symName: __ZNSt3__19allocatorINS_11__tree_nodeINS_12__value_typeIiiEEPvEEE8allocateB8ne180100Em, symObjAddr: 0x1430, symBinAddr: 0x1000022B0, symSize: 0x50 }
  - { offset: 0xA66E, size: 0x8, addend: 0x0, symName: __ZNSt3__116allocator_traitsINS_9allocatorINS_11__tree_nodeINS_12__value_typeIiiEEPvEEEEE8max_sizeB8ne180100IS7_vvEEmRKS7_, symObjAddr: 0x1480, symBinAddr: 0x100002300, symSize: 0x30 }
  - { offset: 0xA69A, size: 0x8, addend: 0x0, symName: __ZNSt3__114numeric_limitsImE3maxB8ne180100Ev, symObjAddr: 0x1550, symBinAddr: 0x1000023D0, symSize: 0x10 }
  - { offset: 0xA6AE, size: 0x8, addend: 0x0, symName: __ZNSt3__123__libcpp_numeric_limitsImLb1EE3maxB8ne180100Ev, symObjAddr: 0x1560, symBinAddr: 0x1000023E0, symSize: 0x10 }
  - { offset: 0xA6C1, size: 0x8, addend: 0x0, symName: __ZNSt3__122__tree_node_destructorINS_9allocatorINS_11__tree_nodeINS_12__value_typeIiiEEPvEEEEEC2B8ne180100ERS7_b, symObjAddr: 0x15C0, symBinAddr: 0x100002440, symSize: 0x30 }
  - { offset: 0xA707, size: 0x8, addend: 0x0, symName: __ZNSt3__110unique_ptrINS_11__tree_nodeINS_12__value_typeIiiEEPvEENS_22__tree_node_destructorINS_9allocatorIS5_EEEEEC2B8ne180100ILb1EvEEPS5_NS_16__dependent_typeINS_27__unique_ptr_deleter_sfinaeIS9_EEXT_EE20__good_rval_ref_typeE, symObjAddr: 0x15F0, symBinAddr: 0x100002470, symSize: 0x40 }
  - { offset: 0xA756, size: 0x8, addend: 0x0, symName: __ZNSt3__117__compressed_pairIPNS_11__tree_nodeINS_12__value_typeIiiEEPvEENS_22__tree_node_destructorINS_9allocatorIS5_EEEEEC1B8ne180100IRS6_SA_EEOT_OT0_, symObjAddr: 0x1630, symBinAddr: 0x1000024B0, symSize: 0x30 }
  - { offset: 0xA7AC, size: 0x8, addend: 0x0, symName: __ZNSt3__117__compressed_pairIPNS_11__tree_nodeINS_12__value_typeIiiEEPvEENS_22__tree_node_destructorINS_9allocatorIS5_EEEEEC2B8ne180100IRS6_SA_EEOT_OT0_, symObjAddr: 0x1660, symBinAddr: 0x1000024E0, symSize: 0x40 }
  - { offset: 0xA802, size: 0x8, addend: 0x0, symName: __ZNSt3__122__compressed_pair_elemIPNS_11__tree_nodeINS_12__value_typeIiiEEPvEELi0ELb0EEC2B8ne180100IRS6_vEEOT_, symObjAddr: 0x16A0, symBinAddr: 0x100002520, symSize: 0x20 }
  - { offset: 0xA842, size: 0x8, addend: 0x0, symName: __ZNSt3__122__compressed_pair_elemINS_22__tree_node_destructorINS_9allocatorINS_11__tree_nodeINS_12__value_typeIiiEEPvEEEEEELi1ELb0EEC2B8ne180100IS9_vEEOT_, symObjAddr: 0x16C0, symBinAddr: 0x100002540, symSize: 0x30 }
  - { offset: 0xA882, size: 0x8, addend: 0x0, symName: __ZNSt3__14pairIKiiEC1B8ne180100IJRS1_EJEEENS_21piecewise_construct_tENS_5tupleIJDpT_EEENS6_IJDpT0_EEE, symObjAddr: 0x1770, symBinAddr: 0x1000025F0, symSize: 0x40 }
  - { offset: 0xA8E8, size: 0x8, addend: 0x0, symName: __ZNSt3__14pairIKiiEC1B8ne180100IJRS1_EJEJLm0EEJEEENS_21piecewise_construct_tERNS_5tupleIJDpT_EEERNS6_IJDpT0_EEENS_15__tuple_indicesIJXspT1_EEEENSF_IJXspT2_EEEE, symObjAddr: 0x17B0, symBinAddr: 0x100002630, symSize: 0x30 }
  - { offset: 0xA977, size: 0x8, addend: 0x0, symName: __ZNSt3__14pairIKiiEC2B8ne180100IJRS1_EJEJLm0EEJEEENS_21piecewise_construct_tERNS_5tupleIJDpT_EEERNS6_IJDpT0_EEENS_15__tuple_indicesIJXspT1_EEEENSF_IJXspT2_EEEE, symObjAddr: 0x17E0, symBinAddr: 0x100002660, symSize: 0x40 }
  - { offset: 0xAA06, size: 0x8, addend: 0x0, symName: __ZNSt3__112__tuple_leafILm0ERKiLb0EE3getB8ne180100Ev, symObjAddr: 0x1840, symBinAddr: 0x1000026C0, symSize: 0x20 }
  - { offset: 0xAA2B, size: 0x8, addend: 0x0, symName: __ZNKSt3__117__compressed_pairIPNS_11__tree_nodeINS_12__value_typeIiiEEPvEENS_22__tree_node_destructorINS_9allocatorIS5_EEEEE5firstB8ne180100Ev, symObjAddr: 0x1860, symBinAddr: 0x1000026E0, symSize: 0x20 }
  - { offset: 0xAA50, size: 0x8, addend: 0x0, symName: __ZNKSt3__122__compressed_pair_elemIPNS_11__tree_nodeINS_12__value_typeIiiEEPvEELi0ELb0EE5__getB8ne180100Ev, symObjAddr: 0x1880, symBinAddr: 0x100002700, symSize: 0x10 }
  - { offset: 0xAA75, size: 0x8, addend: 0x0, symName: __ZNSt3__117__compressed_pairIPNS_11__tree_nodeINS_12__value_typeIiiEEPvEENS_22__tree_node_destructorINS_9allocatorIS5_EEEEE6secondB8ne180100Ev, symObjAddr: 0x1890, symBinAddr: 0x100002710, symSize: 0x20 }
  - { offset: 0xAA9A, size: 0x8, addend: 0x0, symName: __ZNSt3__122__compressed_pair_elemINS_22__tree_node_destructorINS_9allocatorINS_11__tree_nodeINS_12__value_typeIiiEEPvEEEEEELi1ELb0EE5__getB8ne180100Ev, symObjAddr: 0x18B0, symBinAddr: 0x100002730, symSize: 0x10 }
  - { offset: 0xAABF, size: 0x8, addend: 0x0, symName: __ZNSt3__16__treeINS_12__value_typeIiiEENS_19__map_value_compareIiS2_NS_4lessIiEELb1EEENS_9allocatorIS2_EEE4sizeB8ne180100Ev, symObjAddr: 0x1BE0, symBinAddr: 0x100002A60, symSize: 0x20 }
  - { offset: 0xAAE4, size: 0x8, addend: 0x0, symName: __ZNKSt3__116__tree_node_baseIPvE15__parent_unsafeB8ne180100Ev, symObjAddr: 0x1C00, symBinAddr: 0x100002A80, symSize: 0x20 }
  - { offset: 0xAB09, size: 0x8, addend: 0x0, symName: __ZNSt3__116__tree_node_baseIPvE12__set_parentB8ne180100EPS2_, symObjAddr: 0x1DE0, symBinAddr: 0x100002C60, symSize: 0x20 }
  - { offset: 0xAB3D, size: 0x8, addend: 0x0, symName: __ZNSt3__117__compressed_pairImNS_19__map_value_compareIiNS_12__value_typeIiiEENS_4lessIiEELb1EEEE5firstB8ne180100Ev, symObjAddr: 0x1E00, symBinAddr: 0x100002C80, symSize: 0x20 }
  - { offset: 0xAB62, size: 0x8, addend: 0x0, symName: __ZNSt3__122__compressed_pair_elemImLi0ELb0EE5__getB8ne180100Ev, symObjAddr: 0x1E20, symBinAddr: 0x100002CA0, symSize: 0x10 }
  - { offset: 0xAB87, size: 0x8, addend: 0x0, symName: __ZNSt3__117__compressed_pairIPNS_11__tree_nodeINS_12__value_typeIiiEEPvEENS_22__tree_node_destructorINS_9allocatorIS5_EEEEE5firstB8ne180100Ev, symObjAddr: 0x1E30, symBinAddr: 0x100002CB0, symSize: 0x20 }
  - { offset: 0xABAC, size: 0x8, addend: 0x0, symName: __ZNSt3__122__compressed_pair_elemIPNS_11__tree_nodeINS_12__value_typeIiiEEPvEELi0ELb0EE5__getB8ne180100Ev, symObjAddr: 0x1E50, symBinAddr: 0x100002CD0, symSize: 0x10 }
  - { offset: 0xABD0, size: 0x8, addend: 0x0, symName: __ZNSt3__110unique_ptrINS_11__tree_nodeINS_12__value_typeIiiEEPvEENS_22__tree_node_destructorINS_9allocatorIS5_EEEEED2B8ne180100Ev, symObjAddr: 0x1E60, symBinAddr: 0x100002CE0, symSize: 0x20 }
  - { offset: 0xABF9, size: 0x8, addend: 0x0, symName: __ZNSt3__110unique_ptrINS_11__tree_nodeINS_12__value_typeIiiEEPvEENS_22__tree_node_destructorINS_9allocatorIS5_EEEEE5resetB8ne180100EPS5_, symObjAddr: 0x1E80, symBinAddr: 0x100002D00, symSize: 0x70 }
  - { offset: 0xAC3C, size: 0x8, addend: 0x0, symName: __ZNSt3__122__tree_node_destructorINS_9allocatorINS_11__tree_nodeINS_12__value_typeIiiEEPvEEEEEclB8ne180100EPS6_, symObjAddr: 0x1EF0, symBinAddr: 0x100002D70, symSize: 0x90 }
  - { offset: 0xAC6F, size: 0x8, addend: 0x0, symName: __ZNSt3__115__tree_iteratorINS_12__value_typeIiiEEPNS_11__tree_nodeIS2_PvEElEC2B8ne180100ES6_, symObjAddr: 0x1F80, symBinAddr: 0x100002E00, symSize: 0x20 }
  - { offset: 0xACA6, size: 0x8, addend: 0x0, symName: __ZNSt3__14pairINS_15__tree_iteratorINS_12__value_typeIiiEEPNS_11__tree_nodeIS3_PvEElEEbEC2B8ne180100IS8_RbLi0EEEOT_OT0_, symObjAddr: 0x1FA0, symBinAddr: 0x100002E20, symSize: 0x30 }
  - { offset: 0xAD02, size: 0x8, addend: 0x0, symName: __ZNSt3__15tupleIJRKiEEC1B8ne180100INS_4_AndELi0EEES2_, symObjAddr: 0x1FD0, symBinAddr: 0x100002E50, symSize: 0x30 }
  - { offset: 0xAD48, size: 0x8, addend: 0x0, symName: __ZNSt3__15tupleIJRKiEEC2B8ne180100INS_4_AndELi0EEES2_, symObjAddr: 0x2000, symBinAddr: 0x100002E80, symSize: 0x30 }
  - { offset: 0xAD8E, size: 0x8, addend: 0x0, symName: __ZNSt3__112__tuple_implINS_15__tuple_indicesIJLm0EEEEJRKiEEC1B8ne180100IJLm0EEJS4_EJEJEJS4_EEENS1_IJXspT_EEEENS_13__tuple_typesIJDpT0_EEENS1_IJXspT1_EEEENS8_IJDpT2_EEEDpOT3_, symObjAddr: 0x2030, symBinAddr: 0x100002EB0, symSize: 0x30 }
  - { offset: 0xAE21, size: 0x8, addend: 0x0, symName: __ZNSt3__112__tuple_implINS_15__tuple_indicesIJLm0EEEEJRKiEEC2B8ne180100IJLm0EEJS4_EJEJEJS4_EEENS1_IJXspT_EEEENS_13__tuple_typesIJDpT0_EEENS1_IJXspT1_EEEENS8_IJDpT2_EEEDpOT3_, symObjAddr: 0x2060, symBinAddr: 0x100002EE0, symSize: 0x30 }
  - { offset: 0xAEB4, size: 0x8, addend: 0x0, symName: __ZNSt3__112__tuple_leafILm0ERKiLb0EEC2B8ne180100IS2_vEEOT_, symObjAddr: 0x2090, symBinAddr: 0x100002F10, symSize: 0x20 }
  - { offset: 0xAEF6, size: 0x8, addend: 0x0, symName: __ZNSt3__114pointer_traitsIPNS_12__value_typeIiiEEE10pointer_toB8ne180100ERS2_, symObjAddr: 0x20B0, symBinAddr: 0x100002F30, symSize: 0x10 }
  - { offset: 0xAF19, size: 0x8, addend: 0x0, symName: __ZNKSt3__115__tree_iteratorINS_12__value_typeIiiEEPNS_11__tree_nodeIS2_PvEElE8__get_npB8ne180100Ev, symObjAddr: 0x20C0, symBinAddr: 0x100002F40, symSize: 0x20 }
  - { offset: 0xAF3E, size: 0x8, addend: 0x0, symName: __ZNSt3__16__treeINS_12__value_typeIiiEENS_19__map_value_compareIiS2_NS_4lessIiEELb1EEENS_9allocatorIS2_EEE4findIiEENS_15__tree_iteratorIS2_PNS_11__tree_nodeIS2_PvEElEERKT_, symObjAddr: 0x20E0, symBinAddr: 0x100002F60, symSize: 0xE0 }
  - { offset: 0xAF8B, size: 0x8, addend: 0x0, symName: __ZNSt3__114__map_iteratorINS_15__tree_iteratorINS_12__value_typeIiiEEPNS_11__tree_nodeIS3_PvEElEEEC1B8ne180100ES8_, symObjAddr: 0x21C0, symBinAddr: 0x100003040, symSize: 0x30 }
  - { offset: 0xAFC3, size: 0x8, addend: 0x0, symName: __ZNSt3__16__treeINS_12__value_typeIiiEENS_19__map_value_compareIiS2_NS_4lessIiEELb1EEENS_9allocatorIS2_EEE13__lower_boundIiEENS_15__tree_iteratorIS2_PNS_11__tree_nodeIS2_PvEElEERKT_SF_PNS_15__tree_end_nodeIPNS_16__tree_node_baseISD_EEEE, symObjAddr: 0x21F0, symBinAddr: 0x100003070, symSize: 0x90 }
  - { offset: 0xB020, size: 0x8, addend: 0x0, symName: __ZNSt3__16__treeINS_12__value_typeIiiEENS_19__map_value_compareIiS2_NS_4lessIiEELb1EEENS_9allocatorIS2_EEE3endB8ne180100Ev, symObjAddr: 0x22B0, symBinAddr: 0x100003130, symSize: 0x30 }
  - { offset: 0xB045, size: 0x8, addend: 0x0, symName: __ZNKSt3__115__tree_iteratorINS_12__value_typeIiiEEPNS_11__tree_nodeIS2_PvEElEdeB8ne180100Ev, symObjAddr: 0x22E0, symBinAddr: 0x100003160, symSize: 0x20 }
  - { offset: 0xB069, size: 0x8, addend: 0x0, symName: __ZNSt3__115__tree_iteratorINS_12__value_typeIiiEEPNS_11__tree_nodeIS2_PvEElEC1B8ne180100EPNS_15__tree_end_nodeIPNS_16__tree_node_baseIS4_EEEE, symObjAddr: 0x2300, symBinAddr: 0x100003180, symSize: 0x30 }
  - { offset: 0xB0A0, size: 0x8, addend: 0x0, symName: __ZNSt3__115__tree_iteratorINS_12__value_typeIiiEEPNS_11__tree_nodeIS2_PvEElEC2B8ne180100EPNS_15__tree_end_nodeIPNS_16__tree_node_baseIS4_EEEE, symObjAddr: 0x2330, symBinAddr: 0x1000031B0, symSize: 0x20 }
  - { offset: 0xB0D7, size: 0x8, addend: 0x0, symName: __ZNSt3__114__map_iteratorINS_15__tree_iteratorINS_12__value_typeIiiEEPNS_11__tree_nodeIS3_PvEElEEEC2B8ne180100ES8_, symObjAddr: 0x2380, symBinAddr: 0x100003200, symSize: 0x20 }
  - { offset: 0xB10F, size: 0x8, addend: 0x0, symName: __ZNSt3__111char_traitsIcE6lengthB8ne180100EPKc, symObjAddr: 0x2590, symBinAddr: 0x100003410, symSize: 0x30 }
  - { offset: 0xB150, size: 0x8, addend: 0x0, symName: __ZNKSt3__113basic_ostreamIcNS_11char_traitsIcEEE6sentrycvbB8ne180100Ev, symObjAddr: 0x25C0, symBinAddr: 0x100003440, symSize: 0x20 }
  - { offset: 0xB174, size: 0x8, addend: 0x0, symName: __ZNSt3__119ostreambuf_iteratorIcNS_11char_traitsIcEEEC1B8ne180100ERNS_13basic_ostreamIcS2_EE, symObjAddr: 0x2800, symBinAddr: 0x100003680, symSize: 0x30 }
  - { offset: 0xB1AB, size: 0x8, addend: 0x0, symName: __ZNKSt3__18ios_base5flagsB8ne180100Ev, symObjAddr: 0x2830, symBinAddr: 0x1000036B0, symSize: 0x20 }
  - { offset: 0xB1D2, size: 0x8, addend: 0x0, symName: __ZNKSt3__19basic_iosIcNS_11char_traitsIcEEE4fillB8ne180100Ev, symObjAddr: 0x2850, symBinAddr: 0x1000036D0, symSize: 0x70 }
  - { offset: 0xB1F9, size: 0x8, addend: 0x0, symName: __ZNKSt3__119ostreambuf_iteratorIcNS_11char_traitsIcEEE6failedB8ne180100Ev, symObjAddr: 0x28C0, symBinAddr: 0x100003740, symSize: 0x20 }
  - { offset: 0xB21E, size: 0x8, addend: 0x0, symName: __ZNSt3__19basic_iosIcNS_11char_traitsIcEEE8setstateB8ne180100Ej, symObjAddr: 0x28E0, symBinAddr: 0x100003760, symSize: 0x30 }
  - { offset: 0xB252, size: 0x8, addend: 0x0, symName: __ZNKSt3__18ios_base5widthB8ne180100Ev, symObjAddr: 0x2910, symBinAddr: 0x100003790, symSize: 0x20 }
  - { offset: 0xB279, size: 0x8, addend: 0x0, symName: __ZNSt3__115basic_streambufIcNS_11char_traitsIcEEE5sputnB8ne180100EPKcl, symObjAddr: 0x2930, symBinAddr: 0x1000037B0, symSize: 0x30 }
  - { offset: 0xB2B9, size: 0x8, addend: 0x0, symName: __ZNSt3__112basic_stringIcNS_11char_traitsIcEENS_9allocatorIcEEEC1B8ne180100Emc, symObjAddr: 0x2960, symBinAddr: 0x1000037E0, symSize: 0x30 }
  - { offset: 0xB300, size: 0x8, addend: 0x0, symName: __ZNSt3__112basic_stringIcNS_11char_traitsIcEENS_9allocatorIcEEE4dataB8ne180100Ev, symObjAddr: 0x2990, symBinAddr: 0x100003810, symSize: 0x30 }
  - { offset: 0xB325, size: 0x8, addend: 0x0, symName: __ZNSt3__18ios_base5widthB8ne180100El, symObjAddr: 0x29C0, symBinAddr: 0x100003840, symSize: 0x30 }
  - { offset: 0xB369, size: 0x8, addend: 0x0, symName: __ZNSt3__112basic_stringIcNS_11char_traitsIcEENS_9allocatorIcEEEC2B8ne180100Emc, symObjAddr: 0x29F0, symBinAddr: 0x100003870, symSize: 0x50 }
  - { offset: 0xB3B4, size: 0x8, addend: 0x0, symName: __ZNSt3__117__compressed_pairINS_12basic_stringIcNS_11char_traitsIcEENS_9allocatorIcEEE5__repES5_EC1B8ne180100INS_18__default_init_tagESA_EEOT_OT0_, symObjAddr: 0x2A40, symBinAddr: 0x1000038C0, symSize: 0x30 }
  - { offset: 0xB40A, size: 0x8, addend: 0x0, symName: __ZNSt3__117__compressed_pairINS_12basic_stringIcNS_11char_traitsIcEENS_9allocatorIcEEE5__repES5_EC2B8ne180100INS_18__default_init_tagESA_EEOT_OT0_, symObjAddr: 0x2A70, symBinAddr: 0x1000038F0, symSize: 0x30 }
  - { offset: 0xB460, size: 0x8, addend: 0x0, symName: __ZNSt3__122__compressed_pair_elemINS_12basic_stringIcNS_11char_traitsIcEENS_9allocatorIcEEE5__repELi0ELb0EEC2B8ne180100ENS_18__default_init_tagE, symObjAddr: 0x2AA0, symBinAddr: 0x100003920, symSize: 0x10 }
  - { offset: 0xB493, size: 0x8, addend: 0x0, symName: __ZNSt3__122__compressed_pair_elemINS_9allocatorIcEELi1ELb1EEC2B8ne180100ENS_18__default_init_tagE, symObjAddr: 0x2AB0, symBinAddr: 0x100003930, symSize: 0x20 }
  - { offset: 0xB4C6, size: 0x8, addend: 0x0, symName: __ZNSt3__19allocatorIcEC2B8ne180100Ev, symObjAddr: 0x2AD0, symBinAddr: 0x100003950, symSize: 0x20 }
  - { offset: 0xB4EE, size: 0x8, addend: 0x0, symName: __ZNSt3__116__non_trivial_ifILb1ENS_9allocatorIcEEEC2B8ne180100Ev, symObjAddr: 0x2AF0, symBinAddr: 0x100003970, symSize: 0x10 }
  - { offset: 0xB517, size: 0x8, addend: 0x0, symName: __ZNSt3__112basic_stringIcNS_11char_traitsIcEENS_9allocatorIcEEE13__get_pointerB8ne180100Ev, symObjAddr: 0x2B10, symBinAddr: 0x100003990, symSize: 0x50 }
  - { offset: 0xB53C, size: 0x8, addend: 0x0, symName: __ZNKSt3__112basic_stringIcNS_11char_traitsIcEENS_9allocatorIcEEE9__is_longB8ne180100Ev, symObjAddr: 0x2B60, symBinAddr: 0x1000039E0, symSize: 0x30 }
  - { offset: 0xB561, size: 0x8, addend: 0x0, symName: __ZNSt3__112basic_stringIcNS_11char_traitsIcEENS_9allocatorIcEEE18__get_long_pointerB8ne180100Ev, symObjAddr: 0x2B90, symBinAddr: 0x100003A10, symSize: 0x20 }
  - { offset: 0xB586, size: 0x8, addend: 0x0, symName: __ZNSt3__112basic_stringIcNS_11char_traitsIcEENS_9allocatorIcEEE19__get_short_pointerB8ne180100Ev, symObjAddr: 0x2BB0, symBinAddr: 0x100003A30, symSize: 0x30 }
  - { offset: 0xB5AB, size: 0x8, addend: 0x0, symName: __ZNKSt3__117__compressed_pairINS_12basic_stringIcNS_11char_traitsIcEENS_9allocatorIcEEE5__repES5_E5firstB8ne180100Ev, symObjAddr: 0x2BE0, symBinAddr: 0x100003A60, symSize: 0x20 }
  - { offset: 0xB5D0, size: 0x8, addend: 0x0, symName: __ZNKSt3__122__compressed_pair_elemINS_12basic_stringIcNS_11char_traitsIcEENS_9allocatorIcEEE5__repELi0ELb0EE5__getB8ne180100Ev, symObjAddr: 0x2C00, symBinAddr: 0x100003A80, symSize: 0x10 }
  - { offset: 0xB5F5, size: 0x8, addend: 0x0, symName: __ZNSt3__117__compressed_pairINS_12basic_stringIcNS_11char_traitsIcEENS_9allocatorIcEEE5__repES5_E5firstB8ne180100Ev, symObjAddr: 0x2C10, symBinAddr: 0x100003A90, symSize: 0x20 }
  - { offset: 0xB61A, size: 0x8, addend: 0x0, symName: __ZNSt3__122__compressed_pair_elemINS_12basic_stringIcNS_11char_traitsIcEENS_9allocatorIcEEE5__repELi0ELb0EE5__getB8ne180100Ev, symObjAddr: 0x2C30, symBinAddr: 0x100003AB0, symSize: 0x10 }
  - { offset: 0xB63F, size: 0x8, addend: 0x0, symName: __ZNSt3__114pointer_traitsIPcE10pointer_toB8ne180100ERc, symObjAddr: 0x2C40, symBinAddr: 0x100003AC0, symSize: 0x10 }
  - { offset: 0xB661, size: 0x8, addend: 0x0, symName: __ZNSt3__119ostreambuf_iteratorIcNS_11char_traitsIcEEEC2B8ne180100ERNS_13basic_ostreamIcS2_EE, symObjAddr: 0x2C50, symBinAddr: 0x100003AD0, symSize: 0x50 }
  - { offset: 0xB698, size: 0x8, addend: 0x0, symName: __ZNKSt3__19basic_iosIcNS_11char_traitsIcEEE5rdbufB8ne180100Ev, symObjAddr: 0x2CA0, symBinAddr: 0x100003B20, symSize: 0x20 }
  - { offset: 0xB6BF, size: 0x8, addend: 0x0, symName: __ZNKSt3__18ios_base5rdbufB8ne180100Ev, symObjAddr: 0x2CC0, symBinAddr: 0x100003B40, symSize: 0x20 }
  - { offset: 0xB6E4, size: 0x8, addend: 0x0, symName: __ZNSt3__111char_traitsIcE11eq_int_typeB8ne180100Eii, symObjAddr: 0x2CE0, symBinAddr: 0x100003B60, symSize: 0x20 }
  - { offset: 0xB717, size: 0x8, addend: 0x0, symName: __ZNSt3__111char_traitsIcE3eofB8ne180100Ev, symObjAddr: 0x2D00, symBinAddr: 0x100003B80, symSize: 0x10 }
  - { offset: 0xB72B, size: 0x8, addend: 0x0, symName: __ZNKSt3__19basic_iosIcNS_11char_traitsIcEEE5widenB8ne180100Ec, symObjAddr: 0x2D10, symBinAddr: 0x100003B90, symSize: 0x80 }
  - { offset: 0xB7A3, size: 0x8, addend: 0x0, symName: __ZNKSt3__15ctypeIcE5widenB8ne180100Ec, symObjAddr: 0x2DC0, symBinAddr: 0x100003C40, symSize: 0x30 }
  - { offset: 0xB7D7, size: 0x8, addend: 0x0, symName: __ZNSt3__18ios_base8setstateB8ne180100Ej, symObjAddr: 0x2DF0, symBinAddr: 0x100003C70, symSize: 0x30 }
...
