---
triple:          'x86_64-apple-darwin'
binary-path:     e
relocations:
  - { offsetInCU: 0x5C, offset: 0x5C, size: 0x8, addend: 0x0, symName: __ZNSt3__119piecewise_constructE, symObjAddr: 0xAABF, symBinAddr: 0x10000BD84, symSize: 0x0 }
  - { offsetInCU: 0x54FB, offset: 0x54FB, size: 0x8, addend: 0x0, symName: __ZNSt3__17advanceB8ue170006IPNS_4pairIicEEllvEEvRT_T0_, symObjAddr: 0x2530, symBinAddr: 0x1000036F0, symSize: 0x30 }
  - { offsetInCU: 0x577B, offset: 0x577B, size: 0x8, addend: 0x0, symName: __ZNSt3__17advanceB8ue170006INS_16reverse_iteratorIPNS_4pairIicEEEEllvEEvRT_T0_, symObjAddr: 0x2940, symBinAddr: 0x100003B00, symSize: 0x30 }
  - { offsetInCU: 0x57E6, offset: 0x57E6, size: 0x8, addend: 0x0, symName: __ZNSt3__111__introsortINS_17_ClassicAlgPolicyERNS_6__lessIvvEENS_16reverse_iteratorINS_11__wrap_iterIPNS_4pairIicEEEEEELb0EEEvT1_SC_T0_NS_15iterator_traitsISC_E15difference_typeEb, symObjAddr: 0x3110, symBinAddr: 0x1000042D0, symSize: 0xB50 }
  - { offsetInCU: 0x593F, offset: 0x593F, size: 0x8, addend: 0x0, symName: __ZNSt3__126__insertion_sort_unguardedB8ue170006INS_17_ClassicAlgPolicyERNS_6__lessIvvEENS_16reverse_iteratorINS_11__wrap_iterIPNS_4pairIicEEEEEEEEvT1_SC_T0_, symObjAddr: 0x4250, symBinAddr: 0x100005410, symSize: 0x1B0 }
  - { offsetInCU: 0x5A33, offset: 0x5A33, size: 0x8, addend: 0x0, symName: __ZNSt3__111__sift_downB8ue170006INS_17_ClassicAlgPolicyERNS_6__lessIvvEENS_16reverse_iteratorINS_11__wrap_iterIPNS_4pairIicEEEEEEEEvT1_OT0_NS_15iterator_traitsISC_E15difference_typeESC_, symObjAddr: 0x64E0, symBinAddr: 0x1000076A0, symSize: 0x300 }
  - { offsetInCU: 0x5AE2, offset: 0x5AE2, size: 0x8, addend: 0x0, symName: __ZNSt3__117__floyd_sift_downB8ue170006INS_17_ClassicAlgPolicyERNS_6__lessIvvEENS_16reverse_iteratorINS_11__wrap_iterIPNS_4pairIicEEEEEEEET1_SC_OT0_NS_15iterator_traitsISC_E15difference_typeE, symObjAddr: 0x6A40, symBinAddr: 0x100007C00, symSize: 0x160 }
  - { offsetInCU: 0x5B7B, offset: 0x5B7B, size: 0x8, addend: 0x0, symName: __ZNSt3__131__partition_with_equals_on_leftB8ue170006INS_17_ClassicAlgPolicyENS_16reverse_iteratorINS_11__wrap_iterIPNS_4pairIicEEEEEERNS_6__lessIvvEEEET0_SC_SC_T1_, symObjAddr: 0x4830, symBinAddr: 0x1000059F0, symSize: 0x2F0 }
  - { offsetInCU: 0x5C3A, offset: 0x5C3A, size: 0x8, addend: 0x0, symName: __ZNSt3__118__bitset_partitionB8ue170006INS_17_ClassicAlgPolicyENS_16reverse_iteratorINS_11__wrap_iterIPNS_4pairIicEEEEEERNS_6__lessIvvEEEENS4_IT0_bEESC_SC_T1_, symObjAddr: 0x4B20, symBinAddr: 0x100005CE0, symSize: 0x440 }
  - { offsetInCU: 0x5D38, offset: 0x5D38, size: 0x8, addend: 0x0, symName: __ZNSt3__124__swap_bitmap_pos_withinB8ue170006INS_17_ClassicAlgPolicyENS_16reverse_iteratorINS_11__wrap_iterIPNS_4pairIicEEEEEEEEvRT0_SA_RySB_, symObjAddr: 0x73C0, symBinAddr: 0x100008580, symSize: 0x1A0 }
  - { offsetInCU: 0x5E07, offset: 0x5E07, size: 0x8, addend: 0x0, symName: __ZNSt3__132__partition_with_equals_on_rightB8ue170006INS_17_ClassicAlgPolicyENS_16reverse_iteratorINS_11__wrap_iterIPNS_4pairIicEEEEEERNS_6__lessIvvEEEENS4_IT0_bEESC_SC_T1_, symObjAddr: 0x4F60, symBinAddr: 0x100006120, symSize: 0x2D0 }
  - { offsetInCU: 0x5ED5, offset: 0x5ED5, size: 0x8, addend: 0x0, symName: __ZNSt3__127__insertion_sort_incompleteB8ue170006INS_17_ClassicAlgPolicyERNS_6__lessIvvEENS_16reverse_iteratorINS_11__wrap_iterIPNS_4pairIicEEEEEEEEbT1_SC_T0_, symObjAddr: 0x5230, symBinAddr: 0x1000063F0, symSize: 0x5E0 }
  - { offsetInCU: 0xAA7B, offset: 0xAA7B, size: 0x8, addend: 0x0, symName: __ZNSt3__1eqB8ue170006ERKNS_19__hash_map_iteratorINS_15__hash_iteratorIPNS_11__hash_nodeINS_17__hash_value_typeIciEEPvEEEEEESB_, symObjAddr: 0x820, symBinAddr: 0x1000019E0, symSize: 0x30 }
  - { offsetInCU: 0xAAB8, offset: 0xAAB8, size: 0x8, addend: 0x0, symName: __ZNSt3__14sortB8ue170006INS_16reverse_iteratorINS_11__wrap_iterIPNS_4pairIicEEEEEEEEvT_S8_, symObjAddr: 0x940, symBinAddr: 0x100001B00, symSize: 0x60 }
  - { offsetInCU: 0xAAFA, offset: 0xAAFA, size: 0x8, addend: 0x0, symName: __ZNSt3__13minB8ue170006IiEERKT_S3_S3_, symObjAddr: 0xAA0, symBinAddr: 0x100001C60, symSize: 0x30 }
  - { offsetInCU: 0xAB3D, offset: 0xAB3D, size: 0x8, addend: 0x0, symName: __ZNSt3__1rsB8ue170006IcNS_11char_traitsIcEENS_9allocatorIcEEEERNS_13basic_istreamIT_T0_EES9_RNS_12basic_stringIS6_S7_T1_EE, symObjAddr: 0xC20, symBinAddr: 0x100001DE0, symSize: 0x2F0 }
  - { offsetInCU: 0xB2CC, offset: 0xB2CC, size: 0x8, addend: 0x0, symName: __ZNSt3__14endlB8ue170006IcNS_11char_traitsIcEEEERNS_13basic_ostreamIT_T0_EES7_, symObjAddr: 0xF30, symBinAddr: 0x1000020F0, symSize: 0x50 }
  - { offsetInCU: 0xB30C, offset: 0xB30C, size: 0x8, addend: 0x0, symName: __ZNSt3__112__to_addressB8ue170006INS_4pairIicEEEEPT_S4_, symObjAddr: 0x1430, symBinAddr: 0x1000025F0, symSize: 0x10 }
  - { offsetInCU: 0xB366, offset: 0xB366, size: 0x8, addend: 0x0, symName: __ZNSt3__112construct_atB8ue170006INS_4pairIicEEJS2_EPS2_EEPT_S5_DpOT0_, symObjAddr: 0x14A0, symBinAddr: 0x100002660, symSize: 0x30 }
  - { offsetInCU: 0xB3D6, offset: 0xB3D6, size: 0x8, addend: 0x0, symName: __ZNSt3__13maxB8ue170006ImEERKT_S3_S3_, symObjAddr: 0x17F0, symBinAddr: 0x1000029B0, symSize: 0x30 }
  - { offsetInCU: 0xB419, offset: 0xB419, size: 0x8, addend: 0x0, symName: __ZNSt3__13minB8ue170006ImEERKT_S3_S3_, symObjAddr: 0x1820, symBinAddr: 0x1000029E0, symSize: 0x30 }
  - { offsetInCU: 0xB646, offset: 0xB646, size: 0x8, addend: 0x0, symName: __ZNSt3__13minB8ue170006ImNS_6__lessIvvEEEERKT_S5_S5_T0_, symObjAddr: 0x18A0, symBinAddr: 0x100002A60, symSize: 0x50 }
  - { offsetInCU: 0xB747, offset: 0xB747, size: 0x8, addend: 0x0, symName: __ZNSt3__120__throw_length_errorB8ue170006EPKc, symObjAddr: 0x1980, symBinAddr: 0x100002B40, symSize: 0x70 }
  - { offsetInCU: 0xB771, offset: 0xB771, size: 0x8, addend: 0x0, symName: __ZNSt3__13maxB8ue170006ImNS_6__lessIvvEEEERKT_S5_S5_T0_, symObjAddr: 0x1AB0, symBinAddr: 0x100002C70, symSize: 0x50 }
  - { offsetInCU: 0xB7CB, offset: 0xB7CB, size: 0x8, addend: 0x0, symName: __ZNSt3__119__allocate_at_leastB8ue170006INS_9allocatorINS_4pairIicEEEEEENS_19__allocation_resultINS_16allocator_traitsIT_E7pointerEEERS7_m, symObjAddr: 0x1C00, symBinAddr: 0x100002DC0, symSize: 0x40 }
  - { offsetInCU: 0xB80E, offset: 0xB80E, size: 0x8, addend: 0x0, symName: __ZNSt3__117__libcpp_allocateB8ue170006Emm, symObjAddr: 0x1D70, symBinAddr: 0x100002F30, symSize: 0x60 }
  - { offsetInCU: 0xB868, offset: 0xB868, size: 0x8, addend: 0x0, symName: __ZNSt3__124__is_overaligned_for_newB8ue170006Em, symObjAddr: 0x1DD0, symBinAddr: 0x100002F90, symSize: 0x20 }
  - { offsetInCU: 0xB896, offset: 0xB896, size: 0x8, addend: 0x0, symName: __ZNSt3__121__libcpp_operator_newB8ue170006IJmSt11align_val_tEEEPvDpT_, symObjAddr: 0x1DF0, symBinAddr: 0x100002FB0, symSize: 0x30 }
  - { offsetInCU: 0xB8E3, offset: 0xB8E3, size: 0x8, addend: 0x0, symName: __ZNSt3__121__libcpp_operator_newB8ue170006IJmEEEPvDpT_, symObjAddr: 0x1E20, symBinAddr: 0x100002FE0, symSize: 0x20 }
  - { offsetInCU: 0xB91C, offset: 0xB91C, size: 0x8, addend: 0x0, symName: __ZNSt3__142__uninitialized_allocator_move_if_noexceptB8ue170006INS_9allocatorINS_4pairIicEEEENS_16reverse_iteratorIPS3_EES7_S7_EET2_RT_T0_T1_S8_, symObjAddr: 0x1F50, symBinAddr: 0x100003110, symSize: 0x180 }
  - { offsetInCU: 0xB9BB, offset: 0xB9BB, size: 0x8, addend: 0x0, symName: __ZNSt3__14swapB8ue170006IPNS_4pairIicEEEENS_9enable_ifIXaasr21is_move_constructibleIT_EE5valuesr18is_move_assignableIS5_EE5valueEvE4typeERS5_S8_, symObjAddr: 0x2120, symBinAddr: 0x1000032E0, symSize: 0x40 }
  - { offsetInCU: 0xBA0C, offset: 0xBA0C, size: 0x8, addend: 0x0, symName: __ZNSt3__122__make_exception_guardB8ue170006INS_29_AllocatorDestroyRangeReverseINS_9allocatorINS_4pairIicEEEENS_16reverse_iteratorIPS4_EEEEEENS_28__exception_guard_exceptionsIT_EESB_, symObjAddr: 0x2250, symBinAddr: 0x100003410, symSize: 0x60 }
  - { offsetInCU: 0xBA41, offset: 0xBA41, size: 0x8, addend: 0x0, symName: __ZNSt3__1neB8ue170006IPNS_4pairIicEES3_EEbRKNS_16reverse_iteratorIT_EERKNS4_IT0_EE, symObjAddr: 0x22F0, symBinAddr: 0x1000034B0, symSize: 0x40 }
  - { offsetInCU: 0xBA8D, offset: 0xBA8D, size: 0x8, addend: 0x0, symName: __ZNSt3__112__to_addressB8ue170006INS_16reverse_iteratorIPNS_4pairIicEEEEvEEu7__decayIDTclsr19__to_address_helperIT_EE6__callclsr3stdE7declvalIRKS6_EEEEES8_, symObjAddr: 0x2330, symBinAddr: 0x1000034F0, symSize: 0x20 }
  - { offsetInCU: 0xBAEC, offset: 0xBAEC, size: 0x8, addend: 0x0, symName: __ZNSt3__14prevB8ue170006IPNS_4pairIicEEEENS_9enable_ifIXsr29__has_input_iterator_categoryIT_EE5valueES5_E4typeES5_NS_15iterator_traitsIS5_E15difference_typeE, symObjAddr: 0x2500, symBinAddr: 0x1000036C0, symSize: 0x30 }
  - { offsetInCU: 0xBB2F, offset: 0xBB2F, size: 0x8, addend: 0x0, symName: __ZNSt3__121__convert_to_integralB8ue170006El, symObjAddr: 0x2560, symBinAddr: 0x100003720, symSize: 0x10 }
  - { offsetInCU: 0xBB5B, offset: 0xBB5B, size: 0x8, addend: 0x0, symName: __ZNSt3__19__advanceB8ue170006IPNS_4pairIicEEEEvRT_NS_15iterator_traitsIS4_E15difference_typeENS_26random_access_iterator_tagE, symObjAddr: 0x2570, symBinAddr: 0x100003730, symSize: 0x20 }
  - { offsetInCU: 0xBBA4, offset: 0xBBA4, size: 0x8, addend: 0x0, symName: __ZNSt3__119__allocator_destroyB8ue170006INS_9allocatorINS_4pairIicEEEENS_16reverse_iteratorINS5_IPS3_EEEES8_EEvRT_T0_T1_, symObjAddr: 0x26C0, symBinAddr: 0x100003880, symSize: 0x70 }
  - { offsetInCU: 0xBC07, offset: 0xBC07, size: 0x8, addend: 0x0, symName: __ZNSt3__1neB8ue170006INS_16reverse_iteratorIPNS_4pairIicEEEES5_EEbRKNS1_IT_EERKNS1_IT0_EE, symObjAddr: 0x2760, symBinAddr: 0x100003920, symSize: 0x50 }
  - { offsetInCU: 0xBC53, offset: 0xBC53, size: 0x8, addend: 0x0, symName: __ZNSt3__112__to_addressB8ue170006INS_16reverse_iteratorINS1_IPNS_4pairIicEEEEEEvEEu7__decayIDTclsr19__to_address_helperIT_EE6__callclsr3stdE7declvalIRKS7_EEEEES9_, symObjAddr: 0x27D0, symBinAddr: 0x100003990, symSize: 0x20 }
  - { offsetInCU: 0xBC89, offset: 0xBC89, size: 0x8, addend: 0x0, symName: __ZNSt3__110destroy_atB8ue170006INS_4pairIicEELi0EEEvPT_, symObjAddr: 0x2840, symBinAddr: 0x100003A00, symSize: 0x20 }
  - { offsetInCU: 0xBCC0, offset: 0xBCC0, size: 0x8, addend: 0x0, symName: __ZNSt3__112__destroy_atB8ue170006INS_4pairIicEELi0EEEvPT_, symObjAddr: 0x2860, symBinAddr: 0x100003A20, symSize: 0x10 }
  - { offsetInCU: 0xBD20, offset: 0xBD20, size: 0x8, addend: 0x0, symName: __ZNSt3__14prevB8ue170006INS_16reverse_iteratorIPNS_4pairIicEEEEEENS_9enable_ifIXsr29__has_input_iterator_categoryIT_EE5valueES7_E4typeES7_NS_15iterator_traitsIS7_E15difference_typeE, symObjAddr: 0x2900, symBinAddr: 0x100003AC0, symSize: 0x40 }
  - { offsetInCU: 0xBD63, offset: 0xBD63, size: 0x8, addend: 0x0, symName: __ZNSt3__19__advanceB8ue170006INS_16reverse_iteratorIPNS_4pairIicEEEEEEvRT_NS_15iterator_traitsIS6_E15difference_typeENS_26random_access_iterator_tagE, symObjAddr: 0x2970, symBinAddr: 0x100003B30, symSize: 0x30 }
  - { offsetInCU: 0xBDAC, offset: 0xBDAC, size: 0x8, addend: 0x0, symName: __ZNSt3__119__libcpp_deallocateB8ue170006EPvmm, symObjAddr: 0x2C40, symBinAddr: 0x100003E00, symSize: 0x60 }
  - { offsetInCU: 0xBE11, offset: 0xBE11, size: 0x8, addend: 0x0, symName: __ZNSt3__127__do_deallocate_handle_sizeB8ue170006IJSt11align_val_tEEEvPvmDpT_, symObjAddr: 0x2CA0, symBinAddr: 0x100003E60, symSize: 0x30 }
  - { offsetInCU: 0xBE64, offset: 0xBE64, size: 0x8, addend: 0x0, symName: __ZNSt3__127__do_deallocate_handle_sizeB8ue170006IJEEEvPvmDpT_, symObjAddr: 0x2CD0, symBinAddr: 0x100003E90, symSize: 0x20 }
  - { offsetInCU: 0xBEA2, offset: 0xBEA2, size: 0x8, addend: 0x0, symName: __ZNSt3__124__libcpp_operator_deleteB8ue170006IJPvSt11align_val_tEEEvDpT_, symObjAddr: 0x2CF0, symBinAddr: 0x100003EB0, symSize: 0x30 }
  - { offsetInCU: 0xBEEB, offset: 0xBEEB, size: 0x8, addend: 0x0, symName: __ZNSt3__124__libcpp_operator_deleteB8ue170006IJPvEEEvDpT_, symObjAddr: 0x2D20, symBinAddr: 0x100003EE0, symSize: 0x20 }
  - { offsetInCU: 0xBF20, offset: 0xBF20, size: 0x8, addend: 0x0, symName: __ZNSt3__14sortB8ue170006INS_16reverse_iteratorINS_11__wrap_iterIPNS_4pairIicEEEEEENS_6__lessIvvEEEEvT_SA_T0_, symObjAddr: 0x2DB0, symBinAddr: 0x100003F70, symSize: 0x60 }
  - { offsetInCU: 0xBF7A, offset: 0xBF7A, size: 0x8, addend: 0x0, symName: __ZNSt3__111__sort_implB8ue170006INS_17_ClassicAlgPolicyENS_16reverse_iteratorINS_11__wrap_iterIPNS_4pairIicEEEEEENS_6__lessIvvEEEEvT0_SB_RT1_, symObjAddr: 0x2E10, symBinAddr: 0x100003FD0, symSize: 0x160 }
  - { offsetInCU: 0xBFDD, offset: 0xBFDD, size: 0x8, addend: 0x0, symName: __ZNSt3__123__debug_randomize_rangeB8ue170006INS_17_ClassicAlgPolicyENS_16reverse_iteratorINS_11__wrap_iterIPNS_4pairIicEEEEEES8_EEvT0_T1_, symObjAddr: 0x2F70, symBinAddr: 0x100004130, symSize: 0x20 }
  - { offsetInCU: 0xC02E, offset: 0xC02E, size: 0x8, addend: 0x0, symName: __ZNSt3__115__sort_dispatchB8ue170006INS_17_ClassicAlgPolicyENS_16reverse_iteratorINS_11__wrap_iterIPNS_4pairIicEEEEEENS_6__lessIvvEEEEvT0_SB_RT1_, symObjAddr: 0x2F90, symBinAddr: 0x100004150, symSize: 0x90 }
  - { offsetInCU: 0xC0AC, offset: 0xC0AC, size: 0x8, addend: 0x0, symName: __ZNSt3__113__unwrap_iterB8ue170006INS_16reverse_iteratorINS_11__wrap_iterIPNS_4pairIicEEEEEENS_18__unwrap_iter_implIS7_Lb0EEELi0EEEDTclsrT0_8__unwrapclsr3stdE7declvalIT_EEEESB_, symObjAddr: 0x3020, symBinAddr: 0x1000041E0, symSize: 0x40 }
  - { offsetInCU: 0xC0F0, offset: 0xC0F0, size: 0x8, addend: 0x0, symName: __ZNSt3__135__check_strict_weak_ordering_sortedB8ue170006INS_16reverse_iteratorINS_11__wrap_iterIPNS_4pairIicEEEEEENS_6__lessIvvEEEEvT_SA_RT0_, symObjAddr: 0x3060, symBinAddr: 0x100004220, symSize: 0x20 }
  - { offsetInCU: 0xC146, offset: 0xC146, size: 0x8, addend: 0x0, symName: __ZNSt3__17__log2iB8ue170006IlEET_S1_, symObjAddr: 0x3080, symBinAddr: 0x100004240, symSize: 0x50 }
  - { offsetInCU: 0xC17D, offset: 0xC17D, size: 0x8, addend: 0x0, symName: __ZNSt3__1miB8ue170006INS_11__wrap_iterIPNS_4pairIicEEEES5_EEDTmicldtfp0_4baseEcldtfp_4baseEERKNS_16reverse_iteratorIT_EERKNS7_IT0_EE, symObjAddr: 0x30D0, symBinAddr: 0x100004290, symSize: 0x40 }
  - { offsetInCU: 0xC1CC, offset: 0xC1CC, size: 0x8, addend: 0x0, symName: __ZNSt3__112__libcpp_clzB8ue170006Em, symObjAddr: 0x3C60, symBinAddr: 0x100004E20, symSize: 0x20 }
  - { offsetInCU: 0xC1F8, offset: 0xC1F8, size: 0x8, addend: 0x0, symName: __ZNSt3__1miB8ue170006IPNS_4pairIicEES3_EEDTmicldtfp_4baseEcldtfp0_4baseEERKNS_11__wrap_iterIT_EERKNS5_IT0_EE, symObjAddr: 0x3C80, symBinAddr: 0x100004E40, symSize: 0x40 }
  - { offsetInCU: 0xC32E, offset: 0xC32E, size: 0x8, addend: 0x0, symName: __ZNSt3__124__sort3_maybe_branchlessB8ue170006INS_17_ClassicAlgPolicyERNS_6__lessIvvEENS_16reverse_iteratorINS_11__wrap_iterIPNS_4pairIicEEEEEEEENS_9enable_ifIXntsr21__use_branchless_sortIT0_T1_EE5valueEvE4typeESE_SE_SE_SD_, symObjAddr: 0x3E10, symBinAddr: 0x100004FD0, symSize: 0x80 }
  - { offsetInCU: 0xC39F, offset: 0xC39F, size: 0x8, addend: 0x0, symName: __ZNSt3__124__sort4_maybe_branchlessB8ue170006INS_17_ClassicAlgPolicyERNS_6__lessIvvEENS_16reverse_iteratorINS_11__wrap_iterIPNS_4pairIicEEEEEEEENS_9enable_ifIXntsr21__use_branchless_sortIT0_T1_EE5valueEvE4typeESE_SE_SE_SE_SD_, symObjAddr: 0x3ED0, symBinAddr: 0x100005090, symSize: 0xB0 }
  - { offsetInCU: 0xC41E, offset: 0xC41E, size: 0x8, addend: 0x0, symName: __ZNSt3__124__sort5_maybe_branchlessB8ue170006INS_17_ClassicAlgPolicyERNS_6__lessIvvEENS_16reverse_iteratorINS_11__wrap_iterIPNS_4pairIicEEEEEEEENS_9enable_ifIXntsr21__use_branchless_sortIT0_T1_EE5valueEvE4typeESE_SE_SE_SE_SE_SD_, symObjAddr: 0x3F80, symBinAddr: 0x100005140, symSize: 0x110 }
  - { offsetInCU: 0xC4AB, offset: 0xC4AB, size: 0x8, addend: 0x0, symName: __ZNSt3__116__insertion_sortB8ue170006INS_17_ClassicAlgPolicyERNS_6__lessIvvEENS_16reverse_iteratorINS_11__wrap_iterIPNS_4pairIicEEEEEEEEvT1_SC_T0_, symObjAddr: 0x4090, symBinAddr: 0x100005250, symSize: 0x1C0 }
  - { offsetInCU: 0xC571, offset: 0xC571, size: 0x8, addend: 0x0, symName: __ZNSt3__114__partial_sortB8ue170006INS_17_ClassicAlgPolicyERNS_6__lessIvvEENS_16reverse_iteratorINS_11__wrap_iterIPNS_4pairIicEEEEEESB_EET1_SC_SC_T2_RT0_, symObjAddr: 0x4400, symBinAddr: 0x1000055C0, symSize: 0x1A0 }
  - { offsetInCU: 0xC5F9, offset: 0xC5F9, size: 0x8, addend: 0x0, symName: __ZNSt3__17__sort3B8ue170006INS_17_ClassicAlgPolicyERNS_6__lessIvvEENS_16reverse_iteratorINS_11__wrap_iterIPNS_4pairIicEEEEEEEEjT1_SC_SC_T0_, symObjAddr: 0x45A0, symBinAddr: 0x100005760, symSize: 0x1F0 }
  - { offsetInCU: 0xC678, offset: 0xC678, size: 0x8, addend: 0x0, symName: __ZNSt3__1ltB8ue170006ENS_15strong_orderingENS_20_CmpUnspecifiedParamE, symObjAddr: 0x5840, symBinAddr: 0x100006A00, symSize: 0x20 }
  - { offsetInCU: 0xC6B1, offset: 0xC6B1, size: 0x8, addend: 0x0, symName: __ZNSt3__1ssB8ue170006IicicEENS_26common_comparison_categoryIJDTclsr3stdE17__synth_three_wayclsr3stdE7declvalIRT_EEclsr3stdE7declvalIRT1_EEEEDTclsr3stdE17__synth_three_wayclsr3stdE7declvalIRT0_EEclsr3stdE7declvalIRT2_EEEEEE4typeERKNS_4pairIS2_S7_EERKNSE_IS4_S9_EE, symObjAddr: 0x5860, symBinAddr: 0x100006A20, symSize: 0x80 }
  - { offsetInCU: 0xC74B, offset: 0xC74B, size: 0x8, addend: 0x0, symName: __ZNSt3__117__synth_three_wayB8ue170006IiiEEDaRKT_RKT0_, symObjAddr: 0x5910, symBinAddr: 0x100006AD0, symSize: 0x70 }
  - { offsetInCU: 0xC797, offset: 0xC797, size: 0x8, addend: 0x0, symName: __ZNSt3__1eqB8ue170006ENS_15strong_orderingENS_20_CmpUnspecifiedParamE, symObjAddr: 0x5980, symBinAddr: 0x100006B40, symSize: 0x20 }
  - { offsetInCU: 0xC7CD, offset: 0xC7CD, size: 0x8, addend: 0x0, symName: __ZNSt3__117__synth_three_wayB8ue170006IccEEDaRKT_RKT0_, symObjAddr: 0x59A0, symBinAddr: 0x100006B60, symSize: 0x70 }
  - { offsetInCU: 0xC819, offset: 0xC819, size: 0x8, addend: 0x0, symName: __ZNSt3__19iter_swapB8ue170006INS_16reverse_iteratorINS_11__wrap_iterIPNS_4pairIicEEEEEES7_EEvT_T0_, symObjAddr: 0x5A80, symBinAddr: 0x100006C40, symSize: 0x40 }
  - { offsetInCU: 0xC861, offset: 0xC861, size: 0x8, addend: 0x0, symName: __ZNSt3__14swapB8ue170006IicEENS_9enable_ifIXaasr14__is_swappableIT_EE5valuesr14__is_swappableIT0_EE5valueEvE4typeERNS_4pairIS2_S3_EES8_, symObjAddr: 0x5AC0, symBinAddr: 0x100006C80, symSize: 0x30 }
  - { offsetInCU: 0xC8B0, offset: 0xC8B0, size: 0x8, addend: 0x0, symName: __ZNSt3__14swapB8ue170006IiEENS_9enable_ifIXaasr21is_move_constructibleIT_EE5valuesr18is_move_assignableIS2_EE5valueEvE4typeERS2_S5_, symObjAddr: 0x5B30, symBinAddr: 0x100006CF0, symSize: 0x30 }
  - { offsetInCU: 0xC901, offset: 0xC901, size: 0x8, addend: 0x0, symName: __ZNSt3__14swapB8ue170006IcEENS_9enable_ifIXaasr21is_move_constructibleIT_EE5valuesr18is_move_assignableIS2_EE5valueEvE4typeERS2_S5_, symObjAddr: 0x5B60, symBinAddr: 0x100006D20, symSize: 0x30 }
  - { offsetInCU: 0xC952, offset: 0xC952, size: 0x8, addend: 0x0, symName: __ZNSt3__17__sort4B8ue170006INS_17_ClassicAlgPolicyERNS_6__lessIvvEENS_16reverse_iteratorINS_11__wrap_iterIPNS_4pairIicEEEEEEEEvT1_SC_SC_SC_T0_, symObjAddr: 0x5C80, symBinAddr: 0x100006E40, symSize: 0x190 }
  - { offsetInCU: 0xC9CD, offset: 0xC9CD, size: 0x8, addend: 0x0, symName: __ZNSt3__17__sort5B8ue170006INS_17_ClassicAlgPolicyERNS_6__lessIvvEENS_16reverse_iteratorINS_11__wrap_iterIPNS_4pairIicEEEEEEEEvT1_SC_SC_SC_SC_T0_, symObjAddr: 0x5E10, symBinAddr: 0x100006FD0, symSize: 0x230 }
  - { offsetInCU: 0xCA56, offset: 0xCA56, size: 0x8, addend: 0x0, symName: __ZNSt3__1eqB8ue170006INS_11__wrap_iterIPNS_4pairIicEEEES5_EEbRKNS_16reverse_iteratorIT_EERKNS6_IT0_EE, symObjAddr: 0x6040, symBinAddr: 0x100007200, symSize: 0x50 }
  - { offsetInCU: 0xCAA2, offset: 0xCAA2, size: 0x8, addend: 0x0, symName: __ZNSt3__1neB8ue170006INS_11__wrap_iterIPNS_4pairIicEEEES5_EEbRKNS_16reverse_iteratorIT_EERKNS6_IT0_EE, symObjAddr: 0x6090, symBinAddr: 0x100007250, symSize: 0x50 }
  - { offsetInCU: 0xCB12, offset: 0xCB12, size: 0x8, addend: 0x0, symName: __ZNSt3__1eqB8ue170006IPNS_4pairIicEEEEbRKNS_11__wrap_iterIT_EES8_, symObjAddr: 0x6130, symBinAddr: 0x1000072F0, symSize: 0x40 }
  - { offsetInCU: 0xCB55, offset: 0xCB55, size: 0x8, addend: 0x0, symName: __ZNSt3__1neB8ue170006IPNS_4pairIicEEEEbRKNS_11__wrap_iterIT_EES8_, symObjAddr: 0x6170, symBinAddr: 0x100007330, symSize: 0x30 }
  - { offsetInCU: 0xCB98, offset: 0xCB98, size: 0x8, addend: 0x0, symName: __ZNSt3__119__partial_sort_implB8ue170006INS_17_ClassicAlgPolicyERNS_6__lessIvvEENS_16reverse_iteratorINS_11__wrap_iterIPNS_4pairIicEEEEEESB_EET1_SC_SC_T2_OT0_, symObjAddr: 0x61E0, symBinAddr: 0x1000073A0, symSize: 0x220 }
  - { offsetInCU: 0xCC2F, offset: 0xCC2F, size: 0x8, addend: 0x0, symName: __ZNSt3__111__make_heapB8ue170006INS_17_ClassicAlgPolicyERNS_6__lessIvvEENS_16reverse_iteratorINS_11__wrap_iterIPNS_4pairIicEEEEEEEEvT1_SC_OT0_, symObjAddr: 0x6400, symBinAddr: 0x1000075C0, symSize: 0xE0 }
  - { offsetInCU: 0xCCD1, offset: 0xCCD1, size: 0x8, addend: 0x0, symName: __ZNSt3__111__sort_heapB8ue170006INS_17_ClassicAlgPolicyERNS_6__lessIvvEENS_16reverse_iteratorINS_11__wrap_iterIPNS_4pairIicEEEEEEEEvT1_SC_OT0_, symObjAddr: 0x67E0, symBinAddr: 0x1000079A0, symSize: 0x100 }
  - { offsetInCU: 0xCD74, offset: 0xCD74, size: 0x8, addend: 0x0, symName: __ZNSt3__110__pop_heapB8ue170006INS_17_ClassicAlgPolicyENS_6__lessIvvEENS_16reverse_iteratorINS_11__wrap_iterIPNS_4pairIicEEEEEEEEvT1_SB_RT0_NS_15iterator_traitsISB_E15difference_typeE, symObjAddr: 0x68E0, symBinAddr: 0x100007AA0, symSize: 0x160 }
  - { offsetInCU: 0xCE25, offset: 0xCE25, size: 0x8, addend: 0x0, symName: __ZNSt3__19__sift_upB8ue170006INS_17_ClassicAlgPolicyERNS_6__lessIvvEENS_16reverse_iteratorINS_11__wrap_iterIPNS_4pairIicEEEEEEEEvT1_SC_OT0_NS_15iterator_traitsISC_E15difference_typeE, symObjAddr: 0x6BA0, symBinAddr: 0x100007D60, symSize: 0x180 }
  - { offsetInCU: 0xCED6, offset: 0xCED6, size: 0x8, addend: 0x0, symName: __ZNSt3__1ltB8ue170006INS_11__wrap_iterIPNS_4pairIicEEEES5_EEbRKNS_16reverse_iteratorIT_EERKNS6_IT0_EE, symObjAddr: 0x6D80, symBinAddr: 0x100007F40, symSize: 0x50 }
  - { offsetInCU: 0xCF22, offset: 0xCF22, size: 0x8, addend: 0x0, symName: __ZNSt3__1gtB8ue170006IPNS_4pairIicEEEEbRKNS_11__wrap_iterIT_EES8_, symObjAddr: 0x6DD0, symBinAddr: 0x100007F90, symSize: 0x30 }
  - { offsetInCU: 0xCF65, offset: 0xCF65, size: 0x8, addend: 0x0, symName: __ZNSt3__1ltB8ue170006IPNS_4pairIicEEEEbRKNS_11__wrap_iterIT_EES8_, symObjAddr: 0x6E00, symBinAddr: 0x100007FC0, symSize: 0x40 }
  - { offsetInCU: 0xCFA8, offset: 0xCFA8, size: 0x8, addend: 0x0, symName: __ZNSt3__1geB8ue170006INS_11__wrap_iterIPNS_4pairIicEEEES5_EEbRKNS_16reverse_iteratorIT_EERKNS6_IT0_EE, symObjAddr: 0x6E40, symBinAddr: 0x100008000, symSize: 0x50 }
  - { offsetInCU: 0xCFF7, offset: 0xCFF7, size: 0x8, addend: 0x0, symName: __ZNSt3__122__populate_left_bitsetB8ue170006IRNS_6__lessIvvEENS_16reverse_iteratorINS_11__wrap_iterIPNS_4pairIicEEEEEES7_EEvT0_T_RT1_Ry, symObjAddr: 0x6E90, symBinAddr: 0x100008050, symSize: 0xA0 }
  - { offsetInCU: 0xD0B2, offset: 0xD0B2, size: 0x8, addend: 0x0, symName: __ZNSt3__123__populate_right_bitsetB8ue170006IRNS_6__lessIvvEENS_16reverse_iteratorINS_11__wrap_iterIPNS_4pairIicEEEEEES7_EEvT0_T_RT1_Ry, symObjAddr: 0x6F30, symBinAddr: 0x1000080F0, symSize: 0xA0 }
  - { offsetInCU: 0xD16D, offset: 0xD16D, size: 0x8, addend: 0x0, symName: __ZNSt3__117__swap_bitmap_posB8ue170006INS_17_ClassicAlgPolicyENS_16reverse_iteratorINS_11__wrap_iterIPNS_4pairIicEEEEEEEEvT0_S9_RySA_, symObjAddr: 0x6FD0, symBinAddr: 0x100008190, symSize: 0xF0 }
  - { offsetInCU: 0xD20E, offset: 0xD20E, size: 0x8, addend: 0x0, symName: __ZNSt3__133__bitset_partition_partial_blocksB8ue170006INS_17_ClassicAlgPolicyERNS_6__lessIvvEENS_16reverse_iteratorINS_11__wrap_iterIPNS_4pairIicEEEEEES8_EEvRT1_SD_T0_RT2_RySH_, symObjAddr: 0x70F0, symBinAddr: 0x1000082B0, symSize: 0x2D0 }
  - { offsetInCU: 0xD395, offset: 0xD395, size: 0x8, addend: 0x0, symName: __ZNSt3__19make_pairB8ue170006IRNS_16reverse_iteratorINS_11__wrap_iterIPNS_4pairIicEEEEEERbEENS3_INS_18__unwrap_ref_decayIT_E4typeENSA_IT0_E4typeEEEOSB_OSE_, symObjAddr: 0x7560, symBinAddr: 0x100008720, symSize: 0x30 }
  - { offsetInCU: 0xD3E4, offset: 0xD3E4, size: 0x8, addend: 0x0, symName: __ZNSt3__1leB8ue170006IPNS_4pairIicEEEEbRKNS_11__wrap_iterIT_EES8_, symObjAddr: 0x7590, symBinAddr: 0x100008750, symSize: 0x30 }
  - { offsetInCU: 0xD427, offset: 0xD427, size: 0x8, addend: 0x0, symName: __ZNSt3__112__libcpp_ctzB8ue170006Ey, symObjAddr: 0x75C0, symBinAddr: 0x100008780, symSize: 0x20 }
  - { offsetInCU: 0xD453, offset: 0xD453, size: 0x8, addend: 0x0, symName: __ZNSt3__113__libcpp_blsrB8ue170006Ey, symObjAddr: 0x75E0, symBinAddr: 0x1000087A0, symSize: 0x20 }
  - { offsetInCU: 0xD47F, offset: 0xD47F, size: 0x8, addend: 0x0, symName: __ZNSt3__112__libcpp_clzB8ue170006Ey, symObjAddr: 0x7660, symBinAddr: 0x100008820, symSize: 0x20 }
  - { offsetInCU: 0xD5C7, offset: 0xD5C7, size: 0x8, addend: 0x0, symName: __ZNSt3__13minB8ue170006IiNS_6__lessIvvEEEERKT_S5_S5_T0_, symObjAddr: 0x77F0, symBinAddr: 0x1000089B0, symSize: 0x50 }
  - { offsetInCU: 0xD654, offset: 0xD654, size: 0x8, addend: 0x0, symName: __ZNSt3__110destroy_atB8ue170006INS_4pairIKciEELi0EEEvPT_, symObjAddr: 0x8330, symBinAddr: 0x1000094F0, symSize: 0x20 }
  - { offsetInCU: 0xD68B, offset: 0xD68B, size: 0x8, addend: 0x0, symName: __ZNSt3__112__destroy_atB8ue170006INS_4pairIKciEELi0EEEvPT_, symObjAddr: 0x8350, symBinAddr: 0x100009510, symSize: 0x10 }
  - { offsetInCU: 0xD6C2, offset: 0xD6C2, size: 0x8, addend: 0x0, symName: __ZNSt3__17launderB8ue170006INS_4pairIKciEEEEPT_S5_, symObjAddr: 0x8380, symBinAddr: 0x100009540, symSize: 0x20 }
  - { offsetInCU: 0xD6F9, offset: 0xD6F9, size: 0x8, addend: 0x0, symName: __ZNSt3__19__launderB8ue170006INS_4pairIKciEEEEPT_S5_, symObjAddr: 0x83A0, symBinAddr: 0x100009560, symSize: 0x10 }
  - { offsetInCU: 0xD767, offset: 0xD767, size: 0x8, addend: 0x0, symName: __ZNSt3__116forward_as_tupleB8ue170006IJRKcEEENS_5tupleIJDpOT_EEES6_, symObjAddr: 0x8CB0, symBinAddr: 0x100009E70, symSize: 0x30 }
  - { offsetInCU: 0xD7A0, offset: 0xD7A0, size: 0x8, addend: 0x0, symName: __ZNSt3__116forward_as_tupleB8ue170006IJEEENS_5tupleIJDpOT_EEES4_, symObjAddr: 0x8CE0, symBinAddr: 0x100009EA0, symSize: 0x10 }
  - { offsetInCU: 0xD7C4, offset: 0xD7C4, size: 0x8, addend: 0x0, symName: __ZNSt3__116__constrain_hashB8ue170006Emm, symObjAddr: 0x8DA0, symBinAddr: 0x100009F60, symSize: 0x80 }
  - { offsetInCU: 0xD7FE, offset: 0xD7FE, size: 0x8, addend: 0x0, symName: __ZNSt3__116__is_hash_power2B8ue170006Em, symObjAddr: 0x9090, symBinAddr: 0x10000A250, symSize: 0x40 }
  - { offsetInCU: 0xD82A, offset: 0xD82A, size: 0x8, addend: 0x0, symName: __ZNSt3__17launderB8ue170006IKNS_4pairIKciEEEEPT_S6_, symObjAddr: 0x93B0, symBinAddr: 0x10000A570, symSize: 0x20 }
  - { offsetInCU: 0xD861, offset: 0xD861, size: 0x8, addend: 0x0, symName: __ZNSt3__19__launderB8ue170006IKNS_4pairIKciEEEEPT_S6_, symObjAddr: 0x93D0, symBinAddr: 0x10000A590, symSize: 0x10 }
  - { offsetInCU: 0xD8DB, offset: 0xD8DB, size: 0x8, addend: 0x0, symName: __ZNSt3__112construct_atB8ue170006INS_4pairIKciEEJRKNS_21piecewise_construct_tENS_5tupleIJRS2_EEENS7_IJEEEEPS3_EEPT_SD_DpOT0_, symObjAddr: 0x9690, symBinAddr: 0x10000A850, symSize: 0x50 }
  - { offsetInCU: 0xD97C, offset: 0xD97C, size: 0x8, addend: 0x0, symName: __ZNSt3__13getB8ue170006ILm0EJRKcEEERNS_13tuple_elementIXT_ENS_5tupleIJDpT0_EEEE4typeERS7_, symObjAddr: 0x9790, symBinAddr: 0x10000A950, symSize: 0x20 }
  - { offsetInCU: 0xD9BF, offset: 0xD9BF, size: 0x8, addend: 0x0, symName: __ZNSt3__116__next_hash_pow2B8ue170006Em, symObjAddr: 0x9CD0, symBinAddr: 0x10000AE90, symSize: 0x60 }
  - { offsetInCU: 0xDA5E, offset: 0xDA5E, size: 0x8, addend: 0x0, symName: __ZNSt3__1eqB8ue170006ERKNS_15__hash_iteratorIPNS_11__hash_nodeINS_17__hash_value_typeIciEEPvEEEES9_, symObjAddr: 0xA1D0, symBinAddr: 0x10000B390, symSize: 0x30 }
  - { offsetInCU: 0xE031, offset: 0xE031, size: 0x8, addend: 0x0, symName: __ZNSt3__19use_facetB8ue170006INS_5ctypeIcEEEERKT_RKNS_6localeE, symObjAddr: 0xA380, symBinAddr: 0x10000B540, symSize: 0x30 }
  - { offsetInCU: 0xE8DA, offset: 0xE8DA, size: 0x8, addend: 0x0, symName: __ZSt28__throw_bad_array_new_lengthB8ue170006v, symObjAddr: 0x1D30, symBinAddr: 0x100002EF0, symSize: 0x40 }
  - { offsetInCU: 0xEE2C, offset: 0xEE2C, size: 0x8, addend: 0x0, symName: __ZNSt3__16vectorINS_4pairIicEENS_9allocatorIS2_EEE26__swap_out_circular_bufferERNS_14__split_bufferIS2_RS4_EE, symObjAddr: 0x1600, symBinAddr: 0x1000027C0, symSize: 0x120 }
  - { offsetInCU: 0x11801, offset: 0x11801, size: 0x8, addend: 0x0, symName: __Z14min_operationsRNSt3__112basic_stringIcNS_11char_traitsIcEENS_9allocatorIcEEEEi, symObjAddr: 0x0, symBinAddr: 0x1000011C0, symSize: 0x6E0 }
  - { offsetInCU: 0x11A78, offset: 0x11A78, size: 0x8, addend: 0x0, symName: __ZNSt3__113unordered_mapIciNS_4hashIcEENS_8equal_toIcEENS_9allocatorINS_4pairIKciEEEEEC1B8ue170006Ev, symObjAddr: 0x6E0, symBinAddr: 0x1000018A0, symSize: 0x20 }
  - { offsetInCU: 0x11AA2, offset: 0x11AA2, size: 0x8, addend: 0x0, symName: __ZNSt3__113unordered_mapIciNS_4hashIcEENS_8equal_toIcEENS_9allocatorINS_4pairIKciEEEEEixERS7_, symObjAddr: 0x700, symBinAddr: 0x1000018C0, symSize: 0x70 }
  - { offsetInCU: 0x11AD9, offset: 0x11AD9, size: 0x8, addend: 0x0, symName: __ZNSt3__112basic_stringIcNS_11char_traitsIcEENS_9allocatorIcEEEixB8ue170006Em, symObjAddr: 0x770, symBinAddr: 0x100001930, symSize: 0x30 }
  - { offsetInCU: 0x11B0E, offset: 0x11B0E, size: 0x8, addend: 0x0, symName: __ZNSt3__16vectorINS_4pairIicEENS_9allocatorIS2_EEEC1B8ue170006Ev, symObjAddr: 0x7A0, symBinAddr: 0x100001960, symSize: 0x20 }
  - { offsetInCU: 0x11B38, offset: 0x11B38, size: 0x8, addend: 0x0, symName: __ZNSt3__113unordered_mapIciNS_4hashIcEENS_8equal_toIcEENS_9allocatorINS_4pairIKciEEEEE5beginB8ue170006Ev, symObjAddr: 0x7C0, symBinAddr: 0x100001980, symSize: 0x30 }
  - { offsetInCU: 0x11B5E, offset: 0x11B5E, size: 0x8, addend: 0x0, symName: __ZNSt3__113unordered_mapIciNS_4hashIcEENS_8equal_toIcEENS_9allocatorINS_4pairIKciEEEEE3endB8ue170006Ev, symObjAddr: 0x7F0, symBinAddr: 0x1000019B0, symSize: 0x30 }
  - { offsetInCU: 0x11B84, offset: 0x11B84, size: 0x8, addend: 0x0, symName: __ZNKSt3__119__hash_map_iteratorINS_15__hash_iteratorIPNS_11__hash_nodeINS_17__hash_value_typeIciEEPvEEEEEdeB8ue170006Ev, symObjAddr: 0x850, symBinAddr: 0x100001A10, symSize: 0x30 }
  - { offsetInCU: 0x11BAA, offset: 0x11BAA, size: 0x8, addend: 0x0, symName: __ZNSt3__16vectorINS_4pairIicEENS_9allocatorIS2_EEE9push_backB8ue170006EOS2_, symObjAddr: 0x880, symBinAddr: 0x100001A40, symSize: 0x60 }
  - { offsetInCU: 0x11BE7, offset: 0x11BE7, size: 0x8, addend: 0x0, symName: __ZNSt3__14pairIicEC1B8ue170006IRiRKcLPv0EEEOT_OT0_, symObjAddr: 0x8E0, symBinAddr: 0x100001AA0, symSize: 0x30 }
  - { offsetInCU: 0x11C45, offset: 0x11C45, size: 0x8, addend: 0x0, symName: __ZNSt3__119__hash_map_iteratorINS_15__hash_iteratorIPNS_11__hash_nodeINS_17__hash_value_typeIciEEPvEEEEEppB8ue170006Ev, symObjAddr: 0x910, symBinAddr: 0x100001AD0, symSize: 0x30 }
  - { offsetInCU: 0x11C6B, offset: 0x11C6B, size: 0x8, addend: 0x0, symName: __ZNSt3__16vectorINS_4pairIicEENS_9allocatorIS2_EEE6rbeginB8ue170006Ev, symObjAddr: 0x9A0, symBinAddr: 0x100001B60, symSize: 0x50 }
  - { offsetInCU: 0x11C91, offset: 0x11C91, size: 0x8, addend: 0x0, symName: __ZNSt3__16vectorINS_4pairIicEENS_9allocatorIS2_EEE4rendB8ue170006Ev, symObjAddr: 0x9F0, symBinAddr: 0x100001BB0, symSize: 0x50 }
  - { offsetInCU: 0x11CB7, offset: 0x11CB7, size: 0x8, addend: 0x0, symName: __ZNKSt3__16vectorINS_4pairIicEENS_9allocatorIS2_EEE5emptyB8ue170006Ev, symObjAddr: 0xA40, symBinAddr: 0x100001C00, symSize: 0x20 }
  - { offsetInCU: 0x11CDD, offset: 0x11CDD, size: 0x8, addend: 0x0, symName: __ZNSt3__16vectorINS_4pairIicEENS_9allocatorIS2_EEEixB8ue170006Em, symObjAddr: 0xA60, symBinAddr: 0x100001C20, symSize: 0x20 }
  - { offsetInCU: 0x11D14, offset: 0x11D14, size: 0x8, addend: 0x0, symName: __ZNKSt3__16vectorINS_4pairIicEENS_9allocatorIS2_EEE4sizeB8ue170006Ev, symObjAddr: 0xA80, symBinAddr: 0x100001C40, symSize: 0x20 }
  - { offsetInCU: 0x11D3A, offset: 0x11D3A, size: 0x8, addend: 0x0, symName: __ZNSt3__16vectorINS_4pairIicEENS_9allocatorIS2_EEED1B8ue170006Ev, symObjAddr: 0xAD0, symBinAddr: 0x100001C90, symSize: 0x20 }
  - { offsetInCU: 0x11D64, offset: 0x11D64, size: 0x8, addend: 0x0, symName: __ZNSt3__113unordered_mapIciNS_4hashIcEENS_8equal_toIcEENS_9allocatorINS_4pairIKciEEEEED1B8ue170006Ev, symObjAddr: 0xAF0, symBinAddr: 0x100001CB0, symSize: 0x20 }
  - { offsetInCU: 0x11D8E, offset: 0x11D8E, size: 0x8, addend: 0x0, symName: _main, symObjAddr: 0xB10, symBinAddr: 0x100001CD0, symSize: 0xF0 }
  - { offsetInCU: 0x11DD9, offset: 0x11DD9, size: 0x8, addend: 0x0, symName: __ZNSt3__112basic_stringIcNS_11char_traitsIcEENS_9allocatorIcEEEC1B8ue170006Ev, symObjAddr: 0xC00, symBinAddr: 0x100001DC0, symSize: 0x20 }
  - { offsetInCU: 0x11E82, offset: 0x11E82, size: 0x8, addend: 0x0, symName: __ZNSt3__113basic_ostreamIcNS_11char_traitsIcEEElsB8ue170006EPFRS3_S4_E, symObjAddr: 0xF10, symBinAddr: 0x1000020D0, symSize: 0x20 }
  - { offsetInCU: 0x11EB6, offset: 0x11EB6, size: 0x8, addend: 0x0, symName: __ZNSt3__112basic_stringIcNS_11char_traitsIcEENS_9allocatorIcEEE13__get_pointerB8ue170006Ev, symObjAddr: 0xF80, symBinAddr: 0x100002140, symSize: 0x50 }
  - { offsetInCU: 0x11EDC, offset: 0x11EDC, size: 0x8, addend: 0x0, symName: __ZNKSt3__112basic_stringIcNS_11char_traitsIcEENS_9allocatorIcEEE9__is_longB8ue170006Ev, symObjAddr: 0xFD0, symBinAddr: 0x100002190, symSize: 0x30 }
  - { offsetInCU: 0x11F02, offset: 0x11F02, size: 0x8, addend: 0x0, symName: __ZNSt3__112basic_stringIcNS_11char_traitsIcEENS_9allocatorIcEEE18__get_long_pointerB8ue170006Ev, symObjAddr: 0x1000, symBinAddr: 0x1000021C0, symSize: 0x20 }
  - { offsetInCU: 0x11F28, offset: 0x11F28, size: 0x8, addend: 0x0, symName: __ZNSt3__112basic_stringIcNS_11char_traitsIcEENS_9allocatorIcEEE19__get_short_pointerB8ue170006Ev, symObjAddr: 0x1020, symBinAddr: 0x1000021E0, symSize: 0x30 }
  - { offsetInCU: 0x11F4E, offset: 0x11F4E, size: 0x8, addend: 0x0, symName: __ZNKSt3__117__compressed_pairINS_12basic_stringIcNS_11char_traitsIcEENS_9allocatorIcEEE5__repES5_E5firstB8ue170006Ev, symObjAddr: 0x1050, symBinAddr: 0x100002210, symSize: 0x20 }
  - { offsetInCU: 0x11F74, offset: 0x11F74, size: 0x8, addend: 0x0, symName: __ZNKSt3__122__compressed_pair_elemINS_12basic_stringIcNS_11char_traitsIcEENS_9allocatorIcEEE5__repELi0ELb0EE5__getB8ue170006Ev, symObjAddr: 0x1070, symBinAddr: 0x100002230, symSize: 0x10 }
  - { offsetInCU: 0x11F9A, offset: 0x11F9A, size: 0x8, addend: 0x0, symName: __ZNSt3__117__compressed_pairINS_12basic_stringIcNS_11char_traitsIcEENS_9allocatorIcEEE5__repES5_E5firstB8ue170006Ev, symObjAddr: 0x1080, symBinAddr: 0x100002240, symSize: 0x20 }
  - { offsetInCU: 0x11FC0, offset: 0x11FC0, size: 0x8, addend: 0x0, symName: __ZNSt3__122__compressed_pair_elemINS_12basic_stringIcNS_11char_traitsIcEENS_9allocatorIcEEE5__repELi0ELb0EE5__getB8ue170006Ev, symObjAddr: 0x10A0, symBinAddr: 0x100002260, symSize: 0x10 }
  - { offsetInCU: 0x11FE6, offset: 0x11FE6, size: 0x8, addend: 0x0, symName: __ZNSt3__114pointer_traitsIPcE10pointer_toB8ue170006ERc, symObjAddr: 0x10B0, symBinAddr: 0x100002270, symSize: 0x10 }
  - { offsetInCU: 0x12009, offset: 0x12009, size: 0x8, addend: 0x0, symName: __ZNSt3__16vectorINS_4pairIicEENS_9allocatorIS2_EEEC2B8ue170006Ev, symObjAddr: 0x10C0, symBinAddr: 0x100002280, symSize: 0x50 }
  - { offsetInCU: 0x1203F, offset: 0x1203F, size: 0x8, addend: 0x0, symName: __ZNSt3__117__compressed_pairIPNS_4pairIicEENS_9allocatorIS2_EEEC1B8ue170006IDnNS_18__default_init_tagEEEOT_OT0_, symObjAddr: 0x1110, symBinAddr: 0x1000022D0, symSize: 0x30 }
  - { offsetInCU: 0x12097, offset: 0x12097, size: 0x8, addend: 0x0, symName: __ZNSt3__117__compressed_pairIPNS_4pairIicEENS_9allocatorIS2_EEEC2B8ue170006IDnNS_18__default_init_tagEEEOT_OT0_, symObjAddr: 0x1150, symBinAddr: 0x100002310, symSize: 0x40 }
  - { offsetInCU: 0x120EF, offset: 0x120EF, size: 0x8, addend: 0x0, symName: __ZNSt3__122__compressed_pair_elemIPNS_4pairIicEELi0ELb0EEC2B8ue170006IDnvEEOT_, symObjAddr: 0x1190, symBinAddr: 0x100002350, symSize: 0x20 }
  - { offsetInCU: 0x12131, offset: 0x12131, size: 0x8, addend: 0x0, symName: __ZNSt3__122__compressed_pair_elemINS_9allocatorINS_4pairIicEEEELi1ELb1EEC2B8ue170006ENS_18__default_init_tagE, symObjAddr: 0x11B0, symBinAddr: 0x100002370, symSize: 0x20 }
  - { offsetInCU: 0x12165, offset: 0x12165, size: 0x8, addend: 0x0, symName: __ZNSt3__19allocatorINS_4pairIicEEEC2B8ue170006Ev, symObjAddr: 0x11D0, symBinAddr: 0x100002390, symSize: 0x20 }
  - { offsetInCU: 0x1218F, offset: 0x1218F, size: 0x8, addend: 0x0, symName: __ZNSt3__116__non_trivial_ifILb1ENS_9allocatorINS_4pairIicEEEEEC2B8ue170006Ev, symObjAddr: 0x11F0, symBinAddr: 0x1000023B0, symSize: 0x10 }
  - { offsetInCU: 0x121B9, offset: 0x121B9, size: 0x8, addend: 0x0, symName: __ZNSt3__16vectorINS_4pairIicEENS_9allocatorIS2_EEE9__end_capB8ue170006Ev, symObjAddr: 0x1200, symBinAddr: 0x1000023C0, symSize: 0x20 }
  - { offsetInCU: 0x121DF, offset: 0x121DF, size: 0x8, addend: 0x0, symName: __ZNSt3__16vectorINS_4pairIicEENS_9allocatorIS2_EEE22__construct_one_at_endB8ue170006IJS2_EEEvDpOT_, symObjAddr: 0x1220, symBinAddr: 0x1000023E0, symSize: 0x90 }
  - { offsetInCU: 0x1222E, offset: 0x1222E, size: 0x8, addend: 0x0, symName: __ZNSt3__16vectorINS_4pairIicEENS_9allocatorIS2_EEE21__push_back_slow_pathIS2_EEvOT_, symObjAddr: 0x12B0, symBinAddr: 0x100002470, symSize: 0xD0 }
  - { offsetInCU: 0x1228C, offset: 0x1228C, size: 0x8, addend: 0x0, symName: __ZNSt3__117__compressed_pairIPNS_4pairIicEENS_9allocatorIS2_EEE5firstB8ue170006Ev, symObjAddr: 0x1380, symBinAddr: 0x100002540, symSize: 0x20 }
  - { offsetInCU: 0x122B2, offset: 0x122B2, size: 0x8, addend: 0x0, symName: __ZNSt3__122__compressed_pair_elemIPNS_4pairIicEELi0ELb0EE5__getB8ue170006Ev, symObjAddr: 0x13A0, symBinAddr: 0x100002560, symSize: 0x10 }
  - { offsetInCU: 0x122F3, offset: 0x122F3, size: 0x8, addend: 0x0, symName: __ZNSt3__16vectorINS_4pairIicEENS_9allocatorIS2_EEE21_ConstructTransactionC1B8ue170006ERS5_m, symObjAddr: 0x13B0, symBinAddr: 0x100002570, symSize: 0x30 }
  - { offsetInCU: 0x1233B, offset: 0x1233B, size: 0x8, addend: 0x0, symName: __ZNSt3__116allocator_traitsINS_9allocatorINS_4pairIicEEEEE9constructB8ue170006IS3_JS3_EvvEEvRS4_PT_DpOT0_, symObjAddr: 0x13E0, symBinAddr: 0x1000025A0, symSize: 0x30 }
  - { offsetInCU: 0x1238F, offset: 0x1238F, size: 0x8, addend: 0x0, symName: __ZNSt3__16vectorINS_4pairIicEENS_9allocatorIS2_EEE7__allocB8ue170006Ev, symObjAddr: 0x1410, symBinAddr: 0x1000025D0, symSize: 0x20 }
  - { offsetInCU: 0x123B5, offset: 0x123B5, size: 0x8, addend: 0x0, symName: __ZNSt3__16vectorINS_4pairIicEENS_9allocatorIS2_EEE21_ConstructTransactionD1B8ue170006Ev, symObjAddr: 0x1440, symBinAddr: 0x100002600, symSize: 0x20 }
  - { offsetInCU: 0x123DF, offset: 0x123DF, size: 0x8, addend: 0x0, symName: __ZNSt3__16vectorINS_4pairIicEENS_9allocatorIS2_EEE21_ConstructTransactionC2B8ue170006ERS5_m, symObjAddr: 0x1460, symBinAddr: 0x100002620, symSize: 0x40 }
  - { offsetInCU: 0x12427, offset: 0x12427, size: 0x8, addend: 0x0, symName: __ZNSt3__117__compressed_pairIPNS_4pairIicEENS_9allocatorIS2_EEE6secondB8ue170006Ev, symObjAddr: 0x14D0, symBinAddr: 0x100002690, symSize: 0x20 }
  - { offsetInCU: 0x1244D, offset: 0x1244D, size: 0x8, addend: 0x0, symName: __ZNSt3__122__compressed_pair_elemINS_9allocatorINS_4pairIicEEEELi1ELb1EE5__getB8ue170006Ev, symObjAddr: 0x14F0, symBinAddr: 0x1000026B0, symSize: 0x10 }
  - { offsetInCU: 0x12473, offset: 0x12473, size: 0x8, addend: 0x0, symName: __ZNSt3__16vectorINS_4pairIicEENS_9allocatorIS2_EEE21_ConstructTransactionD2B8ue170006Ev, symObjAddr: 0x1500, symBinAddr: 0x1000026C0, symSize: 0x20 }
  - { offsetInCU: 0x1249D, offset: 0x1249D, size: 0x8, addend: 0x0, symName: __ZNKSt3__16vectorINS_4pairIicEENS_9allocatorIS2_EEE11__recommendB8ue170006Em, symObjAddr: 0x1520, symBinAddr: 0x1000026E0, symSize: 0xA0 }
  - { offsetInCU: 0x124F2, offset: 0x124F2, size: 0x8, addend: 0x0, symName: __ZNSt3__114__split_bufferINS_4pairIicEERNS_9allocatorIS2_EEEC1EmmS5_, symObjAddr: 0x15C0, symBinAddr: 0x100002780, symSize: 0x40 }
  - { offsetInCU: 0x12548, offset: 0x12548, size: 0x8, addend: 0x0, symName: __ZNSt3__114__split_bufferINS_4pairIicEERNS_9allocatorIS2_EEED1Ev, symObjAddr: 0x1720, symBinAddr: 0x1000028E0, symSize: 0x20 }
  - { offsetInCU: 0x12574, offset: 0x12574, size: 0x8, addend: 0x0, symName: __ZNKSt3__16vectorINS_4pairIicEENS_9allocatorIS2_EEE8max_sizeEv, symObjAddr: 0x1740, symBinAddr: 0x100002900, symSize: 0x60 }
  - { offsetInCU: 0x1259C, offset: 0x1259C, size: 0x8, addend: 0x0, symName: __ZNKSt3__16vectorINS_4pairIicEENS_9allocatorIS2_EEE20__throw_length_errorB8ue170006Ev, symObjAddr: 0x17A0, symBinAddr: 0x100002960, symSize: 0x20 }
  - { offsetInCU: 0x125C2, offset: 0x125C2, size: 0x8, addend: 0x0, symName: __ZNKSt3__16vectorINS_4pairIicEENS_9allocatorIS2_EEE8capacityB8ue170006Ev, symObjAddr: 0x17C0, symBinAddr: 0x100002980, symSize: 0x30 }
  - { offsetInCU: 0x125F3, offset: 0x125F3, size: 0x8, addend: 0x0, symName: __ZNSt3__116allocator_traitsINS_9allocatorINS_4pairIicEEEEE8max_sizeB8ue170006IS4_vvEEmRKS4_, symObjAddr: 0x1850, symBinAddr: 0x100002A10, symSize: 0x20 }
  - { offsetInCU: 0x1261E, offset: 0x1261E, size: 0x8, addend: 0x0, symName: __ZNKSt3__16vectorINS_4pairIicEENS_9allocatorIS2_EEE7__allocB8ue170006Ev, symObjAddr: 0x1870, symBinAddr: 0x100002A30, symSize: 0x20 }
  - { offsetInCU: 0x12644, offset: 0x12644, size: 0x8, addend: 0x0, symName: __ZNSt3__114numeric_limitsIlE3maxB8ue170006Ev, symObjAddr: 0x1890, symBinAddr: 0x100002A50, symSize: 0x10 }
  - { offsetInCU: 0x12662, offset: 0x12662, size: 0x8, addend: 0x0, symName: __ZNKSt3__16__lessIvvEclB8ue170006ImmEEbRKT_RKT0_, symObjAddr: 0x18F0, symBinAddr: 0x100002AB0, symSize: 0x30 }
  - { offsetInCU: 0x126B6, offset: 0x126B6, size: 0x8, addend: 0x0, symName: __ZNSt3__114numeric_limitsImE3maxB8ue170006Ev, symObjAddr: 0x1920, symBinAddr: 0x100002AE0, symSize: 0x10 }
  - { offsetInCU: 0x126CA, offset: 0x126CA, size: 0x8, addend: 0x0, symName: __ZNSt3__123__libcpp_numeric_limitsImLb1EE3maxB8ue170006Ev, symObjAddr: 0x1930, symBinAddr: 0x100002AF0, symSize: 0x10 }
  - { offsetInCU: 0x126DE, offset: 0x126DE, size: 0x8, addend: 0x0, symName: __ZNKSt3__117__compressed_pairIPNS_4pairIicEENS_9allocatorIS2_EEE6secondB8ue170006Ev, symObjAddr: 0x1940, symBinAddr: 0x100002B00, symSize: 0x20 }
  - { offsetInCU: 0x12704, offset: 0x12704, size: 0x8, addend: 0x0, symName: __ZNKSt3__122__compressed_pair_elemINS_9allocatorINS_4pairIicEEEELi1ELb1EE5__getB8ue170006Ev, symObjAddr: 0x1960, symBinAddr: 0x100002B20, symSize: 0x10 }
  - { offsetInCU: 0x1272A, offset: 0x1272A, size: 0x8, addend: 0x0, symName: __ZNSt3__123__libcpp_numeric_limitsIlLb1EE3maxB8ue170006Ev, symObjAddr: 0x1970, symBinAddr: 0x100002B30, symSize: 0x10 }
  - { offsetInCU: 0x1273E, offset: 0x1273E, size: 0x8, addend: 0x0, symName: __ZNSt12length_errorC1B8ue170006EPKc, symObjAddr: 0x19F0, symBinAddr: 0x100002BB0, symSize: 0x30 }
  - { offsetInCU: 0x12776, offset: 0x12776, size: 0x8, addend: 0x0, symName: __ZNSt12length_errorC2B8ue170006EPKc, symObjAddr: 0x1A20, symBinAddr: 0x100002BE0, symSize: 0x40 }
  - { offsetInCU: 0x127AE, offset: 0x127AE, size: 0x8, addend: 0x0, symName: __ZNKSt3__16vectorINS_4pairIicEENS_9allocatorIS2_EEE9__end_capB8ue170006Ev, symObjAddr: 0x1A60, symBinAddr: 0x100002C20, symSize: 0x20 }
  - { offsetInCU: 0x127D4, offset: 0x127D4, size: 0x8, addend: 0x0, symName: __ZNKSt3__117__compressed_pairIPNS_4pairIicEENS_9allocatorIS2_EEE5firstB8ue170006Ev, symObjAddr: 0x1A80, symBinAddr: 0x100002C40, symSize: 0x20 }
  - { offsetInCU: 0x127FA, offset: 0x127FA, size: 0x8, addend: 0x0, symName: __ZNKSt3__122__compressed_pair_elemIPNS_4pairIicEELi0ELb0EE5__getB8ue170006Ev, symObjAddr: 0x1AA0, symBinAddr: 0x100002C60, symSize: 0x10 }
  - { offsetInCU: 0x12820, offset: 0x12820, size: 0x8, addend: 0x0, symName: __ZNSt3__114__split_bufferINS_4pairIicEERNS_9allocatorIS2_EEEC2EmmS5_, symObjAddr: 0x1B00, symBinAddr: 0x100002CC0, symSize: 0xD0 }
  - { offsetInCU: 0x12893, offset: 0x12893, size: 0x8, addend: 0x0, symName: __ZNSt3__117__compressed_pairIPNS_4pairIicEERNS_9allocatorIS2_EEEC1B8ue170006IDnS6_EEOT_OT0_, symObjAddr: 0x1BD0, symBinAddr: 0x100002D90, symSize: 0x30 }
  - { offsetInCU: 0x128EB, offset: 0x128EB, size: 0x8, addend: 0x0, symName: __ZNSt3__114__split_bufferINS_4pairIicEERNS_9allocatorIS2_EEE7__allocB8ue170006Ev, symObjAddr: 0x1C40, symBinAddr: 0x100002E00, symSize: 0x20 }
  - { offsetInCU: 0x12911, offset: 0x12911, size: 0x8, addend: 0x0, symName: __ZNSt3__114__split_bufferINS_4pairIicEERNS_9allocatorIS2_EEE9__end_capB8ue170006Ev, symObjAddr: 0x1C60, symBinAddr: 0x100002E20, symSize: 0x20 }
  - { offsetInCU: 0x12937, offset: 0x12937, size: 0x8, addend: 0x0, symName: __ZNSt3__117__compressed_pairIPNS_4pairIicEERNS_9allocatorIS2_EEEC2B8ue170006IDnS6_EEOT_OT0_, symObjAddr: 0x1C80, symBinAddr: 0x100002E40, symSize: 0x40 }
  - { offsetInCU: 0x1298F, offset: 0x1298F, size: 0x8, addend: 0x0, symName: __ZNSt3__122__compressed_pair_elemIRNS_9allocatorINS_4pairIicEEEELi1ELb0EEC2B8ue170006IS5_vEEOT_, symObjAddr: 0x1CC0, symBinAddr: 0x100002E80, symSize: 0x20 }
  - { offsetInCU: 0x129D1, offset: 0x129D1, size: 0x8, addend: 0x0, symName: __ZNSt3__19allocatorINS_4pairIicEEE8allocateB8ue170006Em, symObjAddr: 0x1CE0, symBinAddr: 0x100002EA0, symSize: 0x50 }
  - { offsetInCU: 0x12A05, offset: 0x12A05, size: 0x8, addend: 0x0, symName: __ZNSt3__117__compressed_pairIPNS_4pairIicEERNS_9allocatorIS2_EEE6secondB8ue170006Ev, symObjAddr: 0x1E40, symBinAddr: 0x100003000, symSize: 0x20 }
  - { offsetInCU: 0x12A2B, offset: 0x12A2B, size: 0x8, addend: 0x0, symName: __ZNSt3__122__compressed_pair_elemIRNS_9allocatorINS_4pairIicEEEELi1ELb0EE5__getB8ue170006Ev, symObjAddr: 0x1E60, symBinAddr: 0x100003020, symSize: 0x20 }
  - { offsetInCU: 0x12A51, offset: 0x12A51, size: 0x8, addend: 0x0, symName: __ZNSt3__117__compressed_pairIPNS_4pairIicEERNS_9allocatorIS2_EEE5firstB8ue170006Ev, symObjAddr: 0x1E80, symBinAddr: 0x100003040, symSize: 0x20 }
  - { offsetInCU: 0x12A77, offset: 0x12A77, size: 0x8, addend: 0x0, symName: __ZNKSt3__16vectorINS_4pairIicEENS_9allocatorIS2_EEE17__annotate_deleteB8ue170006Ev, symObjAddr: 0x1EA0, symBinAddr: 0x100003060, symSize: 0xB0 }
  - { offsetInCU: 0x12A9D, offset: 0x12A9D, size: 0x8, addend: 0x0, symName: __ZNSt3__116reverse_iteratorIPNS_4pairIicEEEC1B8ue170006ES3_, symObjAddr: 0x20D0, symBinAddr: 0x100003290, symSize: 0x30 }
  - { offsetInCU: 0x12AD5, offset: 0x12AD5, size: 0x8, addend: 0x0, symName: __ZNKSt3__116reverse_iteratorIPNS_4pairIicEEE4baseB8ue170006Ev, symObjAddr: 0x2100, symBinAddr: 0x1000032C0, symSize: 0x20 }
  - { offsetInCU: 0x12AFB, offset: 0x12AFB, size: 0x8, addend: 0x0, symName: __ZNKSt3__16vectorINS_4pairIicEENS_9allocatorIS2_EEE14__annotate_newB8ue170006Em, symObjAddr: 0x2160, symBinAddr: 0x100003320, symSize: 0xB0 }
  - { offsetInCU: 0x12B30, offset: 0x12B30, size: 0x8, addend: 0x0, symName: __ZNKSt3__16vectorINS_4pairIicEENS_9allocatorIS2_EEE31__annotate_contiguous_containerB8ue170006EPKvS7_S7_S7_, symObjAddr: 0x2210, symBinAddr: 0x1000033D0, symSize: 0x20 }
  - { offsetInCU: 0x12B82, offset: 0x12B82, size: 0x8, addend: 0x0, symName: __ZNKSt3__16vectorINS_4pairIicEENS_9allocatorIS2_EEE4dataB8ue170006Ev, symObjAddr: 0x2230, symBinAddr: 0x1000033F0, symSize: 0x20 }
  - { offsetInCU: 0x12BA8, offset: 0x12BA8, size: 0x8, addend: 0x0, symName: __ZNSt3__129_AllocatorDestroyRangeReverseINS_9allocatorINS_4pairIicEEEENS_16reverse_iteratorIPS3_EEEC1B8ue170006ERS4_RS7_SA_, symObjAddr: 0x22B0, symBinAddr: 0x100003470, symSize: 0x40 }
  - { offsetInCU: 0x12BFF, offset: 0x12BFF, size: 0x8, addend: 0x0, symName: __ZNKSt3__116reverse_iteratorIPNS_4pairIicEEEdeB8ue170006Ev, symObjAddr: 0x2350, symBinAddr: 0x100003510, symSize: 0x30 }
  - { offsetInCU: 0x12C33, offset: 0x12C33, size: 0x8, addend: 0x0, symName: __ZNSt3__116reverse_iteratorIPNS_4pairIicEEEppB8ue170006Ev, symObjAddr: 0x2380, symBinAddr: 0x100003540, symSize: 0x20 }
  - { offsetInCU: 0x12C59, offset: 0x12C59, size: 0x8, addend: 0x0, symName: __ZNSt3__128__exception_guard_exceptionsINS_29_AllocatorDestroyRangeReverseINS_9allocatorINS_4pairIicEEEENS_16reverse_iteratorIPS4_EEEEE10__completeB8ue170006Ev, symObjAddr: 0x23A0, symBinAddr: 0x100003560, symSize: 0x20 }
  - { offsetInCU: 0x12C7F, offset: 0x12C7F, size: 0x8, addend: 0x0, symName: __ZNSt3__128__exception_guard_exceptionsINS_29_AllocatorDestroyRangeReverseINS_9allocatorINS_4pairIicEEEENS_16reverse_iteratorIPS4_EEEEED1B8ue170006Ev, symObjAddr: 0x23C0, symBinAddr: 0x100003580, symSize: 0x20 }
  - { offsetInCU: 0x12CA9, offset: 0x12CA9, size: 0x8, addend: 0x0, symName: __ZNSt3__128__exception_guard_exceptionsINS_29_AllocatorDestroyRangeReverseINS_9allocatorINS_4pairIicEEEENS_16reverse_iteratorIPS4_EEEEEC1B8ue170006ES9_, symObjAddr: 0x23E0, symBinAddr: 0x1000035A0, symSize: 0x40 }
  - { offsetInCU: 0x12CE1, offset: 0x12CE1, size: 0x8, addend: 0x0, symName: __ZNSt3__128__exception_guard_exceptionsINS_29_AllocatorDestroyRangeReverseINS_9allocatorINS_4pairIicEEEENS_16reverse_iteratorIPS4_EEEEEC2B8ue170006ES9_, symObjAddr: 0x2420, symBinAddr: 0x1000035E0, symSize: 0x30 }
  - { offsetInCU: 0x12D19, offset: 0x12D19, size: 0x8, addend: 0x0, symName: __ZNSt3__129_AllocatorDestroyRangeReverseINS_9allocatorINS_4pairIicEEEENS_16reverse_iteratorIPS3_EEEC2B8ue170006ERS4_RS7_SA_, symObjAddr: 0x2450, symBinAddr: 0x100003610, symSize: 0x40 }
  - { offsetInCU: 0x12D76, offset: 0x12D76, size: 0x8, addend: 0x0, symName: __ZNSt3__119__to_address_helperINS_16reverse_iteratorIPNS_4pairIicEEEEvE6__callB8ue170006ERKS5_, symObjAddr: 0x2490, symBinAddr: 0x100003650, symSize: 0x40 }
  - { offsetInCU: 0x12D99, offset: 0x12D99, size: 0x8, addend: 0x0, symName: __ZNKSt3__116reverse_iteratorIPNS_4pairIicEEEptB8ue170006Ev, symObjAddr: 0x24D0, symBinAddr: 0x100003690, symSize: 0x30 }
  - { offsetInCU: 0x12DBF, offset: 0x12DBF, size: 0x8, addend: 0x0, symName: __ZNSt3__128__exception_guard_exceptionsINS_29_AllocatorDestroyRangeReverseINS_9allocatorINS_4pairIicEEEENS_16reverse_iteratorIPS4_EEEEED2B8ue170006Ev, symObjAddr: 0x2590, symBinAddr: 0x100003750, symSize: 0x40 }
  - { offsetInCU: 0x12DE9, offset: 0x12DE9, size: 0x8, addend: 0x0, symName: __ZNKSt3__129_AllocatorDestroyRangeReverseINS_9allocatorINS_4pairIicEEEENS_16reverse_iteratorIPS3_EEEclB8ue170006Ev, symObjAddr: 0x25D0, symBinAddr: 0x100003790, symSize: 0xF0 }
  - { offsetInCU: 0x12E10, offset: 0x12E10, size: 0x8, addend: 0x0, symName: __ZNSt3__116reverse_iteratorINS0_IPNS_4pairIicEEEEEC1B8ue170006ES4_, symObjAddr: 0x2730, symBinAddr: 0x1000038F0, symSize: 0x30 }
  - { offsetInCU: 0x12E48, offset: 0x12E48, size: 0x8, addend: 0x0, symName: __ZNSt3__116allocator_traitsINS_9allocatorINS_4pairIicEEEEE7destroyB8ue170006IS3_vvEEvRS4_PT_, symObjAddr: 0x27B0, symBinAddr: 0x100003970, symSize: 0x20 }
  - { offsetInCU: 0x12E82, offset: 0x12E82, size: 0x8, addend: 0x0, symName: __ZNSt3__116reverse_iteratorINS0_IPNS_4pairIicEEEEEppB8ue170006Ev, symObjAddr: 0x27F0, symBinAddr: 0x1000039B0, symSize: 0x30 }
  - { offsetInCU: 0x12EA8, offset: 0x12EA8, size: 0x8, addend: 0x0, symName: __ZNKSt3__116reverse_iteratorINS0_IPNS_4pairIicEEEEE4baseB8ue170006Ev, symObjAddr: 0x2820, symBinAddr: 0x1000039E0, symSize: 0x20 }
  - { offsetInCU: 0x12ED4, offset: 0x12ED4, size: 0x8, addend: 0x0, symName: __ZNSt3__119__to_address_helperINS_16reverse_iteratorINS1_IPNS_4pairIicEEEEEEvE6__callB8ue170006ERKS6_, symObjAddr: 0x2870, symBinAddr: 0x100003A30, symSize: 0x40 }
  - { offsetInCU: 0x12EF7, offset: 0x12EF7, size: 0x8, addend: 0x0, symName: __ZNKSt3__116reverse_iteratorINS0_IPNS_4pairIicEEEEEptB8ue170006Ev, symObjAddr: 0x28B0, symBinAddr: 0x100003A70, symSize: 0x50 }
  - { offsetInCU: 0x12F1D, offset: 0x12F1D, size: 0x8, addend: 0x0, symName: __ZNSt3__116reverse_iteratorIPNS_4pairIicEEEpLB8ue170006El, symObjAddr: 0x29A0, symBinAddr: 0x100003B60, symSize: 0x30 }
  - { offsetInCU: 0x12F51, offset: 0x12F51, size: 0x8, addend: 0x0, symName: __ZNSt3__116reverse_iteratorIPNS_4pairIicEEEmmB8ue170006Ev, symObjAddr: 0x29D0, symBinAddr: 0x100003B90, symSize: 0x20 }
  - { offsetInCU: 0x12F77, offset: 0x12F77, size: 0x8, addend: 0x0, symName: __ZNSt3__116reverse_iteratorINS0_IPNS_4pairIicEEEEEC2B8ue170006ES4_, symObjAddr: 0x29F0, symBinAddr: 0x100003BB0, symSize: 0x40 }
  - { offsetInCU: 0x12FAF, offset: 0x12FAF, size: 0x8, addend: 0x0, symName: __ZNSt3__116reverse_iteratorIPNS_4pairIicEEEC2B8ue170006ES3_, symObjAddr: 0x2A30, symBinAddr: 0x100003BF0, symSize: 0x30 }
  - { offsetInCU: 0x12FE7, offset: 0x12FE7, size: 0x8, addend: 0x0, symName: __ZNSt3__114__split_bufferINS_4pairIicEERNS_9allocatorIS2_EEED2Ev, symObjAddr: 0x2A60, symBinAddr: 0x100003C20, symSize: 0x70 }
  - { offsetInCU: 0x13013, offset: 0x13013, size: 0x8, addend: 0x0, symName: __ZNSt3__114__split_bufferINS_4pairIicEERNS_9allocatorIS2_EEE5clearB8ue170006Ev, symObjAddr: 0x2AD0, symBinAddr: 0x100003C90, symSize: 0x20 }
  - { offsetInCU: 0x13039, offset: 0x13039, size: 0x8, addend: 0x0, symName: __ZNSt3__116allocator_traitsINS_9allocatorINS_4pairIicEEEEE10deallocateB8ue170006ERS4_PS3_m, symObjAddr: 0x2AF0, symBinAddr: 0x100003CB0, symSize: 0x30 }
  - { offsetInCU: 0x1307B, offset: 0x1307B, size: 0x8, addend: 0x0, symName: __ZNKSt3__114__split_bufferINS_4pairIicEERNS_9allocatorIS2_EEE8capacityB8ue170006Ev, symObjAddr: 0x2B20, symBinAddr: 0x100003CE0, symSize: 0x30 }
  - { offsetInCU: 0x130A1, offset: 0x130A1, size: 0x8, addend: 0x0, symName: __ZNSt3__114__split_bufferINS_4pairIicEERNS_9allocatorIS2_EEE17__destruct_at_endB8ue170006EPS2_, symObjAddr: 0x2B50, symBinAddr: 0x100003D10, symSize: 0x30 }
  - { offsetInCU: 0x130D5, offset: 0x130D5, size: 0x8, addend: 0x0, symName: __ZNSt3__114__split_bufferINS_4pairIicEERNS_9allocatorIS2_EEE17__destruct_at_endB8ue170006EPS2_NS_17integral_constantIbLb0EEE, symObjAddr: 0x2B80, symBinAddr: 0x100003D40, symSize: 0x80 }
  - { offsetInCU: 0x13115, offset: 0x13115, size: 0x8, addend: 0x0, symName: __ZNSt3__19allocatorINS_4pairIicEEE10deallocateB8ue170006EPS2_m, symObjAddr: 0x2C00, symBinAddr: 0x100003DC0, symSize: 0x40 }
  - { offsetInCU: 0x13157, offset: 0x13157, size: 0x8, addend: 0x0, symName: __ZNKSt3__114__split_bufferINS_4pairIicEERNS_9allocatorIS2_EEE9__end_capB8ue170006Ev, symObjAddr: 0x2D40, symBinAddr: 0x100003F00, symSize: 0x20 }
  - { offsetInCU: 0x1317D, offset: 0x1317D, size: 0x8, addend: 0x0, symName: __ZNKSt3__117__compressed_pairIPNS_4pairIicEERNS_9allocatorIS2_EEE5firstB8ue170006Ev, symObjAddr: 0x2D60, symBinAddr: 0x100003F20, symSize: 0x20 }
  - { offsetInCU: 0x131A3, offset: 0x131A3, size: 0x8, addend: 0x0, symName: __ZNSt3__14pairIicEC2B8ue170006IRiRKcLPv0EEEOT_OT0_, symObjAddr: 0x2D80, symBinAddr: 0x100003F40, symSize: 0x30 }
  - { offsetInCU: 0x13201, offset: 0x13201, size: 0x8, addend: 0x0, symName: __ZNKSt3__116reverse_iteratorINS_11__wrap_iterIPNS_4pairIicEEEEE4baseB8ue170006Ev, symObjAddr: 0x3CC0, symBinAddr: 0x100004E80, symSize: 0x20 }
  - { offsetInCU: 0x13227, offset: 0x13227, size: 0x8, addend: 0x0, symName: __ZNKSt3__111__wrap_iterIPNS_4pairIicEEE4baseB8ue170006Ev, symObjAddr: 0x3CE0, symBinAddr: 0x100004EA0, symSize: 0x20 }
  - { offsetInCU: 0x1324D, offset: 0x1324D, size: 0x8, addend: 0x0, symName: __ZNKSt3__16__lessIvvEclB8ue170006INS_4pairIicEES4_EEbRKT_RKT0_, symObjAddr: 0x3D00, symBinAddr: 0x100004EC0, symSize: 0x50 }
  - { offsetInCU: 0x132A1, offset: 0x132A1, size: 0x8, addend: 0x0, symName: __ZNSt3__116reverse_iteratorINS_11__wrap_iterIPNS_4pairIicEEEEEmmB8ue170006Ev, symObjAddr: 0x3D50, symBinAddr: 0x100004F10, symSize: 0x30 }
  - { offsetInCU: 0x132C7, offset: 0x132C7, size: 0x8, addend: 0x0, symName: __ZNKSt3__116reverse_iteratorINS_11__wrap_iterIPNS_4pairIicEEEEEdeB8ue170006Ev, symObjAddr: 0x3D80, symBinAddr: 0x100004F40, symSize: 0x30 }
  - { offsetInCU: 0x132FB, offset: 0x132FB, size: 0x8, addend: 0x0, symName: __ZNSt3__18_IterOpsINS_17_ClassicAlgPolicyEE9iter_swapB8ue170006IRNS_16reverse_iteratorINS_11__wrap_iterIPNS_4pairIicEEEEEESB_EEvOT_OT0_, symObjAddr: 0x3DB0, symBinAddr: 0x100004F70, symSize: 0x60 }
  - { offsetInCU: 0x1333E, offset: 0x1333E, size: 0x8, addend: 0x0, symName: __ZNKSt3__116reverse_iteratorINS_11__wrap_iterIPNS_4pairIicEEEEEplB8ue170006El, symObjAddr: 0x3E90, symBinAddr: 0x100005050, symSize: 0x40 }
  - { offsetInCU: 0x13372, offset: 0x13372, size: 0x8, addend: 0x0, symName: __ZNKSt3__116reverse_iteratorINS_11__wrap_iterIPNS_4pairIicEEEEEmiB8ue170006El, symObjAddr: 0x4790, symBinAddr: 0x100005950, symSize: 0x40 }
  - { offsetInCU: 0x133AC, offset: 0x133AC, size: 0x8, addend: 0x0, symName: __ZNSt3__18_IterOpsINS_17_ClassicAlgPolicyEE9iter_swapB8ue170006IRNS_16reverse_iteratorINS_11__wrap_iterIPNS_4pairIicEEEEEESA_EEvOT_OT0_, symObjAddr: 0x47D0, symBinAddr: 0x100005990, symSize: 0x60 }
  - { offsetInCU: 0x133EF, offset: 0x133EF, size: 0x8, addend: 0x0, symName: __ZNSt3__116reverse_iteratorINS_11__wrap_iterIPNS_4pairIicEEEEEppB8ue170006Ev, symObjAddr: 0x5810, symBinAddr: 0x1000069D0, symSize: 0x30 }
  - { offsetInCU: 0x13424, offset: 0x13424, size: 0x8, addend: 0x0, symName: __ZNSt3__120_CmpUnspecifiedParamC1B8ue170006EMS0_i, symObjAddr: 0x58E0, symBinAddr: 0x100006AA0, symSize: 0x30 }
  - { offsetInCU: 0x13458, offset: 0x13458, size: 0x8, addend: 0x0, symName: __ZNSt3__120_CmpUnspecifiedParamC2B8ue170006EMS0_i, symObjAddr: 0x5A10, symBinAddr: 0x100006BD0, symSize: 0x10 }
  - { offsetInCU: 0x1348C, offset: 0x1348C, size: 0x8, addend: 0x0, symName: __ZNSt3__111__wrap_iterIPNS_4pairIicEEEppB8ue170006Ev, symObjAddr: 0x5A20, symBinAddr: 0x100006BE0, symSize: 0x20 }
  - { offsetInCU: 0x134B2, offset: 0x134B2, size: 0x8, addend: 0x0, symName: __ZNSt3__111__wrap_iterIPNS_4pairIicEEEmmB8ue170006Ev, symObjAddr: 0x5A40, symBinAddr: 0x100006C00, symSize: 0x20 }
  - { offsetInCU: 0x134D8, offset: 0x134D8, size: 0x8, addend: 0x0, symName: __ZNKSt3__111__wrap_iterIPNS_4pairIicEEEdeB8ue170006Ev, symObjAddr: 0x5A60, symBinAddr: 0x100006C20, symSize: 0x20 }
  - { offsetInCU: 0x134FE, offset: 0x134FE, size: 0x8, addend: 0x0, symName: __ZNSt3__14pairIicE4swapB8ue170006ERS1_, symObjAddr: 0x5AF0, symBinAddr: 0x100006CB0, symSize: 0x40 }
  - { offsetInCU: 0x13533, offset: 0x13533, size: 0x8, addend: 0x0, symName: __ZNKSt3__111__wrap_iterIPNS_4pairIicEEEmiB8ue170006El, symObjAddr: 0x5B90, symBinAddr: 0x100006D50, symSize: 0x30 }
  - { offsetInCU: 0x13567, offset: 0x13567, size: 0x8, addend: 0x0, symName: __ZNSt3__116reverse_iteratorINS_11__wrap_iterIPNS_4pairIicEEEEEC1B8ue170006ES5_, symObjAddr: 0x5BC0, symBinAddr: 0x100006D80, symSize: 0x30 }
  - { offsetInCU: 0x1359F, offset: 0x1359F, size: 0x8, addend: 0x0, symName: __ZNKSt3__111__wrap_iterIPNS_4pairIicEEEplB8ue170006El, symObjAddr: 0x5BF0, symBinAddr: 0x100006DB0, symSize: 0x40 }
  - { offsetInCU: 0x135E1, offset: 0x135E1, size: 0x8, addend: 0x0, symName: __ZNSt3__111__wrap_iterIPNS_4pairIicEEEpLB8ue170006El, symObjAddr: 0x5C30, symBinAddr: 0x100006DF0, symSize: 0x20 }
  - { offsetInCU: 0x13615, offset: 0x13615, size: 0x8, addend: 0x0, symName: __ZNSt3__116reverse_iteratorINS_11__wrap_iterIPNS_4pairIicEEEEEC2B8ue170006ES5_, symObjAddr: 0x5C50, symBinAddr: 0x100006E10, symSize: 0x30 }
  - { offsetInCU: 0x1364D, offset: 0x1364D, size: 0x8, addend: 0x0, symName: __ZNSt3__18_IterOpsINS_17_ClassicAlgPolicyEE11__iter_moveB8ue170006IRNS_16reverse_iteratorINS_11__wrap_iterIPNS_4pairIicEEEEEEEENS_9enable_ifIXsr12is_referenceIDTdeclsr3stdE7declvalIRT_EEEEE5valueEDTclsr3stdE4movedeclsr3stdE7declvalISE_EEEEE4typeEOSD_, symObjAddr: 0x60E0, symBinAddr: 0x1000072A0, symSize: 0x20 }
  - { offsetInCU: 0x13679, offset: 0x13679, size: 0x8, addend: 0x0, symName: __ZNSt3__14pairIicEaSB8ue170006EOS1_, symObjAddr: 0x6100, symBinAddr: 0x1000072C0, symSize: 0x30 }
  - { offsetInCU: 0x136AE, offset: 0x136AE, size: 0x8, addend: 0x0, symName: __ZNSt3__18_IterOpsINS_17_ClassicAlgPolicyEE25__validate_iter_referenceB8ue170006IRNS_16reverse_iteratorINS_11__wrap_iterIPNS_4pairIicEEEEEEEEvv, symObjAddr: 0x61A0, symBinAddr: 0x100007360, symSize: 0x10 }
  - { offsetInCU: 0x136CC, offset: 0x136CC, size: 0x8, addend: 0x0, symName: __ZNSt3__18_IterOpsINS_17_ClassicAlgPolicyEE4nextB8ue170006INS_16reverse_iteratorINS_11__wrap_iterIPNS_4pairIicEEEEEEEET_SB_SB_, symObjAddr: 0x61B0, symBinAddr: 0x100007370, symSize: 0x30 }
  - { offsetInCU: 0x13702, offset: 0x13702, size: 0x8, addend: 0x0, symName: __ZNSt3__116reverse_iteratorINS_11__wrap_iterIPNS_4pairIicEEEEEpLB8ue170006El, symObjAddr: 0x6D20, symBinAddr: 0x100007EE0, symSize: 0x30 }
  - { offsetInCU: 0x13736, offset: 0x13736, size: 0x8, addend: 0x0, symName: __ZNSt3__111__wrap_iterIPNS_4pairIicEEEmIB8ue170006El, symObjAddr: 0x6D50, symBinAddr: 0x100007F10, symSize: 0x30 }
  - { offsetInCU: 0x1376A, offset: 0x1376A, size: 0x8, addend: 0x0, symName: __ZNSt3__116reverse_iteratorINS_11__wrap_iterIPNS_4pairIicEEEEEmIB8ue170006El, symObjAddr: 0x70C0, symBinAddr: 0x100008280, symSize: 0x30 }
  - { offsetInCU: 0x1379E, offset: 0x1379E, size: 0x8, addend: 0x0, symName: __ZNSt3__18_IterOpsINS_17_ClassicAlgPolicyEE9iter_swapB8ue170006INS_16reverse_iteratorINS_11__wrap_iterIPNS_4pairIicEEEEEESA_EEvOT_OT0_, symObjAddr: 0x7600, symBinAddr: 0x1000087C0, symSize: 0x60 }
  - { offsetInCU: 0x13803, offset: 0x13803, size: 0x8, addend: 0x0, symName: __ZNSt3__14pairINS_16reverse_iteratorINS_11__wrap_iterIPNS0_IicEEEEEEbEC1B8ue170006IRS6_RbLPv0EEEOT_OT0_, symObjAddr: 0x7680, symBinAddr: 0x100008840, symSize: 0x30 }
  - { offsetInCU: 0x13861, offset: 0x13861, size: 0x8, addend: 0x0, symName: __ZNSt3__14pairINS_16reverse_iteratorINS_11__wrap_iterIPNS0_IicEEEEEEbEC2B8ue170006IRS6_RbLPv0EEEOT_OT0_, symObjAddr: 0x76B0, symBinAddr: 0x100008870, symSize: 0x40 }
  - { offsetInCU: 0x138BF, offset: 0x138BF, size: 0x8, addend: 0x0, symName: __ZNSt3__118__unwrap_iter_implINS_16reverse_iteratorINS_11__wrap_iterIPNS_4pairIicEEEEEELb0EE8__unwrapB8ue170006ES7_, symObjAddr: 0x76F0, symBinAddr: 0x1000088B0, symSize: 0x20 }
  - { offsetInCU: 0x138E2, offset: 0x138E2, size: 0x8, addend: 0x0, symName: __ZNSt3__16vectorINS_4pairIicEENS_9allocatorIS2_EEE3endB8ue170006Ev, symObjAddr: 0x7710, symBinAddr: 0x1000088D0, symSize: 0x30 }
  - { offsetInCU: 0x1390A, offset: 0x1390A, size: 0x8, addend: 0x0, symName: __ZNSt3__16vectorINS_4pairIicEENS_9allocatorIS2_EEE11__make_iterB8ue170006EPS2_, symObjAddr: 0x7740, symBinAddr: 0x100008900, symSize: 0x30 }
  - { offsetInCU: 0x1393F, offset: 0x1393F, size: 0x8, addend: 0x0, symName: __ZNSt3__111__wrap_iterIPNS_4pairIicEEEC1B8ue170006ES3_, symObjAddr: 0x7770, symBinAddr: 0x100008930, symSize: 0x30 }
  - { offsetInCU: 0x13977, offset: 0x13977, size: 0x8, addend: 0x0, symName: __ZNSt3__111__wrap_iterIPNS_4pairIicEEEC2B8ue170006ES3_, symObjAddr: 0x77A0, symBinAddr: 0x100008960, symSize: 0x20 }
  - { offsetInCU: 0x139AF, offset: 0x139AF, size: 0x8, addend: 0x0, symName: __ZNSt3__16vectorINS_4pairIicEENS_9allocatorIS2_EEE5beginB8ue170006Ev, symObjAddr: 0x77C0, symBinAddr: 0x100008980, symSize: 0x30 }
  - { offsetInCU: 0x139DD, offset: 0x139DD, size: 0x8, addend: 0x0, symName: __ZNKSt3__16__lessIvvEclB8ue170006IiiEEbRKT_RKT0_, symObjAddr: 0x7840, symBinAddr: 0x100008A00, symSize: 0x30 }
  - { offsetInCU: 0x13A31, offset: 0x13A31, size: 0x8, addend: 0x0, symName: __ZNSt3__16vectorINS_4pairIicEENS_9allocatorIS2_EEED2B8ue170006Ev, symObjAddr: 0x7870, symBinAddr: 0x100008A30, symSize: 0x40 }
  - { offsetInCU: 0x13A5B, offset: 0x13A5B, size: 0x8, addend: 0x0, symName: __ZNSt3__16vectorINS_4pairIicEENS_9allocatorIS2_EEE16__destroy_vectorC1B8ue170006ERS5_, symObjAddr: 0x78B0, symBinAddr: 0x100008A70, symSize: 0x30 }
  - { offsetInCU: 0x13A94, offset: 0x13A94, size: 0x8, addend: 0x0, symName: __ZNSt3__16vectorINS_4pairIicEENS_9allocatorIS2_EEE16__destroy_vectorclB8ue170006Ev, symObjAddr: 0x78E0, symBinAddr: 0x100008AA0, symSize: 0x80 }
  - { offsetInCU: 0x13ABA, offset: 0x13ABA, size: 0x8, addend: 0x0, symName: __ZNSt3__16vectorINS_4pairIicEENS_9allocatorIS2_EEE16__destroy_vectorC2B8ue170006ERS5_, symObjAddr: 0x7960, symBinAddr: 0x100008B20, symSize: 0x20 }
  - { offsetInCU: 0x13AF3, offset: 0x13AF3, size: 0x8, addend: 0x0, symName: __ZNSt3__16vectorINS_4pairIicEENS_9allocatorIS2_EEE7__clearB8ue170006Ev, symObjAddr: 0x7980, symBinAddr: 0x100008B40, symSize: 0x20 }
  - { offsetInCU: 0x13B19, offset: 0x13B19, size: 0x8, addend: 0x0, symName: __ZNSt3__16vectorINS_4pairIicEENS_9allocatorIS2_EEE22__base_destruct_at_endB8ue170006EPS2_, symObjAddr: 0x79A0, symBinAddr: 0x100008B60, symSize: 0x80 }
  - { offsetInCU: 0x13B5D, offset: 0x13B5D, size: 0x8, addend: 0x0, symName: __ZNSt3__112basic_stringIcNS_11char_traitsIcEENS_9allocatorIcEEEC2B8ue170006Ev, symObjAddr: 0x7A20, symBinAddr: 0x100008BE0, symSize: 0x50 }
  - { offsetInCU: 0x13B87, offset: 0x13B87, size: 0x8, addend: 0x0, symName: __ZNSt3__117__compressed_pairINS_12basic_stringIcNS_11char_traitsIcEENS_9allocatorIcEEE5__repES5_EC1B8ue170006INS_18__default_init_tagESA_EEOT_OT0_, symObjAddr: 0x7A70, symBinAddr: 0x100008C30, symSize: 0x30 }
  - { offsetInCU: 0x13BDF, offset: 0x13BDF, size: 0x8, addend: 0x0, symName: __ZNSt3__112basic_stringIcNS_11char_traitsIcEENS_9allocatorIcEEE14__default_initB8ue170006Ev, symObjAddr: 0x7AA0, symBinAddr: 0x100008C60, symSize: 0x50 }
  - { offsetInCU: 0x13C05, offset: 0x13C05, size: 0x8, addend: 0x0, symName: __ZNSt3__117__compressed_pairINS_12basic_stringIcNS_11char_traitsIcEENS_9allocatorIcEEE5__repES5_EC2B8ue170006INS_18__default_init_tagESA_EEOT_OT0_, symObjAddr: 0x7AF0, symBinAddr: 0x100008CB0, symSize: 0x30 }
  - { offsetInCU: 0x13C5D, offset: 0x13C5D, size: 0x8, addend: 0x0, symName: __ZNSt3__122__compressed_pair_elemINS_12basic_stringIcNS_11char_traitsIcEENS_9allocatorIcEEE5__repELi0ELb0EEC2B8ue170006ENS_18__default_init_tagE, symObjAddr: 0x7B20, symBinAddr: 0x100008CE0, symSize: 0x10 }
  - { offsetInCU: 0x13C91, offset: 0x13C91, size: 0x8, addend: 0x0, symName: __ZNSt3__122__compressed_pair_elemINS_9allocatorIcEELi1ELb1EEC2B8ue170006ENS_18__default_init_tagE, symObjAddr: 0x7B30, symBinAddr: 0x100008CF0, symSize: 0x20 }
  - { offsetInCU: 0x13CC5, offset: 0x13CC5, size: 0x8, addend: 0x0, symName: __ZNSt3__19allocatorIcEC2B8ue170006Ev, symObjAddr: 0x7B50, symBinAddr: 0x100008D10, symSize: 0x20 }
  - { offsetInCU: 0x13CEF, offset: 0x13CEF, size: 0x8, addend: 0x0, symName: __ZNSt3__116__non_trivial_ifILb1ENS_9allocatorIcEEEC2B8ue170006Ev, symObjAddr: 0x7B70, symBinAddr: 0x100008D30, symSize: 0x10 }
  - { offsetInCU: 0x13D19, offset: 0x13D19, size: 0x8, addend: 0x0, symName: __ZNSt3__113unordered_mapIciNS_4hashIcEENS_8equal_toIcEENS_9allocatorINS_4pairIKciEEEEEC2B8ue170006Ev, symObjAddr: 0x7B80, symBinAddr: 0x100008D40, symSize: 0x20 }
  - { offsetInCU: 0x13D43, offset: 0x13D43, size: 0x8, addend: 0x0, symName: __ZNSt3__112__hash_tableINS_17__hash_value_typeIciEENS_22__unordered_map_hasherIcS2_NS_4hashIcEENS_8equal_toIcEELb1EEENS_21__unordered_map_equalIcS2_S7_S5_Lb1EEENS_9allocatorIS2_EEEC1Ev, symObjAddr: 0x7BA0, symBinAddr: 0x100008D60, symSize: 0x20 }
  - { offsetInCU: 0x13D6F, offset: 0x13D6F, size: 0x8, addend: 0x0, symName: __ZNSt3__112__hash_tableINS_17__hash_value_typeIciEENS_22__unordered_map_hasherIcS2_NS_4hashIcEENS_8equal_toIcEELb1EEENS_21__unordered_map_equalIcS2_S7_S5_Lb1EEENS_9allocatorIS2_EEEC2Ev, symObjAddr: 0x7BC0, symBinAddr: 0x100008D80, symSize: 0x80 }
  - { offsetInCU: 0x13D9B, offset: 0x13D9B, size: 0x8, addend: 0x0, symName: __ZNSt3__110unique_ptrIA_PNS_16__hash_node_baseIPNS_11__hash_nodeINS_17__hash_value_typeIciEEPvEEEENS_25__bucket_list_deallocatorINS_9allocatorIS9_EEEEEC1B8ue170006ILb1EvEEv, symObjAddr: 0x7C40, symBinAddr: 0x100008E00, symSize: 0x20 }
  - { offsetInCU: 0x13DD0, offset: 0x13DD0, size: 0x8, addend: 0x0, symName: __ZNSt3__117__compressed_pairINS_16__hash_node_baseIPNS_11__hash_nodeINS_17__hash_value_typeIciEEPvEEEENS_9allocatorIS6_EEEC1B8ue170006ILb1EvEEv, symObjAddr: 0x7C60, symBinAddr: 0x100008E20, symSize: 0x20 }
  - { offsetInCU: 0x13E0B, offset: 0x13E0B, size: 0x8, addend: 0x0, symName: __ZNSt3__117__compressed_pairImNS_22__unordered_map_hasherIcNS_17__hash_value_typeIciEENS_4hashIcEENS_8equal_toIcEELb1EEEEC1B8ue170006IiNS_18__default_init_tagEEEOT_OT0_, symObjAddr: 0x7C80, symBinAddr: 0x100008E40, symSize: 0x30 }
  - { offsetInCU: 0x13E69, offset: 0x13E69, size: 0x8, addend: 0x0, symName: __ZNSt3__117__compressed_pairIfNS_21__unordered_map_equalIcNS_17__hash_value_typeIciEENS_8equal_toIcEENS_4hashIcEELb1EEEEC1B8ue170006IfNS_18__default_init_tagEEEOT_OT0_, symObjAddr: 0x7CB0, symBinAddr: 0x100008E70, symSize: 0x30 }
  - { offsetInCU: 0x13EC1, offset: 0x13EC1, size: 0x8, addend: 0x0, symName: __ZNSt3__110unique_ptrIA_PNS_16__hash_node_baseIPNS_11__hash_nodeINS_17__hash_value_typeIciEEPvEEEENS_25__bucket_list_deallocatorINS_9allocatorIS9_EEEEEC2B8ue170006ILb1EvEEv, symObjAddr: 0x7CE0, symBinAddr: 0x100008EA0, symSize: 0x30 }
  - { offsetInCU: 0x13EFC, offset: 0x13EFC, size: 0x8, addend: 0x0, symName: __ZNSt3__117__compressed_pairIPPNS_16__hash_node_baseIPNS_11__hash_nodeINS_17__hash_value_typeIciEEPvEEEENS_25__bucket_list_deallocatorINS_9allocatorIS9_EEEEEC1B8ue170006INS_16__value_init_tagESH_EEOT_OT0_, symObjAddr: 0x7D10, symBinAddr: 0x100008ED0, symSize: 0x30 }
  - { offsetInCU: 0x13F54, offset: 0x13F54, size: 0x8, addend: 0x0, symName: __ZNSt3__117__compressed_pairIPPNS_16__hash_node_baseIPNS_11__hash_nodeINS_17__hash_value_typeIciEEPvEEEENS_25__bucket_list_deallocatorINS_9allocatorIS9_EEEEEC2B8ue170006INS_16__value_init_tagESH_EEOT_OT0_, symObjAddr: 0x7D40, symBinAddr: 0x100008F00, symSize: 0x40 }
  - { offsetInCU: 0x13FAC, offset: 0x13FAC, size: 0x8, addend: 0x0, symName: __ZNSt3__122__compressed_pair_elemIPPNS_16__hash_node_baseIPNS_11__hash_nodeINS_17__hash_value_typeIciEEPvEEEELi0ELb0EEC2B8ue170006ENS_16__value_init_tagE, symObjAddr: 0x7D80, symBinAddr: 0x100008F40, symSize: 0x20 }
  - { offsetInCU: 0x13FE0, offset: 0x13FE0, size: 0x8, addend: 0x0, symName: __ZNSt3__122__compressed_pair_elemINS_25__bucket_list_deallocatorINS_9allocatorIPNS_16__hash_node_baseIPNS_11__hash_nodeINS_17__hash_value_typeIciEEPvEEEEEEEELi1ELb0EEC2B8ue170006ENS_16__value_init_tagE, symObjAddr: 0x7DA0, symBinAddr: 0x100008F60, symSize: 0x20 }
  - { offsetInCU: 0x14014, offset: 0x14014, size: 0x8, addend: 0x0, symName: __ZNSt3__125__bucket_list_deallocatorINS_9allocatorIPNS_16__hash_node_baseIPNS_11__hash_nodeINS_17__hash_value_typeIciEEPvEEEEEEEC1B8ue170006Ev, symObjAddr: 0x7DC0, symBinAddr: 0x100008F80, symSize: 0x20 }
  - { offsetInCU: 0x1403E, offset: 0x1403E, size: 0x8, addend: 0x0, symName: __ZNSt3__125__bucket_list_deallocatorINS_9allocatorIPNS_16__hash_node_baseIPNS_11__hash_nodeINS_17__hash_value_typeIciEEPvEEEEEEEC2B8ue170006Ev, symObjAddr: 0x7DE0, symBinAddr: 0x100008FA0, symSize: 0x40 }
  - { offsetInCU: 0x14068, offset: 0x14068, size: 0x8, addend: 0x0, symName: __ZNSt3__117__compressed_pairImNS_9allocatorIPNS_16__hash_node_baseIPNS_11__hash_nodeINS_17__hash_value_typeIciEEPvEEEEEEEC1B8ue170006IiNS_18__default_init_tagEEEOT_OT0_, symObjAddr: 0x7E20, symBinAddr: 0x100008FE0, symSize: 0x30 }
  - { offsetInCU: 0x140C0, offset: 0x140C0, size: 0x8, addend: 0x0, symName: __ZNSt3__117__compressed_pairImNS_9allocatorIPNS_16__hash_node_baseIPNS_11__hash_nodeINS_17__hash_value_typeIciEEPvEEEEEEEC2B8ue170006IiNS_18__default_init_tagEEEOT_OT0_, symObjAddr: 0x7E50, symBinAddr: 0x100009010, symSize: 0x40 }
  - { offsetInCU: 0x14118, offset: 0x14118, size: 0x8, addend: 0x0, symName: __ZNSt3__122__compressed_pair_elemImLi0ELb0EEC2B8ue170006IivEEOT_, symObjAddr: 0x7E90, symBinAddr: 0x100009050, symSize: 0x20 }
  - { offsetInCU: 0x1415A, offset: 0x1415A, size: 0x8, addend: 0x0, symName: __ZNSt3__122__compressed_pair_elemINS_9allocatorIPNS_16__hash_node_baseIPNS_11__hash_nodeINS_17__hash_value_typeIciEEPvEEEEEELi1ELb1EEC2B8ue170006ENS_18__default_init_tagE, symObjAddr: 0x7EB0, symBinAddr: 0x100009070, symSize: 0x20 }
  - { offsetInCU: 0x1418E, offset: 0x1418E, size: 0x8, addend: 0x0, symName: __ZNSt3__19allocatorIPNS_16__hash_node_baseIPNS_11__hash_nodeINS_17__hash_value_typeIciEEPvEEEEEC2B8ue170006Ev, symObjAddr: 0x7ED0, symBinAddr: 0x100009090, symSize: 0x20 }
  - { offsetInCU: 0x141B8, offset: 0x141B8, size: 0x8, addend: 0x0, symName: __ZNSt3__116__non_trivial_ifILb1ENS_9allocatorIPNS_16__hash_node_baseIPNS_11__hash_nodeINS_17__hash_value_typeIciEEPvEEEEEEEC2B8ue170006Ev, symObjAddr: 0x7EF0, symBinAddr: 0x1000090B0, symSize: 0x10 }
  - { offsetInCU: 0x141E2, offset: 0x141E2, size: 0x8, addend: 0x0, symName: __ZNSt3__117__compressed_pairINS_16__hash_node_baseIPNS_11__hash_nodeINS_17__hash_value_typeIciEEPvEEEENS_9allocatorIS6_EEEC2B8ue170006ILb1EvEEv, symObjAddr: 0x7F00, symBinAddr: 0x1000090C0, symSize: 0x30 }
  - { offsetInCU: 0x14217, offset: 0x14217, size: 0x8, addend: 0x0, symName: __ZNSt3__122__compressed_pair_elemINS_16__hash_node_baseIPNS_11__hash_nodeINS_17__hash_value_typeIciEEPvEEEELi0ELb0EEC2B8ue170006ENS_16__value_init_tagE, symObjAddr: 0x7F30, symBinAddr: 0x1000090F0, symSize: 0x20 }
  - { offsetInCU: 0x1424B, offset: 0x1424B, size: 0x8, addend: 0x0, symName: __ZNSt3__122__compressed_pair_elemINS_9allocatorINS_11__hash_nodeINS_17__hash_value_typeIciEEPvEEEELi1ELb1EEC2B8ue170006ENS_16__value_init_tagE, symObjAddr: 0x7F50, symBinAddr: 0x100009110, symSize: 0x20 }
  - { offsetInCU: 0x1427F, offset: 0x1427F, size: 0x8, addend: 0x0, symName: __ZNSt3__116__hash_node_baseIPNS_11__hash_nodeINS_17__hash_value_typeIciEEPvEEEC1B8ue170006Ev, symObjAddr: 0x7F70, symBinAddr: 0x100009130, symSize: 0x20 }
  - { offsetInCU: 0x142A9, offset: 0x142A9, size: 0x8, addend: 0x0, symName: __ZNSt3__116__hash_node_baseIPNS_11__hash_nodeINS_17__hash_value_typeIciEEPvEEEC2B8ue170006Ev, symObjAddr: 0x7F90, symBinAddr: 0x100009150, symSize: 0x20 }
  - { offsetInCU: 0x142D3, offset: 0x142D3, size: 0x8, addend: 0x0, symName: __ZNSt3__19allocatorINS_11__hash_nodeINS_17__hash_value_typeIciEEPvEEEC2B8ue170006Ev, symObjAddr: 0x7FB0, symBinAddr: 0x100009170, symSize: 0x20 }
  - { offsetInCU: 0x142FD, offset: 0x142FD, size: 0x8, addend: 0x0, symName: __ZNSt3__116__non_trivial_ifILb1ENS_9allocatorINS_11__hash_nodeINS_17__hash_value_typeIciEEPvEEEEEC2B8ue170006Ev, symObjAddr: 0x7FD0, symBinAddr: 0x100009190, symSize: 0x10 }
  - { offsetInCU: 0x14327, offset: 0x14327, size: 0x8, addend: 0x0, symName: __ZNSt3__117__compressed_pairImNS_22__unordered_map_hasherIcNS_17__hash_value_typeIciEENS_4hashIcEENS_8equal_toIcEELb1EEEEC2B8ue170006IiNS_18__default_init_tagEEEOT_OT0_, symObjAddr: 0x7FE0, symBinAddr: 0x1000091A0, symSize: 0x40 }
  - { offsetInCU: 0x1437F, offset: 0x1437F, size: 0x8, addend: 0x0, symName: __ZNSt3__122__compressed_pair_elemINS_22__unordered_map_hasherIcNS_17__hash_value_typeIciEENS_4hashIcEENS_8equal_toIcEELb1EEELi1ELb1EEC2B8ue170006ENS_18__default_init_tagE, symObjAddr: 0x8020, symBinAddr: 0x1000091E0, symSize: 0x20 }
  - { offsetInCU: 0x143B3, offset: 0x143B3, size: 0x8, addend: 0x0, symName: __ZNSt3__122__unordered_map_hasherIcNS_17__hash_value_typeIciEENS_4hashIcEENS_8equal_toIcEELb1EEC2B8ue170006Ev, symObjAddr: 0x8040, symBinAddr: 0x100009200, symSize: 0x10 }
  - { offsetInCU: 0x143DD, offset: 0x143DD, size: 0x8, addend: 0x0, symName: __ZNSt3__117__compressed_pairIfNS_21__unordered_map_equalIcNS_17__hash_value_typeIciEENS_8equal_toIcEENS_4hashIcEELb1EEEEC2B8ue170006IfNS_18__default_init_tagEEEOT_OT0_, symObjAddr: 0x8050, symBinAddr: 0x100009210, symSize: 0x40 }
  - { offsetInCU: 0x14435, offset: 0x14435, size: 0x8, addend: 0x0, symName: __ZNSt3__122__compressed_pair_elemIfLi0ELb0EEC2B8ue170006IfvEEOT_, symObjAddr: 0x8090, symBinAddr: 0x100009250, symSize: 0x20 }
  - { offsetInCU: 0x14477, offset: 0x14477, size: 0x8, addend: 0x0, symName: __ZNSt3__122__compressed_pair_elemINS_21__unordered_map_equalIcNS_17__hash_value_typeIciEENS_8equal_toIcEENS_4hashIcEELb1EEELi1ELb1EEC2B8ue170006ENS_18__default_init_tagE, symObjAddr: 0x80B0, symBinAddr: 0x100009270, symSize: 0x20 }
  - { offsetInCU: 0x144AB, offset: 0x144AB, size: 0x8, addend: 0x0, symName: __ZNSt3__121__unordered_map_equalIcNS_17__hash_value_typeIciEENS_8equal_toIcEENS_4hashIcEELb1EEC2B8ue170006Ev, symObjAddr: 0x80D0, symBinAddr: 0x100009290, symSize: 0x10 }
  - { offsetInCU: 0x144D5, offset: 0x144D5, size: 0x8, addend: 0x0, symName: __ZNSt3__113unordered_mapIciNS_4hashIcEENS_8equal_toIcEENS_9allocatorINS_4pairIKciEEEEED2B8ue170006Ev, symObjAddr: 0x80E0, symBinAddr: 0x1000092A0, symSize: 0x20 }
  - { offsetInCU: 0x144FF, offset: 0x144FF, size: 0x8, addend: 0x0, symName: __ZNSt3__112__hash_tableINS_17__hash_value_typeIciEENS_22__unordered_map_hasherIcS2_NS_4hashIcEENS_8equal_toIcEELb1EEENS_21__unordered_map_equalIcS2_S7_S5_Lb1EEENS_9allocatorIS2_EEED1Ev, symObjAddr: 0x8100, symBinAddr: 0x1000092C0, symSize: 0x20 }
  - { offsetInCU: 0x1452B, offset: 0x1452B, size: 0x8, addend: 0x0, symName: __ZNSt3__112__hash_tableINS_17__hash_value_typeIciEENS_22__unordered_map_hasherIcS2_NS_4hashIcEENS_8equal_toIcEELb1EEENS_21__unordered_map_equalIcS2_S7_S5_Lb1EEENS_9allocatorIS2_EEED2Ev, symObjAddr: 0x8120, symBinAddr: 0x1000092E0, symSize: 0x40 }
  - { offsetInCU: 0x14557, offset: 0x14557, size: 0x8, addend: 0x0, symName: __ZNSt3__112__hash_tableINS_17__hash_value_typeIciEENS_22__unordered_map_hasherIcS2_NS_4hashIcEENS_8equal_toIcEELb1EEENS_21__unordered_map_equalIcS2_S7_S5_Lb1EEENS_9allocatorIS2_EEE17__deallocate_nodeEPNS_16__hash_node_baseIPNS_11__hash_nodeIS2_PvEEEE, symObjAddr: 0x8160, symBinAddr: 0x100009320, symSize: 0xA0 }
  - { offsetInCU: 0x145C1, offset: 0x145C1, size: 0x8, addend: 0x0, symName: __ZNSt3__117__compressed_pairINS_16__hash_node_baseIPNS_11__hash_nodeINS_17__hash_value_typeIciEEPvEEEENS_9allocatorIS6_EEE5firstB8ue170006Ev, symObjAddr: 0x8200, symBinAddr: 0x1000093C0, symSize: 0x20 }
  - { offsetInCU: 0x145E7, offset: 0x145E7, size: 0x8, addend: 0x0, symName: __ZNSt3__110unique_ptrIA_PNS_16__hash_node_baseIPNS_11__hash_nodeINS_17__hash_value_typeIciEEPvEEEENS_25__bucket_list_deallocatorINS_9allocatorIS9_EEEEED1B8ue170006Ev, symObjAddr: 0x8220, symBinAddr: 0x1000093E0, symSize: 0x20 }
  - { offsetInCU: 0x14611, offset: 0x14611, size: 0x8, addend: 0x0, symName: __ZNSt3__112__hash_tableINS_17__hash_value_typeIciEENS_22__unordered_map_hasherIcS2_NS_4hashIcEENS_8equal_toIcEELb1EEENS_21__unordered_map_equalIcS2_S7_S5_Lb1EEENS_9allocatorIS2_EEE12__node_allocB8ue170006Ev, symObjAddr: 0x8240, symBinAddr: 0x100009400, symSize: 0x20 }
  - { offsetInCU: 0x14637, offset: 0x14637, size: 0x8, addend: 0x0, symName: __ZNSt3__116__hash_node_baseIPNS_11__hash_nodeINS_17__hash_value_typeIciEEPvEEE8__upcastB8ue170006Ev, symObjAddr: 0x8260, symBinAddr: 0x100009420, symSize: 0x20 }
  - { offsetInCU: 0x1465D, offset: 0x1465D, size: 0x8, addend: 0x0, symName: __ZNSt3__116allocator_traitsINS_9allocatorINS_11__hash_nodeINS_17__hash_value_typeIciEEPvEEEEE7destroyB8ue170006INS_4pairIKciEEvvEEvRS7_PT_, symObjAddr: 0x8280, symBinAddr: 0x100009440, symSize: 0x20 }
  - { offsetInCU: 0x14697, offset: 0x14697, size: 0x8, addend: 0x0, symName: __ZNSt3__122__hash_key_value_typesINS_17__hash_value_typeIciEEE9__get_ptrB8ue170006ERS2_, symObjAddr: 0x82A0, symBinAddr: 0x100009460, symSize: 0x20 }
  - { offsetInCU: 0x146BA, offset: 0x146BA, size: 0x8, addend: 0x0, symName: __ZNSt3__116allocator_traitsINS_9allocatorINS_11__hash_nodeINS_17__hash_value_typeIciEEPvEEEEE10deallocateB8ue170006ERS7_PS6_m, symObjAddr: 0x82C0, symBinAddr: 0x100009480, symSize: 0x30 }
  - { offsetInCU: 0x146FC, offset: 0x146FC, size: 0x8, addend: 0x0, symName: __ZNSt3__117__compressed_pairINS_16__hash_node_baseIPNS_11__hash_nodeINS_17__hash_value_typeIciEEPvEEEENS_9allocatorIS6_EEE6secondB8ue170006Ev, symObjAddr: 0x82F0, symBinAddr: 0x1000094B0, symSize: 0x20 }
  - { offsetInCU: 0x14722, offset: 0x14722, size: 0x8, addend: 0x0, symName: __ZNSt3__122__compressed_pair_elemINS_9allocatorINS_11__hash_nodeINS_17__hash_value_typeIciEEPvEEEELi1ELb1EE5__getB8ue170006Ev, symObjAddr: 0x8310, symBinAddr: 0x1000094D0, symSize: 0x10 }
  - { offsetInCU: 0x14748, offset: 0x14748, size: 0x8, addend: 0x0, symName: __ZNSt3__114pointer_traitsIPNS_16__hash_node_baseIPNS_11__hash_nodeINS_17__hash_value_typeIciEEPvEEEEE10pointer_toB8ue170006ERS8_, symObjAddr: 0x8320, symBinAddr: 0x1000094E0, symSize: 0x10 }
  - { offsetInCU: 0x1476B, offset: 0x1476B, size: 0x8, addend: 0x0, symName: __ZNSt3__117__hash_value_typeIciE11__get_valueB8ue170006Ev, symObjAddr: 0x8360, symBinAddr: 0x100009520, symSize: 0x20 }
  - { offsetInCU: 0x14791, offset: 0x14791, size: 0x8, addend: 0x0, symName: __ZNSt3__19allocatorINS_11__hash_nodeINS_17__hash_value_typeIciEEPvEEE10deallocateB8ue170006EPS5_m, symObjAddr: 0x83B0, symBinAddr: 0x100009570, symSize: 0x50 }
  - { offsetInCU: 0x147D3, offset: 0x147D3, size: 0x8, addend: 0x0, symName: __ZNSt3__122__compressed_pair_elemINS_16__hash_node_baseIPNS_11__hash_nodeINS_17__hash_value_typeIciEEPvEEEELi0ELb0EE5__getB8ue170006Ev, symObjAddr: 0x8400, symBinAddr: 0x1000095C0, symSize: 0x10 }
  - { offsetInCU: 0x147F9, offset: 0x147F9, size: 0x8, addend: 0x0, symName: __ZNSt3__110unique_ptrIA_PNS_16__hash_node_baseIPNS_11__hash_nodeINS_17__hash_value_typeIciEEPvEEEENS_25__bucket_list_deallocatorINS_9allocatorIS9_EEEEED2B8ue170006Ev, symObjAddr: 0x8410, symBinAddr: 0x1000095D0, symSize: 0x20 }
  - { offsetInCU: 0x14823, offset: 0x14823, size: 0x8, addend: 0x0, symName: __ZNSt3__110unique_ptrIA_PNS_16__hash_node_baseIPNS_11__hash_nodeINS_17__hash_value_typeIciEEPvEEEENS_25__bucket_list_deallocatorINS_9allocatorIS9_EEEEE5resetB8ue170006EDn, symObjAddr: 0x8430, symBinAddr: 0x1000095F0, symSize: 0x60 }
  - { offsetInCU: 0x14863, offset: 0x14863, size: 0x8, addend: 0x0, symName: __ZNSt3__117__compressed_pairIPPNS_16__hash_node_baseIPNS_11__hash_nodeINS_17__hash_value_typeIciEEPvEEEENS_25__bucket_list_deallocatorINS_9allocatorIS9_EEEEE5firstB8ue170006Ev, symObjAddr: 0x8490, symBinAddr: 0x100009650, symSize: 0x20 }
  - { offsetInCU: 0x14889, offset: 0x14889, size: 0x8, addend: 0x0, symName: __ZNSt3__117__compressed_pairIPPNS_16__hash_node_baseIPNS_11__hash_nodeINS_17__hash_value_typeIciEEPvEEEENS_25__bucket_list_deallocatorINS_9allocatorIS9_EEEEE6secondB8ue170006Ev, symObjAddr: 0x84B0, symBinAddr: 0x100009670, symSize: 0x20 }
  - { offsetInCU: 0x148AF, offset: 0x148AF, size: 0x8, addend: 0x0, symName: __ZNSt3__125__bucket_list_deallocatorINS_9allocatorIPNS_16__hash_node_baseIPNS_11__hash_nodeINS_17__hash_value_typeIciEEPvEEEEEEEclB8ue170006EPSA_, symObjAddr: 0x84D0, symBinAddr: 0x100009690, symSize: 0x50 }
  - { offsetInCU: 0x148E4, offset: 0x148E4, size: 0x8, addend: 0x0, symName: __ZNSt3__122__compressed_pair_elemIPPNS_16__hash_node_baseIPNS_11__hash_nodeINS_17__hash_value_typeIciEEPvEEEELi0ELb0EE5__getB8ue170006Ev, symObjAddr: 0x8520, symBinAddr: 0x1000096E0, symSize: 0x10 }
  - { offsetInCU: 0x1490A, offset: 0x1490A, size: 0x8, addend: 0x0, symName: __ZNSt3__122__compressed_pair_elemINS_25__bucket_list_deallocatorINS_9allocatorIPNS_16__hash_node_baseIPNS_11__hash_nodeINS_17__hash_value_typeIciEEPvEEEEEEEELi1ELb0EE5__getB8ue170006Ev, symObjAddr: 0x8530, symBinAddr: 0x1000096F0, symSize: 0x10 }
  - { offsetInCU: 0x14930, offset: 0x14930, size: 0x8, addend: 0x0, symName: __ZNSt3__116allocator_traitsINS_9allocatorIPNS_16__hash_node_baseIPNS_11__hash_nodeINS_17__hash_value_typeIciEEPvEEEEEEE10deallocateB8ue170006ERSB_PSA_m, symObjAddr: 0x8540, symBinAddr: 0x100009700, symSize: 0x30 }
  - { offsetInCU: 0x14972, offset: 0x14972, size: 0x8, addend: 0x0, symName: __ZNSt3__125__bucket_list_deallocatorINS_9allocatorIPNS_16__hash_node_baseIPNS_11__hash_nodeINS_17__hash_value_typeIciEEPvEEEEEEE7__allocB8ue170006Ev, symObjAddr: 0x8570, symBinAddr: 0x100009730, symSize: 0x20 }
  - { offsetInCU: 0x14998, offset: 0x14998, size: 0x8, addend: 0x0, symName: __ZNSt3__125__bucket_list_deallocatorINS_9allocatorIPNS_16__hash_node_baseIPNS_11__hash_nodeINS_17__hash_value_typeIciEEPvEEEEEEE4sizeB8ue170006Ev, symObjAddr: 0x8590, symBinAddr: 0x100009750, symSize: 0x20 }
  - { offsetInCU: 0x149BE, offset: 0x149BE, size: 0x8, addend: 0x0, symName: __ZNSt3__19allocatorIPNS_16__hash_node_baseIPNS_11__hash_nodeINS_17__hash_value_typeIciEEPvEEEEE10deallocateB8ue170006EPS9_m, symObjAddr: 0x85B0, symBinAddr: 0x100009770, symSize: 0x40 }
  - { offsetInCU: 0x14A00, offset: 0x14A00, size: 0x8, addend: 0x0, symName: __ZNSt3__117__compressed_pairImNS_9allocatorIPNS_16__hash_node_baseIPNS_11__hash_nodeINS_17__hash_value_typeIciEEPvEEEEEEE6secondB8ue170006Ev, symObjAddr: 0x85F0, symBinAddr: 0x1000097B0, symSize: 0x20 }
  - { offsetInCU: 0x14A26, offset: 0x14A26, size: 0x8, addend: 0x0, symName: __ZNSt3__122__compressed_pair_elemINS_9allocatorIPNS_16__hash_node_baseIPNS_11__hash_nodeINS_17__hash_value_typeIciEEPvEEEEEELi1ELb1EE5__getB8ue170006Ev, symObjAddr: 0x8610, symBinAddr: 0x1000097D0, symSize: 0x10 }
  - { offsetInCU: 0x14A4C, offset: 0x14A4C, size: 0x8, addend: 0x0, symName: __ZNSt3__117__compressed_pairImNS_9allocatorIPNS_16__hash_node_baseIPNS_11__hash_nodeINS_17__hash_value_typeIciEEPvEEEEEEE5firstB8ue170006Ev, symObjAddr: 0x8620, symBinAddr: 0x1000097E0, symSize: 0x20 }
  - { offsetInCU: 0x14A72, offset: 0x14A72, size: 0x8, addend: 0x0, symName: __ZNSt3__122__compressed_pair_elemImLi0ELb0EE5__getB8ue170006Ev, symObjAddr: 0x8640, symBinAddr: 0x100009800, symSize: 0x10 }
  - { offsetInCU: 0x14AAF, offset: 0x14AAF, size: 0x8, addend: 0x0, symName: __ZNSt3__112__hash_tableINS_17__hash_value_typeIciEENS_22__unordered_map_hasherIcS2_NS_4hashIcEENS_8equal_toIcEELb1EEENS_21__unordered_map_equalIcS2_S7_S5_Lb1EEENS_9allocatorIS2_EEE25__emplace_unique_key_argsIcJRKNS_21piecewise_construct_tENS_5tupleIJRKcEEENSI_IJEEEEEENS_4pairINS_15__hash_iteratorIPNS_11__hash_nodeIS2_PvEEEEbEERKT_DpOT0_, symObjAddr: 0x8650, symBinAddr: 0x100009810, symSize: 0x660 }
  - { offsetInCU: 0x14BB7, offset: 0x14BB7, size: 0x8, addend: 0x0, symName: __ZNKSt3__115__hash_iteratorIPNS_11__hash_nodeINS_17__hash_value_typeIciEEPvEEEptB8ue170006Ev, symObjAddr: 0x8CF0, symBinAddr: 0x100009EB0, symSize: 0x30 }
  - { offsetInCU: 0x14BDD, offset: 0x14BDD, size: 0x8, addend: 0x0, symName: __ZNSt3__112__hash_tableINS_17__hash_value_typeIciEENS_22__unordered_map_hasherIcS2_NS_4hashIcEENS_8equal_toIcEELb1EEENS_21__unordered_map_equalIcS2_S7_S5_Lb1EEENS_9allocatorIS2_EEE13hash_functionB8ue170006Ev, symObjAddr: 0x8D20, symBinAddr: 0x100009EE0, symSize: 0x20 }
  - { offsetInCU: 0x14C03, offset: 0x14C03, size: 0x8, addend: 0x0, symName: __ZNKSt3__122__unordered_map_hasherIcNS_17__hash_value_typeIciEENS_4hashIcEENS_8equal_toIcEELb1EEclB8ue170006ERKc, symObjAddr: 0x8D40, symBinAddr: 0x100009F00, symSize: 0x30 }
  - { offsetInCU: 0x14C38, offset: 0x14C38, size: 0x8, addend: 0x0, symName: __ZNKSt3__112__hash_tableINS_17__hash_value_typeIciEENS_22__unordered_map_hasherIcS2_NS_4hashIcEENS_8equal_toIcEELb1EEENS_21__unordered_map_equalIcS2_S7_S5_Lb1EEENS_9allocatorIS2_EEE12bucket_countB8ue170006Ev, symObjAddr: 0x8D70, symBinAddr: 0x100009F30, symSize: 0x30 }
  - { offsetInCU: 0x14C5E, offset: 0x14C5E, size: 0x8, addend: 0x0, symName: __ZNKSt3__110unique_ptrIA_PNS_16__hash_node_baseIPNS_11__hash_nodeINS_17__hash_value_typeIciEEPvEEEENS_25__bucket_list_deallocatorINS_9allocatorIS9_EEEEEixB8ue170006Em, symObjAddr: 0x8E20, symBinAddr: 0x100009FE0, symSize: 0x30 }
  - { offsetInCU: 0x14C93, offset: 0x14C93, size: 0x8, addend: 0x0, symName: __ZNKSt3__116__hash_node_baseIPNS_11__hash_nodeINS_17__hash_value_typeIciEEPvEEE6__hashB8ue170006Ev, symObjAddr: 0x8E50, symBinAddr: 0x10000A010, symSize: 0x20 }
  - { offsetInCU: 0x14CB9, offset: 0x14CB9, size: 0x8, addend: 0x0, symName: __ZNSt3__112__hash_tableINS_17__hash_value_typeIciEENS_22__unordered_map_hasherIcS2_NS_4hashIcEENS_8equal_toIcEELb1EEENS_21__unordered_map_equalIcS2_S7_S5_Lb1EEENS_9allocatorIS2_EEE6key_eqB8ue170006Ev, symObjAddr: 0x8E70, symBinAddr: 0x10000A030, symSize: 0x20 }
  - { offsetInCU: 0x14CDF, offset: 0x14CDF, size: 0x8, addend: 0x0, symName: __ZNKSt3__121__unordered_map_equalIcNS_17__hash_value_typeIciEENS_8equal_toIcEENS_4hashIcEELb1EEclB8ue170006ERKS2_RKc, symObjAddr: 0x8E90, symBinAddr: 0x10000A050, symSize: 0x40 }
  - { offsetInCU: 0x14D23, offset: 0x14D23, size: 0x8, addend: 0x0, symName: __ZNSt3__112__hash_tableINS_17__hash_value_typeIciEENS_22__unordered_map_hasherIcS2_NS_4hashIcEENS_8equal_toIcEELb1EEENS_21__unordered_map_equalIcS2_S7_S5_Lb1EEENS_9allocatorIS2_EEE21__construct_node_hashIRKNS_21piecewise_construct_tEJNS_5tupleIJRKcEEENSI_IJEEEEEENS_10unique_ptrINS_11__hash_nodeIS2_PvEENS_22__hash_node_destructorINSB_ISQ_EEEEEEmOT_DpOT0_, symObjAddr: 0x8ED0, symBinAddr: 0x10000A090, symSize: 0x150 }
  - { offsetInCU: 0x14DBF, offset: 0x14DBF, size: 0x8, addend: 0x0, symName: __ZNSt3__112__hash_tableINS_17__hash_value_typeIciEENS_22__unordered_map_hasherIcS2_NS_4hashIcEENS_8equal_toIcEELb1EEENS_21__unordered_map_equalIcS2_S7_S5_Lb1EEENS_9allocatorIS2_EEE4sizeB8ue170006Ev, symObjAddr: 0x9020, symBinAddr: 0x10000A1E0, symSize: 0x20 }
  - { offsetInCU: 0x14DE5, offset: 0x14DE5, size: 0x8, addend: 0x0, symName: __ZNSt3__112__hash_tableINS_17__hash_value_typeIciEENS_22__unordered_map_hasherIcS2_NS_4hashIcEENS_8equal_toIcEELb1EEENS_21__unordered_map_equalIcS2_S7_S5_Lb1EEENS_9allocatorIS2_EEE15max_load_factorB8ue170006Ev, symObjAddr: 0x9040, symBinAddr: 0x10000A200, symSize: 0x20 }
  - { offsetInCU: 0x14E0B, offset: 0x14E0B, size: 0x8, addend: 0x0, symName: __ZNSt3__112__hash_tableINS_17__hash_value_typeIciEENS_22__unordered_map_hasherIcS2_NS_4hashIcEENS_8equal_toIcEELb1EEENS_21__unordered_map_equalIcS2_S7_S5_Lb1EEENS_9allocatorIS2_EEE15__rehash_uniqueB8ue170006Em, symObjAddr: 0x9060, symBinAddr: 0x10000A220, symSize: 0x30 }
  - { offsetInCU: 0x14E3F, offset: 0x14E3F, size: 0x8, addend: 0x0, symName: __Z4ceilB8ue170006f, symObjAddr: 0x90D0, symBinAddr: 0x10000A290, symSize: 0x20 }
  - { offsetInCU: 0x14E6E, offset: 0x14E6E, size: 0x8, addend: 0x0, symName: __ZNSt3__116__hash_node_baseIPNS_11__hash_nodeINS_17__hash_value_typeIciEEPvEEE5__ptrB8ue170006Ev, symObjAddr: 0x90F0, symBinAddr: 0x10000A2B0, symSize: 0x20 }
  - { offsetInCU: 0x14E94, offset: 0x14E94, size: 0x8, addend: 0x0, symName: __ZNKSt3__110unique_ptrINS_11__hash_nodeINS_17__hash_value_typeIciEEPvEENS_22__hash_node_destructorINS_9allocatorIS5_EEEEEptB8ue170006Ev, symObjAddr: 0x9110, symBinAddr: 0x10000A2D0, symSize: 0x20 }
  - { offsetInCU: 0x14EBA, offset: 0x14EBA, size: 0x8, addend: 0x0, symName: __ZNKSt3__110unique_ptrINS_11__hash_nodeINS_17__hash_value_typeIciEEPvEENS_22__hash_node_destructorINS_9allocatorIS5_EEEEE3getB8ue170006Ev, symObjAddr: 0x9130, symBinAddr: 0x10000A2F0, symSize: 0x20 }
  - { offsetInCU: 0x14EE0, offset: 0x14EE0, size: 0x8, addend: 0x0, symName: __ZNSt3__110unique_ptrINS_11__hash_nodeINS_17__hash_value_typeIciEEPvEENS_22__hash_node_destructorINS_9allocatorIS5_EEEEE7releaseB8ue170006Ev, symObjAddr: 0x9150, symBinAddr: 0x10000A310, symSize: 0x40 }
  - { offsetInCU: 0x14F15, offset: 0x14F15, size: 0x8, addend: 0x0, symName: __ZNSt3__110unique_ptrINS_11__hash_nodeINS_17__hash_value_typeIciEEPvEENS_22__hash_node_destructorINS_9allocatorIS5_EEEEED1B8ue170006Ev, symObjAddr: 0x9190, symBinAddr: 0x10000A350, symSize: 0x20 }
  - { offsetInCU: 0x14F3F, offset: 0x14F3F, size: 0x8, addend: 0x0, symName: __ZNSt3__115__hash_iteratorIPNS_11__hash_nodeINS_17__hash_value_typeIciEEPvEEEC1B8ue170006EPNS_16__hash_node_baseIS6_EE, symObjAddr: 0x91B0, symBinAddr: 0x10000A370, symSize: 0x30 }
  - { offsetInCU: 0x14F7E, offset: 0x14F7E, size: 0x8, addend: 0x0, symName: __ZNSt3__14pairINS_15__hash_iteratorIPNS_11__hash_nodeINS_17__hash_value_typeIciEEPvEEEEbEC1B8ue170006IS8_RbLS5_0EEEOT_OT0_, symObjAddr: 0x91E0, symBinAddr: 0x10000A3A0, symSize: 0x30 }
  - { offsetInCU: 0x14FDC, offset: 0x14FDC, size: 0x8, addend: 0x0, symName: __ZNSt3__117__compressed_pairImNS_22__unordered_map_hasherIcNS_17__hash_value_typeIciEENS_4hashIcEENS_8equal_toIcEELb1EEEE6secondB8ue170006Ev, symObjAddr: 0x9210, symBinAddr: 0x10000A3D0, symSize: 0x20 }
  - { offsetInCU: 0x15002, offset: 0x15002, size: 0x8, addend: 0x0, symName: __ZNSt3__122__compressed_pair_elemINS_22__unordered_map_hasherIcNS_17__hash_value_typeIciEENS_4hashIcEENS_8equal_toIcEELb1EEELi1ELb1EE5__getB8ue170006Ev, symObjAddr: 0x9230, symBinAddr: 0x10000A3F0, symSize: 0x10 }
  - { offsetInCU: 0x15028, offset: 0x15028, size: 0x8, addend: 0x0, symName: __ZNKSt3__14hashIcEclB8ue170006Ec, symObjAddr: 0x9240, symBinAddr: 0x10000A400, symSize: 0x20 }
  - { offsetInCU: 0x1505D, offset: 0x1505D, size: 0x8, addend: 0x0, symName: __ZNKSt3__110unique_ptrIA_PNS_16__hash_node_baseIPNS_11__hash_nodeINS_17__hash_value_typeIciEEPvEEEENS_25__bucket_list_deallocatorINS_9allocatorIS9_EEEEE11get_deleterB8ue170006Ev, symObjAddr: 0x9260, symBinAddr: 0x10000A420, symSize: 0x20 }
  - { offsetInCU: 0x15083, offset: 0x15083, size: 0x8, addend: 0x0, symName: __ZNKSt3__125__bucket_list_deallocatorINS_9allocatorIPNS_16__hash_node_baseIPNS_11__hash_nodeINS_17__hash_value_typeIciEEPvEEEEEEE4sizeB8ue170006Ev, symObjAddr: 0x9280, symBinAddr: 0x10000A440, symSize: 0x20 }
  - { offsetInCU: 0x150A9, offset: 0x150A9, size: 0x8, addend: 0x0, symName: __ZNKSt3__117__compressed_pairIPPNS_16__hash_node_baseIPNS_11__hash_nodeINS_17__hash_value_typeIciEEPvEEEENS_25__bucket_list_deallocatorINS_9allocatorIS9_EEEEE6secondB8ue170006Ev, symObjAddr: 0x92A0, symBinAddr: 0x10000A460, symSize: 0x20 }
  - { offsetInCU: 0x150CF, offset: 0x150CF, size: 0x8, addend: 0x0, symName: __ZNKSt3__122__compressed_pair_elemINS_25__bucket_list_deallocatorINS_9allocatorIPNS_16__hash_node_baseIPNS_11__hash_nodeINS_17__hash_value_typeIciEEPvEEEEEEEELi1ELb0EE5__getB8ue170006Ev, symObjAddr: 0x92C0, symBinAddr: 0x10000A480, symSize: 0x10 }
  - { offsetInCU: 0x150F5, offset: 0x150F5, size: 0x8, addend: 0x0, symName: __ZNKSt3__117__compressed_pairImNS_9allocatorIPNS_16__hash_node_baseIPNS_11__hash_nodeINS_17__hash_value_typeIciEEPvEEEEEEE5firstB8ue170006Ev, symObjAddr: 0x92D0, symBinAddr: 0x10000A490, symSize: 0x20 }
  - { offsetInCU: 0x1511B, offset: 0x1511B, size: 0x8, addend: 0x0, symName: __ZNKSt3__122__compressed_pair_elemImLi0ELb0EE5__getB8ue170006Ev, symObjAddr: 0x92F0, symBinAddr: 0x10000A4B0, symSize: 0x10 }
  - { offsetInCU: 0x15141, offset: 0x15141, size: 0x8, addend: 0x0, symName: __ZNKSt3__117__compressed_pairIPPNS_16__hash_node_baseIPNS_11__hash_nodeINS_17__hash_value_typeIciEEPvEEEENS_25__bucket_list_deallocatorINS_9allocatorIS9_EEEEE5firstB8ue170006Ev, symObjAddr: 0x9300, symBinAddr: 0x10000A4C0, symSize: 0x20 }
  - { offsetInCU: 0x15167, offset: 0x15167, size: 0x8, addend: 0x0, symName: __ZNKSt3__122__compressed_pair_elemIPPNS_16__hash_node_baseIPNS_11__hash_nodeINS_17__hash_value_typeIciEEPvEEEELi0ELb0EE5__getB8ue170006Ev, symObjAddr: 0x9320, symBinAddr: 0x10000A4E0, symSize: 0x10 }
  - { offsetInCU: 0x1518D, offset: 0x1518D, size: 0x8, addend: 0x0, symName: __ZNSt3__117__compressed_pairIfNS_21__unordered_map_equalIcNS_17__hash_value_typeIciEENS_8equal_toIcEENS_4hashIcEELb1EEEE6secondB8ue170006Ev, symObjAddr: 0x9330, symBinAddr: 0x10000A4F0, symSize: 0x20 }
  - { offsetInCU: 0x151B3, offset: 0x151B3, size: 0x8, addend: 0x0, symName: __ZNSt3__122__compressed_pair_elemINS_21__unordered_map_equalIcNS_17__hash_value_typeIciEENS_8equal_toIcEENS_4hashIcEELb1EEELi1ELb1EE5__getB8ue170006Ev, symObjAddr: 0x9350, symBinAddr: 0x10000A510, symSize: 0x10 }
  - { offsetInCU: 0x151D9, offset: 0x151D9, size: 0x8, addend: 0x0, symName: __ZNKSt3__18equal_toIcEclB8ue170006ERKcS3_, symObjAddr: 0x9360, symBinAddr: 0x10000A520, symSize: 0x30 }
  - { offsetInCU: 0x1521D, offset: 0x1521D, size: 0x8, addend: 0x0, symName: __ZNKSt3__117__hash_value_typeIciE11__get_valueB8ue170006Ev, symObjAddr: 0x9390, symBinAddr: 0x10000A550, symSize: 0x20 }
  - { offsetInCU: 0x15243, offset: 0x15243, size: 0x8, addend: 0x0, symName: __ZNSt3__116allocator_traitsINS_9allocatorINS_11__hash_nodeINS_17__hash_value_typeIciEEPvEEEEE8allocateB8ue170006ERS7_m, symObjAddr: 0x93E0, symBinAddr: 0x10000A5A0, symSize: 0x30 }
  - { offsetInCU: 0x15276, offset: 0x15276, size: 0x8, addend: 0x0, symName: __ZNSt3__122__hash_node_destructorINS_9allocatorINS_11__hash_nodeINS_17__hash_value_typeIciEEPvEEEEEC1B8ue170006ERS7_b, symObjAddr: 0x9410, symBinAddr: 0x10000A5D0, symSize: 0x40 }
  - { offsetInCU: 0x152C4, offset: 0x152C4, size: 0x8, addend: 0x0, symName: __ZNSt3__110unique_ptrINS_11__hash_nodeINS_17__hash_value_typeIciEEPvEENS_22__hash_node_destructorINS_9allocatorIS5_EEEEEC1B8ue170006ILb1EvEEPS5_NS_16__dependent_typeINS_27__unique_ptr_deleter_sfinaeIS9_EEXT_EE20__good_rval_ref_typeE, symObjAddr: 0x9450, symBinAddr: 0x10000A610, symSize: 0x30 }
  - { offsetInCU: 0x15315, offset: 0x15315, size: 0x8, addend: 0x0, symName: __ZNSt3__116allocator_traitsINS_9allocatorINS_11__hash_nodeINS_17__hash_value_typeIciEEPvEEEEE9constructB8ue170006INS_4pairIKciEEJRKNS_21piecewise_construct_tENS_5tupleIJRSB_EEENSG_IJEEEEvvEEvRS7_PT_DpOT0_, symObjAddr: 0x9480, symBinAddr: 0x10000A640, symSize: 0x40 }
  - { offsetInCU: 0x15391, offset: 0x15391, size: 0x8, addend: 0x0, symName: __ZNSt3__110unique_ptrINS_11__hash_nodeINS_17__hash_value_typeIciEEPvEENS_22__hash_node_destructorINS_9allocatorIS5_EEEEE11get_deleterB8ue170006Ev, symObjAddr: 0x94C0, symBinAddr: 0x10000A680, symSize: 0x20 }
  - { offsetInCU: 0x153B7, offset: 0x153B7, size: 0x8, addend: 0x0, symName: __ZNSt3__19allocatorINS_11__hash_nodeINS_17__hash_value_typeIciEEPvEEE8allocateB8ue170006Em, symObjAddr: 0x94E0, symBinAddr: 0x10000A6A0, symSize: 0x50 }
  - { offsetInCU: 0x153F6, offset: 0x153F6, size: 0x8, addend: 0x0, symName: __ZNSt3__116allocator_traitsINS_9allocatorINS_11__hash_nodeINS_17__hash_value_typeIciEEPvEEEEE8max_sizeB8ue170006IS7_vvEEmRKS7_, symObjAddr: 0x9530, symBinAddr: 0x10000A6F0, symSize: 0x30 }
  - { offsetInCU: 0x15421, offset: 0x15421, size: 0x8, addend: 0x0, symName: __ZNSt3__122__hash_node_destructorINS_9allocatorINS_11__hash_nodeINS_17__hash_value_typeIciEEPvEEEEEC2B8ue170006ERS7_b, symObjAddr: 0x9560, symBinAddr: 0x10000A720, symSize: 0x30 }
  - { offsetInCU: 0x15469, offset: 0x15469, size: 0x8, addend: 0x0, symName: __ZNSt3__110unique_ptrINS_11__hash_nodeINS_17__hash_value_typeIciEEPvEENS_22__hash_node_destructorINS_9allocatorIS5_EEEEEC2B8ue170006ILb1EvEEPS5_NS_16__dependent_typeINS_27__unique_ptr_deleter_sfinaeIS9_EEXT_EE20__good_rval_ref_typeE, symObjAddr: 0x9590, symBinAddr: 0x10000A750, symSize: 0x40 }
  - { offsetInCU: 0x154BA, offset: 0x154BA, size: 0x8, addend: 0x0, symName: __ZNSt3__117__compressed_pairIPNS_11__hash_nodeINS_17__hash_value_typeIciEEPvEENS_22__hash_node_destructorINS_9allocatorIS5_EEEEEC1B8ue170006IRS6_SA_EEOT_OT0_, symObjAddr: 0x95D0, symBinAddr: 0x10000A790, symSize: 0x30 }
  - { offsetInCU: 0x15512, offset: 0x15512, size: 0x8, addend: 0x0, symName: __ZNSt3__117__compressed_pairIPNS_11__hash_nodeINS_17__hash_value_typeIciEEPvEENS_22__hash_node_destructorINS_9allocatorIS5_EEEEEC2B8ue170006IRS6_SA_EEOT_OT0_, symObjAddr: 0x9600, symBinAddr: 0x10000A7C0, symSize: 0x40 }
  - { offsetInCU: 0x1556A, offset: 0x1556A, size: 0x8, addend: 0x0, symName: __ZNSt3__122__compressed_pair_elemIPNS_11__hash_nodeINS_17__hash_value_typeIciEEPvEELi0ELb0EEC2B8ue170006IRS6_vEEOT_, symObjAddr: 0x9640, symBinAddr: 0x10000A800, symSize: 0x20 }
  - { offsetInCU: 0x155AC, offset: 0x155AC, size: 0x8, addend: 0x0, symName: __ZNSt3__122__compressed_pair_elemINS_22__hash_node_destructorINS_9allocatorINS_11__hash_nodeINS_17__hash_value_typeIciEEPvEEEEEELi1ELb0EEC2B8ue170006IS9_vEEOT_, symObjAddr: 0x9660, symBinAddr: 0x10000A820, symSize: 0x30 }
  - { offsetInCU: 0x155EE, offset: 0x155EE, size: 0x8, addend: 0x0, symName: __ZNSt3__14pairIKciEC1B8ue170006IJRS1_EJEEENS_21piecewise_construct_tENS_5tupleIJDpT_EEENS6_IJDpT0_EEE, symObjAddr: 0x96E0, symBinAddr: 0x10000A8A0, symSize: 0x40 }
  - { offsetInCU: 0x15655, offset: 0x15655, size: 0x8, addend: 0x0, symName: __ZNSt3__14pairIKciEC1B8ue170006IJRS1_EJEJLm0EEJEEENS_21piecewise_construct_tERNS_5tupleIJDpT_EEERNS6_IJDpT0_EEENS_15__tuple_indicesIJXspT1_EEEENSF_IJXspT2_EEEE, symObjAddr: 0x9720, symBinAddr: 0x10000A8E0, symSize: 0x30 }
  - { offsetInCU: 0x156E2, offset: 0x156E2, size: 0x8, addend: 0x0, symName: __ZNSt3__14pairIKciEC2B8ue170006IJRS1_EJEJLm0EEJEEENS_21piecewise_construct_tERNS_5tupleIJDpT_EEERNS6_IJDpT0_EEENS_15__tuple_indicesIJXspT1_EEEENSF_IJXspT2_EEEE, symObjAddr: 0x9750, symBinAddr: 0x10000A910, symSize: 0x40 }
  - { offsetInCU: 0x1576F, offset: 0x1576F, size: 0x8, addend: 0x0, symName: __ZNSt3__112__tuple_leafILm0ERKcLb0EE3getB8ue170006Ev, symObjAddr: 0x97B0, symBinAddr: 0x10000A970, symSize: 0x20 }
  - { offsetInCU: 0x15795, offset: 0x15795, size: 0x8, addend: 0x0, symName: __ZNSt3__117__compressed_pairIPNS_11__hash_nodeINS_17__hash_value_typeIciEEPvEENS_22__hash_node_destructorINS_9allocatorIS5_EEEEE6secondB8ue170006Ev, symObjAddr: 0x97D0, symBinAddr: 0x10000A990, symSize: 0x20 }
  - { offsetInCU: 0x157BB, offset: 0x157BB, size: 0x8, addend: 0x0, symName: __ZNSt3__122__compressed_pair_elemINS_22__hash_node_destructorINS_9allocatorINS_11__hash_nodeINS_17__hash_value_typeIciEEPvEEEEEELi1ELb0EE5__getB8ue170006Ev, symObjAddr: 0x97F0, symBinAddr: 0x10000A9B0, symSize: 0x10 }
  - { offsetInCU: 0x157E1, offset: 0x157E1, size: 0x8, addend: 0x0, symName: __ZNSt3__117__compressed_pairImNS_22__unordered_map_hasherIcNS_17__hash_value_typeIciEENS_4hashIcEENS_8equal_toIcEELb1EEEE5firstB8ue170006Ev, symObjAddr: 0x9800, symBinAddr: 0x10000A9C0, symSize: 0x20 }
  - { offsetInCU: 0x15807, offset: 0x15807, size: 0x8, addend: 0x0, symName: __ZNSt3__117__compressed_pairIfNS_21__unordered_map_equalIcNS_17__hash_value_typeIciEENS_8equal_toIcEENS_4hashIcEELb1EEEE5firstB8ue170006Ev, symObjAddr: 0x9820, symBinAddr: 0x10000A9E0, symSize: 0x20 }
  - { offsetInCU: 0x1582D, offset: 0x1582D, size: 0x8, addend: 0x0, symName: __ZNSt3__122__compressed_pair_elemIfLi0ELb0EE5__getB8ue170006Ev, symObjAddr: 0x9840, symBinAddr: 0x10000AA00, symSize: 0x10 }
  - { offsetInCU: 0x15853, offset: 0x15853, size: 0x8, addend: 0x0, symName: __ZNSt3__112__hash_tableINS_17__hash_value_typeIciEENS_22__unordered_map_hasherIcS2_NS_4hashIcEENS_8equal_toIcEELb1EEENS_21__unordered_map_equalIcS2_S7_S5_Lb1EEENS_9allocatorIS2_EEE8__rehashILb1EEEvm, symObjAddr: 0x9850, symBinAddr: 0x10000AA10, symSize: 0x230 }
  - { offsetInCU: 0x158A3, offset: 0x158A3, size: 0x8, addend: 0x0, symName: __ZNSt3__112__hash_tableINS_17__hash_value_typeIciEENS_22__unordered_map_hasherIcS2_NS_4hashIcEENS_8equal_toIcEELb1EEENS_21__unordered_map_equalIcS2_S7_S5_Lb1EEENS_9allocatorIS2_EEE11__do_rehashILb1EEEvm, symObjAddr: 0x9A80, symBinAddr: 0x10000AC40, symSize: 0x250 }
  - { offsetInCU: 0x15986, offset: 0x15986, size: 0x8, addend: 0x0, symName: __ZNSt3__110unique_ptrIA_PNS_16__hash_node_baseIPNS_11__hash_nodeINS_17__hash_value_typeIciEEPvEEEENS_25__bucket_list_deallocatorINS_9allocatorIS9_EEEEE11get_deleterB8ue170006Ev, symObjAddr: 0x9D30, symBinAddr: 0x10000AEF0, symSize: 0x20 }
  - { offsetInCU: 0x159AC, offset: 0x159AC, size: 0x8, addend: 0x0, symName: __ZNSt3__110unique_ptrIA_PNS_16__hash_node_baseIPNS_11__hash_nodeINS_17__hash_value_typeIciEEPvEEEENS_25__bucket_list_deallocatorINS_9allocatorIS9_EEEEE5resetB8ue170006IPS9_EENS_9enable_ifIXsr28_CheckArrayPointerConversionIT_EE5valueEvE4typeESJ_, symObjAddr: 0x9D50, symBinAddr: 0x10000AF10, symSize: 0x70 }
  - { offsetInCU: 0x159F9, offset: 0x159F9, size: 0x8, addend: 0x0, symName: __ZNSt3__116allocator_traitsINS_9allocatorIPNS_16__hash_node_baseIPNS_11__hash_nodeINS_17__hash_value_typeIciEEPvEEEEEEE8allocateB8ue170006ERSB_m, symObjAddr: 0x9DC0, symBinAddr: 0x10000AF80, symSize: 0x30 }
  - { offsetInCU: 0x15A2C, offset: 0x15A2C, size: 0x8, addend: 0x0, symName: __ZNSt3__19allocatorIPNS_16__hash_node_baseIPNS_11__hash_nodeINS_17__hash_value_typeIciEEPvEEEEE8allocateB8ue170006Em, symObjAddr: 0x9DF0, symBinAddr: 0x10000AFB0, symSize: 0x50 }
  - { offsetInCU: 0x15A6B, offset: 0x15A6B, size: 0x8, addend: 0x0, symName: __ZNSt3__116allocator_traitsINS_9allocatorIPNS_16__hash_node_baseIPNS_11__hash_nodeINS_17__hash_value_typeIciEEPvEEEEEEE8max_sizeB8ue170006ISB_vvEEmRKSB_, symObjAddr: 0x9E40, symBinAddr: 0x10000B000, symSize: 0x20 }
  - { offsetInCU: 0x15A96, offset: 0x15A96, size: 0x8, addend: 0x0, symName: __ZNKSt3__117__compressed_pairIPNS_11__hash_nodeINS_17__hash_value_typeIciEEPvEENS_22__hash_node_destructorINS_9allocatorIS5_EEEEE5firstB8ue170006Ev, symObjAddr: 0x9E60, symBinAddr: 0x10000B020, symSize: 0x20 }
  - { offsetInCU: 0x15ABC, offset: 0x15ABC, size: 0x8, addend: 0x0, symName: __ZNKSt3__122__compressed_pair_elemIPNS_11__hash_nodeINS_17__hash_value_typeIciEEPvEELi0ELb0EE5__getB8ue170006Ev, symObjAddr: 0x9E80, symBinAddr: 0x10000B040, symSize: 0x10 }
  - { offsetInCU: 0x15AE2, offset: 0x15AE2, size: 0x8, addend: 0x0, symName: __ZNSt3__117__compressed_pairIPNS_11__hash_nodeINS_17__hash_value_typeIciEEPvEENS_22__hash_node_destructorINS_9allocatorIS5_EEEEE5firstB8ue170006Ev, symObjAddr: 0x9E90, symBinAddr: 0x10000B050, symSize: 0x20 }
  - { offsetInCU: 0x15B08, offset: 0x15B08, size: 0x8, addend: 0x0, symName: __ZNSt3__122__compressed_pair_elemIPNS_11__hash_nodeINS_17__hash_value_typeIciEEPvEELi0ELb0EE5__getB8ue170006Ev, symObjAddr: 0x9EB0, symBinAddr: 0x10000B070, symSize: 0x10 }
  - { offsetInCU: 0x15B2E, offset: 0x15B2E, size: 0x8, addend: 0x0, symName: __ZNSt3__110unique_ptrINS_11__hash_nodeINS_17__hash_value_typeIciEEPvEENS_22__hash_node_destructorINS_9allocatorIS5_EEEEED2B8ue170006Ev, symObjAddr: 0x9EC0, symBinAddr: 0x10000B080, symSize: 0x20 }
  - { offsetInCU: 0x15B58, offset: 0x15B58, size: 0x8, addend: 0x0, symName: __ZNSt3__110unique_ptrINS_11__hash_nodeINS_17__hash_value_typeIciEEPvEENS_22__hash_node_destructorINS_9allocatorIS5_EEEEE5resetB8ue170006EPS5_, symObjAddr: 0x9EE0, symBinAddr: 0x10000B0A0, symSize: 0x70 }
  - { offsetInCU: 0x15B9C, offset: 0x15B9C, size: 0x8, addend: 0x0, symName: __ZNSt3__122__hash_node_destructorINS_9allocatorINS_11__hash_nodeINS_17__hash_value_typeIciEEPvEEEEEclB8ue170006EPS6_, symObjAddr: 0x9F50, symBinAddr: 0x10000B110, symSize: 0x90 }
  - { offsetInCU: 0x15BD1, offset: 0x15BD1, size: 0x8, addend: 0x0, symName: __ZNSt3__115__hash_iteratorIPNS_11__hash_nodeINS_17__hash_value_typeIciEEPvEEEC2B8ue170006EPNS_16__hash_node_baseIS6_EE, symObjAddr: 0x9FE0, symBinAddr: 0x10000B1A0, symSize: 0x20 }
  - { offsetInCU: 0x15C0A, offset: 0x15C0A, size: 0x8, addend: 0x0, symName: __ZNSt3__14pairINS_15__hash_iteratorIPNS_11__hash_nodeINS_17__hash_value_typeIciEEPvEEEEbEC2B8ue170006IS8_RbLS5_0EEEOT_OT0_, symObjAddr: 0xA000, symBinAddr: 0x10000B1C0, symSize: 0x30 }
  - { offsetInCU: 0x15C68, offset: 0x15C68, size: 0x8, addend: 0x0, symName: __ZNSt3__15tupleIJRKcEEC1B8ue170006INS_4_AndELi0EEES2_, symObjAddr: 0xA030, symBinAddr: 0x10000B1F0, symSize: 0x30 }
  - { offsetInCU: 0x15CB0, offset: 0x15CB0, size: 0x8, addend: 0x0, symName: __ZNSt3__15tupleIJRKcEEC2B8ue170006INS_4_AndELi0EEES2_, symObjAddr: 0xA060, symBinAddr: 0x10000B220, symSize: 0x30 }
  - { offsetInCU: 0x15CF8, offset: 0x15CF8, size: 0x8, addend: 0x0, symName: __ZNSt3__112__tuple_implINS_15__tuple_indicesIJLm0EEEEJRKcEEC1B8ue170006IJLm0EEJS4_EJEJEJS4_EEENS1_IJXspT_EEEENS_13__tuple_typesIJDpT0_EEENS1_IJXspT1_EEEENS8_IJDpT2_EEEDpOT3_, symObjAddr: 0xA090, symBinAddr: 0x10000B250, symSize: 0x30 }
  - { offsetInCU: 0x15D89, offset: 0x15D89, size: 0x8, addend: 0x0, symName: __ZNSt3__112__tuple_implINS_15__tuple_indicesIJLm0EEEEJRKcEEC2B8ue170006IJLm0EEJS4_EJEJEJS4_EEENS1_IJXspT_EEEENS_13__tuple_typesIJDpT0_EEENS1_IJXspT1_EEEENS8_IJDpT2_EEEDpOT3_, symObjAddr: 0xA0C0, symBinAddr: 0x10000B280, symSize: 0x30 }
  - { offsetInCU: 0x15E1A, offset: 0x15E1A, size: 0x8, addend: 0x0, symName: __ZNSt3__112__tuple_leafILm0ERKcLb0EEC2B8ue170006IS2_vEEOT_, symObjAddr: 0xA0F0, symBinAddr: 0x10000B2B0, symSize: 0x20 }
  - { offsetInCU: 0x15E5D, offset: 0x15E5D, size: 0x8, addend: 0x0, symName: __ZNSt3__114pointer_traitsIPNS_17__hash_value_typeIciEEE10pointer_toB8ue170006ERS2_, symObjAddr: 0xA110, symBinAddr: 0x10000B2D0, symSize: 0x10 }
  - { offsetInCU: 0x15E80, offset: 0x15E80, size: 0x8, addend: 0x0, symName: __ZNSt3__112__hash_tableINS_17__hash_value_typeIciEENS_22__unordered_map_hasherIcS2_NS_4hashIcEENS_8equal_toIcEELb1EEENS_21__unordered_map_equalIcS2_S7_S5_Lb1EEENS_9allocatorIS2_EEE5beginEv, symObjAddr: 0xA120, symBinAddr: 0x10000B2E0, symSize: 0x30 }
  - { offsetInCU: 0x15EA8, offset: 0x15EA8, size: 0x8, addend: 0x0, symName: __ZNSt3__119__hash_map_iteratorINS_15__hash_iteratorIPNS_11__hash_nodeINS_17__hash_value_typeIciEEPvEEEEEC1B8ue170006ES8_, symObjAddr: 0xA150, symBinAddr: 0x10000B310, symSize: 0x30 }
  - { offsetInCU: 0x15EE1, offset: 0x15EE1, size: 0x8, addend: 0x0, symName: __ZNSt3__119__hash_map_iteratorINS_15__hash_iteratorIPNS_11__hash_nodeINS_17__hash_value_typeIciEEPvEEEEEC2B8ue170006ES8_, symObjAddr: 0xA180, symBinAddr: 0x10000B340, symSize: 0x20 }
  - { offsetInCU: 0x15F1A, offset: 0x15F1A, size: 0x8, addend: 0x0, symName: __ZNSt3__112__hash_tableINS_17__hash_value_typeIciEENS_22__unordered_map_hasherIcS2_NS_4hashIcEENS_8equal_toIcEELb1EEENS_21__unordered_map_equalIcS2_S7_S5_Lb1EEENS_9allocatorIS2_EEE3endEv, symObjAddr: 0xA1A0, symBinAddr: 0x10000B360, symSize: 0x30 }
  - { offsetInCU: 0x15F42, offset: 0x15F42, size: 0x8, addend: 0x0, symName: __ZNSt3__115__hash_iteratorIPNS_11__hash_nodeINS_17__hash_value_typeIciEEPvEEEppB8ue170006Ev, symObjAddr: 0xA200, symBinAddr: 0x10000B3C0, symSize: 0x20 }
  - { offsetInCU: 0x1600D, offset: 0x1600D, size: 0x8, addend: 0x0, symName: __ZNKSt3__113basic_istreamIcNS_11char_traitsIcEEE6sentrycvbB8ue170006Ev, symObjAddr: 0xA220, symBinAddr: 0x10000B3E0, symSize: 0x20 }
  - { offsetInCU: 0x16033, offset: 0x16033, size: 0x8, addend: 0x0, symName: __ZNSt3__112basic_stringIcNS_11char_traitsIcEENS_9allocatorIcEEE5clearB8ue170006Ev, symObjAddr: 0xA240, symBinAddr: 0x10000B400, symSize: 0x80 }
  - { offsetInCU: 0x1605B, offset: 0x1605B, size: 0x8, addend: 0x0, symName: __ZNKSt3__18ios_base5widthB8ue170006Ev, symObjAddr: 0xA2C0, symBinAddr: 0x10000B480, symSize: 0x20 }
  - { offsetInCU: 0x16083, offset: 0x16083, size: 0x8, addend: 0x0, symName: __ZNKSt3__112basic_stringIcNS_11char_traitsIcEENS_9allocatorIcEEE8max_sizeB8ue170006Ev, symObjAddr: 0xA2E0, symBinAddr: 0x10000B4A0, symSize: 0xA0 }
  - { offsetInCU: 0x160D5, offset: 0x160D5, size: 0x8, addend: 0x0, symName: __ZNKSt3__19basic_iosIcNS_11char_traitsIcEEE5rdbufB8ue170006Ev, symObjAddr: 0xA3B0, symBinAddr: 0x10000B570, symSize: 0x20 }
  - { offsetInCU: 0x160FD, offset: 0x160FD, size: 0x8, addend: 0x0, symName: __ZNSt3__115basic_streambufIcNS_11char_traitsIcEEE5sgetcB8ue170006Ev, symObjAddr: 0xA3D0, symBinAddr: 0x10000B590, symSize: 0x50 }
  - { offsetInCU: 0x16123, offset: 0x16123, size: 0x8, addend: 0x0, symName: __ZNSt3__111char_traitsIcE11eq_int_typeB8ue170006Eii, symObjAddr: 0xA420, symBinAddr: 0x10000B5E0, symSize: 0x20 }
  - { offsetInCU: 0x16156, offset: 0x16156, size: 0x8, addend: 0x0, symName: __ZNSt3__111char_traitsIcE3eofB8ue170006Ev, symObjAddr: 0xA440, symBinAddr: 0x10000B600, symSize: 0x10 }
  - { offsetInCU: 0x1616A, offset: 0x1616A, size: 0x8, addend: 0x0, symName: __ZNSt3__111char_traitsIcE12to_char_typeB8ue170006Ei, symObjAddr: 0xA450, symBinAddr: 0x10000B610, symSize: 0x10 }
  - { offsetInCU: 0x161BA, offset: 0x161BA, size: 0x8, addend: 0x0, symName: __ZNKSt3__15ctypeIcE2isB8ue170006Ejc, symObjAddr: 0xA460, symBinAddr: 0x10000B620, symSize: 0x70 }
  - { offsetInCU: 0x161FE, offset: 0x161FE, size: 0x8, addend: 0x0, symName: __ZNSt3__115basic_streambufIcNS_11char_traitsIcEEE6sbumpcB8ue170006Ev, symObjAddr: 0xA4D0, symBinAddr: 0x10000B690, symSize: 0x60 }
  - { offsetInCU: 0x16224, offset: 0x16224, size: 0x8, addend: 0x0, symName: __ZNSt3__18ios_base5widthB8ue170006El, symObjAddr: 0xA530, symBinAddr: 0x10000B6F0, symSize: 0x30 }
  - { offsetInCU: 0x1626A, offset: 0x1626A, size: 0x8, addend: 0x0, symName: __ZNSt3__18ios_base18__setstate_nothrowB8ue170006Ej, symObjAddr: 0xA560, symBinAddr: 0x10000B720, symSize: 0x50 }
  - { offsetInCU: 0x1629F, offset: 0x1629F, size: 0x8, addend: 0x0, symName: __ZNKSt3__19basic_iosIcNS_11char_traitsIcEEE10exceptionsB8ue170006Ev, symObjAddr: 0xA5B0, symBinAddr: 0x10000B770, symSize: 0x20 }
  - { offsetInCU: 0x162C5, offset: 0x162C5, size: 0x8, addend: 0x0, symName: __ZNSt3__19basic_iosIcNS_11char_traitsIcEEE8setstateB8ue170006Ej, symObjAddr: 0xA5D0, symBinAddr: 0x10000B790, symSize: 0x30 }
  - { offsetInCU: 0x162FA, offset: 0x162FA, size: 0x8, addend: 0x0, symName: __ZNSt3__111char_traitsIcE6assignB8ue170006ERcRKc, symObjAddr: 0xA600, symBinAddr: 0x10000B7C0, symSize: 0x20 }
  - { offsetInCU: 0x1632B, offset: 0x1632B, size: 0x8, addend: 0x0, symName: __ZNSt3__112basic_stringIcNS_11char_traitsIcEENS_9allocatorIcEEE15__set_long_sizeB8ue170006Em, symObjAddr: 0xA620, symBinAddr: 0x10000B7E0, symSize: 0x30 }
  - { offsetInCU: 0x16360, offset: 0x16360, size: 0x8, addend: 0x0, symName: __ZNSt3__112basic_stringIcNS_11char_traitsIcEENS_9allocatorIcEEE16__set_short_sizeB8ue170006Em, symObjAddr: 0xA650, symBinAddr: 0x10000B810, symSize: 0x50 }
  - { offsetInCU: 0x163A0, offset: 0x163A0, size: 0x8, addend: 0x0, symName: __ZNSt3__116allocator_traitsINS_9allocatorIcEEE8max_sizeB8ue170006IS2_vvEEmRKS2_, symObjAddr: 0xA6A0, symBinAddr: 0x10000B860, symSize: 0x20 }
  - { offsetInCU: 0x163CB, offset: 0x163CB, size: 0x8, addend: 0x0, symName: __ZNKSt3__112basic_stringIcNS_11char_traitsIcEENS_9allocatorIcEEE7__allocB8ue170006Ev, symObjAddr: 0xA6C0, symBinAddr: 0x10000B880, symSize: 0x20 }
  - { offsetInCU: 0x163F1, offset: 0x163F1, size: 0x8, addend: 0x0, symName: __ZNKSt3__117__compressed_pairINS_12basic_stringIcNS_11char_traitsIcEENS_9allocatorIcEEE5__repES5_E6secondB8ue170006Ev, symObjAddr: 0xA6E0, symBinAddr: 0x10000B8A0, symSize: 0x20 }
  - { offsetInCU: 0x16417, offset: 0x16417, size: 0x8, addend: 0x0, symName: __ZNKSt3__122__compressed_pair_elemINS_9allocatorIcEELi1ELb1EE5__getB8ue170006Ev, symObjAddr: 0xA700, symBinAddr: 0x10000B8C0, symSize: 0x10 }
  - { offsetInCU: 0x1643D, offset: 0x1643D, size: 0x8, addend: 0x0, symName: __ZNKSt3__18ios_base5rdbufB8ue170006Ev, symObjAddr: 0xA710, symBinAddr: 0x10000B8D0, symSize: 0x20 }
  - { offsetInCU: 0x16463, offset: 0x16463, size: 0x8, addend: 0x0, symName: __ZNSt3__111char_traitsIcE11to_int_typeB8ue170006Ec, symObjAddr: 0xA730, symBinAddr: 0x10000B8F0, symSize: 0x10 }
  - { offsetInCU: 0x16486, offset: 0x16486, size: 0x8, addend: 0x0, symName: __Z7isasciii, symObjAddr: 0xA740, symBinAddr: 0x10000B900, symSize: 0x20 }
  - { offsetInCU: 0x164B3, offset: 0x164B3, size: 0x8, addend: 0x0, symName: __ZNKSt3__18ios_base10exceptionsB8ue170006Ev, symObjAddr: 0xA760, symBinAddr: 0x10000B920, symSize: 0x20 }
  - { offsetInCU: 0x164DB, offset: 0x164DB, size: 0x8, addend: 0x0, symName: __ZNSt3__18ios_base8setstateB8ue170006Ej, symObjAddr: 0xA780, symBinAddr: 0x10000B940, symSize: 0x30 }
  - { offsetInCU: 0x16512, offset: 0x16512, size: 0x8, addend: 0x0, symName: __ZNKSt3__19basic_iosIcNS_11char_traitsIcEEE5widenB8ue170006Ec, symObjAddr: 0xA7B0, symBinAddr: 0x10000B970, symSize: 0x80 }
  - { offsetInCU: 0x16549, offset: 0x16549, size: 0x8, addend: 0x0, symName: __ZNKSt3__15ctypeIcE5widenB8ue170006Ec, symObjAddr: 0xA830, symBinAddr: 0x10000B9F0, symSize: 0x2B }
...
