---
triple:          'x86_64-apple-darwin'
binary-path:     c
relocations:
  - { offset: 0x5C, size: 0x8, addend: 0x0, symName: __ZNSt3__119piecewise_constructE, symObjAddr: 0x7DA5, symBinAddr: 0x100008C8D, symSize: 0x0 }
  - { offset: 0xA6A8, size: 0x8, addend: 0x0, symName: '__ZNSt3__110__function10__not_nullB8ne180100IZ4mainE3$_0EEbRKT_', symObjAddr: 0x49F0, symBinAddr: 0x1000057B0, symSize: 0x20 }
  - { offset: 0xB56B, size: 0x8, addend: 0x0, symName: __ZNSt3__124__put_character_sequenceB8ne180100IcNS_11char_traitsIcEEEERNS_13basic_ostreamIT_T0_EES7_PKS4_m, symObjAddr: 0x7020, symBinAddr: 0x100007DE0, symSize: 0x1F0 }
  - { offset: 0xC7DD, size: 0x8, addend: 0x0, symName: __ZNSt3__1lsB8ne180100INS_11char_traitsIcEEEERNS_13basic_ostreamIcT_EES6_PKc, symObjAddr: 0x5B0, symBinAddr: 0x100001370, symSize: 0x40 }
  - { offset: 0xC823, size: 0x8, addend: 0x0, symName: __ZNSt3__122__make_exception_guardB8ne180100INS_6vectorIxNS_9allocatorIxEEE16__destroy_vectorEEENS_28__exception_guard_exceptionsIT_EES7_, symObjAddr: 0x7F0, symBinAddr: 0x1000015B0, symSize: 0x40 }
  - { offset: 0xC859, size: 0x8, addend: 0x0, symName: __ZNSt3__119__allocate_at_leastB8ne180100INS_9allocatorIxEEEENS_19__allocation_resultINS_16allocator_traitsIT_E7pointerEEERS5_m, symObjAddr: 0xBA0, symBinAddr: 0x100001960, symSize: 0x40 }
  - { offset: 0xC89E, size: 0x8, addend: 0x0, symName: __ZNSt3__13minB8ne180100ImEERKT_S3_S3_, symObjAddr: 0xC30, symBinAddr: 0x1000019F0, symSize: 0x30 }
  - { offset: 0xCACD, size: 0x8, addend: 0x0, symName: __ZNSt3__13minB8ne180100ImNS_6__lessIvvEEEERKT_S5_S5_T0_, symObjAddr: 0xCC0, symBinAddr: 0x100001A80, symSize: 0x50 }
  - { offset: 0xCD5F, size: 0x8, addend: 0x0, symName: __ZNSt3__120__throw_length_errorB8ne180100EPKc, symObjAddr: 0xDA0, symBinAddr: 0x100001B60, symSize: 0x70 }
  - { offset: 0xCD88, size: 0x8, addend: 0x0, symName: __ZNSt3__117__libcpp_allocateB8ne180100Emm, symObjAddr: 0xF10, symBinAddr: 0x100001CD0, symSize: 0x60 }
  - { offset: 0xCDE3, size: 0x8, addend: 0x0, symName: __ZNSt3__124__is_overaligned_for_newB8ne180100Em, symObjAddr: 0xF70, symBinAddr: 0x100001D30, symSize: 0x20 }
  - { offset: 0xCE11, size: 0x8, addend: 0x0, symName: __ZNSt3__121__libcpp_operator_newB8ne180100IJmSt11align_val_tEEEPvDpT_, symObjAddr: 0xF90, symBinAddr: 0x100001D50, symSize: 0x30 }
  - { offset: 0xCE5E, size: 0x8, addend: 0x0, symName: __ZNSt3__121__libcpp_operator_newB8ne180100IJmEEEPvDpT_, symObjAddr: 0xFC0, symBinAddr: 0x100001D80, symSize: 0x20 }
  - { offset: 0xCE97, size: 0x8, addend: 0x0, symName: __ZNSt3__112__to_addressB8ne180100IxEEPT_S2_, symObjAddr: 0x1090, symBinAddr: 0x100001E50, symSize: 0x10 }
  - { offset: 0xCECD, size: 0x8, addend: 0x0, symName: __ZNSt3__114__construct_atB8ne180100IxJEPxEEPT_S3_DpOT0_, symObjAddr: 0x1100, symBinAddr: 0x100001EC0, symSize: 0x20 }
  - { offset: 0xCF0D, size: 0x8, addend: 0x0, symName: __ZNSt3__112construct_atB8ne180100IxJEPxEEPT_S3_DpOT0_, symObjAddr: 0x1120, symBinAddr: 0x100001EE0, symSize: 0x20 }
  - { offset: 0xCF4E, size: 0x8, addend: 0x0, symName: __ZNSt3__112__destroy_atB8ne180100IxLi0EEEvPT_, symObjAddr: 0x1350, symBinAddr: 0x100002110, symSize: 0x10 }
  - { offset: 0xCF87, size: 0x8, addend: 0x0, symName: __ZNSt3__119__libcpp_deallocateB8ne180100EPvmm, symObjAddr: 0x13A0, symBinAddr: 0x100002160, symSize: 0x60 }
  - { offset: 0xCFEE, size: 0x8, addend: 0x0, symName: __ZNSt3__127__do_deallocate_handle_sizeB8ne180100IJSt11align_val_tEEEvPvmDpT_, symObjAddr: 0x1400, symBinAddr: 0x1000021C0, symSize: 0x30 }
  - { offset: 0xD042, size: 0x8, addend: 0x0, symName: __ZNSt3__127__do_deallocate_handle_sizeB8ne180100IJEEEvPvmDpT_, symObjAddr: 0x1430, symBinAddr: 0x1000021F0, symSize: 0x20 }
  - { offset: 0xD081, size: 0x8, addend: 0x0, symName: __ZNSt3__124__libcpp_operator_deleteB8ne180100IJPvSt11align_val_tEEEvDpT_, symObjAddr: 0x1450, symBinAddr: 0x100002210, symSize: 0x30 }
  - { offset: 0xD0CB, size: 0x8, addend: 0x0, symName: __ZNSt3__124__libcpp_operator_deleteB8ne180100IJPvEEEvDpT_, symObjAddr: 0x1480, symBinAddr: 0x100002240, symSize: 0x20 }
  - { offset: 0xD100, size: 0x8, addend: 0x0, symName: __ZNSt3__114__construct_atB8ne180100IxJRKxEPxEEPT_S5_DpOT0_, symObjAddr: 0x1690, symBinAddr: 0x100002450, symSize: 0x30 }
  - { offset: 0xD155, size: 0x8, addend: 0x0, symName: __ZNSt3__112construct_atB8ne180100IxJRKxEPxEEPT_S5_DpOT0_, symObjAddr: 0x16C0, symBinAddr: 0x100002480, symSize: 0x20 }
  - { offset: 0xD1AA, size: 0x8, addend: 0x0, symName: __ZNSt3__13maxB8ne180100ImEERKT_S3_S3_, symObjAddr: 0x1910, symBinAddr: 0x1000026D0, symSize: 0x30 }
  - { offset: 0xD1EF, size: 0x8, addend: 0x0, symName: __ZNSt3__13maxB8ne180100ImNS_6__lessIvvEEEERKT_S5_S5_T0_, symObjAddr: 0x1940, symBinAddr: 0x100002700, symSize: 0x50 }
  - { offset: 0xD24C, size: 0x8, addend: 0x0, symName: __ZNSt3__142__uninitialized_allocator_move_if_noexceptB8ne180100INS_9allocatorIxEENS_16reverse_iteratorIPxEES5_xvEET1_RT_T0_S9_S6_, symObjAddr: 0x1B90, symBinAddr: 0x100002950, symSize: 0x70 }
  - { offset: 0xD2C9, size: 0x8, addend: 0x0, symName: __ZNSt3__14swapB8ne180100IPxEENS_9enable_ifIXaasr21is_move_constructibleIT_EE5valuesr18is_move_assignableIS3_EE5valueEvE4typeERS3_S6_, symObjAddr: 0x1C50, symBinAddr: 0x100002A10, symSize: 0x40 }
  - { offset: 0xD31D, size: 0x8, addend: 0x0, symName: __ZNSt3__14moveB8ne180100INS_16reverse_iteratorIPxEES3_EET0_T_S5_S4_, symObjAddr: 0x1C90, symBinAddr: 0x100002A50, symSize: 0x80 }
  - { offset: 0xD37A, size: 0x8, addend: 0x0, symName: __ZNSt3__16__moveB8ne180100INS_17_ClassicAlgPolicyENS_16reverse_iteratorIPxEES4_S4_EENS_4pairIT0_T2_EES6_T1_S7_, symObjAddr: 0x1D10, symBinAddr: 0x100002AD0, symSize: 0x90 }
  - { offset: 0xD3E9, size: 0x8, addend: 0x0, symName: __ZNSt3__123__dispatch_copy_or_moveB8ne180100INS_17_ClassicAlgPolicyENS_11__move_loopIS1_EENS_14__move_trivialENS_16reverse_iteratorIPxEES7_S7_EENS_4pairIT2_T4_EES9_T3_SA_, symObjAddr: 0x1DA0, symBinAddr: 0x100002B60, symSize: 0x90 }
  - { offset: 0xD46A, size: 0x8, addend: 0x0, symName: __ZNSt3__121__unwrap_and_dispatchB8ne180100INS_10__overloadINS_11__move_loopINS_17_ClassicAlgPolicyEEENS_14__move_trivialEEENS_16reverse_iteratorIPxEES9_S9_Li0EEENS_4pairIT0_T2_EESB_T1_SC_, symObjAddr: 0x1E30, symBinAddr: 0x100002BF0, symSize: 0x210 }
  - { offset: 0xD4FE, size: 0x8, addend: 0x0, symName: __ZNSt3__114__unwrap_rangeB8ne180100INS_16reverse_iteratorIPxEES3_EEDaT_T0_, symObjAddr: 0x2040, symBinAddr: 0x100002E00, symSize: 0x60 }
  - { offset: 0xD67B, size: 0x8, addend: 0x0, symName: __ZNSt3__113__unwrap_iterB8ne180100INS_16reverse_iteratorIPxEENS_18__unwrap_iter_implIS3_Lb0EEELi0EEEDTclsrT0_8__unwrapclsr3stdE7declvalIT_EEEES7_, symObjAddr: 0x2140, symBinAddr: 0x100002F00, symSize: 0x40 }
  - { offset: 0xD6C0, size: 0x8, addend: 0x0, symName: __ZNSt3__19make_pairB8ne180100INS_16reverse_iteratorIPxEES3_EENS_4pairINS_18__unwrap_ref_decayIT_E4typeENS5_IT0_E4typeEEEOS6_OS9_, symObjAddr: 0x2180, symBinAddr: 0x100002F40, symSize: 0x30 }
  - { offset: 0xD70F, size: 0x8, addend: 0x0, symName: __ZNSt3__114__rewrap_rangeB8ne180100INS_16reverse_iteratorIPxEES3_S3_EET0_S4_T1_, symObjAddr: 0x21B0, symBinAddr: 0x100002F70, symSize: 0x60 }
  - { offset: 0xD766, size: 0x8, addend: 0x0, symName: __ZNSt3__113__rewrap_iterB8ne180100INS_16reverse_iteratorIPxEES3_NS_18__unwrap_iter_implIS3_Lb0EEEEET_S6_T0_, symObjAddr: 0x2210, symBinAddr: 0x100002FD0, symSize: 0x70 }
  - { offset: 0xD80D, size: 0x8, addend: 0x0, symName: __ZNSt3__1neB8ne180100IPxS1_EEbRKNS_16reverse_iteratorIT_EERKNS2_IT0_EE, symObjAddr: 0x2380, symBinAddr: 0x100003140, symSize: 0x40 }
  - { offset: 0xD905, size: 0x8, addend: 0x0, symName: __ZNSt3__116__tree_prev_iterB8ne180100IPNS_16__tree_node_baseIPvEEPNS_15__tree_end_nodeIS4_EEEET_T0_, symObjAddr: 0x2720, symBinAddr: 0x1000034E0, symSize: 0xA0 }
  - { offset: 0xD953, size: 0x8, addend: 0x0, symName: __ZNSt3__110__tree_maxB8ne180100IPNS_16__tree_node_baseIPvEEEET_S5_, symObjAddr: 0x27C0, symBinAddr: 0x100003580, symSize: 0x30 }
  - { offset: 0xD989, size: 0x8, addend: 0x0, symName: __ZNSt3__120__tree_is_left_childB8ne180100IPNS_16__tree_node_baseIPvEEEEbT_, symObjAddr: 0x27F0, symBinAddr: 0x1000035B0, symSize: 0x30 }
  - { offset: 0xD9F3, size: 0x8, addend: 0x0, symName: __ZNSt3__112__destroy_atB8ne180100INS_4pairIKxNS_6vectorIxNS_9allocatorIxEEEEEELi0EEEvPT_, symObjAddr: 0x2DD0, symBinAddr: 0x100003B90, symSize: 0x20 }
  - { offset: 0xDA2B, size: 0x8, addend: 0x0, symName: __ZNSt3__17launderB8ne180100INS_4pairIKxNS_6vectorIxNS_9allocatorIxEEEEEEEEPT_S9_, symObjAddr: 0x2E50, symBinAddr: 0x100003C10, symSize: 0x20 }
  - { offset: 0xDA62, size: 0x8, addend: 0x0, symName: __ZNSt3__19__launderB8ne180100INS_4pairIKxNS_6vectorIxNS_9allocatorIxEEEEEEEEPT_S9_, symObjAddr: 0x2E70, symBinAddr: 0x100003C30, symSize: 0x10 }
  - { offset: 0xDAD0, size: 0x8, addend: 0x0, symName: __ZNSt3__116forward_as_tupleB8ne180100IJRKxEEENS_5tupleIJDpOT_EEES6_, symObjAddr: 0x3020, symBinAddr: 0x100003DE0, symSize: 0x30 }
  - { offset: 0xDB09, size: 0x8, addend: 0x0, symName: __ZNSt3__116forward_as_tupleB8ne180100IJEEENS_5tupleIJDpOT_EEES4_, symObjAddr: 0x3050, symBinAddr: 0x100003E10, symSize: 0x10 }
  - { offset: 0xDB2D, size: 0x8, addend: 0x0, symName: __ZNSt3__17launderB8ne180100IKNS_4pairIKxNS_6vectorIxNS_9allocatorIxEEEEEEEEPT_SA_, symObjAddr: 0x3620, symBinAddr: 0x1000043E0, symSize: 0x20 }
  - { offset: 0xDB64, size: 0x8, addend: 0x0, symName: __ZNSt3__19__launderB8ne180100IKNS_4pairIKxNS_6vectorIxNS_9allocatorIxEEEEEEEEPT_SA_, symObjAddr: 0x3640, symBinAddr: 0x100004400, symSize: 0x10 }
  - { offset: 0xDBB9, size: 0x8, addend: 0x0, symName: __ZNSt3__114__construct_atB8ne180100INS_4pairIKxNS_6vectorIxNS_9allocatorIxEEEEEEJRKNS_21piecewise_construct_tENS_5tupleIJRS2_EEENSB_IJEEEEPS7_EEPT_SH_DpOT0_, symObjAddr: 0x3910, symBinAddr: 0x1000046D0, symSize: 0x40 }
  - { offset: 0xDC36, size: 0x8, addend: 0x0, symName: __ZNSt3__112construct_atB8ne180100INS_4pairIKxNS_6vectorIxNS_9allocatorIxEEEEEEJRKNS_21piecewise_construct_tENS_5tupleIJRS2_EEENSB_IJEEEEPS7_EEPT_SH_DpOT0_, symObjAddr: 0x3950, symBinAddr: 0x100004710, symSize: 0x40 }
  - { offset: 0xDCBF, size: 0x8, addend: 0x0, symName: __ZNSt3__13getB8ne180100ILm0EJRKxEEERNS_13tuple_elementIXT_ENS_5tupleIJDpT0_EEEE4typeERS7_, symObjAddr: 0x3A40, symBinAddr: 0x100004800, symSize: 0x20 }
  - { offset: 0xDD03, size: 0x8, addend: 0x0, symName: __ZNSt3__127__tree_balance_after_insertB8ne180100IPNS_16__tree_node_baseIPvEEEEvT_S5_, symObjAddr: 0x3B50, symBinAddr: 0x100004910, symSize: 0x240 }
  - { offset: 0xDD82, size: 0x8, addend: 0x0, symName: __ZNSt3__118__tree_left_rotateB8ne180100IPNS_16__tree_node_baseIPvEEEEvT_, symObjAddr: 0x3DB0, symBinAddr: 0x100004B70, symSize: 0xD0 }
  - { offset: 0xDDC4, size: 0x8, addend: 0x0, symName: __ZNSt3__119__tree_right_rotateB8ne180100IPNS_16__tree_node_baseIPvEEEEvT_, symObjAddr: 0x3E80, symBinAddr: 0x100004C40, symSize: 0xC0 }
  - { offset: 0xDE5E, size: 0x8, addend: 0x0, symName: __ZNSt3__125__throw_bad_function_callB8ne180100Ev, symObjAddr: 0x4760, symBinAddr: 0x100005520, symSize: 0x40 }
  - { offset: 0xDF8F, size: 0x8, addend: 0x0, symName: '__ZNSt3__116forward_as_tupleB8ne180100IJZ4mainE3$_0EEENS_5tupleIJDpOT_EEES5_', symObjAddr: 0x4F00, symBinAddr: 0x100005CC0, symSize: 0x30 }
  - { offset: 0xDFC9, size: 0x8, addend: 0x0, symName: '__ZNSt3__116forward_as_tupleB8ne180100IJNS_9allocatorIZ4mainE3$_0EEEEENS_5tupleIJDpOT_EEES7_', symObjAddr: 0x4F30, symBinAddr: 0x100005CF0, symSize: 0x30 }
  - { offset: 0xE02D, size: 0x8, addend: 0x0, symName: '__ZNSt3__13getB8ne180100ILm0EJOZ4mainE3$_0EEERNS_13tuple_elementIXT_ENS_5tupleIJDpT0_EEEE4typeERS7_', symObjAddr: 0x5210, symBinAddr: 0x100005FD0, symSize: 0x20 }
  - { offset: 0xE071, size: 0x8, addend: 0x0, symName: '__ZNSt3__13getB8ne180100ILm0EJONS_9allocatorIZ4mainE3$_0EEEEERNS_13tuple_elementIXT_ENS_5tupleIJDpT0_EEEE4typeERS9_', symObjAddr: 0x5250, symBinAddr: 0x100006010, symSize: 0x20 }
  - { offset: 0xE593, size: 0x8, addend: 0x0, symName: '__ZNSt3__116forward_as_tupleB8ne180100IJRKZ4mainE3$_0EEENS_5tupleIJDpOT_EEES7_', symObjAddr: 0x5720, symBinAddr: 0x1000064E0, symSize: 0x30 }
  - { offset: 0xE5E2, size: 0x8, addend: 0x0, symName: '__ZNSt3__13getB8ne180100ILm0EJRKZ4mainE3$_0EEERNS_13tuple_elementIXT_ENS_5tupleIJDpT0_EEEE4typeERS8_', symObjAddr: 0x5900, symBinAddr: 0x1000066C0, symSize: 0x20 }
  - { offset: 0xE626, size: 0x8, addend: 0x0, symName: '__ZNSt3__116forward_as_tupleB8ne180100IJRKNS_9allocatorIZ4mainE3$_0EEEEENS_5tupleIJDpOT_EEES9_', symObjAddr: 0x5BF0, symBinAddr: 0x1000069B0, symSize: 0x30 }
  - { offset: 0xE675, size: 0x8, addend: 0x0, symName: '__ZNSt3__13getB8ne180100ILm0EJRKNS_9allocatorIZ4mainE3$_0EEEEERNS_13tuple_elementIXT_ENS_5tupleIJDpT0_EEEE4typeERSA_', symObjAddr: 0x5DA0, symBinAddr: 0x100006B60, symSize: 0x20 }
  - { offset: 0xE6F6, size: 0x8, addend: 0x0, symName: '__ZNSt3__18__invokeB8ne180100IRZ4mainE3$_0JxEEEDTclclsr3stdE7declvalIT_EEspclsr3stdE7declvalIT0_EEEEOS3_DpOS4_', symObjAddr: 0x5E70, symBinAddr: 0x100006C30, symSize: 0x30 }
  - { offset: 0xE743, size: 0x8, addend: 0x0, symName: __ZNSt3__1neB8ne180100IPxEEbRKNS_11__wrap_iterIT_EES6_, symObjAddr: 0x6040, symBinAddr: 0x100006E00, symSize: 0x30 }
  - { offset: 0xE7A6, size: 0x8, addend: 0x0, symName: __ZNSt3__1eqB8ne180100IPxEEbRKNS_11__wrap_iterIT_EES6_, symObjAddr: 0x6DC0, symBinAddr: 0x100007B80, symSize: 0x40 }
  - { offset: 0xE7EB, size: 0x8, addend: 0x0, symName: __ZNSt3__116__pad_and_outputB8ne180100IcNS_11char_traitsIcEEEENS_19ostreambuf_iteratorIT_T0_EES6_PKS4_S8_S8_RNS_8ios_baseES4_, symObjAddr: 0x7260, symBinAddr: 0x100008020, symSize: 0x220 }
  - { offset: 0xE8BB, size: 0x8, addend: 0x0, symName: __ZNSt3__112__to_addressB8ne180100IcEEPT_S2_, symObjAddr: 0x7780, symBinAddr: 0x100008540, symSize: 0x10 }
  - { offset: 0xE8F1, size: 0x8, addend: 0x0, symName: __ZNSt3__19use_facetB8ne180100INS_5ctypeIcEEEERKT_RKNS_6localeE, symObjAddr: 0x7A10, symBinAddr: 0x1000087D0, symSize: 0x30 }
  - { offset: 0xEDBF, size: 0x8, addend: 0x0, symName: __ZNSt3__118__constexpr_strlenB8ne180100EPKc, symObjAddr: 0x7AA0, symBinAddr: 0x100008860, symSize: 0x1B }
  - { offset: 0x10127, size: 0x8, addend: 0x0, symName: __ZSt28__throw_bad_array_new_lengthB8ne180100v, symObjAddr: 0xED0, symBinAddr: 0x100001C90, symSize: 0x40 }
  - { offset: 0x106FD, size: 0x8, addend: 0x0, symName: __ZNSt3__16vectorIxNS_9allocatorIxEEE26__swap_out_circular_bufferERNS_14__split_bufferIxRS2_EE, symObjAddr: 0x17D0, symBinAddr: 0x100002590, symSize: 0x120 }
  - { offset: 0x10E6E, size: 0x8, addend: 0x0, symName: _main, symObjAddr: 0x0, symBinAddr: 0x100000DC0, symSize: 0x390 }
  - { offset: 0x11509, size: 0x8, addend: 0x0, symName: __ZNSt3__19basic_iosIcNS_11char_traitsIcEEE3tieB8ne180100EPNS_13basic_ostreamIcS2_EE, symObjAddr: 0x390, symBinAddr: 0x100001150, symSize: 0x30 }
  - { offset: 0x1154F, size: 0x8, addend: 0x0, symName: __ZNSt3__16vectorIxNS_9allocatorIxEEEC1Em, symObjAddr: 0x3C0, symBinAddr: 0x100001180, symSize: 0x30 }
  - { offset: 0x1158A, size: 0x8, addend: 0x0, symName: __ZNSt3__16vectorIxNS_9allocatorIxEEEixB8ne180100Em, symObjAddr: 0x3F0, symBinAddr: 0x1000011B0, symSize: 0x20 }
  - { offset: 0x115C1, size: 0x8, addend: 0x0, symName: __ZNSt3__13mapIxNS_6vectorIxNS_9allocatorIxEEEENS_4lessIxEENS2_INS_4pairIKxS4_EEEEEC1B8ne180100Ev, symObjAddr: 0x410, symBinAddr: 0x1000011D0, symSize: 0x20 }
  - { offset: 0x115EB, size: 0x8, addend: 0x0, symName: __ZNSt3__13mapIxNS_6vectorIxNS_9allocatorIxEEEENS_4lessIxEENS2_INS_4pairIKxS4_EEEEEixERS8_, symObjAddr: 0x430, symBinAddr: 0x1000011F0, symSize: 0x70 }
  - { offset: 0x11622, size: 0x8, addend: 0x0, symName: __ZNSt3__16vectorIxNS_9allocatorIxEEE9push_backB8ne180100ERKx, symObjAddr: 0x4A0, symBinAddr: 0x100001260, symSize: 0x80 }
  - { offset: 0x11668, size: 0x8, addend: 0x0, symName: __ZNSt3__13setIxNS_4lessIxEENS_9allocatorIxEEEC1B8ne180100Ev, symObjAddr: 0x520, symBinAddr: 0x1000012E0, symSize: 0x20 }
  - { offset: 0x11692, size: 0x8, addend: 0x0, symName: '__ZNSt3__18functionIFvxEEC1IZ4mainE3$_0vEET_', symObjAddr: 0x540, symBinAddr: 0x100001300, symSize: 0x40 }
  - { offset: 0x116D7, size: 0x8, addend: 0x0, symName: __ZNKSt3__18functionIFvxEEclEx, symObjAddr: 0x580, symBinAddr: 0x100001340, symSize: 0x30 }
  - { offset: 0x1170E, size: 0x8, addend: 0x0, symName: __ZNSt3__13setIxNS_4lessIxEENS_9allocatorIxEEE6rbeginB8ne180100Ev, symObjAddr: 0x5F0, symBinAddr: 0x1000013B0, symSize: 0x50 }
  - { offset: 0x11734, size: 0x8, addend: 0x0, symName: __ZNKSt3__116reverse_iteratorINS_21__tree_const_iteratorIxPNS_11__tree_nodeIxPvEElEEEdeB8ne180100Ev, symObjAddr: 0x640, symBinAddr: 0x100001400, symSize: 0x30 }
  - { offset: 0x11769, size: 0x8, addend: 0x0, symName: __ZNSt3__18functionIFvxEED1Ev, symObjAddr: 0x670, symBinAddr: 0x100001430, symSize: 0x20 }
  - { offset: 0x11795, size: 0x8, addend: 0x0, symName: __ZNSt3__13setIxNS_4lessIxEENS_9allocatorIxEEED1B8ne180100Ev, symObjAddr: 0x690, symBinAddr: 0x100001450, symSize: 0x20 }
  - { offset: 0x117BF, size: 0x8, addend: 0x0, symName: __ZNSt3__13mapIxNS_6vectorIxNS_9allocatorIxEEEENS_4lessIxEENS2_INS_4pairIKxS4_EEEEED1B8ne180100Ev, symObjAddr: 0x6B0, symBinAddr: 0x100001470, symSize: 0x20 }
  - { offset: 0x117E9, size: 0x8, addend: 0x0, symName: __ZNSt3__16vectorIxNS_9allocatorIxEEED1B8ne180100Ev, symObjAddr: 0x6D0, symBinAddr: 0x100001490, symSize: 0x20 }
  - { offset: 0x11813, size: 0x8, addend: 0x0, symName: __ZNSt3__16vectorIxNS_9allocatorIxEEEC2Em, symObjAddr: 0x6F0, symBinAddr: 0x1000014B0, symSize: 0xD0 }
  - { offset: 0x1186F, size: 0x8, addend: 0x0, symName: __ZNSt3__117__compressed_pairIPxNS_9allocatorIxEEEC1B8ne180100IDnNS_18__default_init_tagEEEOT_OT0_, symObjAddr: 0x7C0, symBinAddr: 0x100001580, symSize: 0x30 }
  - { offset: 0x118C9, size: 0x8, addend: 0x0, symName: __ZNSt3__16vectorIxNS_9allocatorIxEEE16__destroy_vectorC1B8ne180100ERS3_, symObjAddr: 0x830, symBinAddr: 0x1000015F0, symSize: 0x30 }
  - { offset: 0x11902, size: 0x8, addend: 0x0, symName: __ZNSt3__16vectorIxNS_9allocatorIxEEE11__vallocateB8ne180100Em, symObjAddr: 0x860, symBinAddr: 0x100001620, symSize: 0xA0 }
  - { offset: 0x11946, size: 0x8, addend: 0x0, symName: __ZNSt3__16vectorIxNS_9allocatorIxEEE18__construct_at_endEm, symObjAddr: 0x900, symBinAddr: 0x1000016C0, symSize: 0xC0 }
  - { offset: 0x119B9, size: 0x8, addend: 0x0, symName: __ZNSt3__128__exception_guard_exceptionsINS_6vectorIxNS_9allocatorIxEEE16__destroy_vectorEE10__completeB8ne180100Ev, symObjAddr: 0x9C0, symBinAddr: 0x100001780, symSize: 0x20 }
  - { offset: 0x119DF, size: 0x8, addend: 0x0, symName: __ZNSt3__128__exception_guard_exceptionsINS_6vectorIxNS_9allocatorIxEEE16__destroy_vectorEED1B8ne180100Ev, symObjAddr: 0x9E0, symBinAddr: 0x1000017A0, symSize: 0x20 }
  - { offset: 0x11A09, size: 0x8, addend: 0x0, symName: __ZNSt3__117__compressed_pairIPxNS_9allocatorIxEEEC2B8ne180100IDnNS_18__default_init_tagEEEOT_OT0_, symObjAddr: 0xA00, symBinAddr: 0x1000017C0, symSize: 0x40 }
  - { offset: 0x11A63, size: 0x8, addend: 0x0, symName: __ZNSt3__122__compressed_pair_elemIPxLi0ELb0EEC2B8ne180100IDnvEEOT_, symObjAddr: 0xA40, symBinAddr: 0x100001800, symSize: 0x20 }
  - { offset: 0x11AA6, size: 0x8, addend: 0x0, symName: __ZNSt3__122__compressed_pair_elemINS_9allocatorIxEELi1ELb1EEC2B8ne180100ENS_18__default_init_tagE, symObjAddr: 0xA60, symBinAddr: 0x100001820, symSize: 0x20 }
  - { offset: 0x11ADA, size: 0x8, addend: 0x0, symName: __ZNSt3__19allocatorIxEC2B8ne180100Ev, symObjAddr: 0xA80, symBinAddr: 0x100001840, symSize: 0x20 }
  - { offset: 0x11B04, size: 0x8, addend: 0x0, symName: __ZNSt3__116__non_trivial_ifILb1ENS_9allocatorIxEEEC2B8ne180100Ev, symObjAddr: 0xAA0, symBinAddr: 0x100001860, symSize: 0x10 }
  - { offset: 0x11B2E, size: 0x8, addend: 0x0, symName: __ZNSt3__128__exception_guard_exceptionsINS_6vectorIxNS_9allocatorIxEEE16__destroy_vectorEEC1B8ne180100ES5_, symObjAddr: 0xAB0, symBinAddr: 0x100001870, symSize: 0x30 }
  - { offset: 0x11B67, size: 0x8, addend: 0x0, symName: __ZNSt3__128__exception_guard_exceptionsINS_6vectorIxNS_9allocatorIxEEE16__destroy_vectorEEC2B8ne180100ES5_, symObjAddr: 0xAE0, symBinAddr: 0x1000018A0, symSize: 0x20 }
  - { offset: 0x11BA0, size: 0x8, addend: 0x0, symName: __ZNSt3__16vectorIxNS_9allocatorIxEEE16__destroy_vectorC2B8ne180100ERS3_, symObjAddr: 0xB00, symBinAddr: 0x1000018C0, symSize: 0x20 }
  - { offset: 0x11BD9, size: 0x8, addend: 0x0, symName: __ZNKSt3__16vectorIxNS_9allocatorIxEEE8max_sizeEv, symObjAddr: 0xB20, symBinAddr: 0x1000018E0, symSize: 0x60 }
  - { offset: 0x11C01, size: 0x8, addend: 0x0, symName: __ZNKSt3__16vectorIxNS_9allocatorIxEEE20__throw_length_errorB8ne180100Ev, symObjAddr: 0xB80, symBinAddr: 0x100001940, symSize: 0x20 }
  - { offset: 0x11C27, size: 0x8, addend: 0x0, symName: __ZNSt3__16vectorIxNS_9allocatorIxEEE7__allocB8ne180100Ev, symObjAddr: 0xBE0, symBinAddr: 0x1000019A0, symSize: 0x20 }
  - { offset: 0x11C4D, size: 0x8, addend: 0x0, symName: __ZNSt3__16vectorIxNS_9allocatorIxEEE9__end_capB8ne180100Ev, symObjAddr: 0xC00, symBinAddr: 0x1000019C0, symSize: 0x20 }
  - { offset: 0x11C73, size: 0x8, addend: 0x0, symName: __ZNKSt3__16vectorIxNS_9allocatorIxEEE14__annotate_newB8ne180100Em, symObjAddr: 0xC20, symBinAddr: 0x1000019E0, symSize: 0x10 }
  - { offset: 0x11CB3, size: 0x8, addend: 0x0, symName: __ZNSt3__116allocator_traitsINS_9allocatorIxEEE8max_sizeB8ne180100IS2_vvEEmRKS2_, symObjAddr: 0xC60, symBinAddr: 0x100001A20, symSize: 0x20 }
  - { offset: 0x11CDF, size: 0x8, addend: 0x0, symName: __ZNKSt3__16vectorIxNS_9allocatorIxEEE7__allocB8ne180100Ev, symObjAddr: 0xC80, symBinAddr: 0x100001A40, symSize: 0x20 }
  - { offset: 0x11D05, size: 0x8, addend: 0x0, symName: __ZNSt3__114numeric_limitsIlE3maxB8ne180100Ev, symObjAddr: 0xCA0, symBinAddr: 0x100001A60, symSize: 0x10 }
  - { offset: 0x11D24, size: 0x8, addend: 0x0, symName: __ZNKSt3__16__lessIvvEclB8ne180100ImmEEbRKT_RKT0_, symObjAddr: 0xD10, symBinAddr: 0x100001AD0, symSize: 0x30 }
  - { offset: 0x11D7A, size: 0x8, addend: 0x0, symName: __ZNSt3__114numeric_limitsImE3maxB8ne180100Ev, symObjAddr: 0xD40, symBinAddr: 0x100001B00, symSize: 0x10 }
  - { offset: 0x11D8E, size: 0x8, addend: 0x0, symName: __ZNSt3__123__libcpp_numeric_limitsImLb1EE3maxB8ne180100Ev, symObjAddr: 0xD50, symBinAddr: 0x100001B10, symSize: 0x10 }
  - { offset: 0x11DA2, size: 0x8, addend: 0x0, symName: __ZNKSt3__117__compressed_pairIPxNS_9allocatorIxEEE6secondB8ne180100Ev, symObjAddr: 0xD60, symBinAddr: 0x100001B20, symSize: 0x20 }
  - { offset: 0x11DC8, size: 0x8, addend: 0x0, symName: __ZNKSt3__122__compressed_pair_elemINS_9allocatorIxEELi1ELb1EE5__getB8ne180100Ev, symObjAddr: 0xD80, symBinAddr: 0x100001B40, symSize: 0x10 }
  - { offset: 0x11DEE, size: 0x8, addend: 0x0, symName: __ZNSt3__123__libcpp_numeric_limitsIlLb1EE3maxB8ne180100Ev, symObjAddr: 0xD90, symBinAddr: 0x100001B50, symSize: 0x10 }
  - { offset: 0x11E02, size: 0x8, addend: 0x0, symName: __ZNSt12length_errorC1B8ne180100EPKc, symObjAddr: 0xE10, symBinAddr: 0x100001BD0, symSize: 0x30 }
  - { offset: 0x11E3B, size: 0x8, addend: 0x0, symName: __ZNSt12length_errorC2B8ne180100EPKc, symObjAddr: 0xE40, symBinAddr: 0x100001C00, symSize: 0x40 }
  - { offset: 0x11E74, size: 0x8, addend: 0x0, symName: __ZNSt3__19allocatorIxE8allocateB8ne180100Em, symObjAddr: 0xE80, symBinAddr: 0x100001C40, symSize: 0x50 }
  - { offset: 0x11EA9, size: 0x8, addend: 0x0, symName: __ZNSt3__117__compressed_pairIPxNS_9allocatorIxEEE6secondB8ne180100Ev, symObjAddr: 0xFE0, symBinAddr: 0x100001DA0, symSize: 0x20 }
  - { offset: 0x11ECF, size: 0x8, addend: 0x0, symName: __ZNSt3__122__compressed_pair_elemINS_9allocatorIxEELi1ELb1EE5__getB8ne180100Ev, symObjAddr: 0x1000, symBinAddr: 0x100001DC0, symSize: 0x10 }
  - { offset: 0x11EF5, size: 0x8, addend: 0x0, symName: __ZNSt3__117__compressed_pairIPxNS_9allocatorIxEEE5firstB8ne180100Ev, symObjAddr: 0x1010, symBinAddr: 0x100001DD0, symSize: 0x20 }
  - { offset: 0x11F1B, size: 0x8, addend: 0x0, symName: __ZNSt3__122__compressed_pair_elemIPxLi0ELb0EE5__getB8ne180100Ev, symObjAddr: 0x1030, symBinAddr: 0x100001DF0, symSize: 0x10 }
  - { offset: 0x11F5D, size: 0x8, addend: 0x0, symName: __ZNSt3__16vectorIxNS_9allocatorIxEEE21_ConstructTransactionC1B8ne180100ERS3_m, symObjAddr: 0x1040, symBinAddr: 0x100001E00, symSize: 0x30 }
  - { offset: 0x11FA5, size: 0x8, addend: 0x0, symName: __ZNSt3__116allocator_traitsINS_9allocatorIxEEE9constructB8ne180100IxJEvvEEvRS2_PT_DpOT0_, symObjAddr: 0x1070, symBinAddr: 0x100001E30, symSize: 0x20 }
  - { offset: 0x11FE5, size: 0x8, addend: 0x0, symName: __ZNSt3__16vectorIxNS_9allocatorIxEEE21_ConstructTransactionD1B8ne180100Ev, symObjAddr: 0x10A0, symBinAddr: 0x100001E60, symSize: 0x20 }
  - { offset: 0x1200F, size: 0x8, addend: 0x0, symName: __ZNSt3__16vectorIxNS_9allocatorIxEEE21_ConstructTransactionC2B8ne180100ERS3_m, symObjAddr: 0x10C0, symBinAddr: 0x100001E80, symSize: 0x40 }
  - { offset: 0x12057, size: 0x8, addend: 0x0, symName: __ZNSt3__16vectorIxNS_9allocatorIxEEE21_ConstructTransactionD2B8ne180100Ev, symObjAddr: 0x1140, symBinAddr: 0x100001F00, symSize: 0x20 }
  - { offset: 0x12081, size: 0x8, addend: 0x0, symName: __ZNSt3__128__exception_guard_exceptionsINS_6vectorIxNS_9allocatorIxEEE16__destroy_vectorEED2B8ne180100Ev, symObjAddr: 0x1160, symBinAddr: 0x100001F20, symSize: 0x40 }
  - { offset: 0x120AB, size: 0x8, addend: 0x0, symName: __ZNSt3__16vectorIxNS_9allocatorIxEEE16__destroy_vectorclB8ne180100Ev, symObjAddr: 0x11A0, symBinAddr: 0x100001F60, symSize: 0x80 }
  - { offset: 0x120D1, size: 0x8, addend: 0x0, symName: __ZNSt3__16vectorIxNS_9allocatorIxEEE7__clearB8ne180100Ev, symObjAddr: 0x1220, symBinAddr: 0x100001FE0, symSize: 0x20 }
  - { offset: 0x120F7, size: 0x8, addend: 0x0, symName: __ZNKSt3__16vectorIxNS_9allocatorIxEEE17__annotate_deleteB8ne180100Ev, symObjAddr: 0x1240, symBinAddr: 0x100002000, symSize: 0x10 }
  - { offset: 0x1211D, size: 0x8, addend: 0x0, symName: __ZNSt3__116allocator_traitsINS_9allocatorIxEEE10deallocateB8ne180100ERS2_Pxm, symObjAddr: 0x1250, symBinAddr: 0x100002010, symSize: 0x30 }
  - { offset: 0x1215F, size: 0x8, addend: 0x0, symName: __ZNKSt3__16vectorIxNS_9allocatorIxEEE8capacityB8ne180100Ev, symObjAddr: 0x1280, symBinAddr: 0x100002040, symSize: 0x30 }
  - { offset: 0x12185, size: 0x8, addend: 0x0, symName: __ZNSt3__16vectorIxNS_9allocatorIxEEE22__base_destruct_at_endB8ne180100EPx, symObjAddr: 0x12B0, symBinAddr: 0x100002070, symSize: 0x80 }
  - { offset: 0x121C9, size: 0x8, addend: 0x0, symName: __ZNSt3__116allocator_traitsINS_9allocatorIxEEE7destroyB8ne180100IxvvEEvRS2_PT_, symObjAddr: 0x1330, symBinAddr: 0x1000020F0, symSize: 0x20 }
  - { offset: 0x12204, size: 0x8, addend: 0x0, symName: __ZNSt3__19allocatorIxE10deallocateB8ne180100EPxm, symObjAddr: 0x1360, symBinAddr: 0x100002120, symSize: 0x40 }
  - { offset: 0x12248, size: 0x8, addend: 0x0, symName: __ZNKSt3__16vectorIxNS_9allocatorIxEEE9__end_capB8ne180100Ev, symObjAddr: 0x14A0, symBinAddr: 0x100002260, symSize: 0x20 }
  - { offset: 0x1226E, size: 0x8, addend: 0x0, symName: __ZNKSt3__117__compressed_pairIPxNS_9allocatorIxEEE5firstB8ne180100Ev, symObjAddr: 0x14C0, symBinAddr: 0x100002280, symSize: 0x20 }
  - { offset: 0x12294, size: 0x8, addend: 0x0, symName: __ZNKSt3__122__compressed_pair_elemIPxLi0ELb0EE5__getB8ne180100Ev, symObjAddr: 0x14E0, symBinAddr: 0x1000022A0, symSize: 0x10 }
  - { offset: 0x122BA, size: 0x8, addend: 0x0, symName: __ZNSt3__16vectorIxNS_9allocatorIxEEE22__construct_one_at_endB8ne180100IJRKxEEEvDpOT_, symObjAddr: 0x14F0, symBinAddr: 0x1000022B0, symSize: 0x90 }
  - { offset: 0x12309, size: 0x8, addend: 0x0, symName: __ZNSt3__16vectorIxNS_9allocatorIxEEE21__push_back_slow_pathIRKxEEPxOT_, symObjAddr: 0x1580, symBinAddr: 0x100002340, symSize: 0xE0 }
  - { offset: 0x12367, size: 0x8, addend: 0x0, symName: __ZNSt3__116allocator_traitsINS_9allocatorIxEEE9constructB8ne180100IxJRKxEvvEEvRS2_PT_DpOT0_, symObjAddr: 0x1660, symBinAddr: 0x100002420, symSize: 0x30 }
  - { offset: 0x123BC, size: 0x8, addend: 0x0, symName: __ZNKSt3__16vectorIxNS_9allocatorIxEEE11__recommendB8ne180100Em, symObjAddr: 0x16E0, symBinAddr: 0x1000024A0, symSize: 0x90 }
  - { offset: 0x12411, size: 0x8, addend: 0x0, symName: __ZNKSt3__16vectorIxNS_9allocatorIxEEE4sizeB8ne180100Ev, symObjAddr: 0x1770, symBinAddr: 0x100002530, symSize: 0x20 }
  - { offset: 0x12437, size: 0x8, addend: 0x0, symName: __ZNSt3__114__split_bufferIxRNS_9allocatorIxEEEC1EmmS3_, symObjAddr: 0x1790, symBinAddr: 0x100002550, symSize: 0x40 }
  - { offset: 0x12490, size: 0x8, addend: 0x0, symName: __ZNSt3__114__split_bufferIxRNS_9allocatorIxEEED1Ev, symObjAddr: 0x18F0, symBinAddr: 0x1000026B0, symSize: 0x20 }
  - { offset: 0x124BC, size: 0x8, addend: 0x0, symName: __ZNSt3__114__split_bufferIxRNS_9allocatorIxEEEC2EmmS3_, symObjAddr: 0x1990, symBinAddr: 0x100002750, symSize: 0xD0 }
  - { offset: 0x12533, size: 0x8, addend: 0x0, symName: __ZNSt3__117__compressed_pairIPxRNS_9allocatorIxEEEC1B8ne180100IDnS4_EEOT_OT0_, symObjAddr: 0x1A60, symBinAddr: 0x100002820, symSize: 0x30 }
  - { offset: 0x1258D, size: 0x8, addend: 0x0, symName: __ZNSt3__114__split_bufferIxRNS_9allocatorIxEEE7__allocB8ne180100Ev, symObjAddr: 0x1A90, symBinAddr: 0x100002850, symSize: 0x20 }
  - { offset: 0x125B3, size: 0x8, addend: 0x0, symName: __ZNSt3__114__split_bufferIxRNS_9allocatorIxEEE9__end_capB8ne180100Ev, symObjAddr: 0x1AB0, symBinAddr: 0x100002870, symSize: 0x20 }
  - { offset: 0x125D9, size: 0x8, addend: 0x0, symName: __ZNSt3__117__compressed_pairIPxRNS_9allocatorIxEEEC2B8ne180100IDnS4_EEOT_OT0_, symObjAddr: 0x1AD0, symBinAddr: 0x100002890, symSize: 0x40 }
  - { offset: 0x12633, size: 0x8, addend: 0x0, symName: __ZNSt3__122__compressed_pair_elemIRNS_9allocatorIxEELi1ELb0EEC2B8ne180100IS3_vEEOT_, symObjAddr: 0x1B10, symBinAddr: 0x1000028D0, symSize: 0x20 }
  - { offset: 0x12676, size: 0x8, addend: 0x0, symName: __ZNSt3__117__compressed_pairIPxRNS_9allocatorIxEEE6secondB8ne180100Ev, symObjAddr: 0x1B30, symBinAddr: 0x1000028F0, symSize: 0x20 }
  - { offset: 0x1269C, size: 0x8, addend: 0x0, symName: __ZNSt3__122__compressed_pair_elemIRNS_9allocatorIxEELi1ELb0EE5__getB8ne180100Ev, symObjAddr: 0x1B50, symBinAddr: 0x100002910, symSize: 0x20 }
  - { offset: 0x126C2, size: 0x8, addend: 0x0, symName: __ZNSt3__117__compressed_pairIPxRNS_9allocatorIxEEE5firstB8ne180100Ev, symObjAddr: 0x1B70, symBinAddr: 0x100002930, symSize: 0x20 }
  - { offset: 0x126E8, size: 0x8, addend: 0x0, symName: __ZNSt3__116reverse_iteratorIPxEC1B8ne180100ES1_, symObjAddr: 0x1C00, symBinAddr: 0x1000029C0, symSize: 0x30 }
  - { offset: 0x12721, size: 0x8, addend: 0x0, symName: __ZNKSt3__116reverse_iteratorIPxE4baseB8ne180100Ev, symObjAddr: 0x1C30, symBinAddr: 0x1000029F0, symSize: 0x20 }
  - { offset: 0x1276F, size: 0x8, addend: 0x0, symName: __ZNKSt3__111__move_loopINS_17_ClassicAlgPolicyEEclB8ne180100INS_16reverse_iteratorIPxEES6_S6_EENS_4pairIT_T1_EES8_T0_S9_, symObjAddr: 0x20A0, symBinAddr: 0x100002E60, symSize: 0xA0 }
  - { offset: 0x127DD, size: 0x8, addend: 0x0, symName: __ZNSt3__119__unwrap_range_implINS_16reverse_iteratorIPxEES3_E8__unwrapB8ne180100ES3_S3_, symObjAddr: 0x2280, symBinAddr: 0x100003040, symSize: 0x90 }
  - { offset: 0x12816, size: 0x8, addend: 0x0, symName: __ZNSt3__14pairINS_16reverse_iteratorIPxEES3_EC1B8ne180100IS3_S3_Li0EEEOT_OT0_, symObjAddr: 0x2310, symBinAddr: 0x1000030D0, symSize: 0x30 }
  - { offset: 0x12876, size: 0x8, addend: 0x0, symName: __ZNSt3__14pairINS_16reverse_iteratorIPxEES3_EC2B8ne180100IS3_S3_Li0EEEOT_OT0_, symObjAddr: 0x2340, symBinAddr: 0x100003100, symSize: 0x40 }
  - { offset: 0x128DC, size: 0x8, addend: 0x0, symName: __ZNSt3__18_IterOpsINS_17_ClassicAlgPolicyEE11__iter_moveB8ne180100IRNS_16reverse_iteratorIPxEELi0EEEDTclsr3stdE4movedeclsr3stdE7declvalIRT_EEEEOS8_, symObjAddr: 0x23C0, symBinAddr: 0x100003180, symSize: 0x20 }
  - { offset: 0x1290F, size: 0x8, addend: 0x0, symName: __ZNKSt3__116reverse_iteratorIPxEdeB8ne180100Ev, symObjAddr: 0x23E0, symBinAddr: 0x1000031A0, symSize: 0x30 }
  - { offset: 0x12944, size: 0x8, addend: 0x0, symName: __ZNSt3__116reverse_iteratorIPxEppB8ne180100Ev, symObjAddr: 0x2410, symBinAddr: 0x1000031D0, symSize: 0x20 }
  - { offset: 0x1296A, size: 0x8, addend: 0x0, symName: __ZNSt3__18_IterOpsINS_17_ClassicAlgPolicyEE25__validate_iter_referenceB8ne180100IRNS_16reverse_iteratorIPxEEEEvv, symObjAddr: 0x2430, symBinAddr: 0x1000031F0, symSize: 0x10 }
  - { offset: 0x12988, size: 0x8, addend: 0x0, symName: __ZNSt3__118__unwrap_iter_implINS_16reverse_iteratorIPxEELb0EE8__unwrapB8ne180100ES3_, symObjAddr: 0x2440, symBinAddr: 0x100003200, symSize: 0x20 }
  - { offset: 0x129AC, size: 0x8, addend: 0x0, symName: __ZNSt3__119__unwrap_range_implINS_16reverse_iteratorIPxEES3_E8__rewrapB8ne180100ES3_S3_, symObjAddr: 0x2460, symBinAddr: 0x100003220, symSize: 0x60 }
  - { offset: 0x129DF, size: 0x8, addend: 0x0, symName: __ZNSt3__118__unwrap_iter_implINS_16reverse_iteratorIPxEELb0EE8__rewrapB8ne180100ES3_S3_, symObjAddr: 0x24C0, symBinAddr: 0x100003280, symSize: 0x30 }
  - { offset: 0x12A0D, size: 0x8, addend: 0x0, symName: __ZNSt3__116reverse_iteratorIPxEC2B8ne180100ES1_, symObjAddr: 0x24F0, symBinAddr: 0x1000032B0, symSize: 0x30 }
  - { offset: 0x12A46, size: 0x8, addend: 0x0, symName: __ZNSt3__114__split_bufferIxRNS_9allocatorIxEEED2Ev, symObjAddr: 0x2520, symBinAddr: 0x1000032E0, symSize: 0x70 }
  - { offset: 0x12A72, size: 0x8, addend: 0x0, symName: __ZNSt3__114__split_bufferIxRNS_9allocatorIxEEE5clearB8ne180100Ev, symObjAddr: 0x2590, symBinAddr: 0x100003350, symSize: 0x20 }
  - { offset: 0x12A98, size: 0x8, addend: 0x0, symName: __ZNKSt3__114__split_bufferIxRNS_9allocatorIxEEE8capacityB8ne180100Ev, symObjAddr: 0x25B0, symBinAddr: 0x100003370, symSize: 0x30 }
  - { offset: 0x12ABE, size: 0x8, addend: 0x0, symName: __ZNSt3__114__split_bufferIxRNS_9allocatorIxEEE17__destruct_at_endB8ne180100EPx, symObjAddr: 0x25E0, symBinAddr: 0x1000033A0, symSize: 0x30 }
  - { offset: 0x12AF3, size: 0x8, addend: 0x0, symName: __ZNSt3__114__split_bufferIxRNS_9allocatorIxEEE17__destruct_at_endB8ne180100EPxNS_17integral_constantIbLb0EEE, symObjAddr: 0x2610, symBinAddr: 0x1000033D0, symSize: 0x80 }
  - { offset: 0x12B34, size: 0x8, addend: 0x0, symName: __ZNKSt3__114__split_bufferIxRNS_9allocatorIxEEE9__end_capB8ne180100Ev, symObjAddr: 0x2690, symBinAddr: 0x100003450, symSize: 0x20 }
  - { offset: 0x12B5A, size: 0x8, addend: 0x0, symName: __ZNKSt3__117__compressed_pairIPxRNS_9allocatorIxEEE5firstB8ne180100Ev, symObjAddr: 0x26B0, symBinAddr: 0x100003470, symSize: 0x20 }
  - { offset: 0x12B80, size: 0x8, addend: 0x0, symName: __ZNSt3__121__tree_const_iteratorIxPNS_11__tree_nodeIxPvEElEmmB8ne180100Ev, symObjAddr: 0x26D0, symBinAddr: 0x100003490, symSize: 0x30 }
  - { offset: 0x12BA6, size: 0x8, addend: 0x0, symName: __ZNKSt3__121__tree_const_iteratorIxPNS_11__tree_nodeIxPvEElEdeB8ne180100Ev, symObjAddr: 0x2700, symBinAddr: 0x1000034C0, symSize: 0x20 }
  - { offset: 0x12BCC, size: 0x8, addend: 0x0, symName: __ZNKSt3__116__tree_node_baseIPvE15__parent_unsafeB8ne180100Ev, symObjAddr: 0x2820, symBinAddr: 0x1000035E0, symSize: 0x20 }
  - { offset: 0x12BF2, size: 0x8, addend: 0x0, symName: __ZNKSt3__121__tree_const_iteratorIxPNS_11__tree_nodeIxPvEElE8__get_npB8ne180100Ev, symObjAddr: 0x2840, symBinAddr: 0x100003600, symSize: 0x20 }
  - { offset: 0x12C18, size: 0x8, addend: 0x0, symName: __ZNSt3__16vectorIxNS_9allocatorIxEEED2B8ne180100Ev, symObjAddr: 0x2860, symBinAddr: 0x100003620, symSize: 0x40 }
  - { offset: 0x12C42, size: 0x8, addend: 0x0, symName: __ZNSt3__13mapIxNS_6vectorIxNS_9allocatorIxEEEENS_4lessIxEENS2_INS_4pairIKxS4_EEEEEC2B8ne180100Ev, symObjAddr: 0x28A0, symBinAddr: 0x100003660, symSize: 0x30 }
  - { offset: 0x12C6C, size: 0x8, addend: 0x0, symName: __ZNSt3__119__map_value_compareIxNS_12__value_typeIxNS_6vectorIxNS_9allocatorIxEEEEEENS_4lessIxEELb1EEC1B8ne180100ES8_, symObjAddr: 0x28D0, symBinAddr: 0x100003690, symSize: 0x20 }
  - { offset: 0x12CA5, size: 0x8, addend: 0x0, symName: __ZNSt3__16__treeINS_12__value_typeIxNS_6vectorIxNS_9allocatorIxEEEEEENS_19__map_value_compareIxS6_NS_4lessIxEELb1EEENS3_IS6_EEEC1ERKSA_, symObjAddr: 0x28F0, symBinAddr: 0x1000036B0, symSize: 0x30 }
  - { offset: 0x12CE0, size: 0x8, addend: 0x0, symName: __ZNSt3__119__map_value_compareIxNS_12__value_typeIxNS_6vectorIxNS_9allocatorIxEEEEEENS_4lessIxEELb1EEC2B8ne180100ES8_, symObjAddr: 0x2920, symBinAddr: 0x1000036E0, symSize: 0x10 }
  - { offset: 0x12D19, size: 0x8, addend: 0x0, symName: __ZNSt3__16__treeINS_12__value_typeIxNS_6vectorIxNS_9allocatorIxEEEEEENS_19__map_value_compareIxS6_NS_4lessIxEELb1EEENS3_IS6_EEEC2ERKSA_, symObjAddr: 0x2930, symBinAddr: 0x1000036F0, symSize: 0x80 }
  - { offset: 0x12D54, size: 0x8, addend: 0x0, symName: __ZNSt3__117__compressed_pairINS_15__tree_end_nodeIPNS_16__tree_node_baseIPvEEEENS_9allocatorINS_11__tree_nodeINS_12__value_typeIxNS_6vectorIxNS7_IxEEEEEES3_EEEEEC1B8ne180100ILb1EvEEv, symObjAddr: 0x29B0, symBinAddr: 0x100003770, symSize: 0x20 }
  - { offset: 0x12D8F, size: 0x8, addend: 0x0, symName: __ZNSt3__117__compressed_pairImNS_19__map_value_compareIxNS_12__value_typeIxNS_6vectorIxNS_9allocatorIxEEEEEENS_4lessIxEELb1EEEEC1B8ne180100IiRKSA_EEOT_OT0_, symObjAddr: 0x29D0, symBinAddr: 0x100003790, symSize: 0x30 }
  - { offset: 0x12DE9, size: 0x8, addend: 0x0, symName: __ZNSt3__16__treeINS_12__value_typeIxNS_6vectorIxNS_9allocatorIxEEEEEENS_19__map_value_compareIxS6_NS_4lessIxEELb1EEENS3_IS6_EEE10__end_nodeB8ne180100Ev, symObjAddr: 0x2A00, symBinAddr: 0x1000037C0, symSize: 0x30 }
  - { offset: 0x12E0F, size: 0x8, addend: 0x0, symName: __ZNSt3__16__treeINS_12__value_typeIxNS_6vectorIxNS_9allocatorIxEEEEEENS_19__map_value_compareIxS6_NS_4lessIxEELb1EEENS3_IS6_EEE12__begin_nodeB8ne180100Ev, symObjAddr: 0x2A30, symBinAddr: 0x1000037F0, symSize: 0x10 }
  - { offset: 0x12E35, size: 0x8, addend: 0x0, symName: __ZNSt3__117__compressed_pairINS_15__tree_end_nodeIPNS_16__tree_node_baseIPvEEEENS_9allocatorINS_11__tree_nodeINS_12__value_typeIxNS_6vectorIxNS7_IxEEEEEES3_EEEEEC2B8ne180100ILb1EvEEv, symObjAddr: 0x2A40, symBinAddr: 0x100003800, symSize: 0x30 }
  - { offset: 0x12E6A, size: 0x8, addend: 0x0, symName: __ZNSt3__122__compressed_pair_elemINS_15__tree_end_nodeIPNS_16__tree_node_baseIPvEEEELi0ELb0EEC2B8ne180100ENS_16__value_init_tagE, symObjAddr: 0x2A70, symBinAddr: 0x100003830, symSize: 0x20 }
  - { offset: 0x12E9E, size: 0x8, addend: 0x0, symName: __ZNSt3__122__compressed_pair_elemINS_9allocatorINS_11__tree_nodeINS_12__value_typeIxNS_6vectorIxNS1_IxEEEEEEPvEEEELi1ELb1EEC2B8ne180100ENS_16__value_init_tagE, symObjAddr: 0x2A90, symBinAddr: 0x100003850, symSize: 0x20 }
  - { offset: 0x12ED2, size: 0x8, addend: 0x0, symName: __ZNSt3__115__tree_end_nodeIPNS_16__tree_node_baseIPvEEEC1B8ne180100Ev, symObjAddr: 0x2AB0, symBinAddr: 0x100003870, symSize: 0x20 }
  - { offset: 0x12EFC, size: 0x8, addend: 0x0, symName: __ZNSt3__115__tree_end_nodeIPNS_16__tree_node_baseIPvEEEC2B8ne180100Ev, symObjAddr: 0x2AD0, symBinAddr: 0x100003890, symSize: 0x20 }
  - { offset: 0x12F26, size: 0x8, addend: 0x0, symName: __ZNSt3__19allocatorINS_11__tree_nodeINS_12__value_typeIxNS_6vectorIxNS0_IxEEEEEEPvEEEC2B8ne180100Ev, symObjAddr: 0x2AF0, symBinAddr: 0x1000038B0, symSize: 0x20 }
  - { offset: 0x12F50, size: 0x8, addend: 0x0, symName: __ZNSt3__116__non_trivial_ifILb1ENS_9allocatorINS_11__tree_nodeINS_12__value_typeIxNS_6vectorIxNS1_IxEEEEEEPvEEEEEC2B8ne180100Ev, symObjAddr: 0x2B10, symBinAddr: 0x1000038D0, symSize: 0x10 }
  - { offset: 0x12F7A, size: 0x8, addend: 0x0, symName: __ZNSt3__117__compressed_pairImNS_19__map_value_compareIxNS_12__value_typeIxNS_6vectorIxNS_9allocatorIxEEEEEENS_4lessIxEELb1EEEEC2B8ne180100IiRKSA_EEOT_OT0_, symObjAddr: 0x2B20, symBinAddr: 0x1000038E0, symSize: 0x40 }
  - { offset: 0x12FD4, size: 0x8, addend: 0x0, symName: __ZNSt3__122__compressed_pair_elemImLi0ELb0EEC2B8ne180100IivEEOT_, symObjAddr: 0x2B60, symBinAddr: 0x100003920, symSize: 0x20 }
  - { offset: 0x13017, size: 0x8, addend: 0x0, symName: __ZNSt3__122__compressed_pair_elemINS_19__map_value_compareIxNS_12__value_typeIxNS_6vectorIxNS_9allocatorIxEEEEEENS_4lessIxEELb1EEELi1ELb1EEC2B8ne180100IRKSA_vEEOT_, symObjAddr: 0x2B80, symBinAddr: 0x100003940, symSize: 0x10 }
  - { offset: 0x1305A, size: 0x8, addend: 0x0, symName: __ZNSt3__114pointer_traitsIPNS_15__tree_end_nodeIPNS_16__tree_node_baseIPvEEEEE10pointer_toB8ne180100ERS6_, symObjAddr: 0x2B90, symBinAddr: 0x100003950, symSize: 0x10 }
  - { offset: 0x1307E, size: 0x8, addend: 0x0, symName: __ZNSt3__117__compressed_pairINS_15__tree_end_nodeIPNS_16__tree_node_baseIPvEEEENS_9allocatorINS_11__tree_nodeINS_12__value_typeIxNS_6vectorIxNS7_IxEEEEEES3_EEEEE5firstB8ne180100Ev, symObjAddr: 0x2BA0, symBinAddr: 0x100003960, symSize: 0x20 }
  - { offset: 0x130A4, size: 0x8, addend: 0x0, symName: __ZNSt3__122__compressed_pair_elemINS_15__tree_end_nodeIPNS_16__tree_node_baseIPvEEEELi0ELb0EE5__getB8ne180100Ev, symObjAddr: 0x2BC0, symBinAddr: 0x100003980, symSize: 0x10 }
  - { offset: 0x130CA, size: 0x8, addend: 0x0, symName: __ZNSt3__13mapIxNS_6vectorIxNS_9allocatorIxEEEENS_4lessIxEENS2_INS_4pairIKxS4_EEEEED2B8ne180100Ev, symObjAddr: 0x2BD0, symBinAddr: 0x100003990, symSize: 0x20 }
  - { offset: 0x130F4, size: 0x8, addend: 0x0, symName: __ZNSt3__16__treeINS_12__value_typeIxNS_6vectorIxNS_9allocatorIxEEEEEENS_19__map_value_compareIxS6_NS_4lessIxEELb1EEENS3_IS6_EEED1Ev, symObjAddr: 0x2BF0, symBinAddr: 0x1000039B0, symSize: 0x20 }
  - { offset: 0x13120, size: 0x8, addend: 0x0, symName: __ZNSt3__16__treeINS_12__value_typeIxNS_6vectorIxNS_9allocatorIxEEEEEENS_19__map_value_compareIxS6_NS_4lessIxEELb1EEENS3_IS6_EEED2Ev, symObjAddr: 0x2C10, symBinAddr: 0x1000039D0, symSize: 0x30 }
  - { offset: 0x1314C, size: 0x8, addend: 0x0, symName: __ZNSt3__16__treeINS_12__value_typeIxNS_6vectorIxNS_9allocatorIxEEEEEENS_19__map_value_compareIxS6_NS_4lessIxEELb1EEENS3_IS6_EEE7destroyEPNS_11__tree_nodeIS6_PvEE, symObjAddr: 0x2C40, symBinAddr: 0x100003A00, symSize: 0xB0 }
  - { offset: 0x13198, size: 0x8, addend: 0x0, symName: __ZNKSt3__16__treeINS_12__value_typeIxNS_6vectorIxNS_9allocatorIxEEEEEENS_19__map_value_compareIxS6_NS_4lessIxEELb1EEENS3_IS6_EEE6__rootB8ne180100Ev, symObjAddr: 0x2CF0, symBinAddr: 0x100003AB0, symSize: 0x20 }
  - { offset: 0x131BE, size: 0x8, addend: 0x0, symName: __ZNSt3__16__treeINS_12__value_typeIxNS_6vectorIxNS_9allocatorIxEEEEEENS_19__map_value_compareIxS6_NS_4lessIxEELb1EEENS3_IS6_EEE12__node_allocB8ne180100Ev, symObjAddr: 0x2D10, symBinAddr: 0x100003AD0, symSize: 0x20 }
  - { offset: 0x131E4, size: 0x8, addend: 0x0, symName: __ZNSt3__116allocator_traitsINS_9allocatorINS_11__tree_nodeINS_12__value_typeIxNS_6vectorIxNS1_IxEEEEEEPvEEEEE7destroyB8ne180100INS_4pairIKxS6_EEvvEEvRSA_PT_, symObjAddr: 0x2D30, symBinAddr: 0x100003AF0, symSize: 0x20 }
  - { offset: 0x1321F, size: 0x8, addend: 0x0, symName: __ZNSt3__122__tree_key_value_typesINS_12__value_typeIxNS_6vectorIxNS_9allocatorIxEEEEEEE9__get_ptrB8ne180100ERS6_, symObjAddr: 0x2D50, symBinAddr: 0x100003B10, symSize: 0x20 }
  - { offset: 0x13243, size: 0x8, addend: 0x0, symName: __ZNSt3__116allocator_traitsINS_9allocatorINS_11__tree_nodeINS_12__value_typeIxNS_6vectorIxNS1_IxEEEEEEPvEEEEE10deallocateB8ne180100ERSA_PS9_m, symObjAddr: 0x2D70, symBinAddr: 0x100003B30, symSize: 0x30 }
  - { offset: 0x13285, size: 0x8, addend: 0x0, symName: __ZNSt3__117__compressed_pairINS_15__tree_end_nodeIPNS_16__tree_node_baseIPvEEEENS_9allocatorINS_11__tree_nodeINS_12__value_typeIxNS_6vectorIxNS7_IxEEEEEES3_EEEEE6secondB8ne180100Ev, symObjAddr: 0x2DA0, symBinAddr: 0x100003B60, symSize: 0x20 }
  - { offset: 0x132AB, size: 0x8, addend: 0x0, symName: __ZNSt3__122__compressed_pair_elemINS_9allocatorINS_11__tree_nodeINS_12__value_typeIxNS_6vectorIxNS1_IxEEEEEEPvEEEELi1ELb1EE5__getB8ne180100Ev, symObjAddr: 0x2DC0, symBinAddr: 0x100003B80, symSize: 0x10 }
  - { offset: 0x132D1, size: 0x8, addend: 0x0, symName: __ZNSt3__14pairIKxNS_6vectorIxNS_9allocatorIxEEEEED1Ev, symObjAddr: 0x2DF0, symBinAddr: 0x100003BB0, symSize: 0x20 }
  - { offset: 0x132FD, size: 0x8, addend: 0x0, symName: __ZNSt3__14pairIKxNS_6vectorIxNS_9allocatorIxEEEEED2Ev, symObjAddr: 0x2E10, symBinAddr: 0x100003BD0, symSize: 0x20 }
  - { offset: 0x13329, size: 0x8, addend: 0x0, symName: __ZNSt3__112__value_typeIxNS_6vectorIxNS_9allocatorIxEEEEE11__get_valueB8ne180100Ev, symObjAddr: 0x2E30, symBinAddr: 0x100003BF0, symSize: 0x20 }
  - { offset: 0x1334F, size: 0x8, addend: 0x0, symName: __ZNSt3__19allocatorINS_11__tree_nodeINS_12__value_typeIxNS_6vectorIxNS0_IxEEEEEEPvEEE10deallocateB8ne180100EPS8_m, symObjAddr: 0x2E80, symBinAddr: 0x100003C40, symSize: 0x40 }
  - { offset: 0x13393, size: 0x8, addend: 0x0, symName: __ZNKSt3__16__treeINS_12__value_typeIxNS_6vectorIxNS_9allocatorIxEEEEEENS_19__map_value_compareIxS6_NS_4lessIxEELb1EEENS3_IS6_EEE10__end_nodeB8ne180100Ev, symObjAddr: 0x2EC0, symBinAddr: 0x100003C80, symSize: 0x30 }
  - { offset: 0x133B9, size: 0x8, addend: 0x0, symName: __ZNKSt3__117__compressed_pairINS_15__tree_end_nodeIPNS_16__tree_node_baseIPvEEEENS_9allocatorINS_11__tree_nodeINS_12__value_typeIxNS_6vectorIxNS7_IxEEEEEES3_EEEEE5firstB8ne180100Ev, symObjAddr: 0x2EF0, symBinAddr: 0x100003CB0, symSize: 0x20 }
  - { offset: 0x133DF, size: 0x8, addend: 0x0, symName: __ZNKSt3__122__compressed_pair_elemINS_15__tree_end_nodeIPNS_16__tree_node_baseIPvEEEELi0ELb0EE5__getB8ne180100Ev, symObjAddr: 0x2F10, symBinAddr: 0x100003CD0, symSize: 0x10 }
  - { offset: 0x1341D, size: 0x8, addend: 0x0, symName: __ZNSt3__16__treeINS_12__value_typeIxNS_6vectorIxNS_9allocatorIxEEEEEENS_19__map_value_compareIxS6_NS_4lessIxEELb1EEENS3_IS6_EEE25__emplace_unique_key_argsIxJRKNS_21piecewise_construct_tENS_5tupleIJRKxEEENSH_IJEEEEEENS_4pairINS_15__tree_iteratorIS6_PNS_11__tree_nodeIS6_PvEElEEbEERKT_DpOT0_, symObjAddr: 0x2F20, symBinAddr: 0x100003CE0, symSize: 0x100 }
  - { offset: 0x134FD, size: 0x8, addend: 0x0, symName: __ZNKSt3__115__tree_iteratorINS_12__value_typeIxNS_6vectorIxNS_9allocatorIxEEEEEEPNS_11__tree_nodeIS6_PvEElEptB8ne180100Ev, symObjAddr: 0x3060, symBinAddr: 0x100003E20, symSize: 0x30 }
  - { offset: 0x13523, size: 0x8, addend: 0x0, symName: __ZNSt3__16__treeINS_12__value_typeIxNS_6vectorIxNS_9allocatorIxEEEEEENS_19__map_value_compareIxS6_NS_4lessIxEELb1EEENS3_IS6_EEE12__find_equalIxEERPNS_16__tree_node_baseIPvEERPNS_15__tree_end_nodeISH_EERKT_, symObjAddr: 0x3090, symBinAddr: 0x100003E50, symSize: 0x180 }
  - { offset: 0x13590, size: 0x8, addend: 0x0, symName: __ZNSt3__16__treeINS_12__value_typeIxNS_6vectorIxNS_9allocatorIxEEEEEENS_19__map_value_compareIxS6_NS_4lessIxEELb1EEENS3_IS6_EEE16__construct_nodeIJRKNS_21piecewise_construct_tENS_5tupleIJRKxEEENSH_IJEEEEEENS_10unique_ptrINS_11__tree_nodeIS6_PvEENS_22__tree_node_destructorINS3_ISP_EEEEEEDpOT_, symObjAddr: 0x3210, symBinAddr: 0x100003FD0, symSize: 0x120 }
  - { offset: 0x13619, size: 0x8, addend: 0x0, symName: __ZNSt3__16__treeINS_12__value_typeIxNS_6vectorIxNS_9allocatorIxEEEEEENS_19__map_value_compareIxS6_NS_4lessIxEELb1EEENS3_IS6_EEE16__insert_node_atEPNS_15__tree_end_nodeIPNS_16__tree_node_baseIPvEEEERSH_SH_, symObjAddr: 0x3330, symBinAddr: 0x1000040F0, symSize: 0xC0 }
  - { offset: 0x1366E, size: 0x8, addend: 0x0, symName: __ZNKSt3__110unique_ptrINS_11__tree_nodeINS_12__value_typeIxNS_6vectorIxNS_9allocatorIxEEEEEEPvEENS_22__tree_node_destructorINS4_IS9_EEEEE3getB8ne180100Ev, symObjAddr: 0x33F0, symBinAddr: 0x1000041B0, symSize: 0x20 }
  - { offset: 0x13694, size: 0x8, addend: 0x0, symName: __ZNSt3__110unique_ptrINS_11__tree_nodeINS_12__value_typeIxNS_6vectorIxNS_9allocatorIxEEEEEEPvEENS_22__tree_node_destructorINS4_IS9_EEEEE7releaseB8ne180100Ev, symObjAddr: 0x3410, symBinAddr: 0x1000041D0, symSize: 0x40 }
  - { offset: 0x136C9, size: 0x8, addend: 0x0, symName: __ZNSt3__110unique_ptrINS_11__tree_nodeINS_12__value_typeIxNS_6vectorIxNS_9allocatorIxEEEEEEPvEENS_22__tree_node_destructorINS4_IS9_EEEEED1B8ne180100Ev, symObjAddr: 0x3450, symBinAddr: 0x100004210, symSize: 0x20 }
  - { offset: 0x136F3, size: 0x8, addend: 0x0, symName: __ZNSt3__115__tree_iteratorINS_12__value_typeIxNS_6vectorIxNS_9allocatorIxEEEEEEPNS_11__tree_nodeIS6_PvEElEC1B8ne180100ESA_, symObjAddr: 0x3470, symBinAddr: 0x100004230, symSize: 0x30 }
  - { offset: 0x13738, size: 0x8, addend: 0x0, symName: __ZNSt3__14pairINS_15__tree_iteratorINS_12__value_typeIxNS_6vectorIxNS_9allocatorIxEEEEEEPNS_11__tree_nodeIS7_PvEElEEbEC1B8ne180100ISC_RbLi0EEEOT_OT0_, symObjAddr: 0x34A0, symBinAddr: 0x100004260, symSize: 0x30 }
  - { offset: 0x13798, size: 0x8, addend: 0x0, symName: __ZNKSt3__16__treeINS_12__value_typeIxNS_6vectorIxNS_9allocatorIxEEEEEENS_19__map_value_compareIxS6_NS_4lessIxEELb1EEENS3_IS6_EEE10__root_ptrB8ne180100Ev, symObjAddr: 0x34D0, symBinAddr: 0x100004290, symSize: 0x20 }
  - { offset: 0x137BE, size: 0x8, addend: 0x0, symName: __ZNSt3__16__treeINS_12__value_typeIxNS_6vectorIxNS_9allocatorIxEEEEEENS_19__map_value_compareIxS6_NS_4lessIxEELb1EEENS3_IS6_EEE10value_compB8ne180100Ev, symObjAddr: 0x34F0, symBinAddr: 0x1000042B0, symSize: 0x20 }
  - { offset: 0x137E4, size: 0x8, addend: 0x0, symName: __ZNKSt3__119__map_value_compareIxNS_12__value_typeIxNS_6vectorIxNS_9allocatorIxEEEEEENS_4lessIxEELb1EEclB8ne180100ERKxRKS6_, symObjAddr: 0x3510, symBinAddr: 0x1000042D0, symSize: 0x50 }
  - { offset: 0x13828, size: 0x8, addend: 0x0, symName: __ZNKSt3__119__map_value_compareIxNS_12__value_typeIxNS_6vectorIxNS_9allocatorIxEEEEEENS_4lessIxEELb1EEclB8ne180100ERKS6_RKx, symObjAddr: 0x3560, symBinAddr: 0x100004320, symSize: 0x40 }
  - { offset: 0x1386C, size: 0x8, addend: 0x0, symName: __ZNSt3__117__compressed_pairImNS_19__map_value_compareIxNS_12__value_typeIxNS_6vectorIxNS_9allocatorIxEEEEEENS_4lessIxEELb1EEEE6secondB8ne180100Ev, symObjAddr: 0x35A0, symBinAddr: 0x100004360, symSize: 0x20 }
  - { offset: 0x13892, size: 0x8, addend: 0x0, symName: __ZNSt3__122__compressed_pair_elemINS_19__map_value_compareIxNS_12__value_typeIxNS_6vectorIxNS_9allocatorIxEEEEEENS_4lessIxEELb1EEELi1ELb1EE5__getB8ne180100Ev, symObjAddr: 0x35C0, symBinAddr: 0x100004380, symSize: 0x10 }
  - { offset: 0x138B8, size: 0x8, addend: 0x0, symName: __ZNKSt3__14lessIxEclB8ne180100ERKxS3_, symObjAddr: 0x35D0, symBinAddr: 0x100004390, symSize: 0x30 }
  - { offset: 0x138FC, size: 0x8, addend: 0x0, symName: __ZNKSt3__112__value_typeIxNS_6vectorIxNS_9allocatorIxEEEEE11__get_valueB8ne180100Ev, symObjAddr: 0x3600, symBinAddr: 0x1000043C0, symSize: 0x20 }
  - { offset: 0x13922, size: 0x8, addend: 0x0, symName: __ZNSt3__116allocator_traitsINS_9allocatorINS_11__tree_nodeINS_12__value_typeIxNS_6vectorIxNS1_IxEEEEEEPvEEEEE8allocateB8ne180100ERSA_m, symObjAddr: 0x3650, symBinAddr: 0x100004410, symSize: 0x30 }
  - { offset: 0x13955, size: 0x8, addend: 0x0, symName: __ZNSt3__122__tree_node_destructorINS_9allocatorINS_11__tree_nodeINS_12__value_typeIxNS_6vectorIxNS1_IxEEEEEEPvEEEEEC1B8ne180100ERSA_b, symObjAddr: 0x3680, symBinAddr: 0x100004440, symSize: 0x40 }
  - { offset: 0x139A3, size: 0x8, addend: 0x0, symName: __ZNSt3__110unique_ptrINS_11__tree_nodeINS_12__value_typeIxNS_6vectorIxNS_9allocatorIxEEEEEEPvEENS_22__tree_node_destructorINS4_IS9_EEEEEC1B8ne180100ILb1EvEEPS9_NS_16__dependent_typeINS_27__unique_ptr_deleter_sfinaeISC_EEXT_EE20__good_rval_ref_typeE, symObjAddr: 0x36C0, symBinAddr: 0x100004480, symSize: 0x30 }
  - { offset: 0x139F6, size: 0x8, addend: 0x0, symName: __ZNSt3__116allocator_traitsINS_9allocatorINS_11__tree_nodeINS_12__value_typeIxNS_6vectorIxNS1_IxEEEEEEPvEEEEE9constructB8ne180100INS_4pairIKxS6_EEJRKNS_21piecewise_construct_tENS_5tupleIJRSE_EEENSJ_IJEEEEvvEEvRSA_PT_DpOT0_, symObjAddr: 0x36F0, symBinAddr: 0x1000044B0, symSize: 0x40 }
  - { offset: 0x13A73, size: 0x8, addend: 0x0, symName: __ZNKSt3__110unique_ptrINS_11__tree_nodeINS_12__value_typeIxNS_6vectorIxNS_9allocatorIxEEEEEEPvEENS_22__tree_node_destructorINS4_IS9_EEEEEptB8ne180100Ev, symObjAddr: 0x3730, symBinAddr: 0x1000044F0, symSize: 0x20 }
  - { offset: 0x13A99, size: 0x8, addend: 0x0, symName: __ZNSt3__110unique_ptrINS_11__tree_nodeINS_12__value_typeIxNS_6vectorIxNS_9allocatorIxEEEEEEPvEENS_22__tree_node_destructorINS4_IS9_EEEEE11get_deleterB8ne180100Ev, symObjAddr: 0x3750, symBinAddr: 0x100004510, symSize: 0x20 }
  - { offset: 0x13ABF, size: 0x8, addend: 0x0, symName: __ZNSt3__19allocatorINS_11__tree_nodeINS_12__value_typeIxNS_6vectorIxNS0_IxEEEEEEPvEEE8allocateB8ne180100Em, symObjAddr: 0x3770, symBinAddr: 0x100004530, symSize: 0x50 }
  - { offset: 0x13AFF, size: 0x8, addend: 0x0, symName: __ZNSt3__116allocator_traitsINS_9allocatorINS_11__tree_nodeINS_12__value_typeIxNS_6vectorIxNS1_IxEEEEEEPvEEEEE8max_sizeB8ne180100ISA_vvEEmRKSA_, symObjAddr: 0x37C0, symBinAddr: 0x100004580, symSize: 0x20 }
  - { offset: 0x13B2B, size: 0x8, addend: 0x0, symName: __ZNSt3__122__tree_node_destructorINS_9allocatorINS_11__tree_nodeINS_12__value_typeIxNS_6vectorIxNS1_IxEEEEEEPvEEEEEC2B8ne180100ERSA_b, symObjAddr: 0x37E0, symBinAddr: 0x1000045A0, symSize: 0x30 }
  - { offset: 0x13B73, size: 0x8, addend: 0x0, symName: __ZNSt3__110unique_ptrINS_11__tree_nodeINS_12__value_typeIxNS_6vectorIxNS_9allocatorIxEEEEEEPvEENS_22__tree_node_destructorINS4_IS9_EEEEEC2B8ne180100ILb1EvEEPS9_NS_16__dependent_typeINS_27__unique_ptr_deleter_sfinaeISC_EEXT_EE20__good_rval_ref_typeE, symObjAddr: 0x3810, symBinAddr: 0x1000045D0, symSize: 0x40 }
  - { offset: 0x13BC6, size: 0x8, addend: 0x0, symName: __ZNSt3__117__compressed_pairIPNS_11__tree_nodeINS_12__value_typeIxNS_6vectorIxNS_9allocatorIxEEEEEEPvEENS_22__tree_node_destructorINS4_IS9_EEEEEC1B8ne180100IRSA_SD_EEOT_OT0_, symObjAddr: 0x3850, symBinAddr: 0x100004610, symSize: 0x30 }
  - { offset: 0x13C20, size: 0x8, addend: 0x0, symName: __ZNSt3__117__compressed_pairIPNS_11__tree_nodeINS_12__value_typeIxNS_6vectorIxNS_9allocatorIxEEEEEEPvEENS_22__tree_node_destructorINS4_IS9_EEEEEC2B8ne180100IRSA_SD_EEOT_OT0_, symObjAddr: 0x3880, symBinAddr: 0x100004640, symSize: 0x40 }
  - { offset: 0x13C7A, size: 0x8, addend: 0x0, symName: __ZNSt3__122__compressed_pair_elemIPNS_11__tree_nodeINS_12__value_typeIxNS_6vectorIxNS_9allocatorIxEEEEEEPvEELi0ELb0EEC2B8ne180100IRSA_vEEOT_, symObjAddr: 0x38C0, symBinAddr: 0x100004680, symSize: 0x20 }
  - { offset: 0x13CBD, size: 0x8, addend: 0x0, symName: __ZNSt3__122__compressed_pair_elemINS_22__tree_node_destructorINS_9allocatorINS_11__tree_nodeINS_12__value_typeIxNS_6vectorIxNS2_IxEEEEEEPvEEEEEELi1ELb0EEC2B8ne180100ISC_vEEOT_, symObjAddr: 0x38E0, symBinAddr: 0x1000046A0, symSize: 0x30 }
  - { offset: 0x13D00, size: 0x8, addend: 0x0, symName: __ZNSt3__14pairIKxNS_6vectorIxNS_9allocatorIxEEEEEC1B8ne180100IJRS1_EJEEENS_21piecewise_construct_tENS_5tupleIJDpT_EEENSA_IJDpT0_EEE, symObjAddr: 0x3990, symBinAddr: 0x100004750, symSize: 0x40 }
  - { offset: 0x13D67, size: 0x8, addend: 0x0, symName: __ZNSt3__14pairIKxNS_6vectorIxNS_9allocatorIxEEEEEC1B8ne180100IJRS1_EJEJLm0EEJEEENS_21piecewise_construct_tERNS_5tupleIJDpT_EEERNSA_IJDpT0_EEENS_15__tuple_indicesIJXspT1_EEEENSJ_IJXspT2_EEEE, symObjAddr: 0x39D0, symBinAddr: 0x100004790, symSize: 0x30 }
  - { offset: 0x13DF7, size: 0x8, addend: 0x0, symName: __ZNSt3__14pairIKxNS_6vectorIxNS_9allocatorIxEEEEEC2B8ne180100IJRS1_EJEJLm0EEJEEENS_21piecewise_construct_tERNS_5tupleIJDpT_EEERNSA_IJDpT0_EEENS_15__tuple_indicesIJXspT1_EEEENSJ_IJXspT2_EEEE, symObjAddr: 0x3A00, symBinAddr: 0x1000047C0, symSize: 0x40 }
  - { offset: 0x13E87, size: 0x8, addend: 0x0, symName: __ZNSt3__16vectorIxNS_9allocatorIxEEEC1B8ne180100Ev, symObjAddr: 0x3A60, symBinAddr: 0x100004820, symSize: 0x20 }
  - { offset: 0x13EB1, size: 0x8, addend: 0x0, symName: __ZNSt3__112__tuple_leafILm0ERKxLb0EE3getB8ne180100Ev, symObjAddr: 0x3A80, symBinAddr: 0x100004840, symSize: 0x20 }
  - { offset: 0x13ED7, size: 0x8, addend: 0x0, symName: __ZNSt3__16vectorIxNS_9allocatorIxEEEC2B8ne180100Ev, symObjAddr: 0x3AA0, symBinAddr: 0x100004860, symSize: 0x50 }
  - { offset: 0x13F01, size: 0x8, addend: 0x0, symName: __ZNKSt3__117__compressed_pairIPNS_11__tree_nodeINS_12__value_typeIxNS_6vectorIxNS_9allocatorIxEEEEEEPvEENS_22__tree_node_destructorINS4_IS9_EEEEE5firstB8ne180100Ev, symObjAddr: 0x3AF0, symBinAddr: 0x1000048B0, symSize: 0x20 }
  - { offset: 0x13F27, size: 0x8, addend: 0x0, symName: __ZNKSt3__122__compressed_pair_elemIPNS_11__tree_nodeINS_12__value_typeIxNS_6vectorIxNS_9allocatorIxEEEEEEPvEELi0ELb0EE5__getB8ne180100Ev, symObjAddr: 0x3B10, symBinAddr: 0x1000048D0, symSize: 0x10 }
  - { offset: 0x13F4D, size: 0x8, addend: 0x0, symName: __ZNSt3__117__compressed_pairIPNS_11__tree_nodeINS_12__value_typeIxNS_6vectorIxNS_9allocatorIxEEEEEEPvEENS_22__tree_node_destructorINS4_IS9_EEEEE6secondB8ne180100Ev, symObjAddr: 0x3B20, symBinAddr: 0x1000048E0, symSize: 0x20 }
  - { offset: 0x13F73, size: 0x8, addend: 0x0, symName: __ZNSt3__122__compressed_pair_elemINS_22__tree_node_destructorINS_9allocatorINS_11__tree_nodeINS_12__value_typeIxNS_6vectorIxNS2_IxEEEEEEPvEEEEEELi1ELb0EE5__getB8ne180100Ev, symObjAddr: 0x3B40, symBinAddr: 0x100004900, symSize: 0x10 }
  - { offset: 0x13F99, size: 0x8, addend: 0x0, symName: __ZNSt3__16__treeINS_12__value_typeIxNS_6vectorIxNS_9allocatorIxEEEEEENS_19__map_value_compareIxS6_NS_4lessIxEELb1EEENS3_IS6_EEE4sizeB8ne180100Ev, symObjAddr: 0x3D90, symBinAddr: 0x100004B50, symSize: 0x20 }
  - { offset: 0x13FBF, size: 0x8, addend: 0x0, symName: __ZNSt3__116__tree_node_baseIPvE12__set_parentB8ne180100EPS2_, symObjAddr: 0x3F40, symBinAddr: 0x100004D00, symSize: 0x20 }
  - { offset: 0x13FF4, size: 0x8, addend: 0x0, symName: __ZNSt3__117__compressed_pairImNS_19__map_value_compareIxNS_12__value_typeIxNS_6vectorIxNS_9allocatorIxEEEEEENS_4lessIxEELb1EEEE5firstB8ne180100Ev, symObjAddr: 0x3F60, symBinAddr: 0x100004D20, symSize: 0x20 }
  - { offset: 0x1401A, size: 0x8, addend: 0x0, symName: __ZNSt3__122__compressed_pair_elemImLi0ELb0EE5__getB8ne180100Ev, symObjAddr: 0x3F80, symBinAddr: 0x100004D40, symSize: 0x10 }
  - { offset: 0x14040, size: 0x8, addend: 0x0, symName: __ZNSt3__117__compressed_pairIPNS_11__tree_nodeINS_12__value_typeIxNS_6vectorIxNS_9allocatorIxEEEEEEPvEENS_22__tree_node_destructorINS4_IS9_EEEEE5firstB8ne180100Ev, symObjAddr: 0x3F90, symBinAddr: 0x100004D50, symSize: 0x20 }
  - { offset: 0x14066, size: 0x8, addend: 0x0, symName: __ZNSt3__122__compressed_pair_elemIPNS_11__tree_nodeINS_12__value_typeIxNS_6vectorIxNS_9allocatorIxEEEEEEPvEELi0ELb0EE5__getB8ne180100Ev, symObjAddr: 0x3FB0, symBinAddr: 0x100004D70, symSize: 0x10 }
  - { offset: 0x1408C, size: 0x8, addend: 0x0, symName: __ZNSt3__110unique_ptrINS_11__tree_nodeINS_12__value_typeIxNS_6vectorIxNS_9allocatorIxEEEEEEPvEENS_22__tree_node_destructorINS4_IS9_EEEEED2B8ne180100Ev, symObjAddr: 0x3FC0, symBinAddr: 0x100004D80, symSize: 0x20 }
  - { offset: 0x140B6, size: 0x8, addend: 0x0, symName: __ZNSt3__110unique_ptrINS_11__tree_nodeINS_12__value_typeIxNS_6vectorIxNS_9allocatorIxEEEEEEPvEENS_22__tree_node_destructorINS4_IS9_EEEEE5resetB8ne180100EPS9_, symObjAddr: 0x3FE0, symBinAddr: 0x100004DA0, symSize: 0x70 }
  - { offset: 0x140FA, size: 0x8, addend: 0x0, symName: __ZNSt3__122__tree_node_destructorINS_9allocatorINS_11__tree_nodeINS_12__value_typeIxNS_6vectorIxNS1_IxEEEEEEPvEEEEEclB8ne180100EPS9_, symObjAddr: 0x4050, symBinAddr: 0x100004E10, symSize: 0x90 }
  - { offset: 0x1412F, size: 0x8, addend: 0x0, symName: __ZNSt3__115__tree_iteratorINS_12__value_typeIxNS_6vectorIxNS_9allocatorIxEEEEEEPNS_11__tree_nodeIS6_PvEElEC2B8ne180100ESA_, symObjAddr: 0x40E0, symBinAddr: 0x100004EA0, symSize: 0x20 }
  - { offset: 0x14168, size: 0x8, addend: 0x0, symName: __ZNSt3__14pairINS_15__tree_iteratorINS_12__value_typeIxNS_6vectorIxNS_9allocatorIxEEEEEEPNS_11__tree_nodeIS7_PvEElEEbEC2B8ne180100ISC_RbLi0EEEOT_OT0_, symObjAddr: 0x4100, symBinAddr: 0x100004EC0, symSize: 0x30 }
  - { offset: 0x141C8, size: 0x8, addend: 0x0, symName: __ZNSt3__15tupleIJRKxEEC1B8ne180100INS_4_AndELi0EEES2_, symObjAddr: 0x4130, symBinAddr: 0x100004EF0, symSize: 0x30 }
  - { offset: 0x14210, size: 0x8, addend: 0x0, symName: __ZNSt3__15tupleIJRKxEEC2B8ne180100INS_4_AndELi0EEES2_, symObjAddr: 0x4160, symBinAddr: 0x100004F20, symSize: 0x30 }
  - { offset: 0x14258, size: 0x8, addend: 0x0, symName: __ZNSt3__112__tuple_implINS_15__tuple_indicesIJLm0EEEEJRKxEEC1B8ne180100IJLm0EEJS4_EJEJEJS4_EEENS1_IJXspT_EEEENS_13__tuple_typesIJDpT0_EEENS1_IJXspT1_EEEENS8_IJDpT2_EEEDpOT3_, symObjAddr: 0x4190, symBinAddr: 0x100004F50, symSize: 0x30 }
  - { offset: 0x142ED, size: 0x8, addend: 0x0, symName: __ZNSt3__112__tuple_implINS_15__tuple_indicesIJLm0EEEEJRKxEEC2B8ne180100IJLm0EEJS4_EJEJEJS4_EEENS1_IJXspT_EEEENS_13__tuple_typesIJDpT0_EEENS1_IJXspT1_EEEENS8_IJDpT2_EEEDpOT3_, symObjAddr: 0x41C0, symBinAddr: 0x100004F80, symSize: 0x30 }
  - { offset: 0x14382, size: 0x8, addend: 0x0, symName: __ZNSt3__112__tuple_leafILm0ERKxLb0EEC2B8ne180100IS2_vEEOT_, symObjAddr: 0x41F0, symBinAddr: 0x100004FB0, symSize: 0x20 }
  - { offset: 0x143C5, size: 0x8, addend: 0x0, symName: __ZNSt3__114pointer_traitsIPNS_12__value_typeIxNS_6vectorIxNS_9allocatorIxEEEEEEE10pointer_toB8ne180100ERS6_, symObjAddr: 0x4210, symBinAddr: 0x100004FD0, symSize: 0x10 }
  - { offset: 0x143E9, size: 0x8, addend: 0x0, symName: __ZNKSt3__115__tree_iteratorINS_12__value_typeIxNS_6vectorIxNS_9allocatorIxEEEEEEPNS_11__tree_nodeIS6_PvEElE8__get_npB8ne180100Ev, symObjAddr: 0x4220, symBinAddr: 0x100004FE0, symSize: 0x20 }
  - { offset: 0x1440F, size: 0x8, addend: 0x0, symName: __ZNSt3__13setIxNS_4lessIxEENS_9allocatorIxEEEC2B8ne180100Ev, symObjAddr: 0x4240, symBinAddr: 0x100005000, symSize: 0x20 }
  - { offset: 0x14439, size: 0x8, addend: 0x0, symName: __ZNSt3__16__treeIxNS_4lessIxEENS_9allocatorIxEEEC1ERKS2_, symObjAddr: 0x4260, symBinAddr: 0x100005020, symSize: 0x30 }
  - { offset: 0x14474, size: 0x8, addend: 0x0, symName: __ZNSt3__16__treeIxNS_4lessIxEENS_9allocatorIxEEEC2ERKS2_, symObjAddr: 0x4290, symBinAddr: 0x100005050, symSize: 0x80 }
  - { offset: 0x144AF, size: 0x8, addend: 0x0, symName: __ZNSt3__117__compressed_pairINS_15__tree_end_nodeIPNS_16__tree_node_baseIPvEEEENS_9allocatorINS_11__tree_nodeIxS3_EEEEEC1B8ne180100ILb1EvEEv, symObjAddr: 0x4310, symBinAddr: 0x1000050D0, symSize: 0x20 }
  - { offset: 0x144E4, size: 0x8, addend: 0x0, symName: __ZNSt3__117__compressed_pairImNS_4lessIxEEEC1B8ne180100IiRKS2_EEOT_OT0_, symObjAddr: 0x4330, symBinAddr: 0x1000050F0, symSize: 0x30 }
  - { offset: 0x1453E, size: 0x8, addend: 0x0, symName: __ZNSt3__16__treeIxNS_4lessIxEENS_9allocatorIxEEE10__end_nodeB8ne180100Ev, symObjAddr: 0x4360, symBinAddr: 0x100005120, symSize: 0x30 }
  - { offset: 0x14564, size: 0x8, addend: 0x0, symName: __ZNSt3__16__treeIxNS_4lessIxEENS_9allocatorIxEEE12__begin_nodeB8ne180100Ev, symObjAddr: 0x4390, symBinAddr: 0x100005150, symSize: 0x10 }
  - { offset: 0x1458A, size: 0x8, addend: 0x0, symName: __ZNSt3__117__compressed_pairINS_15__tree_end_nodeIPNS_16__tree_node_baseIPvEEEENS_9allocatorINS_11__tree_nodeIxS3_EEEEEC2B8ne180100ILb1EvEEv, symObjAddr: 0x43A0, symBinAddr: 0x100005160, symSize: 0x30 }
  - { offset: 0x145BF, size: 0x8, addend: 0x0, symName: __ZNSt3__122__compressed_pair_elemINS_9allocatorINS_11__tree_nodeIxPvEEEELi1ELb1EEC2B8ne180100ENS_16__value_init_tagE, symObjAddr: 0x43D0, symBinAddr: 0x100005190, symSize: 0x20 }
  - { offset: 0x145F3, size: 0x8, addend: 0x0, symName: __ZNSt3__19allocatorINS_11__tree_nodeIxPvEEEC2B8ne180100Ev, symObjAddr: 0x43F0, symBinAddr: 0x1000051B0, symSize: 0x20 }
  - { offset: 0x1461D, size: 0x8, addend: 0x0, symName: __ZNSt3__116__non_trivial_ifILb1ENS_9allocatorINS_11__tree_nodeIxPvEEEEEC2B8ne180100Ev, symObjAddr: 0x4410, symBinAddr: 0x1000051D0, symSize: 0x10 }
  - { offset: 0x14647, size: 0x8, addend: 0x0, symName: __ZNSt3__117__compressed_pairImNS_4lessIxEEEC2B8ne180100IiRKS2_EEOT_OT0_, symObjAddr: 0x4420, symBinAddr: 0x1000051E0, symSize: 0x40 }
  - { offset: 0x146A1, size: 0x8, addend: 0x0, symName: __ZNSt3__122__compressed_pair_elemINS_4lessIxEELi1ELb1EEC2B8ne180100IRKS2_vEEOT_, symObjAddr: 0x4460, symBinAddr: 0x100005220, symSize: 0x10 }
  - { offset: 0x146E4, size: 0x8, addend: 0x0, symName: __ZNSt3__117__compressed_pairINS_15__tree_end_nodeIPNS_16__tree_node_baseIPvEEEENS_9allocatorINS_11__tree_nodeIxS3_EEEEE5firstB8ne180100Ev, symObjAddr: 0x4470, symBinAddr: 0x100005230, symSize: 0x20 }
  - { offset: 0x1470A, size: 0x8, addend: 0x0, symName: __ZNSt3__13setIxNS_4lessIxEENS_9allocatorIxEEED2B8ne180100Ev, symObjAddr: 0x4490, symBinAddr: 0x100005250, symSize: 0x20 }
  - { offset: 0x14734, size: 0x8, addend: 0x0, symName: __ZNSt3__16__treeIxNS_4lessIxEENS_9allocatorIxEEED1Ev, symObjAddr: 0x44B0, symBinAddr: 0x100005270, symSize: 0x20 }
  - { offset: 0x14760, size: 0x8, addend: 0x0, symName: __ZNSt3__16__treeIxNS_4lessIxEENS_9allocatorIxEEED2Ev, symObjAddr: 0x44D0, symBinAddr: 0x100005290, symSize: 0x30 }
  - { offset: 0x1478C, size: 0x8, addend: 0x0, symName: __ZNSt3__16__treeIxNS_4lessIxEENS_9allocatorIxEEE7destroyEPNS_11__tree_nodeIxPvEE, symObjAddr: 0x4500, symBinAddr: 0x1000052C0, symSize: 0xB0 }
  - { offset: 0x147D8, size: 0x8, addend: 0x0, symName: __ZNKSt3__16__treeIxNS_4lessIxEENS_9allocatorIxEEE6__rootB8ne180100Ev, symObjAddr: 0x45B0, symBinAddr: 0x100005370, symSize: 0x20 }
  - { offset: 0x147FE, size: 0x8, addend: 0x0, symName: __ZNSt3__16__treeIxNS_4lessIxEENS_9allocatorIxEEE12__node_allocB8ne180100Ev, symObjAddr: 0x45D0, symBinAddr: 0x100005390, symSize: 0x20 }
  - { offset: 0x14824, size: 0x8, addend: 0x0, symName: __ZNSt3__116allocator_traitsINS_9allocatorINS_11__tree_nodeIxPvEEEEE7destroyB8ne180100IxvvEEvRS5_PT_, symObjAddr: 0x45F0, symBinAddr: 0x1000053B0, symSize: 0x20 }
  - { offset: 0x1485F, size: 0x8, addend: 0x0, symName: __ZNSt3__122__tree_key_value_typesIxE9__get_ptrB8ne180100ERx, symObjAddr: 0x4610, symBinAddr: 0x1000053D0, symSize: 0x10 }
  - { offset: 0x14883, size: 0x8, addend: 0x0, symName: __ZNSt3__116allocator_traitsINS_9allocatorINS_11__tree_nodeIxPvEEEEE10deallocateB8ne180100ERS5_PS4_m, symObjAddr: 0x4620, symBinAddr: 0x1000053E0, symSize: 0x30 }
  - { offset: 0x148C5, size: 0x8, addend: 0x0, symName: __ZNSt3__117__compressed_pairINS_15__tree_end_nodeIPNS_16__tree_node_baseIPvEEEENS_9allocatorINS_11__tree_nodeIxS3_EEEEE6secondB8ne180100Ev, symObjAddr: 0x4650, symBinAddr: 0x100005410, symSize: 0x20 }
  - { offset: 0x148EB, size: 0x8, addend: 0x0, symName: __ZNSt3__122__compressed_pair_elemINS_9allocatorINS_11__tree_nodeIxPvEEEELi1ELb1EE5__getB8ne180100Ev, symObjAddr: 0x4670, symBinAddr: 0x100005430, symSize: 0x10 }
  - { offset: 0x14911, size: 0x8, addend: 0x0, symName: __ZNSt3__19allocatorINS_11__tree_nodeIxPvEEE10deallocateB8ne180100EPS3_m, symObjAddr: 0x4680, symBinAddr: 0x100005440, symSize: 0x50 }
  - { offset: 0x14955, size: 0x8, addend: 0x0, symName: __ZNKSt3__16__treeIxNS_4lessIxEENS_9allocatorIxEEE10__end_nodeB8ne180100Ev, symObjAddr: 0x46D0, symBinAddr: 0x100005490, symSize: 0x30 }
  - { offset: 0x1497B, size: 0x8, addend: 0x0, symName: __ZNKSt3__117__compressed_pairINS_15__tree_end_nodeIPNS_16__tree_node_baseIPvEEEENS_9allocatorINS_11__tree_nodeIxS3_EEEEE5firstB8ne180100Ev, symObjAddr: 0x4700, symBinAddr: 0x1000054C0, symSize: 0x20 }
  - { offset: 0x149A1, size: 0x8, addend: 0x0, symName: __ZNKSt3__110__function12__value_funcIFvxEEclB8ne180100EOx, symObjAddr: 0x4720, symBinAddr: 0x1000054E0, symSize: 0x40 }
  - { offset: 0x149ED, size: 0x8, addend: 0x0, symName: __ZNSt3__117bad_function_callC1B8ne180100Ev, symObjAddr: 0x47A0, symBinAddr: 0x100005560, symSize: 0x20 }
  - { offset: 0x14A17, size: 0x8, addend: 0x0, symName: __ZNSt3__117bad_function_callD1Ev, symObjAddr: 0x47C0, symBinAddr: 0x100005580, symSize: 0x20 }
  - { offset: 0x14A41, size: 0x8, addend: 0x0, symName: __ZNSt3__117bad_function_callC2B8ne180100Ev, symObjAddr: 0x47E0, symBinAddr: 0x1000055A0, symSize: 0x40 }
  - { offset: 0x14A6B, size: 0x8, addend: 0x0, symName: __ZNSt9exceptionC2B8ne180100Ev, symObjAddr: 0x4820, symBinAddr: 0x1000055E0, symSize: 0x20 }
  - { offset: 0x14A95, size: 0x8, addend: 0x0, symName: __ZNSt3__117bad_function_callD0Ev, symObjAddr: 0x4840, symBinAddr: 0x100005600, symSize: 0x30 }
  - { offset: 0x14ABF, size: 0x8, addend: 0x0, symName: __ZNSt3__117bad_function_callD2Ev, symObjAddr: 0x4870, symBinAddr: 0x100005630, symSize: 0x20 }
  - { offset: 0x14AE9, size: 0x8, addend: 0x0, symName: '__ZNSt3__18functionIFvxEEC2IZ4mainE3$_0vEET_', symObjAddr: 0x4890, symBinAddr: 0x100005650, symSize: 0x20 }
  - { offset: 0x14B2E, size: 0x8, addend: 0x0, symName: '__ZNSt3__110__function12__value_funcIFvxEEC1B8ne180100IZ4mainE3$_0Li0EEEOT_', symObjAddr: 0x48B0, symBinAddr: 0x100005670, symSize: 0x40 }
  - { offset: 0x14B76, size: 0x8, addend: 0x0, symName: '__ZNSt3__19allocatorIZ4mainE3$_0EC1B8ne180100Ev', symObjAddr: 0x48F0, symBinAddr: 0x1000056B0, symSize: 0x20 }
  - { offset: 0x14BA0, size: 0x8, addend: 0x0, symName: '__ZNSt3__110__function12__value_funcIFvxEEC1B8ne180100IZ4mainE3$_0NS_9allocatorIS5_EEEEOT_RKT0_', symObjAddr: 0x4910, symBinAddr: 0x1000056D0, symSize: 0x30 }
  - { offset: 0x14BFA, size: 0x8, addend: 0x0, symName: '__ZNSt3__19allocatorIZ4mainE3$_0EC2B8ne180100Ev', symObjAddr: 0x4940, symBinAddr: 0x100005700, symSize: 0x20 }
  - { offset: 0x14C24, size: 0x8, addend: 0x0, symName: '__ZNSt3__116__non_trivial_ifILb1ENS_9allocatorIZ4mainE3$_0EEEC2B8ne180100Ev', symObjAddr: 0x4960, symBinAddr: 0x100005720, symSize: 0x10 }
  - { offset: 0x14C4E, size: 0x8, addend: 0x0, symName: '__ZNSt3__110__function12__value_funcIFvxEEC2B8ne180100IZ4mainE3$_0NS_9allocatorIS5_EEEEOT_RKT0_', symObjAddr: 0x4970, symBinAddr: 0x100005730, symSize: 0x80 }
  - { offset: 0x14CDE, size: 0x8, addend: 0x0, symName: '__ZNSt3__19allocatorINS_10__function6__funcIZ4mainE3$_0NS0_IS3_EEFvxEEEEC1B8ne180100IS3_EERKNS0_IT_EE', symObjAddr: 0x4A10, symBinAddr: 0x1000057D0, symSize: 0x30 }
  - { offset: 0x14D26, size: 0x8, addend: 0x0, symName: '__ZNSt3__19allocatorIZ4mainE3$_0EC1B8ne180100INS_10__function6__funcIS1_S2_FvxEEEEERKNS0_IT_EE', symObjAddr: 0x4A40, symBinAddr: 0x100005800, symSize: 0x30 }
  - { offset: 0x14D63, size: 0x8, addend: 0x0, symName: '__ZNSt3__110__function6__funcIZ4mainE3$_0NS_9allocatorIS2_EEFvxEEC1B8ne180100EOS2_OS4_', symObjAddr: 0x4A70, symBinAddr: 0x100005830, symSize: 0x30 }
  - { offset: 0x14DAB, size: 0x8, addend: 0x0, symName: '__ZNSt3__19allocatorINS_10__function6__funcIZ4mainE3$_0NS0_IS3_EEFvxEEEEC2B8ne180100IS3_EERKNS0_IT_EE', symObjAddr: 0x4AA0, symBinAddr: 0x100005860, symSize: 0x20 }
  - { offset: 0x14DE8, size: 0x8, addend: 0x0, symName: '__ZNSt3__116__non_trivial_ifILb1ENS_9allocatorINS_10__function6__funcIZ4mainE3$_0NS1_IS4_EEFvxEEEEEEC2B8ne180100Ev', symObjAddr: 0x4AC0, symBinAddr: 0x100005880, symSize: 0x10 }
  - { offset: 0x14E12, size: 0x8, addend: 0x0, symName: '__ZNSt3__19allocatorIZ4mainE3$_0EC2B8ne180100INS_10__function6__funcIS1_S2_FvxEEEEERKNS0_IT_EE', symObjAddr: 0x4AD0, symBinAddr: 0x100005890, symSize: 0x20 }
  - { offset: 0x14E4F, size: 0x8, addend: 0x0, symName: '__ZNSt3__110__function6__funcIZ4mainE3$_0NS_9allocatorIS2_EEFvxEEC2B8ne180100EOS2_OS4_', symObjAddr: 0x4AF0, symBinAddr: 0x1000058B0, symSize: 0x70 }
  - { offset: 0x14E97, size: 0x8, addend: 0x0, symName: __ZNSt3__110__function6__baseIFvxEEC2B8ne180100Ev, symObjAddr: 0x4B60, symBinAddr: 0x100005920, symSize: 0x20 }
  - { offset: 0x14EC1, size: 0x8, addend: 0x0, symName: '__ZNSt3__110__function12__alloc_funcIZ4mainE3$_0NS_9allocatorIS2_EEFvxEEC1B8ne180100EOS2_OS4_', symObjAddr: 0x4B80, symBinAddr: 0x100005940, symSize: 0x30 }
  - { offset: 0x14F09, size: 0x8, addend: 0x0, symName: __ZNSt3__110__function6__baseIFvxEED2Ev, symObjAddr: 0x4BB0, symBinAddr: 0x100005970, symSize: 0x10 }
  - { offset: 0x14F33, size: 0x8, addend: 0x0, symName: '__ZNSt3__110__function6__funcIZ4mainE3$_0NS_9allocatorIS2_EEFvxEED1Ev', symObjAddr: 0x4BC0, symBinAddr: 0x100005980, symSize: 0x20 }
  - { offset: 0x14F5F, size: 0x8, addend: 0x0, symName: '__ZNSt3__110__function6__funcIZ4mainE3$_0NS_9allocatorIS2_EEFvxEED0Ev', symObjAddr: 0x4BE0, symBinAddr: 0x1000059A0, symSize: 0x30 }
  - { offset: 0x14F8B, size: 0x8, addend: 0x0, symName: '__ZNKSt3__110__function6__funcIZ4mainE3$_0NS_9allocatorIS2_EEFvxEE7__cloneEv', symObjAddr: 0x4C10, symBinAddr: 0x1000059D0, symSize: 0x110 }
  - { offset: 0x14FDD, size: 0x8, addend: 0x0, symName: '__ZNKSt3__110__function6__funcIZ4mainE3$_0NS_9allocatorIS2_EEFvxEE7__cloneEPNS0_6__baseIS5_EE', symObjAddr: 0x4D20, symBinAddr: 0x100005AE0, symSize: 0x50 }
  - { offset: 0x15014, size: 0x8, addend: 0x0, symName: '__ZNSt3__110__function6__funcIZ4mainE3$_0NS_9allocatorIS2_EEFvxEE7destroyEv', symObjAddr: 0x4D70, symBinAddr: 0x100005B30, symSize: 0x20 }
  - { offset: 0x1503C, size: 0x8, addend: 0x0, symName: '__ZNSt3__110__function6__funcIZ4mainE3$_0NS_9allocatorIS2_EEFvxEE18destroy_deallocateEv', symObjAddr: 0x4D90, symBinAddr: 0x100005B50, symSize: 0x50 }
  - { offset: 0x1507F, size: 0x8, addend: 0x0, symName: '__ZNSt3__110__function6__funcIZ4mainE3$_0NS_9allocatorIS2_EEFvxEEclEOx', symObjAddr: 0x4DE0, symBinAddr: 0x100005BA0, symSize: 0x30 }
  - { offset: 0x150B6, size: 0x8, addend: 0x0, symName: '__ZNKSt3__110__function6__funcIZ4mainE3$_0NS_9allocatorIS2_EEFvxEE6targetERKSt9type_info', symObjAddr: 0x4E10, symBinAddr: 0x100005BD0, symSize: 0x60 }
  - { offset: 0x150ED, size: 0x8, addend: 0x0, symName: '__ZNKSt3__110__function6__funcIZ4mainE3$_0NS_9allocatorIS2_EEFvxEE11target_typeEv', symObjAddr: 0x4E70, symBinAddr: 0x100005C30, symSize: 0x20 }
  - { offset: 0x15115, size: 0x8, addend: 0x0, symName: __ZNSt3__110__function6__baseIFvxEED1Ev, symObjAddr: 0x4E90, symBinAddr: 0x100005C50, symSize: 0x10 }
  - { offset: 0x1513F, size: 0x8, addend: 0x0, symName: __ZNSt3__110__function6__baseIFvxEED0Ev, symObjAddr: 0x4EA0, symBinAddr: 0x100005C60, symSize: 0x10 }
  - { offset: 0x15169, size: 0x8, addend: 0x0, symName: '__ZNSt3__110__function12__alloc_funcIZ4mainE3$_0NS_9allocatorIS2_EEFvxEEC2B8ne180100EOS2_OS4_', symObjAddr: 0x4EB0, symBinAddr: 0x100005C70, symSize: 0x50 }
  - { offset: 0x151B1, size: 0x8, addend: 0x0, symName: '__ZNSt3__117__compressed_pairIZ4mainE3$_0NS_9allocatorIS1_EEEC1B8ne180100IJOS1_EJOS3_EEENS_21piecewise_construct_tENS_5tupleIJDpT_EEENS9_IJDpT0_EEE', symObjAddr: 0x4F60, symBinAddr: 0x100005D20, symSize: 0x30 }
  - { offset: 0x1521E, size: 0x8, addend: 0x0, symName: '__ZNSt3__15tupleIJOZ4mainE3$_0EEC1B8ne180100IJS1_ELi0EEEDpOT_', symObjAddr: 0x4F90, symBinAddr: 0x100005D50, symSize: 0x30 }
  - { offset: 0x15268, size: 0x8, addend: 0x0, symName: '__ZNSt3__15tupleIJOZ4mainE3$_0EEC2B8ne180100IJS1_ELi0EEEDpOT_', symObjAddr: 0x4FC0, symBinAddr: 0x100005D80, symSize: 0x30 }
  - { offset: 0x152B2, size: 0x8, addend: 0x0, symName: '__ZNSt3__112__tuple_implINS_15__tuple_indicesIJLm0EEEEJOZ4mainE3$_0EEC1B8ne180100IJLm0EEJS4_EJEJEJS3_EEENS1_IJXspT_EEEENS_13__tuple_typesIJDpT0_EEENS1_IJXspT1_EEEENS8_IJDpT2_EEEDpOT3_', symObjAddr: 0x4FF0, symBinAddr: 0x100005DB0, symSize: 0x30 }
  - { offset: 0x15347, size: 0x8, addend: 0x0, symName: '__ZNSt3__112__tuple_implINS_15__tuple_indicesIJLm0EEEEJOZ4mainE3$_0EEC2B8ne180100IJLm0EEJS4_EJEJEJS3_EEENS1_IJXspT_EEEENS_13__tuple_typesIJDpT0_EEENS1_IJXspT1_EEEENS8_IJDpT2_EEEDpOT3_', symObjAddr: 0x5020, symBinAddr: 0x100005DE0, symSize: 0x30 }
  - { offset: 0x153DC, size: 0x8, addend: 0x0, symName: '__ZNSt3__112__tuple_leafILm0EOZ4mainE3$_0Lb0EEC2B8ne180100IS1_vEEOT_', symObjAddr: 0x5050, symBinAddr: 0x100005E10, symSize: 0x20 }
  - { offset: 0x1541F, size: 0x8, addend: 0x0, symName: '__ZNSt3__15tupleIJONS_9allocatorIZ4mainE3$_0EEEEC1B8ne180100IJS3_ELi0EEEDpOT_', symObjAddr: 0x5070, symBinAddr: 0x100005E30, symSize: 0x30 }
  - { offset: 0x15469, size: 0x8, addend: 0x0, symName: '__ZNSt3__15tupleIJONS_9allocatorIZ4mainE3$_0EEEEC2B8ne180100IJS3_ELi0EEEDpOT_', symObjAddr: 0x50A0, symBinAddr: 0x100005E60, symSize: 0x30 }
  - { offset: 0x154B3, size: 0x8, addend: 0x0, symName: '__ZNSt3__112__tuple_implINS_15__tuple_indicesIJLm0EEEEJONS_9allocatorIZ4mainE3$_0EEEEC1B8ne180100IJLm0EEJS6_EJEJEJS5_EEENS1_IJXspT_EEEENS_13__tuple_typesIJDpT0_EEENS1_IJXspT1_EEEENSA_IJDpT2_EEEDpOT3_', symObjAddr: 0x50D0, symBinAddr: 0x100005E90, symSize: 0x30 }
  - { offset: 0x15548, size: 0x8, addend: 0x0, symName: '__ZNSt3__112__tuple_implINS_15__tuple_indicesIJLm0EEEEJONS_9allocatorIZ4mainE3$_0EEEEC2B8ne180100IJLm0EEJS6_EJEJEJS5_EEENS1_IJXspT_EEEENS_13__tuple_typesIJDpT0_EEENS1_IJXspT1_EEEENSA_IJDpT2_EEEDpOT3_', symObjAddr: 0x5100, symBinAddr: 0x100005EC0, symSize: 0x30 }
  - { offset: 0x155DD, size: 0x8, addend: 0x0, symName: '__ZNSt3__112__tuple_leafILm0EONS_9allocatorIZ4mainE3$_0EELb0EEC2B8ne180100IS3_vEEOT_', symObjAddr: 0x5130, symBinAddr: 0x100005EF0, symSize: 0x20 }
  - { offset: 0x15620, size: 0x8, addend: 0x0, symName: '__ZNSt3__117__compressed_pairIZ4mainE3$_0NS_9allocatorIS1_EEEC2B8ne180100IJOS1_EJOS3_EEENS_21piecewise_construct_tENS_5tupleIJDpT_EEENS9_IJDpT0_EEE', symObjAddr: 0x5150, symBinAddr: 0x100005F10, symSize: 0x50 }
  - { offset: 0x1568D, size: 0x8, addend: 0x0, symName: '__ZNSt3__122__compressed_pair_elemIZ4mainE3$_0Li0ELb0EEC2B8ne180100IJOS1_EJLm0EEEENS_21piecewise_construct_tENS_5tupleIJDpT_EEENS_15__tuple_indicesIJXspT0_EEEE', symObjAddr: 0x51A0, symBinAddr: 0x100005F60, symSize: 0x50 }
  - { offset: 0x156F1, size: 0x8, addend: 0x0, symName: '__ZNSt3__122__compressed_pair_elemINS_9allocatorIZ4mainE3$_0EELi1ELb1EEC2B8ne180100IJOS3_EJLm0EEEENS_21piecewise_construct_tENS_5tupleIJDpT_EEENS_15__tuple_indicesIJXspT0_EEEE', symObjAddr: 0x51F0, symBinAddr: 0x100005FB0, symSize: 0x20 }
  - { offset: 0x15755, size: 0x8, addend: 0x0, symName: '__ZNSt3__112__tuple_leafILm0EOZ4mainE3$_0Lb0EE3getB8ne180100Ev', symObjAddr: 0x5230, symBinAddr: 0x100005FF0, symSize: 0x20 }
  - { offset: 0x1577B, size: 0x8, addend: 0x0, symName: '__ZNSt3__112__tuple_leafILm0EONS_9allocatorIZ4mainE3$_0EELb0EE3getB8ne180100Ev', symObjAddr: 0x5270, symBinAddr: 0x100006030, symSize: 0x20 }
  - { offset: 0x157A1, size: 0x8, addend: 0x0, symName: '__ZNSt3__110__function6__funcIZ4mainE3$_0NS_9allocatorIS2_EEFvxEED2Ev', symObjAddr: 0x5290, symBinAddr: 0x100006050, symSize: 0x20 }
  - { offset: 0x157CD, size: 0x8, addend: 0x0, symName: '__ZNKSt3__110__function12__alloc_funcIZ4mainE3$_0NS_9allocatorIS2_EEFvxEE15__get_allocatorB8ne180100Ev', symObjAddr: 0x52B0, symBinAddr: 0x100006070, symSize: 0x20 }
  - { offset: 0x157F3, size: 0x8, addend: 0x0, symName: '__ZNSt3__19allocatorINS_10__function6__funcIZ4mainE3$_0NS0_IS3_EEFvxEEEE8allocateB8ne180100Em', symObjAddr: 0x52D0, symBinAddr: 0x100006090, symSize: 0x50 }
  - { offset: 0x1583A, size: 0x8, addend: 0x0, symName: '__ZNSt3__122__allocator_destructorINS_9allocatorINS_10__function6__funcIZ4mainE3$_0NS1_IS4_EEFvxEEEEEEC1B8ne180100ERS8_m', symObjAddr: 0x5320, symBinAddr: 0x1000060E0, symSize: 0x30 }
  - { offset: 0x15929, size: 0x8, addend: 0x0, symName: '__ZNSt3__110unique_ptrINS_10__function6__funcIZ4mainE3$_0NS_9allocatorIS3_EEFvxEEENS_22__allocator_destructorINS4_IS7_EEEEEC1B8ne180100ILb1EvEEPS7_NS_16__dependent_typeINS_27__unique_ptr_deleter_sfinaeISA_EEXT_EE20__good_rval_ref_typeE', symObjAddr: 0x5350, symBinAddr: 0x100006110, symSize: 0x30 }
  - { offset: 0x1597C, size: 0x8, addend: 0x0, symName: '__ZNKSt3__110unique_ptrINS_10__function6__funcIZ4mainE3$_0NS_9allocatorIS3_EEFvxEEENS_22__allocator_destructorINS4_IS7_EEEEE3getB8ne180100Ev', symObjAddr: 0x5380, symBinAddr: 0x100006140, symSize: 0x20 }
  - { offset: 0x159A2, size: 0x8, addend: 0x0, symName: '__ZNKSt3__110__function12__alloc_funcIZ4mainE3$_0NS_9allocatorIS2_EEFvxEE8__targetB8ne180100Ev', symObjAddr: 0x53A0, symBinAddr: 0x100006160, symSize: 0x20 }
  - { offset: 0x159C8, size: 0x8, addend: 0x0, symName: '__ZNSt3__110__function6__funcIZ4mainE3$_0NS_9allocatorIS2_EEFvxEEC1B8ne180100ERKS2_OS4_', symObjAddr: 0x53C0, symBinAddr: 0x100006180, symSize: 0x30 }
  - { offset: 0x15A10, size: 0x8, addend: 0x0, symName: '__ZNSt3__110unique_ptrINS_10__function6__funcIZ4mainE3$_0NS_9allocatorIS3_EEFvxEEENS_22__allocator_destructorINS4_IS7_EEEEE7releaseB8ne180100Ev', symObjAddr: 0x53F0, symBinAddr: 0x1000061B0, symSize: 0x40 }
  - { offset: 0x15A45, size: 0x8, addend: 0x0, symName: '__ZNSt3__110unique_ptrINS_10__function6__funcIZ4mainE3$_0NS_9allocatorIS3_EEFvxEEENS_22__allocator_destructorINS4_IS7_EEEEED1B8ne180100Ev', symObjAddr: 0x5430, symBinAddr: 0x1000061F0, symSize: 0x20 }
  - { offset: 0x15A6F, size: 0x8, addend: 0x0, symName: '__ZNKSt3__117__compressed_pairIZ4mainE3$_0NS_9allocatorIS1_EEE6secondB8ne180100Ev', symObjAddr: 0x5450, symBinAddr: 0x100006210, symSize: 0x20 }
  - { offset: 0x15A95, size: 0x8, addend: 0x0, symName: '__ZNKSt3__122__compressed_pair_elemINS_9allocatorIZ4mainE3$_0EELi1ELb1EE5__getB8ne180100Ev', symObjAddr: 0x5470, symBinAddr: 0x100006230, symSize: 0x10 }
  - { offset: 0x15AC6, size: 0x8, addend: 0x0, symName: '__ZNSt3__116allocator_traitsINS_9allocatorINS_10__function6__funcIZ4mainE3$_0NS1_IS4_EEFvxEEEEEE8max_sizeB8ne180100IS8_vvEEmRKS8_', symObjAddr: 0x5480, symBinAddr: 0x100006240, symSize: 0x20 }
  - { offset: 0x15AF2, size: 0x8, addend: 0x0, symName: '__ZNSt3__122__allocator_destructorINS_9allocatorINS_10__function6__funcIZ4mainE3$_0NS1_IS4_EEFvxEEEEEEC2B8ne180100ERS8_m', symObjAddr: 0x54A0, symBinAddr: 0x100006260, symSize: 0x30 }
  - { offset: 0x15B3A, size: 0x8, addend: 0x0, symName: '__ZNSt3__110unique_ptrINS_10__function6__funcIZ4mainE3$_0NS_9allocatorIS3_EEFvxEEENS_22__allocator_destructorINS4_IS7_EEEEEC2B8ne180100ILb1EvEEPS7_NS_16__dependent_typeINS_27__unique_ptr_deleter_sfinaeISA_EEXT_EE20__good_rval_ref_typeE', symObjAddr: 0x54D0, symBinAddr: 0x100006290, symSize: 0x40 }
  - { offset: 0x15B8D, size: 0x8, addend: 0x0, symName: '__ZNSt3__117__compressed_pairIPNS_10__function6__funcIZ4mainE3$_0NS_9allocatorIS3_EEFvxEEENS_22__allocator_destructorINS4_IS7_EEEEEC1B8ne180100IRS8_SB_EEOT_OT0_', symObjAddr: 0x5510, symBinAddr: 0x1000062D0, symSize: 0x30 }
  - { offset: 0x15BE7, size: 0x8, addend: 0x0, symName: '__ZNSt3__117__compressed_pairIPNS_10__function6__funcIZ4mainE3$_0NS_9allocatorIS3_EEFvxEEENS_22__allocator_destructorINS4_IS7_EEEEEC2B8ne180100IRS8_SB_EEOT_OT0_', symObjAddr: 0x5540, symBinAddr: 0x100006300, symSize: 0x40 }
  - { offset: 0x15C41, size: 0x8, addend: 0x0, symName: '__ZNSt3__122__compressed_pair_elemIPNS_10__function6__funcIZ4mainE3$_0NS_9allocatorIS3_EEFvxEEELi0ELb0EEC2B8ne180100IRS8_vEEOT_', symObjAddr: 0x5580, symBinAddr: 0x100006340, symSize: 0x20 }
  - { offset: 0x15C84, size: 0x8, addend: 0x0, symName: '__ZNSt3__122__compressed_pair_elemINS_22__allocator_destructorINS_9allocatorINS_10__function6__funcIZ4mainE3$_0NS2_IS5_EEFvxEEEEEEELi1ELb0EEC2B8ne180100ISA_vEEOT_', symObjAddr: 0x55A0, symBinAddr: 0x100006360, symSize: 0x30 }
  - { offset: 0x15CC7, size: 0x8, addend: 0x0, symName: '__ZNKSt3__117__compressed_pairIPNS_10__function6__funcIZ4mainE3$_0NS_9allocatorIS3_EEFvxEEENS_22__allocator_destructorINS4_IS7_EEEEE5firstB8ne180100Ev', symObjAddr: 0x55D0, symBinAddr: 0x100006390, symSize: 0x20 }
  - { offset: 0x15CED, size: 0x8, addend: 0x0, symName: '__ZNKSt3__122__compressed_pair_elemIPNS_10__function6__funcIZ4mainE3$_0NS_9allocatorIS3_EEFvxEEELi0ELb0EE5__getB8ne180100Ev', symObjAddr: 0x55F0, symBinAddr: 0x1000063B0, symSize: 0x10 }
  - { offset: 0x15D13, size: 0x8, addend: 0x0, symName: '__ZNKSt3__117__compressed_pairIZ4mainE3$_0NS_9allocatorIS1_EEE5firstB8ne180100Ev', symObjAddr: 0x5600, symBinAddr: 0x1000063C0, symSize: 0x20 }
  - { offset: 0x15D39, size: 0x8, addend: 0x0, symName: '__ZNKSt3__122__compressed_pair_elemIZ4mainE3$_0Li0ELb0EE5__getB8ne180100Ev', symObjAddr: 0x5620, symBinAddr: 0x1000063E0, symSize: 0x10 }
  - { offset: 0x15D5F, size: 0x8, addend: 0x0, symName: '__ZNSt3__110__function6__funcIZ4mainE3$_0NS_9allocatorIS2_EEFvxEEC2B8ne180100ERKS2_OS4_', symObjAddr: 0x5630, symBinAddr: 0x1000063F0, symSize: 0x70 }
  - { offset: 0x15DA7, size: 0x8, addend: 0x0, symName: '__ZNSt3__110__function12__alloc_funcIZ4mainE3$_0NS_9allocatorIS2_EEFvxEEC1B8ne180100ERKS2_OS4_', symObjAddr: 0x56A0, symBinAddr: 0x100006460, symSize: 0x30 }
  - { offset: 0x15DEF, size: 0x8, addend: 0x0, symName: '__ZNSt3__110__function12__alloc_funcIZ4mainE3$_0NS_9allocatorIS2_EEFvxEEC2B8ne180100ERKS2_OS4_', symObjAddr: 0x56D0, symBinAddr: 0x100006490, symSize: 0x50 }
  - { offset: 0x15E37, size: 0x8, addend: 0x0, symName: '__ZNSt3__117__compressed_pairIZ4mainE3$_0NS_9allocatorIS1_EEEC1B8ne180100IJRKS1_EJOS3_EEENS_21piecewise_construct_tENS_5tupleIJDpT_EEENSA_IJDpT0_EEE', symObjAddr: 0x5750, symBinAddr: 0x100006510, symSize: 0x30 }
  - { offset: 0x15EA4, size: 0x8, addend: 0x0, symName: '__ZNSt3__15tupleIJRKZ4mainE3$_0EEC1B8ne180100INS_4_AndELi0EEES3_', symObjAddr: 0x5780, symBinAddr: 0x100006540, symSize: 0x30 }
  - { offset: 0x15EEC, size: 0x8, addend: 0x0, symName: '__ZNSt3__15tupleIJRKZ4mainE3$_0EEC2B8ne180100INS_4_AndELi0EEES3_', symObjAddr: 0x57B0, symBinAddr: 0x100006570, symSize: 0x30 }
  - { offset: 0x15F34, size: 0x8, addend: 0x0, symName: '__ZNSt3__112__tuple_implINS_15__tuple_indicesIJLm0EEEEJRKZ4mainE3$_0EEC1B8ne180100IJLm0EEJS5_EJEJEJS5_EEENS1_IJXspT_EEEENS_13__tuple_typesIJDpT0_EEENS1_IJXspT1_EEEENS9_IJDpT2_EEEDpOT3_', symObjAddr: 0x57E0, symBinAddr: 0x1000065A0, symSize: 0x30 }
  - { offset: 0x15FC9, size: 0x8, addend: 0x0, symName: '__ZNSt3__112__tuple_implINS_15__tuple_indicesIJLm0EEEEJRKZ4mainE3$_0EEC2B8ne180100IJLm0EEJS5_EJEJEJS5_EEENS1_IJXspT_EEEENS_13__tuple_typesIJDpT0_EEENS1_IJXspT1_EEEENS9_IJDpT2_EEEDpOT3_', symObjAddr: 0x5810, symBinAddr: 0x1000065D0, symSize: 0x30 }
  - { offset: 0x1605E, size: 0x8, addend: 0x0, symName: '__ZNSt3__112__tuple_leafILm0ERKZ4mainE3$_0Lb0EEC2B8ne180100IS3_vEEOT_', symObjAddr: 0x5840, symBinAddr: 0x100006600, symSize: 0x20 }
  - { offset: 0x160A1, size: 0x8, addend: 0x0, symName: '__ZNSt3__117__compressed_pairIZ4mainE3$_0NS_9allocatorIS1_EEEC2B8ne180100IJRKS1_EJOS3_EEENS_21piecewise_construct_tENS_5tupleIJDpT_EEENSA_IJDpT0_EEE', symObjAddr: 0x5860, symBinAddr: 0x100006620, symSize: 0x50 }
  - { offset: 0x1610E, size: 0x8, addend: 0x0, symName: '__ZNSt3__122__compressed_pair_elemIZ4mainE3$_0Li0ELb0EEC2B8ne180100IJRKS1_EJLm0EEEENS_21piecewise_construct_tENS_5tupleIJDpT_EEENS_15__tuple_indicesIJXspT0_EEEE', symObjAddr: 0x58B0, symBinAddr: 0x100006670, symSize: 0x50 }
  - { offset: 0x16172, size: 0x8, addend: 0x0, symName: '__ZNSt3__112__tuple_leafILm0ERKZ4mainE3$_0Lb0EE3getB8ne180100Ev', symObjAddr: 0x5920, symBinAddr: 0x1000066E0, symSize: 0x20 }
  - { offset: 0x16198, size: 0x8, addend: 0x0, symName: '__ZNSt3__117__compressed_pairIPNS_10__function6__funcIZ4mainE3$_0NS_9allocatorIS3_EEFvxEEENS_22__allocator_destructorINS4_IS7_EEEEE5firstB8ne180100Ev', symObjAddr: 0x5940, symBinAddr: 0x100006700, symSize: 0x20 }
  - { offset: 0x161BE, size: 0x8, addend: 0x0, symName: '__ZNSt3__122__compressed_pair_elemIPNS_10__function6__funcIZ4mainE3$_0NS_9allocatorIS3_EEFvxEEELi0ELb0EE5__getB8ne180100Ev', symObjAddr: 0x5960, symBinAddr: 0x100006720, symSize: 0x10 }
  - { offset: 0x161E4, size: 0x8, addend: 0x0, symName: '__ZNSt3__110unique_ptrINS_10__function6__funcIZ4mainE3$_0NS_9allocatorIS3_EEFvxEEENS_22__allocator_destructorINS4_IS7_EEEEED2B8ne180100Ev', symObjAddr: 0x5970, symBinAddr: 0x100006730, symSize: 0x20 }
  - { offset: 0x1620E, size: 0x8, addend: 0x0, symName: '__ZNSt3__110unique_ptrINS_10__function6__funcIZ4mainE3$_0NS_9allocatorIS3_EEFvxEEENS_22__allocator_destructorINS4_IS7_EEEEE5resetB8ne180100EPS7_', symObjAddr: 0x5990, symBinAddr: 0x100006750, symSize: 0x70 }
  - { offset: 0x16252, size: 0x8, addend: 0x0, symName: '__ZNSt3__117__compressed_pairIPNS_10__function6__funcIZ4mainE3$_0NS_9allocatorIS3_EEFvxEEENS_22__allocator_destructorINS4_IS7_EEEEE6secondB8ne180100Ev', symObjAddr: 0x5A00, symBinAddr: 0x1000067C0, symSize: 0x20 }
  - { offset: 0x16278, size: 0x8, addend: 0x0, symName: '__ZNSt3__122__allocator_destructorINS_9allocatorINS_10__function6__funcIZ4mainE3$_0NS1_IS4_EEFvxEEEEEEclB8ne180100EPS7_', symObjAddr: 0x5A20, symBinAddr: 0x1000067E0, symSize: 0x30 }
  - { offset: 0x162AD, size: 0x8, addend: 0x0, symName: '__ZNSt3__122__compressed_pair_elemINS_22__allocator_destructorINS_9allocatorINS_10__function6__funcIZ4mainE3$_0NS2_IS5_EEFvxEEEEEEELi1ELb0EE5__getB8ne180100Ev', symObjAddr: 0x5A50, symBinAddr: 0x100006810, symSize: 0x10 }
  - { offset: 0x162D3, size: 0x8, addend: 0x0, symName: '__ZNSt3__116allocator_traitsINS_9allocatorINS_10__function6__funcIZ4mainE3$_0NS1_IS4_EEFvxEEEEEE10deallocateB8ne180100ERS8_PS7_m', symObjAddr: 0x5A60, symBinAddr: 0x100006820, symSize: 0x30 }
  - { offset: 0x16315, size: 0x8, addend: 0x0, symName: '__ZNSt3__19allocatorINS_10__function6__funcIZ4mainE3$_0NS0_IS3_EEFvxEEEE10deallocateB8ne180100EPS6_m', symObjAddr: 0x5A90, symBinAddr: 0x100006850, symSize: 0x40 }
  - { offset: 0x16359, size: 0x8, addend: 0x0, symName: '__ZNSt3__110__function6__funcIZ4mainE3$_0NS_9allocatorIS2_EEFvxEEC1B8ne180100ERKS2_RKS4_', symObjAddr: 0x5AD0, symBinAddr: 0x100006890, symSize: 0x30 }
  - { offset: 0x163A1, size: 0x8, addend: 0x0, symName: '__ZNSt3__110__function6__funcIZ4mainE3$_0NS_9allocatorIS2_EEFvxEEC2B8ne180100ERKS2_RKS4_', symObjAddr: 0x5B00, symBinAddr: 0x1000068C0, symSize: 0x70 }
  - { offset: 0x163E9, size: 0x8, addend: 0x0, symName: '__ZNSt3__110__function12__alloc_funcIZ4mainE3$_0NS_9allocatorIS2_EEFvxEEC1B8ne180100ERKS2_RKS4_', symObjAddr: 0x5B70, symBinAddr: 0x100006930, symSize: 0x30 }
  - { offset: 0x16431, size: 0x8, addend: 0x0, symName: '__ZNSt3__110__function12__alloc_funcIZ4mainE3$_0NS_9allocatorIS2_EEFvxEEC2B8ne180100ERKS2_RKS4_', symObjAddr: 0x5BA0, symBinAddr: 0x100006960, symSize: 0x50 }
  - { offset: 0x16479, size: 0x8, addend: 0x0, symName: '__ZNSt3__117__compressed_pairIZ4mainE3$_0NS_9allocatorIS1_EEEC1B8ne180100IJRKS1_EJRKS3_EEENS_21piecewise_construct_tENS_5tupleIJDpT_EEENSB_IJDpT0_EEE', symObjAddr: 0x5C20, symBinAddr: 0x1000069E0, symSize: 0x30 }
  - { offset: 0x164E6, size: 0x8, addend: 0x0, symName: '__ZNSt3__15tupleIJRKNS_9allocatorIZ4mainE3$_0EEEEC1B8ne180100INS_4_AndELi0EEES5_', symObjAddr: 0x5C50, symBinAddr: 0x100006A10, symSize: 0x30 }
  - { offset: 0x1652E, size: 0x8, addend: 0x0, symName: '__ZNSt3__15tupleIJRKNS_9allocatorIZ4mainE3$_0EEEEC2B8ne180100INS_4_AndELi0EEES5_', symObjAddr: 0x5C80, symBinAddr: 0x100006A40, symSize: 0x30 }
  - { offset: 0x16576, size: 0x8, addend: 0x0, symName: '__ZNSt3__112__tuple_implINS_15__tuple_indicesIJLm0EEEEJRKNS_9allocatorIZ4mainE3$_0EEEEC1B8ne180100IJLm0EEJS7_EJEJEJS7_EEENS1_IJXspT_EEEENS_13__tuple_typesIJDpT0_EEENS1_IJXspT1_EEEENSB_IJDpT2_EEEDpOT3_', symObjAddr: 0x5CB0, symBinAddr: 0x100006A70, symSize: 0x30 }
  - { offset: 0x1660B, size: 0x8, addend: 0x0, symName: '__ZNSt3__112__tuple_implINS_15__tuple_indicesIJLm0EEEEJRKNS_9allocatorIZ4mainE3$_0EEEEC2B8ne180100IJLm0EEJS7_EJEJEJS7_EEENS1_IJXspT_EEEENS_13__tuple_typesIJDpT0_EEENS1_IJXspT1_EEEENSB_IJDpT2_EEEDpOT3_', symObjAddr: 0x5CE0, symBinAddr: 0x100006AA0, symSize: 0x30 }
  - { offset: 0x166A0, size: 0x8, addend: 0x0, symName: '__ZNSt3__112__tuple_leafILm0ERKNS_9allocatorIZ4mainE3$_0EELb0EEC2B8ne180100IS5_vEEOT_', symObjAddr: 0x5D10, symBinAddr: 0x100006AD0, symSize: 0x20 }
  - { offset: 0x166E3, size: 0x8, addend: 0x0, symName: '__ZNSt3__117__compressed_pairIZ4mainE3$_0NS_9allocatorIS1_EEEC2B8ne180100IJRKS1_EJRKS3_EEENS_21piecewise_construct_tENS_5tupleIJDpT_EEENSB_IJDpT0_EEE', symObjAddr: 0x5D30, symBinAddr: 0x100006AF0, symSize: 0x50 }
  - { offset: 0x16750, size: 0x8, addend: 0x0, symName: '__ZNSt3__122__compressed_pair_elemINS_9allocatorIZ4mainE3$_0EELi1ELb1EEC2B8ne180100IJRKS3_EJLm0EEEENS_21piecewise_construct_tENS_5tupleIJDpT_EEENS_15__tuple_indicesIJXspT0_EEEE', symObjAddr: 0x5D80, symBinAddr: 0x100006B40, symSize: 0x20 }
  - { offset: 0x167B4, size: 0x8, addend: 0x0, symName: '__ZNSt3__112__tuple_leafILm0ERKNS_9allocatorIZ4mainE3$_0EELb0EE3getB8ne180100Ev', symObjAddr: 0x5DC0, symBinAddr: 0x100006B80, symSize: 0x20 }
  - { offset: 0x167DA, size: 0x8, addend: 0x0, symName: '__ZNSt3__110__function12__alloc_funcIZ4mainE3$_0NS_9allocatorIS2_EEFvxEE7destroyB8ne180100Ev', symObjAddr: 0x5DE0, symBinAddr: 0x100006BA0, symSize: 0x10 }
  - { offset: 0x16800, size: 0x8, addend: 0x0, symName: '__ZNSt3__110__function12__alloc_funcIZ4mainE3$_0NS_9allocatorIS2_EEFvxEEclB8ne180100EOx', symObjAddr: 0x5DF0, symBinAddr: 0x100006BB0, symSize: 0x30 }
  - { offset: 0x16835, size: 0x8, addend: 0x0, symName: '__ZNSt3__128__invoke_void_return_wrapperIvLb1EE6__callB8ne180100IJRZ4mainE3$_0xEEEvDpOT_', symObjAddr: 0x5E20, symBinAddr: 0x100006BE0, symSize: 0x30 }
  - { offset: 0x16878, size: 0x8, addend: 0x0, symName: '__ZNSt3__117__compressed_pairIZ4mainE3$_0NS_9allocatorIS1_EEE5firstB8ne180100Ev', symObjAddr: 0x5E50, symBinAddr: 0x100006C10, symSize: 0x20 }
  - { offset: 0x1689E, size: 0x8, addend: 0x0, symName: '__ZZ4mainENK3$_0clEx', symObjAddr: 0x5EA0, symBinAddr: 0x100006C60, symSize: 0xD0 }
  - { offset: 0x1692B, size: 0x8, addend: 0x0, symName: __ZNKSt3__13setIxNS_4lessIxEENS_9allocatorIxEEE5countB8ne180100ERKx, symObjAddr: 0x5F70, symBinAddr: 0x100006D30, symSize: 0x30 }
  - { offset: 0x16960, size: 0x8, addend: 0x0, symName: __ZNSt3__13setIxNS_4lessIxEENS_9allocatorIxEEE6insertB8ne180100ERKx, symObjAddr: 0x5FA0, symBinAddr: 0x100006D60, symSize: 0x40 }
  - { offset: 0x16995, size: 0x8, addend: 0x0, symName: __ZNSt3__16vectorIxNS_9allocatorIxEEE5beginB8ne180100Ev, symObjAddr: 0x5FE0, symBinAddr: 0x100006DA0, symSize: 0x30 }
  - { offset: 0x169BD, size: 0x8, addend: 0x0, symName: __ZNSt3__16vectorIxNS_9allocatorIxEEE3endB8ne180100Ev, symObjAddr: 0x6010, symBinAddr: 0x100006DD0, symSize: 0x30 }
  - { offset: 0x169E5, size: 0x8, addend: 0x0, symName: __ZNKSt3__111__wrap_iterIPxEdeB8ne180100Ev, symObjAddr: 0x6070, symBinAddr: 0x100006E30, symSize: 0x20 }
  - { offset: 0x16A0B, size: 0x8, addend: 0x0, symName: __ZNSt3__111__wrap_iterIPxEppB8ne180100Ev, symObjAddr: 0x6090, symBinAddr: 0x100006E50, symSize: 0x20 }
  - { offset: 0x16A31, size: 0x8, addend: 0x0, symName: __ZNKSt3__16__treeIxNS_4lessIxEENS_9allocatorIxEEE14__count_uniqueIxEEmRKT_, symObjAddr: 0x60B0, symBinAddr: 0x100006E70, symSize: 0xD0 }
  - { offset: 0x16A80, size: 0x8, addend: 0x0, symName: __ZNKSt3__16__treeIxNS_4lessIxEENS_9allocatorIxEEE10value_compB8ne180100Ev, symObjAddr: 0x6180, symBinAddr: 0x100006F40, symSize: 0x20 }
  - { offset: 0x16AA6, size: 0x8, addend: 0x0, symName: __ZNKSt3__117__compressed_pairImNS_4lessIxEEE6secondB8ne180100Ev, symObjAddr: 0x61A0, symBinAddr: 0x100006F60, symSize: 0x20 }
  - { offset: 0x16ACC, size: 0x8, addend: 0x0, symName: __ZNKSt3__122__compressed_pair_elemINS_4lessIxEELi1ELb1EE5__getB8ne180100Ev, symObjAddr: 0x61C0, symBinAddr: 0x100006F80, symSize: 0x10 }
  - { offset: 0x16AF2, size: 0x8, addend: 0x0, symName: __ZNSt3__16__treeIxNS_4lessIxEENS_9allocatorIxEEE15__insert_uniqueB8ne180100ERKx, symObjAddr: 0x61D0, symBinAddr: 0x100006F90, symSize: 0x50 }
  - { offset: 0x16B27, size: 0x8, addend: 0x0, symName: __ZNSt3__14pairINS_21__tree_const_iteratorIxPNS_11__tree_nodeIxPvEElEEbEC1B8ne180100INS_15__tree_iteratorIxS5_lEEbLi0EEEONS0_IT_T0_EE, symObjAddr: 0x6220, symBinAddr: 0x100006FE0, symSize: 0x30 }
  - { offset: 0x16B78, size: 0x8, addend: 0x0, symName: __ZNSt3__16__treeIxNS_4lessIxEENS_9allocatorIxEEE25__emplace_unique_key_argsIxJRKxEEENS_4pairINS_15__tree_iteratorIxPNS_11__tree_nodeIxPvEElEEbEERKT_DpOT0_, symObjAddr: 0x6250, symBinAddr: 0x100007010, symSize: 0xE0 }
  - { offset: 0x16C2E, size: 0x8, addend: 0x0, symName: __ZNSt3__122__tree_key_value_typesIxE9__get_keyB8ne180100ERKx, symObjAddr: 0x6330, symBinAddr: 0x1000070F0, symSize: 0x10 }
  - { offset: 0x16C52, size: 0x8, addend: 0x0, symName: __ZNSt3__16__treeIxNS_4lessIxEENS_9allocatorIxEEE12__find_equalIxEERPNS_16__tree_node_baseIPvEERPNS_15__tree_end_nodeISA_EERKT_, symObjAddr: 0x6340, symBinAddr: 0x100007100, symSize: 0x180 }
  - { offset: 0x16CBF, size: 0x8, addend: 0x0, symName: __ZNSt3__16__treeIxNS_4lessIxEENS_9allocatorIxEEE16__construct_nodeIJRKxEEENS_10unique_ptrINS_11__tree_nodeIxPvEENS_22__tree_node_destructorINS3_ISC_EEEEEEDpOT_, symObjAddr: 0x64C0, symBinAddr: 0x100007280, symSize: 0xF0 }
  - { offset: 0x16D20, size: 0x8, addend: 0x0, symName: __ZNSt3__16__treeIxNS_4lessIxEENS_9allocatorIxEEE16__insert_node_atEPNS_15__tree_end_nodeIPNS_16__tree_node_baseIPvEEEERSA_SA_, symObjAddr: 0x65B0, symBinAddr: 0x100007370, symSize: 0xC0 }
  - { offset: 0x16D75, size: 0x8, addend: 0x0, symName: __ZNKSt3__110unique_ptrINS_11__tree_nodeIxPvEENS_22__tree_node_destructorINS_9allocatorIS3_EEEEE3getB8ne180100Ev, symObjAddr: 0x6670, symBinAddr: 0x100007430, symSize: 0x20 }
  - { offset: 0x16D9B, size: 0x8, addend: 0x0, symName: __ZNSt3__110unique_ptrINS_11__tree_nodeIxPvEENS_22__tree_node_destructorINS_9allocatorIS3_EEEEE7releaseB8ne180100Ev, symObjAddr: 0x6690, symBinAddr: 0x100007450, symSize: 0x40 }
  - { offset: 0x16DD0, size: 0x8, addend: 0x0, symName: __ZNSt3__110unique_ptrINS_11__tree_nodeIxPvEENS_22__tree_node_destructorINS_9allocatorIS3_EEEEED1B8ne180100Ev, symObjAddr: 0x66D0, symBinAddr: 0x100007490, symSize: 0x20 }
  - { offset: 0x16DFA, size: 0x8, addend: 0x0, symName: __ZNSt3__115__tree_iteratorIxPNS_11__tree_nodeIxPvEElEC1B8ne180100ES4_, symObjAddr: 0x66F0, symBinAddr: 0x1000074B0, symSize: 0x30 }
  - { offset: 0x16E39, size: 0x8, addend: 0x0, symName: __ZNSt3__14pairINS_15__tree_iteratorIxPNS_11__tree_nodeIxPvEElEEbEC1B8ne180100IS6_RbLi0EEEOT_OT0_, symObjAddr: 0x6720, symBinAddr: 0x1000074E0, symSize: 0x30 }
  - { offset: 0x16E99, size: 0x8, addend: 0x0, symName: __ZNKSt3__16__treeIxNS_4lessIxEENS_9allocatorIxEEE10__root_ptrB8ne180100Ev, symObjAddr: 0x6750, symBinAddr: 0x100007510, symSize: 0x20 }
  - { offset: 0x16EBF, size: 0x8, addend: 0x0, symName: __ZNSt3__16__treeIxNS_4lessIxEENS_9allocatorIxEEE10value_compB8ne180100Ev, symObjAddr: 0x6770, symBinAddr: 0x100007530, symSize: 0x20 }
  - { offset: 0x16EE5, size: 0x8, addend: 0x0, symName: __ZNSt3__117__compressed_pairImNS_4lessIxEEE6secondB8ne180100Ev, symObjAddr: 0x6790, symBinAddr: 0x100007550, symSize: 0x20 }
  - { offset: 0x16F0B, size: 0x8, addend: 0x0, symName: __ZNSt3__122__compressed_pair_elemINS_4lessIxEELi1ELb1EE5__getB8ne180100Ev, symObjAddr: 0x67B0, symBinAddr: 0x100007570, symSize: 0x10 }
  - { offset: 0x16F31, size: 0x8, addend: 0x0, symName: __ZNSt3__116allocator_traitsINS_9allocatorINS_11__tree_nodeIxPvEEEEE8allocateB8ne180100ERS5_m, symObjAddr: 0x67C0, symBinAddr: 0x100007580, symSize: 0x30 }
  - { offset: 0x16F64, size: 0x8, addend: 0x0, symName: __ZNSt3__122__tree_node_destructorINS_9allocatorINS_11__tree_nodeIxPvEEEEEC1B8ne180100ERS5_b, symObjAddr: 0x67F0, symBinAddr: 0x1000075B0, symSize: 0x40 }
  - { offset: 0x16FB2, size: 0x8, addend: 0x0, symName: __ZNSt3__110unique_ptrINS_11__tree_nodeIxPvEENS_22__tree_node_destructorINS_9allocatorIS3_EEEEEC1B8ne180100ILb1EvEEPS3_NS_16__dependent_typeINS_27__unique_ptr_deleter_sfinaeIS7_EEXT_EE20__good_rval_ref_typeE, symObjAddr: 0x6830, symBinAddr: 0x1000075F0, symSize: 0x30 }
  - { offset: 0x17005, size: 0x8, addend: 0x0, symName: __ZNSt3__116allocator_traitsINS_9allocatorINS_11__tree_nodeIxPvEEEEE9constructB8ne180100IxJRKxEvvEEvRS5_PT_DpOT0_, symObjAddr: 0x6860, symBinAddr: 0x100007620, symSize: 0x30 }
  - { offset: 0x1705A, size: 0x8, addend: 0x0, symName: __ZNKSt3__110unique_ptrINS_11__tree_nodeIxPvEENS_22__tree_node_destructorINS_9allocatorIS3_EEEEEptB8ne180100Ev, symObjAddr: 0x6890, symBinAddr: 0x100007650, symSize: 0x20 }
  - { offset: 0x17080, size: 0x8, addend: 0x0, symName: __ZNSt3__110unique_ptrINS_11__tree_nodeIxPvEENS_22__tree_node_destructorINS_9allocatorIS3_EEEEE11get_deleterB8ne180100Ev, symObjAddr: 0x68B0, symBinAddr: 0x100007670, symSize: 0x20 }
  - { offset: 0x170A6, size: 0x8, addend: 0x0, symName: __ZNSt3__19allocatorINS_11__tree_nodeIxPvEEE8allocateB8ne180100Em, symObjAddr: 0x68D0, symBinAddr: 0x100007690, symSize: 0x50 }
  - { offset: 0x170E6, size: 0x8, addend: 0x0, symName: __ZNSt3__116allocator_traitsINS_9allocatorINS_11__tree_nodeIxPvEEEEE8max_sizeB8ne180100IS5_vvEEmRKS5_, symObjAddr: 0x6920, symBinAddr: 0x1000076E0, symSize: 0x30 }
  - { offset: 0x17112, size: 0x8, addend: 0x0, symName: __ZNSt3__122__tree_node_destructorINS_9allocatorINS_11__tree_nodeIxPvEEEEEC2B8ne180100ERS5_b, symObjAddr: 0x6950, symBinAddr: 0x100007710, symSize: 0x30 }
  - { offset: 0x1715A, size: 0x8, addend: 0x0, symName: __ZNSt3__110unique_ptrINS_11__tree_nodeIxPvEENS_22__tree_node_destructorINS_9allocatorIS3_EEEEEC2B8ne180100ILb1EvEEPS3_NS_16__dependent_typeINS_27__unique_ptr_deleter_sfinaeIS7_EEXT_EE20__good_rval_ref_typeE, symObjAddr: 0x6980, symBinAddr: 0x100007740, symSize: 0x40 }
  - { offset: 0x171AD, size: 0x8, addend: 0x0, symName: __ZNSt3__117__compressed_pairIPNS_11__tree_nodeIxPvEENS_22__tree_node_destructorINS_9allocatorIS3_EEEEEC1B8ne180100IRS4_S8_EEOT_OT0_, symObjAddr: 0x69C0, symBinAddr: 0x100007780, symSize: 0x30 }
  - { offset: 0x17207, size: 0x8, addend: 0x0, symName: __ZNSt3__117__compressed_pairIPNS_11__tree_nodeIxPvEENS_22__tree_node_destructorINS_9allocatorIS3_EEEEEC2B8ne180100IRS4_S8_EEOT_OT0_, symObjAddr: 0x69F0, symBinAddr: 0x1000077B0, symSize: 0x40 }
  - { offset: 0x17261, size: 0x8, addend: 0x0, symName: __ZNSt3__122__compressed_pair_elemIPNS_11__tree_nodeIxPvEELi0ELb0EEC2B8ne180100IRS4_vEEOT_, symObjAddr: 0x6A30, symBinAddr: 0x1000077F0, symSize: 0x20 }
  - { offset: 0x172A4, size: 0x8, addend: 0x0, symName: __ZNSt3__122__compressed_pair_elemINS_22__tree_node_destructorINS_9allocatorINS_11__tree_nodeIxPvEEEEEELi1ELb0EEC2B8ne180100IS7_vEEOT_, symObjAddr: 0x6A50, symBinAddr: 0x100007810, symSize: 0x30 }
  - { offset: 0x172E7, size: 0x8, addend: 0x0, symName: __ZNKSt3__117__compressed_pairIPNS_11__tree_nodeIxPvEENS_22__tree_node_destructorINS_9allocatorIS3_EEEEE5firstB8ne180100Ev, symObjAddr: 0x6A80, symBinAddr: 0x100007840, symSize: 0x20 }
  - { offset: 0x1730D, size: 0x8, addend: 0x0, symName: __ZNKSt3__122__compressed_pair_elemIPNS_11__tree_nodeIxPvEELi0ELb0EE5__getB8ne180100Ev, symObjAddr: 0x6AA0, symBinAddr: 0x100007860, symSize: 0x10 }
  - { offset: 0x17333, size: 0x8, addend: 0x0, symName: __ZNSt3__117__compressed_pairIPNS_11__tree_nodeIxPvEENS_22__tree_node_destructorINS_9allocatorIS3_EEEEE6secondB8ne180100Ev, symObjAddr: 0x6AB0, symBinAddr: 0x100007870, symSize: 0x20 }
  - { offset: 0x17359, size: 0x8, addend: 0x0, symName: __ZNSt3__122__compressed_pair_elemINS_22__tree_node_destructorINS_9allocatorINS_11__tree_nodeIxPvEEEEEELi1ELb0EE5__getB8ne180100Ev, symObjAddr: 0x6AD0, symBinAddr: 0x100007890, symSize: 0x10 }
  - { offset: 0x1737F, size: 0x8, addend: 0x0, symName: __ZNSt3__16__treeIxNS_4lessIxEENS_9allocatorIxEEE4sizeB8ne180100Ev, symObjAddr: 0x6AE0, symBinAddr: 0x1000078A0, symSize: 0x20 }
  - { offset: 0x173A5, size: 0x8, addend: 0x0, symName: __ZNSt3__117__compressed_pairImNS_4lessIxEEE5firstB8ne180100Ev, symObjAddr: 0x6B00, symBinAddr: 0x1000078C0, symSize: 0x20 }
  - { offset: 0x173CB, size: 0x8, addend: 0x0, symName: __ZNSt3__117__compressed_pairIPNS_11__tree_nodeIxPvEENS_22__tree_node_destructorINS_9allocatorIS3_EEEEE5firstB8ne180100Ev, symObjAddr: 0x6B20, symBinAddr: 0x1000078E0, symSize: 0x20 }
  - { offset: 0x173F1, size: 0x8, addend: 0x0, symName: __ZNSt3__122__compressed_pair_elemIPNS_11__tree_nodeIxPvEELi0ELb0EE5__getB8ne180100Ev, symObjAddr: 0x6B40, symBinAddr: 0x100007900, symSize: 0x10 }
  - { offset: 0x17417, size: 0x8, addend: 0x0, symName: __ZNSt3__110unique_ptrINS_11__tree_nodeIxPvEENS_22__tree_node_destructorINS_9allocatorIS3_EEEEED2B8ne180100Ev, symObjAddr: 0x6B50, symBinAddr: 0x100007910, symSize: 0x20 }
  - { offset: 0x17441, size: 0x8, addend: 0x0, symName: __ZNSt3__110unique_ptrINS_11__tree_nodeIxPvEENS_22__tree_node_destructorINS_9allocatorIS3_EEEEE5resetB8ne180100EPS3_, symObjAddr: 0x6B70, symBinAddr: 0x100007930, symSize: 0x70 }
  - { offset: 0x17485, size: 0x8, addend: 0x0, symName: __ZNSt3__122__tree_node_destructorINS_9allocatorINS_11__tree_nodeIxPvEEEEEclB8ne180100EPS4_, symObjAddr: 0x6BE0, symBinAddr: 0x1000079A0, symSize: 0x70 }
  - { offset: 0x174BA, size: 0x8, addend: 0x0, symName: __ZNSt3__115__tree_iteratorIxPNS_11__tree_nodeIxPvEElEC2B8ne180100ES4_, symObjAddr: 0x6C50, symBinAddr: 0x100007A10, symSize: 0x20 }
  - { offset: 0x174F3, size: 0x8, addend: 0x0, symName: __ZNSt3__14pairINS_15__tree_iteratorIxPNS_11__tree_nodeIxPvEElEEbEC2B8ne180100IS6_RbLi0EEEOT_OT0_, symObjAddr: 0x6C70, symBinAddr: 0x100007A30, symSize: 0x30 }
  - { offset: 0x17553, size: 0x8, addend: 0x0, symName: __ZNSt3__14pairINS_21__tree_const_iteratorIxPNS_11__tree_nodeIxPvEElEEbEC2B8ne180100INS_15__tree_iteratorIxS5_lEEbLi0EEEONS0_IT_T0_EE, symObjAddr: 0x6CA0, symBinAddr: 0x100007A60, symSize: 0x50 }
  - { offset: 0x175A4, size: 0x8, addend: 0x0, symName: __ZNSt3__121__tree_const_iteratorIxPNS_11__tree_nodeIxPvEElEC1B8ne180100ENS_15__tree_iteratorIxS4_lEE, symObjAddr: 0x6CF0, symBinAddr: 0x100007AB0, symSize: 0x30 }
  - { offset: 0x175DD, size: 0x8, addend: 0x0, symName: __ZNSt3__121__tree_const_iteratorIxPNS_11__tree_nodeIxPvEElEC2B8ne180100ENS_15__tree_iteratorIxS4_lEE, symObjAddr: 0x6D20, symBinAddr: 0x100007AE0, symSize: 0x20 }
  - { offset: 0x17616, size: 0x8, addend: 0x0, symName: __ZNSt3__16vectorIxNS_9allocatorIxEEE11__make_iterB8ne180100EPx, symObjAddr: 0x6D40, symBinAddr: 0x100007B00, symSize: 0x30 }
  - { offset: 0x1764B, size: 0x8, addend: 0x0, symName: __ZNSt3__111__wrap_iterIPxEC1B8ne180100ES1_, symObjAddr: 0x6D70, symBinAddr: 0x100007B30, symSize: 0x30 }
  - { offset: 0x17684, size: 0x8, addend: 0x0, symName: __ZNSt3__111__wrap_iterIPxEC2B8ne180100ES1_, symObjAddr: 0x6DA0, symBinAddr: 0x100007B60, symSize: 0x20 }
  - { offset: 0x176BD, size: 0x8, addend: 0x0, symName: __ZNKSt3__111__wrap_iterIPxE4baseB8ne180100Ev, symObjAddr: 0x6E00, symBinAddr: 0x100007BC0, symSize: 0x20 }
  - { offset: 0x176E3, size: 0x8, addend: 0x0, symName: '__ZNSt3__122__compressed_pair_elemIZ4mainE3$_0Li0ELb0EE5__getB8ne180100Ev', symObjAddr: 0x6E20, symBinAddr: 0x100007BE0, symSize: 0x10 }
  - { offset: 0x17729, size: 0x8, addend: 0x0, symName: __ZNKSt9type_infoeqB8ne180100ERKS_, symObjAddr: 0x6E30, symBinAddr: 0x100007BF0, symSize: 0x40 }
  - { offset: 0x17787, size: 0x8, addend: 0x0, symName: __ZNSt3__18functionIFvxEED2Ev, symObjAddr: 0x6E70, symBinAddr: 0x100007C30, symSize: 0x20 }
  - { offset: 0x177B3, size: 0x8, addend: 0x0, symName: __ZNSt3__110__function12__value_funcIFvxEED1B8ne180100Ev, symObjAddr: 0x6E90, symBinAddr: 0x100007C50, symSize: 0x20 }
  - { offset: 0x177DD, size: 0x8, addend: 0x0, symName: __ZNSt3__110__function12__value_funcIFvxEED2B8ne180100Ev, symObjAddr: 0x6EB0, symBinAddr: 0x100007C70, symSize: 0x60 }
  - { offset: 0x17807, size: 0x8, addend: 0x0, symName: __ZNSt3__13setIxNS_4lessIxEENS_9allocatorIxEEE3endB8ne180100Ev, symObjAddr: 0x6F10, symBinAddr: 0x100007CD0, symSize: 0x30 }
  - { offset: 0x1782D, size: 0x8, addend: 0x0, symName: __ZNSt3__116reverse_iteratorINS_21__tree_const_iteratorIxPNS_11__tree_nodeIxPvEElEEEC1B8ne180100ES6_, symObjAddr: 0x6F40, symBinAddr: 0x100007D00, symSize: 0x30 }
  - { offset: 0x17866, size: 0x8, addend: 0x0, symName: __ZNSt3__16__treeIxNS_4lessIxEENS_9allocatorIxEEE3endB8ne180100Ev, symObjAddr: 0x6F70, symBinAddr: 0x100007D30, symSize: 0x30 }
  - { offset: 0x1788C, size: 0x8, addend: 0x0, symName: __ZNSt3__115__tree_iteratorIxPNS_11__tree_nodeIxPvEElEC1B8ne180100EPNS_15__tree_end_nodeIPNS_16__tree_node_baseIS2_EEEE, symObjAddr: 0x6FA0, symBinAddr: 0x100007D60, symSize: 0x30 }
  - { offset: 0x178C5, size: 0x8, addend: 0x0, symName: __ZNSt3__115__tree_iteratorIxPNS_11__tree_nodeIxPvEElEC2B8ne180100EPNS_15__tree_end_nodeIPNS_16__tree_node_baseIS2_EEEE, symObjAddr: 0x6FD0, symBinAddr: 0x100007D90, symSize: 0x20 }
  - { offset: 0x178FE, size: 0x8, addend: 0x0, symName: __ZNSt3__116reverse_iteratorINS_21__tree_const_iteratorIxPNS_11__tree_nodeIxPvEElEEEC2B8ne180100ES6_, symObjAddr: 0x6FF0, symBinAddr: 0x100007DB0, symSize: 0x30 }
  - { offset: 0x17937, size: 0x8, addend: 0x0, symName: __ZNSt3__111char_traitsIcE6lengthB8ne180100EPKc, symObjAddr: 0x7210, symBinAddr: 0x100007FD0, symSize: 0x30 }
  - { offset: 0x1797E, size: 0x8, addend: 0x0, symName: __ZNKSt3__113basic_ostreamIcNS_11char_traitsIcEEE6sentrycvbB8ne180100Ev, symObjAddr: 0x7240, symBinAddr: 0x100008000, symSize: 0x20 }
  - { offset: 0x179A4, size: 0x8, addend: 0x0, symName: __ZNSt3__119ostreambuf_iteratorIcNS_11char_traitsIcEEEC1B8ne180100ERNS_13basic_ostreamIcS2_EE, symObjAddr: 0x7480, symBinAddr: 0x100008240, symSize: 0x30 }
  - { offset: 0x179DD, size: 0x8, addend: 0x0, symName: __ZNKSt3__18ios_base5flagsB8ne180100Ev, symObjAddr: 0x74B0, symBinAddr: 0x100008270, symSize: 0x20 }
  - { offset: 0x17A05, size: 0x8, addend: 0x0, symName: __ZNKSt3__19basic_iosIcNS_11char_traitsIcEEE4fillB8ne180100Ev, symObjAddr: 0x74D0, symBinAddr: 0x100008290, symSize: 0x70 }
  - { offset: 0x17A2D, size: 0x8, addend: 0x0, symName: __ZNKSt3__119ostreambuf_iteratorIcNS_11char_traitsIcEEE6failedB8ne180100Ev, symObjAddr: 0x7540, symBinAddr: 0x100008300, symSize: 0x20 }
  - { offset: 0x17A53, size: 0x8, addend: 0x0, symName: __ZNSt3__19basic_iosIcNS_11char_traitsIcEEE8setstateB8ne180100Ej, symObjAddr: 0x7560, symBinAddr: 0x100008320, symSize: 0x30 }
  - { offset: 0x17A88, size: 0x8, addend: 0x0, symName: __ZNKSt3__18ios_base5widthB8ne180100Ev, symObjAddr: 0x7590, symBinAddr: 0x100008350, symSize: 0x20 }
  - { offset: 0x17AB0, size: 0x8, addend: 0x0, symName: __ZNSt3__115basic_streambufIcNS_11char_traitsIcEEE5sputnB8ne180100EPKcl, symObjAddr: 0x75B0, symBinAddr: 0x100008370, symSize: 0x30 }
  - { offset: 0x17AF4, size: 0x8, addend: 0x0, symName: __ZNSt3__112basic_stringIcNS_11char_traitsIcEENS_9allocatorIcEEEC1B8ne180100Emc, symObjAddr: 0x75E0, symBinAddr: 0x1000083A0, symSize: 0x30 }
  - { offset: 0x17B3C, size: 0x8, addend: 0x0, symName: __ZNSt3__112basic_stringIcNS_11char_traitsIcEENS_9allocatorIcEEE4dataB8ne180100Ev, symObjAddr: 0x7610, symBinAddr: 0x1000083D0, symSize: 0x30 }
  - { offset: 0x17B62, size: 0x8, addend: 0x0, symName: __ZNSt3__18ios_base5widthB8ne180100El, symObjAddr: 0x7640, symBinAddr: 0x100008400, symSize: 0x30 }
  - { offset: 0x17BA8, size: 0x8, addend: 0x0, symName: __ZNSt3__112basic_stringIcNS_11char_traitsIcEENS_9allocatorIcEEEC2B8ne180100Emc, symObjAddr: 0x7670, symBinAddr: 0x100008430, symSize: 0x50 }
  - { offset: 0x17BF0, size: 0x8, addend: 0x0, symName: __ZNSt3__117__compressed_pairINS_12basic_stringIcNS_11char_traitsIcEENS_9allocatorIcEEE5__repES5_EC1B8ne180100INS_18__default_init_tagESA_EEOT_OT0_, symObjAddr: 0x76C0, symBinAddr: 0x100008480, symSize: 0x30 }
  - { offset: 0x17C4A, size: 0x8, addend: 0x0, symName: __ZNSt3__117__compressed_pairINS_12basic_stringIcNS_11char_traitsIcEENS_9allocatorIcEEE5__repES5_EC2B8ne180100INS_18__default_init_tagESA_EEOT_OT0_, symObjAddr: 0x76F0, symBinAddr: 0x1000084B0, symSize: 0x30 }
  - { offset: 0x17CA4, size: 0x8, addend: 0x0, symName: __ZNSt3__122__compressed_pair_elemINS_12basic_stringIcNS_11char_traitsIcEENS_9allocatorIcEEE5__repELi0ELb0EEC2B8ne180100ENS_18__default_init_tagE, symObjAddr: 0x7720, symBinAddr: 0x1000084E0, symSize: 0x10 }
  - { offset: 0x17CD8, size: 0x8, addend: 0x0, symName: __ZNSt3__122__compressed_pair_elemINS_9allocatorIcEELi1ELb1EEC2B8ne180100ENS_18__default_init_tagE, symObjAddr: 0x7730, symBinAddr: 0x1000084F0, symSize: 0x20 }
  - { offset: 0x17D0C, size: 0x8, addend: 0x0, symName: __ZNSt3__19allocatorIcEC2B8ne180100Ev, symObjAddr: 0x7750, symBinAddr: 0x100008510, symSize: 0x20 }
  - { offset: 0x17D36, size: 0x8, addend: 0x0, symName: __ZNSt3__116__non_trivial_ifILb1ENS_9allocatorIcEEEC2B8ne180100Ev, symObjAddr: 0x7770, symBinAddr: 0x100008530, symSize: 0x10 }
  - { offset: 0x17D60, size: 0x8, addend: 0x0, symName: __ZNSt3__112basic_stringIcNS_11char_traitsIcEENS_9allocatorIcEEE13__get_pointerB8ne180100Ev, symObjAddr: 0x7790, symBinAddr: 0x100008550, symSize: 0x50 }
  - { offset: 0x17D86, size: 0x8, addend: 0x0, symName: __ZNKSt3__112basic_stringIcNS_11char_traitsIcEENS_9allocatorIcEEE9__is_longB8ne180100Ev, symObjAddr: 0x77E0, symBinAddr: 0x1000085A0, symSize: 0x30 }
  - { offset: 0x17DAC, size: 0x8, addend: 0x0, symName: __ZNSt3__112basic_stringIcNS_11char_traitsIcEENS_9allocatorIcEEE18__get_long_pointerB8ne180100Ev, symObjAddr: 0x7810, symBinAddr: 0x1000085D0, symSize: 0x20 }
  - { offset: 0x17DD2, size: 0x8, addend: 0x0, symName: __ZNSt3__112basic_stringIcNS_11char_traitsIcEENS_9allocatorIcEEE19__get_short_pointerB8ne180100Ev, symObjAddr: 0x7830, symBinAddr: 0x1000085F0, symSize: 0x30 }
  - { offset: 0x17DF8, size: 0x8, addend: 0x0, symName: __ZNKSt3__117__compressed_pairINS_12basic_stringIcNS_11char_traitsIcEENS_9allocatorIcEEE5__repES5_E5firstB8ne180100Ev, symObjAddr: 0x7860, symBinAddr: 0x100008620, symSize: 0x20 }
  - { offset: 0x17E1E, size: 0x8, addend: 0x0, symName: __ZNKSt3__122__compressed_pair_elemINS_12basic_stringIcNS_11char_traitsIcEENS_9allocatorIcEEE5__repELi0ELb0EE5__getB8ne180100Ev, symObjAddr: 0x7880, symBinAddr: 0x100008640, symSize: 0x10 }
  - { offset: 0x17E44, size: 0x8, addend: 0x0, symName: __ZNSt3__117__compressed_pairINS_12basic_stringIcNS_11char_traitsIcEENS_9allocatorIcEEE5__repES5_E5firstB8ne180100Ev, symObjAddr: 0x7890, symBinAddr: 0x100008650, symSize: 0x20 }
  - { offset: 0x17E6A, size: 0x8, addend: 0x0, symName: __ZNSt3__122__compressed_pair_elemINS_12basic_stringIcNS_11char_traitsIcEENS_9allocatorIcEEE5__repELi0ELb0EE5__getB8ne180100Ev, symObjAddr: 0x78B0, symBinAddr: 0x100008670, symSize: 0x10 }
  - { offset: 0x17E90, size: 0x8, addend: 0x0, symName: __ZNSt3__114pointer_traitsIPcE10pointer_toB8ne180100ERc, symObjAddr: 0x78C0, symBinAddr: 0x100008680, symSize: 0x10 }
  - { offset: 0x17EB4, size: 0x8, addend: 0x0, symName: __ZNSt3__119ostreambuf_iteratorIcNS_11char_traitsIcEEEC2B8ne180100ERNS_13basic_ostreamIcS2_EE, symObjAddr: 0x78D0, symBinAddr: 0x100008690, symSize: 0x50 }
  - { offset: 0x17EED, size: 0x8, addend: 0x0, symName: __ZNKSt3__19basic_iosIcNS_11char_traitsIcEEE5rdbufB8ne180100Ev, symObjAddr: 0x7920, symBinAddr: 0x1000086E0, symSize: 0x20 }
  - { offset: 0x17F15, size: 0x8, addend: 0x0, symName: __ZNKSt3__18ios_base5rdbufB8ne180100Ev, symObjAddr: 0x7940, symBinAddr: 0x100008700, symSize: 0x20 }
  - { offset: 0x17F3B, size: 0x8, addend: 0x0, symName: __ZNSt3__111char_traitsIcE11eq_int_typeB8ne180100Eii, symObjAddr: 0x7960, symBinAddr: 0x100008720, symSize: 0x20 }
  - { offset: 0x17F6E, size: 0x8, addend: 0x0, symName: __ZNSt3__111char_traitsIcE3eofB8ne180100Ev, symObjAddr: 0x7980, symBinAddr: 0x100008740, symSize: 0x10 }
  - { offset: 0x17F82, size: 0x8, addend: 0x0, symName: __ZNKSt3__19basic_iosIcNS_11char_traitsIcEEE5widenB8ne180100Ec, symObjAddr: 0x7990, symBinAddr: 0x100008750, symSize: 0x80 }
  - { offset: 0x18002, size: 0x8, addend: 0x0, symName: __ZNKSt3__15ctypeIcE5widenB8ne180100Ec, symObjAddr: 0x7A40, symBinAddr: 0x100008800, symSize: 0x30 }
  - { offset: 0x18037, size: 0x8, addend: 0x0, symName: __ZNSt3__18ios_base8setstateB8ne180100Ej, symObjAddr: 0x7A70, symBinAddr: 0x100008830, symSize: 0x30 }
...
