---
triple:          'x86_64-apple-darwin'
binary-path:     bupsolved
relocations:
  - { offset: 0x3F, size: 0x8, addend: 0x0, symName: _maxN, symObjAddr: 0x5070, symBinAddr: 0x100007000, symSize: 0x0 }
  - { offset: 0x5B, size: 0x8, addend: 0x0, symName: _grid, symObjAddr: 0x3CC90, symBinAddr: 0x100007040, symSize: 0x0 }
  - { offset: 0x92, size: 0x8, addend: 0x0, symName: _good, symObjAddr: 0x132650, symBinAddr: 0x1000FCA00, symSize: 0x0 }
  - { offset: 0xBB, size: 0x8, addend: 0x0, symName: _visited, symObjAddr: 0x508D40, symBinAddr: 0x1004D30F0, symSize: 0x0 }
  - { offset: 0xD0, size: 0x8, addend: 0x0, symName: _n, symObjAddr: 0x8DF424, symBinAddr: 0x1008A97D4, symSize: 0x0 }
  - { offset: 0xE5, size: 0x8, addend: 0x0, symName: _upd, symObjAddr: 0x8DF428, symBinAddr: 0x1008A97D8, symSize: 0x0 }
  - { offset: 0xFA, size: 0x8, addend: 0x0, symName: _dx, symObjAddr: 0x5080, symBinAddr: 0x100007010, symSize: 0x0 }
  - { offset: 0x11B, size: 0x8, addend: 0x0, symName: _dy, symObjAddr: 0x5090, symBinAddr: 0x100007020, symSize: 0x0 }
  - { offset: 0x130, size: 0x8, addend: 0x0, symName: _dirs, symObjAddr: 0x50A0, symBinAddr: 0x100007030, symSize: 0x0 }
  - { offset: 0x5318, size: 0x8, addend: 0x0, symName: __ZNSt3__17advanceB8ne180100IPNS_4pairINS1_IiiEEcEEllvEEvRT_T0_, symObjAddr: 0x26F0, symBinAddr: 0x100003380, symSize: 0x30 }
  - { offset: 0x5598, size: 0x8, addend: 0x0, symName: __ZNSt3__17advanceB8ne180100INS_16reverse_iteratorIPNS_4pairINS2_IiiEEcEEEEllvEEvRT_T0_, symObjAddr: 0x2AE0, symBinAddr: 0x100003770, symSize: 0x30 }
  - { offset: 0x7775, size: 0x8, addend: 0x0, symName: __ZNSt3__1rsB8ne180100IcNS_11char_traitsIcEEEERNS_13basic_istreamIT_T0_EES7_RS4_, symObjAddr: 0xF00, symBinAddr: 0x100001B90, symSize: 0x180 }
  - { offset: 0x7EC4, size: 0x8, addend: 0x0, symName: __ZNSt3__14endlB8ne180100IcNS_11char_traitsIcEEEERNS_13basic_ostreamIT_T0_EES7_, symObjAddr: 0x1300, symBinAddr: 0x100001F90, symSize: 0x50 }
  - { offset: 0x7F04, size: 0x8, addend: 0x0, symName: __ZNSt3__112__to_addressB8ne180100INS_4pairINS1_IiiEEcEEEEPT_S5_, symObjAddr: 0x1710, symBinAddr: 0x1000023A0, symSize: 0x10 }
  - { offset: 0x7F39, size: 0x8, addend: 0x0, symName: __ZNSt3__114__construct_atB8ne180100INS_4pairINS1_IiiEEcEEJS3_EPS3_EEPT_S6_DpOT0_, symObjAddr: 0x1780, symBinAddr: 0x100002410, symSize: 0x30 }
  - { offset: 0x7F8C, size: 0x8, addend: 0x0, symName: __ZNSt3__112construct_atB8ne180100INS_4pairINS1_IiiEEcEEJS3_EPS3_EEPT_S6_DpOT0_, symObjAddr: 0x17B0, symBinAddr: 0x100002440, symSize: 0x30 }
  - { offset: 0x7FDF, size: 0x8, addend: 0x0, symName: __ZNSt3__13maxB8ne180100ImEERKT_S3_S3_, symObjAddr: 0x1B30, symBinAddr: 0x1000027C0, symSize: 0x30 }
  - { offset: 0x8022, size: 0x8, addend: 0x0, symName: __ZNSt3__13minB8ne180100ImEERKT_S3_S3_, symObjAddr: 0x1B60, symBinAddr: 0x1000027F0, symSize: 0x30 }
  - { offset: 0x824F, size: 0x8, addend: 0x0, symName: __ZNSt3__13minB8ne180100ImNS_6__lessIvvEEEERKT_S5_S5_T0_, symObjAddr: 0x1BF0, symBinAddr: 0x100002880, symSize: 0x50 }
  - { offset: 0x84DA, size: 0x8, addend: 0x0, symName: __ZNSt3__120__throw_length_errorB8ne180100EPKc, symObjAddr: 0x1CD0, symBinAddr: 0x100002960, symSize: 0x70 }
  - { offset: 0x8502, size: 0x8, addend: 0x0, symName: __ZNSt3__13maxB8ne180100ImNS_6__lessIvvEEEERKT_S5_S5_T0_, symObjAddr: 0x1E00, symBinAddr: 0x100002A90, symSize: 0x50 }
  - { offset: 0x855C, size: 0x8, addend: 0x0, symName: __ZNSt3__119__allocate_at_leastB8ne180100INS_9allocatorINS_4pairINS2_IiiEEcEEEEEENS_19__allocation_resultINS_16allocator_traitsIT_E7pointerEEERS8_m, symObjAddr: 0x1F40, symBinAddr: 0x100002BD0, symSize: 0x40 }
  - { offset: 0x859F, size: 0x8, addend: 0x0, symName: __ZNSt3__117__libcpp_allocateB8ne180100Emm, symObjAddr: 0x20B0, symBinAddr: 0x100002D40, symSize: 0x60 }
  - { offset: 0x85F9, size: 0x8, addend: 0x0, symName: __ZNSt3__124__is_overaligned_for_newB8ne180100Em, symObjAddr: 0x2110, symBinAddr: 0x100002DA0, symSize: 0x20 }
  - { offset: 0x8627, size: 0x8, addend: 0x0, symName: __ZNSt3__121__libcpp_operator_newB8ne180100IJmSt11align_val_tEEEPvDpT_, symObjAddr: 0x2130, symBinAddr: 0x100002DC0, symSize: 0x30 }
  - { offset: 0x8674, size: 0x8, addend: 0x0, symName: __ZNSt3__121__libcpp_operator_newB8ne180100IJmEEEPvDpT_, symObjAddr: 0x2160, symBinAddr: 0x100002DF0, symSize: 0x20 }
  - { offset: 0x86AD, size: 0x8, addend: 0x0, symName: __ZNSt3__142__uninitialized_allocator_move_if_noexceptB8ne180100INS_9allocatorINS_4pairINS2_IiiEEcEEEENS_16reverse_iteratorIPS4_EES8_S8_EET2_RT_T0_T1_S9_, symObjAddr: 0x21F0, symBinAddr: 0x100002E80, symSize: 0x180 }
  - { offset: 0x874C, size: 0x8, addend: 0x0, symName: __ZNSt3__14swapB8ne180100IPNS_4pairINS1_IiiEEcEEEENS_9enable_ifIXaasr21is_move_constructibleIT_EE5valuesr18is_move_assignableIS6_EE5valueEvE4typeERS6_S9_, symObjAddr: 0x23C0, symBinAddr: 0x100003050, symSize: 0x40 }
  - { offset: 0x879D, size: 0x8, addend: 0x0, symName: __ZNSt3__122__make_exception_guardB8ne180100INS_29_AllocatorDestroyRangeReverseINS_9allocatorINS_4pairINS3_IiiEEcEEEENS_16reverse_iteratorIPS5_EEEEEENS_28__exception_guard_exceptionsIT_EESC_, symObjAddr: 0x2410, symBinAddr: 0x1000030A0, symSize: 0x60 }
  - { offset: 0x87D2, size: 0x8, addend: 0x0, symName: __ZNSt3__1neB8ne180100IPNS_4pairINS1_IiiEEcEES4_EEbRKNS_16reverse_iteratorIT_EERKNS5_IT0_EE, symObjAddr: 0x24B0, symBinAddr: 0x100003140, symSize: 0x40 }
  - { offset: 0x881E, size: 0x8, addend: 0x0, symName: __ZNSt3__112__to_addressB8ne180100INS_16reverse_iteratorIPNS_4pairINS2_IiiEEcEEEEvEEu7__decayIDTclsr19__to_address_helperIT_EE6__callclsr3stdE7declvalIRKS7_EEEEES9_, symObjAddr: 0x24F0, symBinAddr: 0x100003180, symSize: 0x20 }
  - { offset: 0x887D, size: 0x8, addend: 0x0, symName: __ZNSt3__14prevB8ne180100IPNS_4pairINS1_IiiEEcEELi0EEET_S5_NS_15iterator_traitsIS5_E15difference_typeE, symObjAddr: 0x26C0, symBinAddr: 0x100003350, symSize: 0x30 }
  - { offset: 0x88C6, size: 0x8, addend: 0x0, symName: __ZNSt3__121__convert_to_integralB8ne180100El, symObjAddr: 0x2720, symBinAddr: 0x1000033B0, symSize: 0x10 }
  - { offset: 0x88F2, size: 0x8, addend: 0x0, symName: __ZNSt3__19__advanceB8ne180100IPNS_4pairINS1_IiiEEcEEEEvRT_NS_15iterator_traitsIS5_E15difference_typeENS_26random_access_iterator_tagE, symObjAddr: 0x2730, symBinAddr: 0x1000033C0, symSize: 0x20 }
  - { offset: 0x893B, size: 0x8, addend: 0x0, symName: __ZNSt3__119__allocator_destroyB8ne180100INS_9allocatorINS_4pairINS2_IiiEEcEEEENS_16reverse_iteratorINS6_IPS4_EEEES9_EEvRT_T0_T1_, symObjAddr: 0x2880, symBinAddr: 0x100003510, symSize: 0x70 }
  - { offset: 0x899E, size: 0x8, addend: 0x0, symName: __ZNSt3__1neB8ne180100INS_16reverse_iteratorIPNS_4pairINS2_IiiEEcEEEES6_EEbRKNS1_IT_EERKNS1_IT0_EE, symObjAddr: 0x2920, symBinAddr: 0x1000035B0, symSize: 0x50 }
  - { offset: 0x89EA, size: 0x8, addend: 0x0, symName: __ZNSt3__112__to_addressB8ne180100INS_16reverse_iteratorINS1_IPNS_4pairINS2_IiiEEcEEEEEEvEEu7__decayIDTclsr19__to_address_helperIT_EE6__callclsr3stdE7declvalIRKS8_EEEEESA_, symObjAddr: 0x2990, symBinAddr: 0x100003620, symSize: 0x20 }
  - { offset: 0x8A20, size: 0x8, addend: 0x0, symName: __ZNSt3__112__destroy_atB8ne180100INS_4pairINS1_IiiEEcEELi0EEEvPT_, symObjAddr: 0x2A00, symBinAddr: 0x100003690, symSize: 0x10 }
  - { offset: 0x8A80, size: 0x8, addend: 0x0, symName: __ZNSt3__14prevB8ne180100INS_16reverse_iteratorIPNS_4pairINS2_IiiEEcEEEELi0EEET_S7_NS_15iterator_traitsIS7_E15difference_typeE, symObjAddr: 0x2AA0, symBinAddr: 0x100003730, symSize: 0x40 }
  - { offset: 0x8AC9, size: 0x8, addend: 0x0, symName: __ZNSt3__19__advanceB8ne180100INS_16reverse_iteratorIPNS_4pairINS2_IiiEEcEEEEEEvRT_NS_15iterator_traitsIS7_E15difference_typeENS_26random_access_iterator_tagE, symObjAddr: 0x2B10, symBinAddr: 0x1000037A0, symSize: 0x30 }
  - { offset: 0x8B12, size: 0x8, addend: 0x0, symName: __ZNSt3__119__libcpp_deallocateB8ne180100EPvmm, symObjAddr: 0x2E00, symBinAddr: 0x100003A90, symSize: 0x60 }
  - { offset: 0x8B77, size: 0x8, addend: 0x0, symName: __ZNSt3__127__do_deallocate_handle_sizeB8ne180100IJSt11align_val_tEEEvPvmDpT_, symObjAddr: 0x2E60, symBinAddr: 0x100003AF0, symSize: 0x30 }
  - { offset: 0x8BCA, size: 0x8, addend: 0x0, symName: __ZNSt3__127__do_deallocate_handle_sizeB8ne180100IJEEEvPvmDpT_, symObjAddr: 0x2E90, symBinAddr: 0x100003B20, symSize: 0x20 }
  - { offset: 0x8C08, size: 0x8, addend: 0x0, symName: __ZNSt3__124__libcpp_operator_deleteB8ne180100IJPvSt11align_val_tEEEvDpT_, symObjAddr: 0x2EB0, symBinAddr: 0x100003B40, symSize: 0x30 }
  - { offset: 0x8C51, size: 0x8, addend: 0x0, symName: __ZNSt3__124__libcpp_operator_deleteB8ne180100IJPvEEEvDpT_, symObjAddr: 0x2EE0, symBinAddr: 0x100003B70, symSize: 0x20 }
  - { offset: 0x8C86, size: 0x8, addend: 0x0, symName: __ZNSt3__112__to_addressB8ne180100IiEEPT_S2_, symObjAddr: 0x3310, symBinAddr: 0x100003FA0, symSize: 0x10 }
  - { offset: 0x8CBB, size: 0x8, addend: 0x0, symName: __ZNSt3__114__construct_atB8ne180100IiJiEPiEEPT_S3_DpOT0_, symObjAddr: 0x3380, symBinAddr: 0x100004010, symSize: 0x30 }
  - { offset: 0x8D0E, size: 0x8, addend: 0x0, symName: __ZNSt3__112construct_atB8ne180100IiJiEPiEEPT_S3_DpOT0_, symObjAddr: 0x33B0, symBinAddr: 0x100004040, symSize: 0x20 }
  - { offset: 0x8D61, size: 0x8, addend: 0x0, symName: __ZNSt3__119__allocate_at_leastB8ne180100INS_9allocatorIiEEEENS_19__allocation_resultINS_16allocator_traitsIT_E7pointerEEERS5_m, symObjAddr: 0x38A0, symBinAddr: 0x100004530, symSize: 0x40 }
  - { offset: 0x8DA4, size: 0x8, addend: 0x0, symName: __ZNSt3__142__uninitialized_allocator_move_if_noexceptB8ne180100INS_9allocatorIiEENS_16reverse_iteratorIPiEES5_ivEET1_RT_T0_S9_S6_, symObjAddr: 0x3A40, symBinAddr: 0x1000046D0, symSize: 0x70 }
  - { offset: 0x8E20, size: 0x8, addend: 0x0, symName: __ZNSt3__14swapB8ne180100IPiEENS_9enable_ifIXaasr21is_move_constructibleIT_EE5valuesr18is_move_assignableIS3_EE5valueEvE4typeERS3_S6_, symObjAddr: 0x3B00, symBinAddr: 0x100004790, symSize: 0x40 }
  - { offset: 0x8E71, size: 0x8, addend: 0x0, symName: __ZNSt3__14moveB8ne180100INS_16reverse_iteratorIPiEES3_EET0_T_S5_S4_, symObjAddr: 0x3B50, symBinAddr: 0x1000047E0, symSize: 0x80 }
  - { offset: 0x8ECB, size: 0x8, addend: 0x0, symName: __ZNSt3__16__moveB8ne180100INS_17_ClassicAlgPolicyENS_16reverse_iteratorIPiEES4_S4_EENS_4pairIT0_T2_EES6_T1_S7_, symObjAddr: 0x3BD0, symBinAddr: 0x100004860, symSize: 0x90 }
  - { offset: 0x8F37, size: 0x8, addend: 0x0, symName: __ZNSt3__123__dispatch_copy_or_moveB8ne180100INS_17_ClassicAlgPolicyENS_11__move_loopIS1_EENS_14__move_trivialENS_16reverse_iteratorIPiEES7_S7_EENS_4pairIT2_T4_EES9_T3_SA_, symObjAddr: 0x3C60, symBinAddr: 0x1000048F0, symSize: 0x90 }
  - { offset: 0x8FB5, size: 0x8, addend: 0x0, symName: __ZNSt3__121__unwrap_and_dispatchB8ne180100INS_10__overloadINS_11__move_loopINS_17_ClassicAlgPolicyEEENS_14__move_trivialEEENS_16reverse_iteratorIPiEES9_S9_Li0EEENS_4pairIT0_T2_EESB_T1_SC_, symObjAddr: 0x3CF0, symBinAddr: 0x100004980, symSize: 0x210 }
  - { offset: 0x9044, size: 0x8, addend: 0x0, symName: __ZNSt3__114__unwrap_rangeB8ne180100INS_16reverse_iteratorIPiEES3_EEDaT_T0_, symObjAddr: 0x3F00, symBinAddr: 0x100004B90, symSize: 0x60 }
  - { offset: 0x91BF, size: 0x8, addend: 0x0, symName: __ZNSt3__113__unwrap_iterB8ne180100INS_16reverse_iteratorIPiEENS_18__unwrap_iter_implIS3_Lb0EEELi0EEEDTclsrT0_8__unwrapclsr3stdE7declvalIT_EEEES7_, symObjAddr: 0x4000, symBinAddr: 0x100004C90, symSize: 0x40 }
  - { offset: 0x9203, size: 0x8, addend: 0x0, symName: __ZNSt3__19make_pairB8ne180100INS_16reverse_iteratorIPiEES3_EENS_4pairINS_18__unwrap_ref_decayIT_E4typeENS5_IT0_E4typeEEEOS6_OS9_, symObjAddr: 0x4040, symBinAddr: 0x100004CD0, symSize: 0x30 }
  - { offset: 0x9252, size: 0x8, addend: 0x0, symName: __ZNSt3__114__rewrap_rangeB8ne180100INS_16reverse_iteratorIPiEES3_S3_EET0_S4_T1_, symObjAddr: 0x4070, symBinAddr: 0x100004D00, symSize: 0x60 }
  - { offset: 0x92A7, size: 0x8, addend: 0x0, symName: __ZNSt3__113__rewrap_iterB8ne180100INS_16reverse_iteratorIPiEES3_NS_18__unwrap_iter_implIS3_Lb0EEEEET_S6_T0_, symObjAddr: 0x40D0, symBinAddr: 0x100004D60, symSize: 0x70 }
  - { offset: 0x934C, size: 0x8, addend: 0x0, symName: __ZNSt3__1neB8ne180100IPiS1_EEbRKNS_16reverse_iteratorIT_EERKNS2_IT0_EE, symObjAddr: 0x4240, symBinAddr: 0x100004ED0, symSize: 0x40 }
  - { offset: 0x9442, size: 0x8, addend: 0x0, symName: __ZNSt3__112__destroy_atB8ne180100IiLi0EEEvPT_, symObjAddr: 0x45A0, symBinAddr: 0x100005230, symSize: 0x10 }
  - { offset: 0x9479, size: 0x8, addend: 0x0, symName: __ZNSt3__114__construct_atB8ne180100IiJRKiEPiEEPT_S5_DpOT0_, symObjAddr: 0x47D0, symBinAddr: 0x100005460, symSize: 0x30 }
  - { offset: 0x94CC, size: 0x8, addend: 0x0, symName: __ZNSt3__112construct_atB8ne180100IiJRKiEPiEEPT_S5_DpOT0_, symObjAddr: 0x4800, symBinAddr: 0x100005490, symSize: 0x20 }
  - { offset: 0x9AC8, size: 0x8, addend: 0x0, symName: __ZNSt3__19use_facetB8ne180100INS_5ctypeIcEEEERKT_RKNS_6localeE, symObjAddr: 0x4E00, symBinAddr: 0x100005A90, symSize: 0x30 }
  - { offset: 0xAF5B, size: 0x8, addend: 0x0, symName: __ZSt28__throw_bad_array_new_lengthB8ne180100v, symObjAddr: 0x2070, symBinAddr: 0x100002D00, symSize: 0x40 }
  - { offset: 0xB44E, size: 0x8, addend: 0x0, symName: __ZNSt3__16vectorINS_4pairINS1_IiiEEcEENS_9allocatorIS3_EEE26__swap_out_circular_bufferERNS_14__split_bufferIS3_RS5_EE, symObjAddr: 0x1930, symBinAddr: 0x1000025C0, symSize: 0x120 }
  - { offset: 0xB64C, size: 0x8, addend: 0x0, symName: __ZNSt3__16vectorIiNS_9allocatorIiEEE26__swap_out_circular_bufferERNS_14__split_bufferIiRS2_EE, symObjAddr: 0x34F0, symBinAddr: 0x100004180, symSize: 0x120 }
  - { offset: 0xB6F8, size: 0x8, addend: 0x0, symName: __Z8inboundsii, symObjAddr: 0x0, symBinAddr: 0x100000C90, symSize: 0x60 }
  - { offset: 0xB732, size: 0x8, addend: 0x0, symName: __Z8markgoodii, symObjAddr: 0x60, symBinAddr: 0x100000CF0, symSize: 0x290 }
  - { offset: 0xB7AE, size: 0x8, addend: 0x0, symName: __Z11markgoodnewii, symObjAddr: 0x2F0, symBinAddr: 0x100000F80, symSize: 0x230 }
  - { offset: 0xB81C, size: 0x8, addend: 0x0, symName: __Z7findbadv, symObjAddr: 0x520, symBinAddr: 0x1000011B0, symSize: 0x90 }
  - { offset: 0xB880, size: 0x8, addend: 0x0, symName: _main, symObjAddr: 0x5B0, symBinAddr: 0x100001240, symSize: 0x930 }
  - { offset: 0xBAD8, size: 0x8, addend: 0x0, symName: __ZNSt3__16vectorINS_4pairINS1_IiiEEcEENS_9allocatorIS3_EEEC1B8ne180100Ev, symObjAddr: 0xEE0, symBinAddr: 0x100001B70, symSize: 0x20 }
  - { offset: 0xBB00, size: 0x8, addend: 0x0, symName: __ZNSt3__16vectorINS_4pairINS1_IiiEEcEENS_9allocatorIS3_EEE9push_backB8ne180100EOS3_, symObjAddr: 0x1080, symBinAddr: 0x100001D10, symSize: 0x80 }
  - { offset: 0xBB45, size: 0x8, addend: 0x0, symName: __ZNSt3__14pairIiiEC1B8ne180100IRiS3_Li0EEEOT_OT0_, symObjAddr: 0x1100, symBinAddr: 0x100001D90, symSize: 0x30 }
  - { offset: 0xBBA2, size: 0x8, addend: 0x0, symName: __ZNSt3__14pairINS0_IiiEEcEC1B8ne180100ILb1ELi0EEERKS1_RKc, symObjAddr: 0x1130, symBinAddr: 0x100001DC0, symSize: 0x30 }
  - { offset: 0xBBF7, size: 0x8, addend: 0x0, symName: __ZNSt3__16vectorIiNS_9allocatorIiEEEC1B8ne180100Ev, symObjAddr: 0x1160, symBinAddr: 0x100001DF0, symSize: 0x20 }
  - { offset: 0xBC1F, size: 0x8, addend: 0x0, symName: __ZNSt3__16vectorIiNS_9allocatorIiEEE9push_backB8ne180100EOi, symObjAddr: 0x1180, symBinAddr: 0x100001E10, symSize: 0x80 }
  - { offset: 0xBC63, size: 0x8, addend: 0x0, symName: __ZNSt3__16vectorINS_4pairINS1_IiiEEcEENS_9allocatorIS3_EEEixB8ne180100Em, symObjAddr: 0x1200, symBinAddr: 0x100001E90, symSize: 0x20 }
  - { offset: 0xBC98, size: 0x8, addend: 0x0, symName: __ZNSt3__16vectorIiNS_9allocatorIiEEE9push_backB8ne180100ERKi, symObjAddr: 0x1220, symBinAddr: 0x100001EB0, symSize: 0x80 }
  - { offset: 0xBCDC, size: 0x8, addend: 0x0, symName: __ZNSt3__16vectorIiNS_9allocatorIiEEEixB8ne180100Em, symObjAddr: 0x12A0, symBinAddr: 0x100001F30, symSize: 0x20 }
  - { offset: 0xBD12, size: 0x8, addend: 0x0, symName: __ZNKSt3__16vectorIiNS_9allocatorIiEEE4sizeB8ne180100Ev, symObjAddr: 0x12C0, symBinAddr: 0x100001F50, symSize: 0x20 }
  - { offset: 0xBDEB, size: 0x8, addend: 0x0, symName: __ZNSt3__113basic_ostreamIcNS_11char_traitsIcEEElsB8ne180100EPFRS3_S4_E, symObjAddr: 0x12E0, symBinAddr: 0x100001F70, symSize: 0x20 }
  - { offset: 0xBE1E, size: 0x8, addend: 0x0, symName: __ZNSt3__16vectorIiNS_9allocatorIiEEED1B8ne180100Ev, symObjAddr: 0x1350, symBinAddr: 0x100001FE0, symSize: 0x20 }
  - { offset: 0xBE47, size: 0x8, addend: 0x0, symName: __ZNSt3__16vectorINS_4pairINS1_IiiEEcEENS_9allocatorIS3_EEED1B8ne180100Ev, symObjAddr: 0x1370, symBinAddr: 0x100002000, symSize: 0x20 }
  - { offset: 0xBE70, size: 0x8, addend: 0x0, symName: __ZNSt3__16vectorINS_4pairINS1_IiiEEcEENS_9allocatorIS3_EEEC2B8ne180100Ev, symObjAddr: 0x1390, symBinAddr: 0x100002020, symSize: 0x50 }
  - { offset: 0xBEA3, size: 0x8, addend: 0x0, symName: __ZNSt3__117__compressed_pairIPNS_4pairINS1_IiiEEcEENS_9allocatorIS3_EEEC1B8ne180100IDnNS_18__default_init_tagEEEOT_OT0_, symObjAddr: 0x13E0, symBinAddr: 0x100002070, symSize: 0x30 }
  - { offset: 0xBEFA, size: 0x8, addend: 0x0, symName: __ZNSt3__117__compressed_pairIPNS_4pairINS1_IiiEEcEENS_9allocatorIS3_EEEC2B8ne180100IDnNS_18__default_init_tagEEEOT_OT0_, symObjAddr: 0x1420, symBinAddr: 0x1000020B0, symSize: 0x40 }
  - { offset: 0xBF51, size: 0x8, addend: 0x0, symName: __ZNSt3__122__compressed_pair_elemIPNS_4pairINS1_IiiEEcEELi0ELb0EEC2B8ne180100IDnvEEOT_, symObjAddr: 0x1460, symBinAddr: 0x1000020F0, symSize: 0x20 }
  - { offset: 0xBF92, size: 0x8, addend: 0x0, symName: __ZNSt3__122__compressed_pair_elemINS_9allocatorINS_4pairINS2_IiiEEcEEEELi1ELb1EEC2B8ne180100ENS_18__default_init_tagE, symObjAddr: 0x1480, symBinAddr: 0x100002110, symSize: 0x20 }
  - { offset: 0xBFC5, size: 0x8, addend: 0x0, symName: __ZNSt3__19allocatorINS_4pairINS1_IiiEEcEEEC2B8ne180100Ev, symObjAddr: 0x14A0, symBinAddr: 0x100002130, symSize: 0x20 }
  - { offset: 0xBFEE, size: 0x8, addend: 0x0, symName: __ZNSt3__116__non_trivial_ifILb1ENS_9allocatorINS_4pairINS2_IiiEEcEEEEEC2B8ne180100Ev, symObjAddr: 0x14C0, symBinAddr: 0x100002150, symSize: 0x10 }
  - { offset: 0xC017, size: 0x8, addend: 0x0, symName: __ZNSt3__16vectorINS_4pairINS1_IiiEEcEENS_9allocatorIS3_EEE9__end_capB8ne180100Ev, symObjAddr: 0x14D0, symBinAddr: 0x100002160, symSize: 0x20 }
  - { offset: 0xC03C, size: 0x8, addend: 0x0, symName: __ZNSt3__16vectorINS_4pairINS1_IiiEEcEENS_9allocatorIS3_EEE22__construct_one_at_endB8ne180100IJS3_EEEvDpOT_, symObjAddr: 0x14F0, symBinAddr: 0x100002180, symSize: 0x90 }
  - { offset: 0xC089, size: 0x8, addend: 0x0, symName: __ZNSt3__16vectorINS_4pairINS1_IiiEEcEENS_9allocatorIS3_EEE21__push_back_slow_pathIS3_EEPS3_OT_, symObjAddr: 0x1580, symBinAddr: 0x100002210, symSize: 0xE0 }
  - { offset: 0xC0E6, size: 0x8, addend: 0x0, symName: __ZNSt3__117__compressed_pairIPNS_4pairINS1_IiiEEcEENS_9allocatorIS3_EEE5firstB8ne180100Ev, symObjAddr: 0x1660, symBinAddr: 0x1000022F0, symSize: 0x20 }
  - { offset: 0xC10B, size: 0x8, addend: 0x0, symName: __ZNSt3__122__compressed_pair_elemIPNS_4pairINS1_IiiEEcEELi0ELb0EE5__getB8ne180100Ev, symObjAddr: 0x1680, symBinAddr: 0x100002310, symSize: 0x10 }
  - { offset: 0xC149, size: 0x8, addend: 0x0, symName: __ZNSt3__16vectorINS_4pairINS1_IiiEEcEENS_9allocatorIS3_EEE21_ConstructTransactionC1B8ne180100ERS6_m, symObjAddr: 0x1690, symBinAddr: 0x100002320, symSize: 0x30 }
  - { offset: 0xC190, size: 0x8, addend: 0x0, symName: __ZNSt3__116allocator_traitsINS_9allocatorINS_4pairINS2_IiiEEcEEEEE9constructB8ne180100IS4_JS4_EvvEEvRS5_PT_DpOT0_, symObjAddr: 0x16C0, symBinAddr: 0x100002350, symSize: 0x30 }
  - { offset: 0xC1E4, size: 0x8, addend: 0x0, symName: __ZNSt3__16vectorINS_4pairINS1_IiiEEcEENS_9allocatorIS3_EEE7__allocB8ne180100Ev, symObjAddr: 0x16F0, symBinAddr: 0x100002380, symSize: 0x20 }
  - { offset: 0xC209, size: 0x8, addend: 0x0, symName: __ZNSt3__16vectorINS_4pairINS1_IiiEEcEENS_9allocatorIS3_EEE21_ConstructTransactionD1B8ne180100Ev, symObjAddr: 0x1720, symBinAddr: 0x1000023B0, symSize: 0x20 }
  - { offset: 0xC232, size: 0x8, addend: 0x0, symName: __ZNSt3__16vectorINS_4pairINS1_IiiEEcEENS_9allocatorIS3_EEE21_ConstructTransactionC2B8ne180100ERS6_m, symObjAddr: 0x1740, symBinAddr: 0x1000023D0, symSize: 0x40 }
  - { offset: 0xC279, size: 0x8, addend: 0x0, symName: __ZNSt3__117__compressed_pairIPNS_4pairINS1_IiiEEcEENS_9allocatorIS3_EEE6secondB8ne180100Ev, symObjAddr: 0x17E0, symBinAddr: 0x100002470, symSize: 0x20 }
  - { offset: 0xC29E, size: 0x8, addend: 0x0, symName: __ZNSt3__122__compressed_pair_elemINS_9allocatorINS_4pairINS2_IiiEEcEEEELi1ELb1EE5__getB8ne180100Ev, symObjAddr: 0x1800, symBinAddr: 0x100002490, symSize: 0x10 }
  - { offset: 0xC2C3, size: 0x8, addend: 0x0, symName: __ZNSt3__16vectorINS_4pairINS1_IiiEEcEENS_9allocatorIS3_EEE21_ConstructTransactionD2B8ne180100Ev, symObjAddr: 0x1810, symBinAddr: 0x1000024A0, symSize: 0x20 }
  - { offset: 0xC2EB, size: 0x8, addend: 0x0, symName: __ZNKSt3__16vectorINS_4pairINS1_IiiEEcEENS_9allocatorIS3_EEE11__recommendB8ne180100Em, symObjAddr: 0x1830, symBinAddr: 0x1000024C0, symSize: 0x90 }
  - { offset: 0xC33F, size: 0x8, addend: 0x0, symName: __ZNKSt3__16vectorINS_4pairINS1_IiiEEcEENS_9allocatorIS3_EEE4sizeB8ne180100Ev, symObjAddr: 0x18C0, symBinAddr: 0x100002550, symSize: 0x30 }
  - { offset: 0xC364, size: 0x8, addend: 0x0, symName: __ZNSt3__114__split_bufferINS_4pairINS1_IiiEEcEERNS_9allocatorIS3_EEEC1EmmS6_, symObjAddr: 0x18F0, symBinAddr: 0x100002580, symSize: 0x40 }
  - { offset: 0xC3B9, size: 0x8, addend: 0x0, symName: __ZNSt3__114__split_bufferINS_4pairINS1_IiiEEcEERNS_9allocatorIS3_EEED1Ev, symObjAddr: 0x1A50, symBinAddr: 0x1000026E0, symSize: 0x20 }
  - { offset: 0xC3E3, size: 0x8, addend: 0x0, symName: __ZNKSt3__16vectorINS_4pairINS1_IiiEEcEENS_9allocatorIS3_EEE8max_sizeEv, symObjAddr: 0x1A70, symBinAddr: 0x100002700, symSize: 0x60 }
  - { offset: 0xC40A, size: 0x8, addend: 0x0, symName: __ZNKSt3__16vectorINS_4pairINS1_IiiEEcEENS_9allocatorIS3_EEE20__throw_length_errorB8ne180100Ev, symObjAddr: 0x1AD0, symBinAddr: 0x100002760, symSize: 0x20 }
  - { offset: 0xC42F, size: 0x8, addend: 0x0, symName: __ZNKSt3__16vectorINS_4pairINS1_IiiEEcEENS_9allocatorIS3_EEE8capacityB8ne180100Ev, symObjAddr: 0x1AF0, symBinAddr: 0x100002780, symSize: 0x40 }
  - { offset: 0xC45E, size: 0x8, addend: 0x0, symName: __ZNSt3__116allocator_traitsINS_9allocatorINS_4pairINS2_IiiEEcEEEEE8max_sizeB8ne180100IS5_vvEEmRKS5_, symObjAddr: 0x1B90, symBinAddr: 0x100002820, symSize: 0x30 }
  - { offset: 0xC489, size: 0x8, addend: 0x0, symName: __ZNKSt3__16vectorINS_4pairINS1_IiiEEcEENS_9allocatorIS3_EEE7__allocB8ne180100Ev, symObjAddr: 0x1BC0, symBinAddr: 0x100002850, symSize: 0x20 }
  - { offset: 0xC4AE, size: 0x8, addend: 0x0, symName: __ZNSt3__114numeric_limitsIlE3maxB8ne180100Ev, symObjAddr: 0x1BE0, symBinAddr: 0x100002870, symSize: 0x10 }
  - { offset: 0xC4D6, size: 0x8, addend: 0x0, symName: __ZNKSt3__16__lessIvvEclB8ne180100ImmEEbRKT_RKT0_, symObjAddr: 0x1C40, symBinAddr: 0x1000028D0, symSize: 0x30 }
  - { offset: 0xC529, size: 0x8, addend: 0x0, symName: __ZNSt3__114numeric_limitsImE3maxB8ne180100Ev, symObjAddr: 0x1C70, symBinAddr: 0x100002900, symSize: 0x10 }
  - { offset: 0xC53D, size: 0x8, addend: 0x0, symName: __ZNSt3__123__libcpp_numeric_limitsImLb1EE3maxB8ne180100Ev, symObjAddr: 0x1C80, symBinAddr: 0x100002910, symSize: 0x10 }
  - { offset: 0xC551, size: 0x8, addend: 0x0, symName: __ZNKSt3__117__compressed_pairIPNS_4pairINS1_IiiEEcEENS_9allocatorIS3_EEE6secondB8ne180100Ev, symObjAddr: 0x1C90, symBinAddr: 0x100002920, symSize: 0x20 }
  - { offset: 0xC576, size: 0x8, addend: 0x0, symName: __ZNKSt3__122__compressed_pair_elemINS_9allocatorINS_4pairINS2_IiiEEcEEEELi1ELb1EE5__getB8ne180100Ev, symObjAddr: 0x1CB0, symBinAddr: 0x100002940, symSize: 0x10 }
  - { offset: 0xC59B, size: 0x8, addend: 0x0, symName: __ZNSt3__123__libcpp_numeric_limitsIlLb1EE3maxB8ne180100Ev, symObjAddr: 0x1CC0, symBinAddr: 0x100002950, symSize: 0x10 }
  - { offset: 0xC5AF, size: 0x8, addend: 0x0, symName: __ZNSt12length_errorC1B8ne180100EPKc, symObjAddr: 0x1D40, symBinAddr: 0x1000029D0, symSize: 0x30 }
  - { offset: 0xC5E6, size: 0x8, addend: 0x0, symName: __ZNSt12length_errorC2B8ne180100EPKc, symObjAddr: 0x1D70, symBinAddr: 0x100002A00, symSize: 0x40 }
  - { offset: 0xC61D, size: 0x8, addend: 0x0, symName: __ZNKSt3__16vectorINS_4pairINS1_IiiEEcEENS_9allocatorIS3_EEE9__end_capB8ne180100Ev, symObjAddr: 0x1DB0, symBinAddr: 0x100002A40, symSize: 0x20 }
  - { offset: 0xC642, size: 0x8, addend: 0x0, symName: __ZNKSt3__117__compressed_pairIPNS_4pairINS1_IiiEEcEENS_9allocatorIS3_EEE5firstB8ne180100Ev, symObjAddr: 0x1DD0, symBinAddr: 0x100002A60, symSize: 0x20 }
  - { offset: 0xC667, size: 0x8, addend: 0x0, symName: __ZNKSt3__122__compressed_pair_elemIPNS_4pairINS1_IiiEEcEELi0ELb0EE5__getB8ne180100Ev, symObjAddr: 0x1DF0, symBinAddr: 0x100002A80, symSize: 0x10 }
  - { offset: 0xC68C, size: 0x8, addend: 0x0, symName: __ZNSt3__114__split_bufferINS_4pairINS1_IiiEEcEERNS_9allocatorIS3_EEEC2EmmS6_, symObjAddr: 0x1E50, symBinAddr: 0x100002AE0, symSize: 0xC0 }
  - { offset: 0xC6FE, size: 0x8, addend: 0x0, symName: __ZNSt3__117__compressed_pairIPNS_4pairINS1_IiiEEcEERNS_9allocatorIS3_EEEC1B8ne180100IDnS7_EEOT_OT0_, symObjAddr: 0x1F10, symBinAddr: 0x100002BA0, symSize: 0x30 }
  - { offset: 0xC755, size: 0x8, addend: 0x0, symName: __ZNSt3__114__split_bufferINS_4pairINS1_IiiEEcEERNS_9allocatorIS3_EEE7__allocB8ne180100Ev, symObjAddr: 0x1F80, symBinAddr: 0x100002C10, symSize: 0x20 }
  - { offset: 0xC77A, size: 0x8, addend: 0x0, symName: __ZNSt3__114__split_bufferINS_4pairINS1_IiiEEcEERNS_9allocatorIS3_EEE9__end_capB8ne180100Ev, symObjAddr: 0x1FA0, symBinAddr: 0x100002C30, symSize: 0x20 }
  - { offset: 0xC79F, size: 0x8, addend: 0x0, symName: __ZNSt3__117__compressed_pairIPNS_4pairINS1_IiiEEcEERNS_9allocatorIS3_EEEC2B8ne180100IDnS7_EEOT_OT0_, symObjAddr: 0x1FC0, symBinAddr: 0x100002C50, symSize: 0x40 }
  - { offset: 0xC7F6, size: 0x8, addend: 0x0, symName: __ZNSt3__122__compressed_pair_elemIRNS_9allocatorINS_4pairINS2_IiiEEcEEEELi1ELb0EEC2B8ne180100IS6_vEEOT_, symObjAddr: 0x2000, symBinAddr: 0x100002C90, symSize: 0x20 }
  - { offset: 0xC837, size: 0x8, addend: 0x0, symName: __ZNSt3__19allocatorINS_4pairINS1_IiiEEcEEE8allocateB8ne180100Em, symObjAddr: 0x2020, symBinAddr: 0x100002CB0, symSize: 0x50 }
  - { offset: 0xC86A, size: 0x8, addend: 0x0, symName: __ZNSt3__117__compressed_pairIPNS_4pairINS1_IiiEEcEERNS_9allocatorIS3_EEE6secondB8ne180100Ev, symObjAddr: 0x2180, symBinAddr: 0x100002E10, symSize: 0x20 }
  - { offset: 0xC88F, size: 0x8, addend: 0x0, symName: __ZNSt3__122__compressed_pair_elemIRNS_9allocatorINS_4pairINS2_IiiEEcEEEELi1ELb0EE5__getB8ne180100Ev, symObjAddr: 0x21A0, symBinAddr: 0x100002E30, symSize: 0x20 }
  - { offset: 0xC8B4, size: 0x8, addend: 0x0, symName: __ZNSt3__117__compressed_pairIPNS_4pairINS1_IiiEEcEERNS_9allocatorIS3_EEE5firstB8ne180100Ev, symObjAddr: 0x21C0, symBinAddr: 0x100002E50, symSize: 0x20 }
  - { offset: 0xC8D9, size: 0x8, addend: 0x0, symName: __ZNKSt3__16vectorINS_4pairINS1_IiiEEcEENS_9allocatorIS3_EEE17__annotate_deleteB8ne180100Ev, symObjAddr: 0x21E0, symBinAddr: 0x100002E70, symSize: 0x10 }
  - { offset: 0xC8FE, size: 0x8, addend: 0x0, symName: __ZNSt3__116reverse_iteratorIPNS_4pairINS1_IiiEEcEEEC1B8ne180100ES4_, symObjAddr: 0x2370, symBinAddr: 0x100003000, symSize: 0x30 }
  - { offset: 0xC935, size: 0x8, addend: 0x0, symName: __ZNKSt3__116reverse_iteratorIPNS_4pairINS1_IiiEEcEEE4baseB8ne180100Ev, symObjAddr: 0x23A0, symBinAddr: 0x100003030, symSize: 0x20 }
  - { offset: 0xC95A, size: 0x8, addend: 0x0, symName: __ZNKSt3__16vectorINS_4pairINS1_IiiEEcEENS_9allocatorIS3_EEE14__annotate_newB8ne180100Em, symObjAddr: 0x2400, symBinAddr: 0x100003090, symSize: 0x10 }
  - { offset: 0xC98E, size: 0x8, addend: 0x0, symName: __ZNSt3__129_AllocatorDestroyRangeReverseINS_9allocatorINS_4pairINS2_IiiEEcEEEENS_16reverse_iteratorIPS4_EEEC1B8ne180100ERS5_RS8_SB_, symObjAddr: 0x2470, symBinAddr: 0x100003100, symSize: 0x40 }
  - { offset: 0xC9E4, size: 0x8, addend: 0x0, symName: __ZNKSt3__116reverse_iteratorIPNS_4pairINS1_IiiEEcEEEdeB8ne180100Ev, symObjAddr: 0x2510, symBinAddr: 0x1000031A0, symSize: 0x30 }
  - { offset: 0xCA17, size: 0x8, addend: 0x0, symName: __ZNSt3__116reverse_iteratorIPNS_4pairINS1_IiiEEcEEEppB8ne180100Ev, symObjAddr: 0x2540, symBinAddr: 0x1000031D0, symSize: 0x20 }
  - { offset: 0xCA3C, size: 0x8, addend: 0x0, symName: __ZNSt3__128__exception_guard_exceptionsINS_29_AllocatorDestroyRangeReverseINS_9allocatorINS_4pairINS3_IiiEEcEEEENS_16reverse_iteratorIPS5_EEEEE10__completeB8ne180100Ev, symObjAddr: 0x2560, symBinAddr: 0x1000031F0, symSize: 0x20 }
  - { offset: 0xCA61, size: 0x8, addend: 0x0, symName: __ZNSt3__128__exception_guard_exceptionsINS_29_AllocatorDestroyRangeReverseINS_9allocatorINS_4pairINS3_IiiEEcEEEENS_16reverse_iteratorIPS5_EEEEED1B8ne180100Ev, symObjAddr: 0x2580, symBinAddr: 0x100003210, symSize: 0x20 }
  - { offset: 0xCA8A, size: 0x8, addend: 0x0, symName: __ZNSt3__128__exception_guard_exceptionsINS_29_AllocatorDestroyRangeReverseINS_9allocatorINS_4pairINS3_IiiEEcEEEENS_16reverse_iteratorIPS5_EEEEEC1B8ne180100ESA_, symObjAddr: 0x25A0, symBinAddr: 0x100003230, symSize: 0x40 }
  - { offset: 0xCAC1, size: 0x8, addend: 0x0, symName: __ZNSt3__128__exception_guard_exceptionsINS_29_AllocatorDestroyRangeReverseINS_9allocatorINS_4pairINS3_IiiEEcEEEENS_16reverse_iteratorIPS5_EEEEEC2B8ne180100ESA_, symObjAddr: 0x25E0, symBinAddr: 0x100003270, symSize: 0x30 }
  - { offset: 0xCAF8, size: 0x8, addend: 0x0, symName: __ZNSt3__129_AllocatorDestroyRangeReverseINS_9allocatorINS_4pairINS2_IiiEEcEEEENS_16reverse_iteratorIPS4_EEEC2B8ne180100ERS5_RS8_SB_, symObjAddr: 0x2610, symBinAddr: 0x1000032A0, symSize: 0x40 }
  - { offset: 0xCB53, size: 0x8, addend: 0x0, symName: __ZNSt3__119__to_address_helperINS_16reverse_iteratorIPNS_4pairINS2_IiiEEcEEEEvE6__callB8ne180100ERKS6_, symObjAddr: 0x2650, symBinAddr: 0x1000032E0, symSize: 0x40 }
  - { offset: 0xCB76, size: 0x8, addend: 0x0, symName: __ZNKSt3__116reverse_iteratorIPNS_4pairINS1_IiiEEcEEEptB8ne180100Ev, symObjAddr: 0x2690, symBinAddr: 0x100003320, symSize: 0x30 }
  - { offset: 0xCB9B, size: 0x8, addend: 0x0, symName: __ZNSt3__128__exception_guard_exceptionsINS_29_AllocatorDestroyRangeReverseINS_9allocatorINS_4pairINS3_IiiEEcEEEENS_16reverse_iteratorIPS5_EEEEED2B8ne180100Ev, symObjAddr: 0x2750, symBinAddr: 0x1000033E0, symSize: 0x40 }
  - { offset: 0xCBC4, size: 0x8, addend: 0x0, symName: __ZNKSt3__129_AllocatorDestroyRangeReverseINS_9allocatorINS_4pairINS2_IiiEEcEEEENS_16reverse_iteratorIPS4_EEEclB8ne180100Ev, symObjAddr: 0x2790, symBinAddr: 0x100003420, symSize: 0xF0 }
  - { offset: 0xCBEA, size: 0x8, addend: 0x0, symName: __ZNSt3__116reverse_iteratorINS0_IPNS_4pairINS1_IiiEEcEEEEEC1B8ne180100ES5_, symObjAddr: 0x28F0, symBinAddr: 0x100003580, symSize: 0x30 }
  - { offset: 0xCC21, size: 0x8, addend: 0x0, symName: __ZNSt3__116allocator_traitsINS_9allocatorINS_4pairINS2_IiiEEcEEEEE7destroyB8ne180100IS4_vvEEvRS5_PT_, symObjAddr: 0x2970, symBinAddr: 0x100003600, symSize: 0x20 }
  - { offset: 0xCC5B, size: 0x8, addend: 0x0, symName: __ZNSt3__116reverse_iteratorINS0_IPNS_4pairINS1_IiiEEcEEEEEppB8ne180100Ev, symObjAddr: 0x29B0, symBinAddr: 0x100003640, symSize: 0x30 }
  - { offset: 0xCC80, size: 0x8, addend: 0x0, symName: __ZNKSt3__116reverse_iteratorINS0_IPNS_4pairINS1_IiiEEcEEEEE4baseB8ne180100Ev, symObjAddr: 0x29E0, symBinAddr: 0x100003670, symSize: 0x20 }
  - { offset: 0xCCAA, size: 0x8, addend: 0x0, symName: __ZNSt3__119__to_address_helperINS_16reverse_iteratorINS1_IPNS_4pairINS2_IiiEEcEEEEEEvE6__callB8ne180100ERKS7_, symObjAddr: 0x2A10, symBinAddr: 0x1000036A0, symSize: 0x40 }
  - { offset: 0xCCCD, size: 0x8, addend: 0x0, symName: __ZNKSt3__116reverse_iteratorINS0_IPNS_4pairINS1_IiiEEcEEEEEptB8ne180100Ev, symObjAddr: 0x2A50, symBinAddr: 0x1000036E0, symSize: 0x50 }
  - { offset: 0xCCF2, size: 0x8, addend: 0x0, symName: __ZNSt3__116reverse_iteratorIPNS_4pairINS1_IiiEEcEEEpLB8ne180100El, symObjAddr: 0x2B40, symBinAddr: 0x1000037D0, symSize: 0x30 }
  - { offset: 0xCD25, size: 0x8, addend: 0x0, symName: __ZNSt3__116reverse_iteratorIPNS_4pairINS1_IiiEEcEEEmmB8ne180100Ev, symObjAddr: 0x2B70, symBinAddr: 0x100003800, symSize: 0x20 }
  - { offset: 0xCD4A, size: 0x8, addend: 0x0, symName: __ZNSt3__116reverse_iteratorINS0_IPNS_4pairINS1_IiiEEcEEEEEC2B8ne180100ES5_, symObjAddr: 0x2B90, symBinAddr: 0x100003820, symSize: 0x40 }
  - { offset: 0xCD81, size: 0x8, addend: 0x0, symName: __ZNSt3__116reverse_iteratorIPNS_4pairINS1_IiiEEcEEEC2B8ne180100ES4_, symObjAddr: 0x2BD0, symBinAddr: 0x100003860, symSize: 0x30 }
  - { offset: 0xCDB8, size: 0x8, addend: 0x0, symName: __ZNSt3__114__split_bufferINS_4pairINS1_IiiEEcEERNS_9allocatorIS3_EEED2Ev, symObjAddr: 0x2C00, symBinAddr: 0x100003890, symSize: 0x70 }
  - { offset: 0xCDE3, size: 0x8, addend: 0x0, symName: __ZNSt3__114__split_bufferINS_4pairINS1_IiiEEcEERNS_9allocatorIS3_EEE5clearB8ne180100Ev, symObjAddr: 0x2C70, symBinAddr: 0x100003900, symSize: 0x20 }
  - { offset: 0xCE08, size: 0x8, addend: 0x0, symName: __ZNSt3__116allocator_traitsINS_9allocatorINS_4pairINS2_IiiEEcEEEEE10deallocateB8ne180100ERS5_PS4_m, symObjAddr: 0x2C90, symBinAddr: 0x100003920, symSize: 0x30 }
  - { offset: 0xCE4A, size: 0x8, addend: 0x0, symName: __ZNKSt3__114__split_bufferINS_4pairINS1_IiiEEcEERNS_9allocatorIS3_EEE8capacityB8ne180100Ev, symObjAddr: 0x2CC0, symBinAddr: 0x100003950, symSize: 0x40 }
  - { offset: 0xCE6F, size: 0x8, addend: 0x0, symName: __ZNSt3__114__split_bufferINS_4pairINS1_IiiEEcEERNS_9allocatorIS3_EEE17__destruct_at_endB8ne180100EPS3_, symObjAddr: 0x2D00, symBinAddr: 0x100003990, symSize: 0x30 }
  - { offset: 0xCEA1, size: 0x8, addend: 0x0, symName: __ZNSt3__114__split_bufferINS_4pairINS1_IiiEEcEERNS_9allocatorIS3_EEE17__destruct_at_endB8ne180100EPS3_NS_17integral_constantIbLb0EEE, symObjAddr: 0x2D30, symBinAddr: 0x1000039C0, symSize: 0x80 }
  - { offset: 0xCEE0, size: 0x8, addend: 0x0, symName: __ZNSt3__19allocatorINS_4pairINS1_IiiEEcEEE10deallocateB8ne180100EPS3_m, symObjAddr: 0x2DB0, symBinAddr: 0x100003A40, symSize: 0x50 }
  - { offset: 0xCF21, size: 0x8, addend: 0x0, symName: __ZNKSt3__114__split_bufferINS_4pairINS1_IiiEEcEERNS_9allocatorIS3_EEE9__end_capB8ne180100Ev, symObjAddr: 0x2F00, symBinAddr: 0x100003B90, symSize: 0x20 }
  - { offset: 0xCF46, size: 0x8, addend: 0x0, symName: __ZNKSt3__117__compressed_pairIPNS_4pairINS1_IiiEEcEERNS_9allocatorIS3_EEE5firstB8ne180100Ev, symObjAddr: 0x2F20, symBinAddr: 0x100003BB0, symSize: 0x20 }
  - { offset: 0xCF6B, size: 0x8, addend: 0x0, symName: __ZNSt3__14pairIiiEC2B8ne180100IRiS3_Li0EEEOT_OT0_, symObjAddr: 0x2F40, symBinAddr: 0x100003BD0, symSize: 0x30 }
  - { offset: 0xCFC8, size: 0x8, addend: 0x0, symName: __ZNSt3__14pairINS0_IiiEEcEC2B8ne180100ILb1ELi0EEERKS1_RKc, symObjAddr: 0x2F70, symBinAddr: 0x100003C00, symSize: 0x30 }
  - { offset: 0xD01D, size: 0x8, addend: 0x0, symName: __ZNSt3__16vectorIiNS_9allocatorIiEEEC2B8ne180100Ev, symObjAddr: 0x2FA0, symBinAddr: 0x100003C30, symSize: 0x50 }
  - { offset: 0xD046, size: 0x8, addend: 0x0, symName: __ZNSt3__117__compressed_pairIPiNS_9allocatorIiEEEC1B8ne180100IDnNS_18__default_init_tagEEEOT_OT0_, symObjAddr: 0x2FF0, symBinAddr: 0x100003C80, symSize: 0x30 }
  - { offset: 0xD09D, size: 0x8, addend: 0x0, symName: __ZNSt3__117__compressed_pairIPiNS_9allocatorIiEEEC2B8ne180100IDnNS_18__default_init_tagEEEOT_OT0_, symObjAddr: 0x3020, symBinAddr: 0x100003CB0, symSize: 0x40 }
  - { offset: 0xD0F4, size: 0x8, addend: 0x0, symName: __ZNSt3__122__compressed_pair_elemIPiLi0ELb0EEC2B8ne180100IDnvEEOT_, symObjAddr: 0x3060, symBinAddr: 0x100003CF0, symSize: 0x20 }
  - { offset: 0xD135, size: 0x8, addend: 0x0, symName: __ZNSt3__122__compressed_pair_elemINS_9allocatorIiEELi1ELb1EEC2B8ne180100ENS_18__default_init_tagE, symObjAddr: 0x3080, symBinAddr: 0x100003D10, symSize: 0x20 }
  - { offset: 0xD168, size: 0x8, addend: 0x0, symName: __ZNSt3__19allocatorIiEC2B8ne180100Ev, symObjAddr: 0x30A0, symBinAddr: 0x100003D30, symSize: 0x20 }
  - { offset: 0xD191, size: 0x8, addend: 0x0, symName: __ZNSt3__116__non_trivial_ifILb1ENS_9allocatorIiEEEC2B8ne180100Ev, symObjAddr: 0x30C0, symBinAddr: 0x100003D50, symSize: 0x10 }
  - { offset: 0xD1BA, size: 0x8, addend: 0x0, symName: __ZNSt3__16vectorIiNS_9allocatorIiEEE9__end_capB8ne180100Ev, symObjAddr: 0x30D0, symBinAddr: 0x100003D60, symSize: 0x20 }
  - { offset: 0xD1E4, size: 0x8, addend: 0x0, symName: __ZNSt3__16vectorIiNS_9allocatorIiEEE22__construct_one_at_endB8ne180100IJiEEEvDpOT_, symObjAddr: 0x30F0, symBinAddr: 0x100003D80, symSize: 0x90 }
  - { offset: 0xD231, size: 0x8, addend: 0x0, symName: __ZNSt3__16vectorIiNS_9allocatorIiEEE21__push_back_slow_pathIiEEPiOT_, symObjAddr: 0x3180, symBinAddr: 0x100003E10, symSize: 0xE0 }
  - { offset: 0xD28E, size: 0x8, addend: 0x0, symName: __ZNSt3__117__compressed_pairIPiNS_9allocatorIiEEE5firstB8ne180100Ev, symObjAddr: 0x3260, symBinAddr: 0x100003EF0, symSize: 0x20 }
  - { offset: 0xD2B3, size: 0x8, addend: 0x0, symName: __ZNSt3__122__compressed_pair_elemIPiLi0ELb0EE5__getB8ne180100Ev, symObjAddr: 0x3280, symBinAddr: 0x100003F10, symSize: 0x10 }
  - { offset: 0xD2F1, size: 0x8, addend: 0x0, symName: __ZNSt3__16vectorIiNS_9allocatorIiEEE21_ConstructTransactionC1B8ne180100ERS3_m, symObjAddr: 0x3290, symBinAddr: 0x100003F20, symSize: 0x30 }
  - { offset: 0xD338, size: 0x8, addend: 0x0, symName: __ZNSt3__116allocator_traitsINS_9allocatorIiEEE9constructB8ne180100IiJiEvvEEvRS2_PT_DpOT0_, symObjAddr: 0x32C0, symBinAddr: 0x100003F50, symSize: 0x30 }
  - { offset: 0xD38C, size: 0x8, addend: 0x0, symName: __ZNSt3__16vectorIiNS_9allocatorIiEEE7__allocB8ne180100Ev, symObjAddr: 0x32F0, symBinAddr: 0x100003F80, symSize: 0x20 }
  - { offset: 0xD3B1, size: 0x8, addend: 0x0, symName: __ZNSt3__16vectorIiNS_9allocatorIiEEE21_ConstructTransactionD1B8ne180100Ev, symObjAddr: 0x3320, symBinAddr: 0x100003FB0, symSize: 0x20 }
  - { offset: 0xD3DA, size: 0x8, addend: 0x0, symName: __ZNSt3__16vectorIiNS_9allocatorIiEEE21_ConstructTransactionC2B8ne180100ERS3_m, symObjAddr: 0x3340, symBinAddr: 0x100003FD0, symSize: 0x40 }
  - { offset: 0xD421, size: 0x8, addend: 0x0, symName: __ZNSt3__117__compressed_pairIPiNS_9allocatorIiEEE6secondB8ne180100Ev, symObjAddr: 0x33D0, symBinAddr: 0x100004060, symSize: 0x20 }
  - { offset: 0xD446, size: 0x8, addend: 0x0, symName: __ZNSt3__122__compressed_pair_elemINS_9allocatorIiEELi1ELb1EE5__getB8ne180100Ev, symObjAddr: 0x33F0, symBinAddr: 0x100004080, symSize: 0x10 }
  - { offset: 0xD46B, size: 0x8, addend: 0x0, symName: __ZNSt3__16vectorIiNS_9allocatorIiEEE21_ConstructTransactionD2B8ne180100Ev, symObjAddr: 0x3400, symBinAddr: 0x100004090, symSize: 0x20 }
  - { offset: 0xD493, size: 0x8, addend: 0x0, symName: __ZNKSt3__16vectorIiNS_9allocatorIiEEE11__recommendB8ne180100Em, symObjAddr: 0x3420, symBinAddr: 0x1000040B0, symSize: 0x90 }
  - { offset: 0xD4E7, size: 0x8, addend: 0x0, symName: __ZNSt3__114__split_bufferIiRNS_9allocatorIiEEEC1EmmS3_, symObjAddr: 0x34B0, symBinAddr: 0x100004140, symSize: 0x40 }
  - { offset: 0xD53C, size: 0x8, addend: 0x0, symName: __ZNSt3__114__split_bufferIiRNS_9allocatorIiEEED1Ev, symObjAddr: 0x3610, symBinAddr: 0x1000042A0, symSize: 0x20 }
  - { offset: 0xD566, size: 0x8, addend: 0x0, symName: __ZNKSt3__16vectorIiNS_9allocatorIiEEE8max_sizeEv, symObjAddr: 0x3630, symBinAddr: 0x1000042C0, symSize: 0x60 }
  - { offset: 0xD58D, size: 0x8, addend: 0x0, symName: __ZNKSt3__16vectorIiNS_9allocatorIiEEE20__throw_length_errorB8ne180100Ev, symObjAddr: 0x3690, symBinAddr: 0x100004320, symSize: 0x20 }
  - { offset: 0xD5B2, size: 0x8, addend: 0x0, symName: __ZNKSt3__16vectorIiNS_9allocatorIiEEE8capacityB8ne180100Ev, symObjAddr: 0x36B0, symBinAddr: 0x100004340, symSize: 0x30 }
  - { offset: 0xD5E1, size: 0x8, addend: 0x0, symName: __ZNSt3__116allocator_traitsINS_9allocatorIiEEE8max_sizeB8ne180100IS2_vvEEmRKS2_, symObjAddr: 0x36E0, symBinAddr: 0x100004370, symSize: 0x20 }
  - { offset: 0xD60C, size: 0x8, addend: 0x0, symName: __ZNKSt3__16vectorIiNS_9allocatorIiEEE7__allocB8ne180100Ev, symObjAddr: 0x3700, symBinAddr: 0x100004390, symSize: 0x20 }
  - { offset: 0xD631, size: 0x8, addend: 0x0, symName: __ZNKSt3__117__compressed_pairIPiNS_9allocatorIiEEE6secondB8ne180100Ev, symObjAddr: 0x3720, symBinAddr: 0x1000043B0, symSize: 0x20 }
  - { offset: 0xD656, size: 0x8, addend: 0x0, symName: __ZNKSt3__122__compressed_pair_elemINS_9allocatorIiEELi1ELb1EE5__getB8ne180100Ev, symObjAddr: 0x3740, symBinAddr: 0x1000043D0, symSize: 0x10 }
  - { offset: 0xD67B, size: 0x8, addend: 0x0, symName: __ZNKSt3__16vectorIiNS_9allocatorIiEEE9__end_capB8ne180100Ev, symObjAddr: 0x3750, symBinAddr: 0x1000043E0, symSize: 0x20 }
  - { offset: 0xD6A0, size: 0x8, addend: 0x0, symName: __ZNKSt3__117__compressed_pairIPiNS_9allocatorIiEEE5firstB8ne180100Ev, symObjAddr: 0x3770, symBinAddr: 0x100004400, symSize: 0x20 }
  - { offset: 0xD6C5, size: 0x8, addend: 0x0, symName: __ZNKSt3__122__compressed_pair_elemIPiLi0ELb0EE5__getB8ne180100Ev, symObjAddr: 0x3790, symBinAddr: 0x100004420, symSize: 0x10 }
  - { offset: 0xD6EA, size: 0x8, addend: 0x0, symName: __ZNSt3__114__split_bufferIiRNS_9allocatorIiEEEC2EmmS3_, symObjAddr: 0x37A0, symBinAddr: 0x100004430, symSize: 0xD0 }
  - { offset: 0xD75C, size: 0x8, addend: 0x0, symName: __ZNSt3__117__compressed_pairIPiRNS_9allocatorIiEEEC1B8ne180100IDnS4_EEOT_OT0_, symObjAddr: 0x3870, symBinAddr: 0x100004500, symSize: 0x30 }
  - { offset: 0xD7B3, size: 0x8, addend: 0x0, symName: __ZNSt3__114__split_bufferIiRNS_9allocatorIiEEE7__allocB8ne180100Ev, symObjAddr: 0x38E0, symBinAddr: 0x100004570, symSize: 0x20 }
  - { offset: 0xD7D8, size: 0x8, addend: 0x0, symName: __ZNSt3__114__split_bufferIiRNS_9allocatorIiEEE9__end_capB8ne180100Ev, symObjAddr: 0x3900, symBinAddr: 0x100004590, symSize: 0x20 }
  - { offset: 0xD7FD, size: 0x8, addend: 0x0, symName: __ZNSt3__117__compressed_pairIPiRNS_9allocatorIiEEEC2B8ne180100IDnS4_EEOT_OT0_, symObjAddr: 0x3920, symBinAddr: 0x1000045B0, symSize: 0x40 }
  - { offset: 0xD854, size: 0x8, addend: 0x0, symName: __ZNSt3__122__compressed_pair_elemIRNS_9allocatorIiEELi1ELb0EEC2B8ne180100IS3_vEEOT_, symObjAddr: 0x3960, symBinAddr: 0x1000045F0, symSize: 0x20 }
  - { offset: 0xD895, size: 0x8, addend: 0x0, symName: __ZNSt3__19allocatorIiE8allocateB8ne180100Em, symObjAddr: 0x3980, symBinAddr: 0x100004610, symSize: 0x50 }
  - { offset: 0xD8C8, size: 0x8, addend: 0x0, symName: __ZNSt3__117__compressed_pairIPiRNS_9allocatorIiEEE6secondB8ne180100Ev, symObjAddr: 0x39D0, symBinAddr: 0x100004660, symSize: 0x20 }
  - { offset: 0xD8ED, size: 0x8, addend: 0x0, symName: __ZNSt3__122__compressed_pair_elemIRNS_9allocatorIiEELi1ELb0EE5__getB8ne180100Ev, symObjAddr: 0x39F0, symBinAddr: 0x100004680, symSize: 0x20 }
  - { offset: 0xD912, size: 0x8, addend: 0x0, symName: __ZNSt3__117__compressed_pairIPiRNS_9allocatorIiEEE5firstB8ne180100Ev, symObjAddr: 0x3A10, symBinAddr: 0x1000046A0, symSize: 0x20 }
  - { offset: 0xD937, size: 0x8, addend: 0x0, symName: __ZNKSt3__16vectorIiNS_9allocatorIiEEE17__annotate_deleteB8ne180100Ev, symObjAddr: 0x3A30, symBinAddr: 0x1000046C0, symSize: 0x10 }
  - { offset: 0xD95C, size: 0x8, addend: 0x0, symName: __ZNSt3__116reverse_iteratorIPiEC1B8ne180100ES1_, symObjAddr: 0x3AB0, symBinAddr: 0x100004740, symSize: 0x30 }
  - { offset: 0xD993, size: 0x8, addend: 0x0, symName: __ZNKSt3__116reverse_iteratorIPiE4baseB8ne180100Ev, symObjAddr: 0x3AE0, symBinAddr: 0x100004770, symSize: 0x20 }
  - { offset: 0xD9B8, size: 0x8, addend: 0x0, symName: __ZNKSt3__16vectorIiNS_9allocatorIiEEE14__annotate_newB8ne180100Em, symObjAddr: 0x3B40, symBinAddr: 0x1000047D0, symSize: 0x10 }
  - { offset: 0xDA0F, size: 0x8, addend: 0x0, symName: __ZNKSt3__111__move_loopINS_17_ClassicAlgPolicyEEclB8ne180100INS_16reverse_iteratorIPiEES6_S6_EENS_4pairIT_T1_EES8_T0_S9_, symObjAddr: 0x3F60, symBinAddr: 0x100004BF0, symSize: 0xA0 }
  - { offset: 0xDA79, size: 0x8, addend: 0x0, symName: __ZNSt3__119__unwrap_range_implINS_16reverse_iteratorIPiEES3_E8__unwrapB8ne180100ES3_S3_, symObjAddr: 0x4140, symBinAddr: 0x100004DD0, symSize: 0x90 }
  - { offset: 0xDAAF, size: 0x8, addend: 0x0, symName: __ZNSt3__14pairINS_16reverse_iteratorIPiEES3_EC1B8ne180100IS3_S3_Li0EEEOT_OT0_, symObjAddr: 0x41D0, symBinAddr: 0x100004E60, symSize: 0x30 }
  - { offset: 0xDB0C, size: 0x8, addend: 0x0, symName: __ZNSt3__14pairINS_16reverse_iteratorIPiEES3_EC2B8ne180100IS3_S3_Li0EEEOT_OT0_, symObjAddr: 0x4200, symBinAddr: 0x100004E90, symSize: 0x40 }
  - { offset: 0xDB6E, size: 0x8, addend: 0x0, symName: __ZNSt3__18_IterOpsINS_17_ClassicAlgPolicyEE11__iter_moveB8ne180100IRNS_16reverse_iteratorIPiEELi0EEEDTclsr3stdE4movedeclsr3stdE7declvalIRT_EEEEOS8_, symObjAddr: 0x4280, symBinAddr: 0x100004F10, symSize: 0x20 }
  - { offset: 0xDBA0, size: 0x8, addend: 0x0, symName: __ZNKSt3__116reverse_iteratorIPiEdeB8ne180100Ev, symObjAddr: 0x42A0, symBinAddr: 0x100004F30, symSize: 0x30 }
  - { offset: 0xDBD3, size: 0x8, addend: 0x0, symName: __ZNSt3__116reverse_iteratorIPiEppB8ne180100Ev, symObjAddr: 0x42D0, symBinAddr: 0x100004F60, symSize: 0x20 }
  - { offset: 0xDBF8, size: 0x8, addend: 0x0, symName: __ZNSt3__18_IterOpsINS_17_ClassicAlgPolicyEE25__validate_iter_referenceB8ne180100IRNS_16reverse_iteratorIPiEEEEvv, symObjAddr: 0x42F0, symBinAddr: 0x100004F80, symSize: 0x10 }
  - { offset: 0xDC16, size: 0x8, addend: 0x0, symName: __ZNSt3__118__unwrap_iter_implINS_16reverse_iteratorIPiEELb0EE8__unwrapB8ne180100ES3_, symObjAddr: 0x4300, symBinAddr: 0x100004F90, symSize: 0x20 }
  - { offset: 0xDC39, size: 0x8, addend: 0x0, symName: __ZNSt3__119__unwrap_range_implINS_16reverse_iteratorIPiEES3_E8__rewrapB8ne180100ES3_S3_, symObjAddr: 0x4320, symBinAddr: 0x100004FB0, symSize: 0x60 }
  - { offset: 0xDC6A, size: 0x8, addend: 0x0, symName: __ZNSt3__118__unwrap_iter_implINS_16reverse_iteratorIPiEELb0EE8__rewrapB8ne180100ES3_S3_, symObjAddr: 0x4380, symBinAddr: 0x100005010, symSize: 0x30 }
  - { offset: 0xDC97, size: 0x8, addend: 0x0, symName: __ZNSt3__116reverse_iteratorIPiEC2B8ne180100ES1_, symObjAddr: 0x43B0, symBinAddr: 0x100005040, symSize: 0x30 }
  - { offset: 0xDCCE, size: 0x8, addend: 0x0, symName: __ZNSt3__114__split_bufferIiRNS_9allocatorIiEEED2Ev, symObjAddr: 0x43E0, symBinAddr: 0x100005070, symSize: 0x70 }
  - { offset: 0xDCF9, size: 0x8, addend: 0x0, symName: __ZNSt3__114__split_bufferIiRNS_9allocatorIiEEE5clearB8ne180100Ev, symObjAddr: 0x4450, symBinAddr: 0x1000050E0, symSize: 0x20 }
  - { offset: 0xDD1E, size: 0x8, addend: 0x0, symName: __ZNSt3__116allocator_traitsINS_9allocatorIiEEE10deallocateB8ne180100ERS2_Pim, symObjAddr: 0x4470, symBinAddr: 0x100005100, symSize: 0x30 }
  - { offset: 0xDD60, size: 0x8, addend: 0x0, symName: __ZNKSt3__114__split_bufferIiRNS_9allocatorIiEEE8capacityB8ne180100Ev, symObjAddr: 0x44A0, symBinAddr: 0x100005130, symSize: 0x30 }
  - { offset: 0xDD85, size: 0x8, addend: 0x0, symName: __ZNSt3__114__split_bufferIiRNS_9allocatorIiEEE17__destruct_at_endB8ne180100EPi, symObjAddr: 0x44D0, symBinAddr: 0x100005160, symSize: 0x30 }
  - { offset: 0xDDB7, size: 0x8, addend: 0x0, symName: __ZNSt3__114__split_bufferIiRNS_9allocatorIiEEE17__destruct_at_endB8ne180100EPiNS_17integral_constantIbLb0EEE, symObjAddr: 0x4500, symBinAddr: 0x100005190, symSize: 0x80 }
  - { offset: 0xDDF6, size: 0x8, addend: 0x0, symName: __ZNSt3__116allocator_traitsINS_9allocatorIiEEE7destroyB8ne180100IivvEEvRS2_PT_, symObjAddr: 0x4580, symBinAddr: 0x100005210, symSize: 0x20 }
  - { offset: 0xDE30, size: 0x8, addend: 0x0, symName: __ZNSt3__19allocatorIiE10deallocateB8ne180100EPim, symObjAddr: 0x45B0, symBinAddr: 0x100005240, symSize: 0x40 }
  - { offset: 0xDE71, size: 0x8, addend: 0x0, symName: __ZNKSt3__114__split_bufferIiRNS_9allocatorIiEEE9__end_capB8ne180100Ev, symObjAddr: 0x45F0, symBinAddr: 0x100005280, symSize: 0x20 }
  - { offset: 0xDE96, size: 0x8, addend: 0x0, symName: __ZNKSt3__117__compressed_pairIPiRNS_9allocatorIiEEE5firstB8ne180100Ev, symObjAddr: 0x4610, symBinAddr: 0x1000052A0, symSize: 0x20 }
  - { offset: 0xDEC0, size: 0x8, addend: 0x0, symName: __ZNSt3__16vectorIiNS_9allocatorIiEEE22__construct_one_at_endB8ne180100IJRKiEEEvDpOT_, symObjAddr: 0x4630, symBinAddr: 0x1000052C0, symSize: 0x90 }
  - { offset: 0xDF0D, size: 0x8, addend: 0x0, symName: __ZNSt3__16vectorIiNS_9allocatorIiEEE21__push_back_slow_pathIRKiEEPiOT_, symObjAddr: 0x46C0, symBinAddr: 0x100005350, symSize: 0xE0 }
  - { offset: 0xDF6A, size: 0x8, addend: 0x0, symName: __ZNSt3__116allocator_traitsINS_9allocatorIiEEE9constructB8ne180100IiJRKiEvvEEvRS2_PT_DpOT0_, symObjAddr: 0x47A0, symBinAddr: 0x100005430, symSize: 0x30 }
  - { offset: 0xDFBE, size: 0x8, addend: 0x0, symName: __ZNSt3__16vectorIiNS_9allocatorIiEEED2B8ne180100Ev, symObjAddr: 0x4820, symBinAddr: 0x1000054B0, symSize: 0x40 }
  - { offset: 0xDFE7, size: 0x8, addend: 0x0, symName: __ZNSt3__16vectorIiNS_9allocatorIiEEE16__destroy_vectorC1B8ne180100ERS3_, symObjAddr: 0x4860, symBinAddr: 0x1000054F0, symSize: 0x30 }
  - { offset: 0xE01F, size: 0x8, addend: 0x0, symName: __ZNSt3__16vectorIiNS_9allocatorIiEEE16__destroy_vectorclB8ne180100Ev, symObjAddr: 0x4890, symBinAddr: 0x100005520, symSize: 0x80 }
  - { offset: 0xE044, size: 0x8, addend: 0x0, symName: __ZNSt3__16vectorIiNS_9allocatorIiEEE16__destroy_vectorC2B8ne180100ERS3_, symObjAddr: 0x4910, symBinAddr: 0x1000055A0, symSize: 0x20 }
  - { offset: 0xE07C, size: 0x8, addend: 0x0, symName: __ZNSt3__16vectorIiNS_9allocatorIiEEE7__clearB8ne180100Ev, symObjAddr: 0x4930, symBinAddr: 0x1000055C0, symSize: 0x20 }
  - { offset: 0xE0A1, size: 0x8, addend: 0x0, symName: __ZNSt3__16vectorIiNS_9allocatorIiEEE22__base_destruct_at_endB8ne180100EPi, symObjAddr: 0x4950, symBinAddr: 0x1000055E0, symSize: 0x80 }
  - { offset: 0xE0E4, size: 0x8, addend: 0x0, symName: __ZNSt3__16vectorINS_4pairINS1_IiiEEcEENS_9allocatorIS3_EEED2B8ne180100Ev, symObjAddr: 0x49D0, symBinAddr: 0x100005660, symSize: 0x40 }
  - { offset: 0xE10D, size: 0x8, addend: 0x0, symName: __ZNSt3__16vectorINS_4pairINS1_IiiEEcEENS_9allocatorIS3_EEE16__destroy_vectorC1B8ne180100ERS6_, symObjAddr: 0x4A10, symBinAddr: 0x1000056A0, symSize: 0x30 }
  - { offset: 0xE145, size: 0x8, addend: 0x0, symName: __ZNSt3__16vectorINS_4pairINS1_IiiEEcEENS_9allocatorIS3_EEE16__destroy_vectorclB8ne180100Ev, symObjAddr: 0x4A40, symBinAddr: 0x1000056D0, symSize: 0x80 }
  - { offset: 0xE16A, size: 0x8, addend: 0x0, symName: __ZNSt3__16vectorINS_4pairINS1_IiiEEcEENS_9allocatorIS3_EEE16__destroy_vectorC2B8ne180100ERS6_, symObjAddr: 0x4AC0, symBinAddr: 0x100005750, symSize: 0x20 }
  - { offset: 0xE1A2, size: 0x8, addend: 0x0, symName: __ZNSt3__16vectorINS_4pairINS1_IiiEEcEENS_9allocatorIS3_EEE7__clearB8ne180100Ev, symObjAddr: 0x4AE0, symBinAddr: 0x100005770, symSize: 0x20 }
  - { offset: 0xE1C7, size: 0x8, addend: 0x0, symName: __ZNSt3__16vectorINS_4pairINS1_IiiEEcEENS_9allocatorIS3_EEE22__base_destruct_at_endB8ne180100EPS3_, symObjAddr: 0x4B00, symBinAddr: 0x100005790, symSize: 0x80 }
  - { offset: 0xE2AE, size: 0x8, addend: 0x0, symName: __ZNKSt3__113basic_istreamIcNS_11char_traitsIcEEE6sentrycvbB8ne180100Ev, symObjAddr: 0x4B80, symBinAddr: 0x100005810, symSize: 0x20 }
  - { offset: 0xE2D2, size: 0x8, addend: 0x0, symName: __ZNKSt3__19basic_iosIcNS_11char_traitsIcEEE5rdbufB8ne180100Ev, symObjAddr: 0x4BA0, symBinAddr: 0x100005830, symSize: 0x20 }
  - { offset: 0xE2F9, size: 0x8, addend: 0x0, symName: __ZNSt3__115basic_streambufIcNS_11char_traitsIcEEE6sbumpcB8ne180100Ev, symObjAddr: 0x4BC0, symBinAddr: 0x100005850, symSize: 0x60 }
  - { offset: 0xE31E, size: 0x8, addend: 0x0, symName: __ZNSt3__111char_traitsIcE11eq_int_typeB8ne180100Eii, symObjAddr: 0x4C20, symBinAddr: 0x1000058B0, symSize: 0x20 }
  - { offset: 0xE351, size: 0x8, addend: 0x0, symName: __ZNSt3__111char_traitsIcE3eofB8ne180100Ev, symObjAddr: 0x4C40, symBinAddr: 0x1000058D0, symSize: 0x10 }
  - { offset: 0xE365, size: 0x8, addend: 0x0, symName: __ZNSt3__111char_traitsIcE12to_char_typeB8ne180100Ei, symObjAddr: 0x4C50, symBinAddr: 0x1000058E0, symSize: 0x10 }
  - { offset: 0xE389, size: 0x8, addend: 0x0, symName: __ZNSt3__18ios_base18__setstate_nothrowB8ne180100Ej, symObjAddr: 0x4C60, symBinAddr: 0x1000058F0, symSize: 0x50 }
  - { offset: 0xE3BD, size: 0x8, addend: 0x0, symName: __ZNKSt3__19basic_iosIcNS_11char_traitsIcEEE10exceptionsB8ne180100Ev, symObjAddr: 0x4CB0, symBinAddr: 0x100005940, symSize: 0x20 }
  - { offset: 0xE3E2, size: 0x8, addend: 0x0, symName: __ZNSt3__19basic_iosIcNS_11char_traitsIcEEE8setstateB8ne180100Ej, symObjAddr: 0x4CD0, symBinAddr: 0x100005960, symSize: 0x30 }
  - { offset: 0xE416, size: 0x8, addend: 0x0, symName: __ZNKSt3__18ios_base5rdbufB8ne180100Ev, symObjAddr: 0x4D00, symBinAddr: 0x100005990, symSize: 0x20 }
  - { offset: 0xE43B, size: 0x8, addend: 0x0, symName: __ZNSt3__111char_traitsIcE11to_int_typeB8ne180100Ec, symObjAddr: 0x4D20, symBinAddr: 0x1000059B0, symSize: 0x10 }
  - { offset: 0xE45E, size: 0x8, addend: 0x0, symName: __ZNKSt3__18ios_base10exceptionsB8ne180100Ev, symObjAddr: 0x4D30, symBinAddr: 0x1000059C0, symSize: 0x20 }
  - { offset: 0xE484, size: 0x8, addend: 0x0, symName: __ZNSt3__18ios_base8setstateB8ne180100Ej, symObjAddr: 0x4D50, symBinAddr: 0x1000059E0, symSize: 0x30 }
  - { offset: 0xE4B9, size: 0x8, addend: 0x0, symName: __ZNKSt3__19basic_iosIcNS_11char_traitsIcEEE5widenB8ne180100Ec, symObjAddr: 0x4D80, symBinAddr: 0x100005A10, symSize: 0x80 }
  - { offset: 0xE531, size: 0x8, addend: 0x0, symName: __ZNKSt3__15ctypeIcE5widenB8ne180100Ec, symObjAddr: 0x4E30, symBinAddr: 0x100005AC0, symSize: 0x2B }
...
