---
triple:          'x86_64-apple-darwin'
binary-path:     saraga
relocations:
  - { offset: 0x5C, size: 0x8, addend: 0x0, symName: __ZNSt3__119piecewise_constructE, symObjAddr: 0x4CA7, symBinAddr: 0x100005E7C, symSize: 0x0 }
  - { offset: 0x6810, size: 0x8, addend: 0x0, symName: __ZNSt3__124__put_character_sequenceB8ne180100IcNS_11char_traitsIcEEEERNS_13basic_ostreamIT_T0_EES7_PKS4_m, symObjAddr: 0x4240, symBinAddr: 0x100005320, symSize: 0x1F0 }
  - { offset: 0x77C1, size: 0x8, addend: 0x0, symName: __ZNSt3__1rsB8ne180100IcNS_11char_traitsIcEENS_9allocatorIcEEEERNS_13basic_istreamIT_T0_EES9_RNS_12basic_stringIS6_S7_T1_EE, symObjAddr: 0x620, symBinAddr: 0x100001700, symSize: 0x2F0 }
  - { offset: 0x81F3, size: 0x8, addend: 0x0, symName: __ZNSt3__1lsB8ne180100INS_11char_traitsIcEEEERNS_13basic_ostreamIcT_EES6_PKc, symObjAddr: 0xA60, symBinAddr: 0x100001B40, symSize: 0x40 }
  - { offset: 0x8239, size: 0x8, addend: 0x0, symName: __ZNSt3__14endlB8ne180100IcNS_11char_traitsIcEEEERNS_13basic_ostreamIT_T0_EES7_, symObjAddr: 0xAC0, symBinAddr: 0x100001BA0, symSize: 0x50 }
  - { offset: 0x8279, size: 0x8, addend: 0x0, symName: __ZNSt3__1lsB8ne180100IcNS_11char_traitsIcEENS_9allocatorIcEEEERNS_13basic_ostreamIT_T0_EES9_RKNS_12basic_stringIS6_S7_T1_EE, symObjAddr: 0xB10, symBinAddr: 0x100001BF0, symSize: 0x50 }
  - { offset: 0x8A64, size: 0x8, addend: 0x0, symName: __ZNSt3__19use_facetB8ne180100INS_5ctypeIcEEEERKT_RKNS_6localeE, symObjAddr: 0x10A0, symBinAddr: 0x100002180, symSize: 0x30 }
  - { offset: 0x8E42, size: 0x8, addend: 0x0, symName: __ZNSt3__112__destroy_atB8ne180100INS_11__hash_nodeINS_17__hash_value_typeIciEEPvEELi0EEEvPT_, symObjAddr: 0x1C90, symBinAddr: 0x100002D70, symSize: 0x20 }
  - { offset: 0x8EAC, size: 0x8, addend: 0x0, symName: __ZNSt3__112__destroy_atB8ne180100INS_4pairIKciEELi0EEEvPT_, symObjAddr: 0x1D20, symBinAddr: 0x100002E00, symSize: 0x10 }
  - { offset: 0x8EE3, size: 0x8, addend: 0x0, symName: __ZNSt3__17launderB8ne180100INS_4pairIKciEEEEPT_S5_, symObjAddr: 0x1D50, symBinAddr: 0x100002E30, symSize: 0x20 }
  - { offset: 0x8F1A, size: 0x8, addend: 0x0, symName: __ZNSt3__19__launderB8ne180100INS_4pairIKciEEEEPT_S5_, symObjAddr: 0x1D70, symBinAddr: 0x100002E50, symSize: 0x10 }
  - { offset: 0x8F51, size: 0x8, addend: 0x0, symName: __ZNSt3__119__libcpp_deallocateB8ne180100EPvmm, symObjAddr: 0x1E00, symBinAddr: 0x100002EE0, symSize: 0x60 }
  - { offset: 0x8FB6, size: 0x8, addend: 0x0, symName: __ZNSt3__124__is_overaligned_for_newB8ne180100Em, symObjAddr: 0x1E60, symBinAddr: 0x100002F40, symSize: 0x20 }
  - { offset: 0x8FE4, size: 0x8, addend: 0x0, symName: __ZNSt3__127__do_deallocate_handle_sizeB8ne180100IJSt11align_val_tEEEvPvmDpT_, symObjAddr: 0x1E80, symBinAddr: 0x100002F60, symSize: 0x30 }
  - { offset: 0x9037, size: 0x8, addend: 0x0, symName: __ZNSt3__127__do_deallocate_handle_sizeB8ne180100IJEEEvPvmDpT_, symObjAddr: 0x1EB0, symBinAddr: 0x100002F90, symSize: 0x20 }
  - { offset: 0x9075, size: 0x8, addend: 0x0, symName: __ZNSt3__124__libcpp_operator_deleteB8ne180100IJPvSt11align_val_tEEEvDpT_, symObjAddr: 0x1ED0, symBinAddr: 0x100002FB0, symSize: 0x30 }
  - { offset: 0x90BE, size: 0x8, addend: 0x0, symName: __ZNSt3__124__libcpp_operator_deleteB8ne180100IJPvEEEvDpT_, symObjAddr: 0x1F00, symBinAddr: 0x100002FE0, symSize: 0x20 }
  - { offset: 0x90F3, size: 0x8, addend: 0x0, symName: __ZNSt3__1neB8ne180100ERKNS_21__hash_const_iteratorIPNS_11__hash_nodeINS_17__hash_value_typeIciEEPvEEEES9_, symObjAddr: 0x21C0, symBinAddr: 0x1000032A0, symSize: 0x30 }
  - { offset: 0x9130, size: 0x8, addend: 0x0, symName: __ZNSt3__1eqB8ne180100ERKNS_21__hash_const_iteratorIPNS_11__hash_nodeINS_17__hash_value_typeIciEEPvEEEES9_, symObjAddr: 0x23B0, symBinAddr: 0x100003490, symSize: 0x30 }
  - { offset: 0x916D, size: 0x8, addend: 0x0, symName: __ZNSt3__116__constrain_hashB8ne180100Emm, symObjAddr: 0x2460, symBinAddr: 0x100003540, symSize: 0x80 }
  - { offset: 0x91A7, size: 0x8, addend: 0x0, symName: __ZNSt3__17launderB8ne180100IKNS_4pairIKciEEEEPT_S6_, symObjAddr: 0x2760, symBinAddr: 0x100003840, symSize: 0x20 }
  - { offset: 0x91DE, size: 0x8, addend: 0x0, symName: __ZNSt3__19__launderB8ne180100IKNS_4pairIKciEEEEPT_S6_, symObjAddr: 0x2780, symBinAddr: 0x100003860, symSize: 0x10 }
  - { offset: 0x924C, size: 0x8, addend: 0x0, symName: __ZNSt3__116forward_as_tupleB8ne180100IJRKcEEENS_5tupleIJDpOT_EEES6_, symObjAddr: 0x2D90, symBinAddr: 0x100003E70, symSize: 0x30 }
  - { offset: 0x9285, size: 0x8, addend: 0x0, symName: __ZNSt3__116forward_as_tupleB8ne180100IJEEENS_5tupleIJDpOT_EEES4_, symObjAddr: 0x2DC0, symBinAddr: 0x100003EA0, symSize: 0x10 }
  - { offset: 0x92A9, size: 0x8, addend: 0x0, symName: __ZNSt3__13maxB8ne180100ImEERKT_S3_S3_, symObjAddr: 0x3010, symBinAddr: 0x1000040F0, symSize: 0x30 }
  - { offset: 0x92EC, size: 0x8, addend: 0x0, symName: __ZNSt3__116__is_hash_power2B8ne180100Em, symObjAddr: 0x3040, symBinAddr: 0x100004120, symSize: 0x40 }
  - { offset: 0x931D, size: 0x8, addend: 0x0, symName: __ZNSt3__16__math4ceilB8ne180100Ef, symObjAddr: 0x3080, symBinAddr: 0x100004160, symSize: 0x20 }
  - { offset: 0x93AC, size: 0x8, addend: 0x0, symName: __ZNSt3__114__construct_atB8ne180100INS_11__hash_nodeINS_17__hash_value_typeIciEEPvEEJDnRmEPS5_EEPT_S9_DpOT0_, symObjAddr: 0x32C0, symBinAddr: 0x1000043A0, symSize: 0x30 }
  - { offset: 0x9412, size: 0x8, addend: 0x0, symName: __ZNSt3__117__libcpp_allocateB8ne180100Emm, symObjAddr: 0x3430, symBinAddr: 0x100004510, symSize: 0x60 }
  - { offset: 0x946C, size: 0x8, addend: 0x0, symName: __ZNSt3__121__libcpp_operator_newB8ne180100IJmSt11align_val_tEEEPvDpT_, symObjAddr: 0x3490, symBinAddr: 0x100004570, symSize: 0x30 }
  - { offset: 0x94B9, size: 0x8, addend: 0x0, symName: __ZNSt3__121__libcpp_operator_newB8ne180100IJmEEEPvDpT_, symObjAddr: 0x34C0, symBinAddr: 0x1000045A0, symSize: 0x20 }
  - { offset: 0x94F2, size: 0x8, addend: 0x0, symName: __ZNSt3__112construct_atB8ne180100INS_11__hash_nodeINS_17__hash_value_typeIciEEPvEEJDnRmEPS5_EEPT_S9_DpOT0_, symObjAddr: 0x3610, symBinAddr: 0x1000046F0, symSize: 0x40 }
  - { offset: 0x9558, size: 0x8, addend: 0x0, symName: __ZNSt3__114__construct_atB8ne180100INS_4pairIKciEEJRKNS_21piecewise_construct_tENS_5tupleIJRS2_EEENS7_IJEEEEPS3_EEPT_SD_DpOT0_, symObjAddr: 0x3710, symBinAddr: 0x1000047F0, symSize: 0x40 }
  - { offset: 0x95D1, size: 0x8, addend: 0x0, symName: __ZNSt3__112construct_atB8ne180100INS_4pairIKciEEJRKNS_21piecewise_construct_tENS_5tupleIJRS2_EEENS7_IJEEEEPS3_EEPT_SD_DpOT0_, symObjAddr: 0x3750, symBinAddr: 0x100004830, symSize: 0x40 }
  - { offset: 0x9655, size: 0x8, addend: 0x0, symName: __ZNSt3__13getB8ne180100ILm0EJRKcEEERNS_13tuple_elementIXT_ENS_5tupleIJDpT0_EEEE4typeERS7_, symObjAddr: 0x3840, symBinAddr: 0x100004920, symSize: 0x20 }
  - { offset: 0x9698, size: 0x8, addend: 0x0, symName: __ZNSt3__116__next_hash_pow2B8ne180100Em, symObjAddr: 0x3D80, symBinAddr: 0x100004E60, symSize: 0x60 }
  - { offset: 0x96C4, size: 0x8, addend: 0x0, symName: __ZNSt3__112__libcpp_clzB8ne180100Em, symObjAddr: 0x3F10, symBinAddr: 0x100004FF0, symSize: 0x20 }
  - { offset: 0x96F0, size: 0x8, addend: 0x0, symName: __ZNSt3__13maxB8ne180100ImNS_6__lessIvvEEEERKT_S5_S5_T0_, symObjAddr: 0x3F30, symBinAddr: 0x100005010, symSize: 0x50 }
  - { offset: 0x97E6, size: 0x8, addend: 0x0, symName: __ZNSt3__116__pad_and_outputB8ne180100IcNS_11char_traitsIcEEEENS_19ostreambuf_iteratorIT_T0_EES6_PKS4_S8_S8_RNS_8ios_baseES4_, symObjAddr: 0x4480, symBinAddr: 0x100005560, symSize: 0x220 }
  - { offset: 0x98B6, size: 0x8, addend: 0x0, symName: __ZNSt3__112__to_addressB8ne180100IcEEPT_S2_, symObjAddr: 0x48D0, symBinAddr: 0x1000059B0, symSize: 0x10 }
  - { offset: 0x98EB, size: 0x8, addend: 0x0, symName: __ZNSt3__118__constexpr_strlenB8ne180100EPKc, symObjAddr: 0x49E0, symBinAddr: 0x100005AC0, symSize: 0x20 }
  - { offset: 0x9917, size: 0x8, addend: 0x0, symName: __ZNSt3__112__to_addressB8ne180100IKcEEPT_S3_, symObjAddr: 0x4A30, symBinAddr: 0x100005B10, symSize: 0x10 }
  - { offset: 0xA60B, size: 0x8, addend: 0x0, symName: __ZSt28__throw_bad_array_new_lengthB8ne180100v, symObjAddr: 0x33F0, symBinAddr: 0x1000044D0, symSize: 0x40 }
  - { offset: 0xAF2D, size: 0x8, addend: 0x0, symName: _main, symObjAddr: 0x0, symBinAddr: 0x1000010E0, symSize: 0x600 }
  - { offset: 0xB026, size: 0x8, addend: 0x0, symName: __ZNSt3__112basic_stringIcNS_11char_traitsIcEENS_9allocatorIcEEEC1B8ne180100Ev, symObjAddr: 0x600, symBinAddr: 0x1000016E0, symSize: 0x20 }
  - { offset: 0xB0CD, size: 0x8, addend: 0x0, symName: __ZNSt3__113unordered_mapIciNS_4hashIcEENS_8equal_toIcEENS_9allocatorINS_4pairIKciEEEEEC1B8ne180100Ev, symObjAddr: 0x910, symBinAddr: 0x1000019F0, symSize: 0x20 }
  - { offset: 0xB0F7, size: 0x8, addend: 0x0, symName: __ZNKSt3__112basic_stringIcNS_11char_traitsIcEENS_9allocatorIcEEE4sizeB8ne180100Ev, symObjAddr: 0x930, symBinAddr: 0x100001A10, symSize: 0x50 }
  - { offset: 0xB11D, size: 0x8, addend: 0x0, symName: __ZNKSt3__113unordered_mapIciNS_4hashIcEENS_8equal_toIcEENS_9allocatorINS_4pairIKciEEEEE5countB8ne180100ERS7_, symObjAddr: 0x980, symBinAddr: 0x100001A60, symSize: 0x30 }
  - { offset: 0xB152, size: 0x8, addend: 0x0, symName: __ZNSt3__112basic_stringIcNS_11char_traitsIcEENS_9allocatorIcEEEixB8ne180100Em, symObjAddr: 0x9B0, symBinAddr: 0x100001A90, symSize: 0x40 }
  - { offset: 0xB187, size: 0x8, addend: 0x0, symName: __ZNSt3__113unordered_mapIciNS_4hashIcEENS_8equal_toIcEENS_9allocatorINS_4pairIKciEEEEEixERS7_, symObjAddr: 0x9F0, symBinAddr: 0x100001AD0, symSize: 0x70 }
  - { offset: 0xB1BE, size: 0x8, addend: 0x0, symName: __ZNSt3__113basic_ostreamIcNS_11char_traitsIcEEElsB8ne180100EPFRS3_S4_E, symObjAddr: 0xAA0, symBinAddr: 0x100001B80, symSize: 0x20 }
  - { offset: 0xB1F2, size: 0x8, addend: 0x0, symName: __ZNKSt3__112basic_stringIcNS_11char_traitsIcEENS_9allocatorIcEEE6substrB8ne180100Emm, symObjAddr: 0xB60, symBinAddr: 0x100001C40, symSize: 0x70 }
  - { offset: 0xB236, size: 0x8, addend: 0x0, symName: __ZNSt3__113unordered_mapIciNS_4hashIcEENS_8equal_toIcEENS_9allocatorINS_4pairIKciEEEEED1B8ne180100Ev, symObjAddr: 0xBD0, symBinAddr: 0x100001CB0, symSize: 0x20 }
  - { offset: 0xB260, size: 0x8, addend: 0x0, symName: __ZNSt3__112basic_stringIcNS_11char_traitsIcEENS_9allocatorIcEEEC2B8ne180100Ev, symObjAddr: 0xBF0, symBinAddr: 0x100001CD0, symSize: 0x50 }
  - { offset: 0xB294, size: 0x8, addend: 0x0, symName: __ZNSt3__117__compressed_pairINS_12basic_stringIcNS_11char_traitsIcEENS_9allocatorIcEEE5__repES5_EC1B8ne180100INS_16__value_init_tagENS_18__default_init_tagEEEOT_OT0_, symObjAddr: 0xC40, symBinAddr: 0x100001D20, symSize: 0x30 }
  - { offset: 0xB2EC, size: 0x8, addend: 0x0, symName: __ZNKSt3__112basic_stringIcNS_11char_traitsIcEENS_9allocatorIcEEE14__annotate_newB8ne180100Em, symObjAddr: 0xC80, symBinAddr: 0x100001D60, symSize: 0x10 }
  - { offset: 0xB321, size: 0x8, addend: 0x0, symName: __ZNSt3__117__compressed_pairINS_12basic_stringIcNS_11char_traitsIcEENS_9allocatorIcEEE5__repES5_EC2B8ne180100INS_16__value_init_tagENS_18__default_init_tagEEEOT_OT0_, symObjAddr: 0xC90, symBinAddr: 0x100001D70, symSize: 0x30 }
  - { offset: 0xB379, size: 0x8, addend: 0x0, symName: __ZNSt3__122__compressed_pair_elemINS_12basic_stringIcNS_11char_traitsIcEENS_9allocatorIcEEE5__repELi0ELb0EEC2B8ne180100ENS_16__value_init_tagE, symObjAddr: 0xCC0, symBinAddr: 0x100001DA0, symSize: 0x30 }
  - { offset: 0xB3AE, size: 0x8, addend: 0x0, symName: __ZNSt3__122__compressed_pair_elemINS_9allocatorIcEELi1ELb1EEC2B8ne180100ENS_18__default_init_tagE, symObjAddr: 0xCF0, symBinAddr: 0x100001DD0, symSize: 0x20 }
  - { offset: 0xB3E3, size: 0x8, addend: 0x0, symName: __ZNSt3__19allocatorIcEC2B8ne180100Ev, symObjAddr: 0xD10, symBinAddr: 0x100001DF0, symSize: 0x20 }
  - { offset: 0xB40D, size: 0x8, addend: 0x0, symName: __ZNSt3__116__non_trivial_ifILb1ENS_9allocatorIcEEEC2B8ne180100Ev, symObjAddr: 0xD30, symBinAddr: 0x100001E10, symSize: 0x10 }
  - { offset: 0xB437, size: 0x8, addend: 0x0, symName: __ZNKSt3__112basic_stringIcNS_11char_traitsIcEENS_9allocatorIcEEE9__is_longB8ne180100Ev, symObjAddr: 0xD40, symBinAddr: 0x100001E20, symSize: 0x30 }
  - { offset: 0xB45D, size: 0x8, addend: 0x0, symName: __ZNKSt3__112basic_stringIcNS_11char_traitsIcEENS_9allocatorIcEEE15__get_long_sizeB8ne180100Ev, symObjAddr: 0xD70, symBinAddr: 0x100001E50, symSize: 0x20 }
  - { offset: 0xB483, size: 0x8, addend: 0x0, symName: __ZNKSt3__112basic_stringIcNS_11char_traitsIcEENS_9allocatorIcEEE16__get_short_sizeB8ne180100Ev, symObjAddr: 0xD90, symBinAddr: 0x100001E70, symSize: 0x30 }
  - { offset: 0xB4A9, size: 0x8, addend: 0x0, symName: __ZNKSt3__117__compressed_pairINS_12basic_stringIcNS_11char_traitsIcEENS_9allocatorIcEEE5__repES5_E5firstB8ne180100Ev, symObjAddr: 0xDC0, symBinAddr: 0x100001EA0, symSize: 0x20 }
  - { offset: 0xB4CF, size: 0x8, addend: 0x0, symName: __ZNKSt3__122__compressed_pair_elemINS_12basic_stringIcNS_11char_traitsIcEENS_9allocatorIcEEE5__repELi0ELb0EE5__getB8ne180100Ev, symObjAddr: 0xDE0, symBinAddr: 0x100001EC0, symSize: 0x10 }
  - { offset: 0xB4F5, size: 0x8, addend: 0x0, symName: __ZNSt3__112basic_stringIcNS_11char_traitsIcEENS_9allocatorIcEEE13__fits_in_ssoB8ne180100Em, symObjAddr: 0xDF0, symBinAddr: 0x100001ED0, symSize: 0x20 }
  - { offset: 0xB519, size: 0x8, addend: 0x0, symName: __ZNSt3__112basic_stringIcNS_11char_traitsIcEENS_9allocatorIcEEE18__get_long_pointerB8ne180100Ev, symObjAddr: 0xE10, symBinAddr: 0x100001EF0, symSize: 0x20 }
  - { offset: 0xB53F, size: 0x8, addend: 0x0, symName: __ZNSt3__112basic_stringIcNS_11char_traitsIcEENS_9allocatorIcEEE13__get_pointerB8ne180100Ev, symObjAddr: 0xE30, symBinAddr: 0x100001F10, symSize: 0x50 }
  - { offset: 0xB565, size: 0x8, addend: 0x0, symName: __ZNSt3__117__compressed_pairINS_12basic_stringIcNS_11char_traitsIcEENS_9allocatorIcEEE5__repES5_E5firstB8ne180100Ev, symObjAddr: 0xE80, symBinAddr: 0x100001F60, symSize: 0x20 }
  - { offset: 0xB58B, size: 0x8, addend: 0x0, symName: __ZNSt3__122__compressed_pair_elemINS_12basic_stringIcNS_11char_traitsIcEENS_9allocatorIcEEE5__repELi0ELb0EE5__getB8ne180100Ev, symObjAddr: 0xEA0, symBinAddr: 0x100001F80, symSize: 0x10 }
  - { offset: 0xB5B1, size: 0x8, addend: 0x0, symName: __ZNSt3__112basic_stringIcNS_11char_traitsIcEENS_9allocatorIcEEE19__get_short_pointerB8ne180100Ev, symObjAddr: 0xEB0, symBinAddr: 0x100001F90, symSize: 0x30 }
  - { offset: 0xB5D7, size: 0x8, addend: 0x0, symName: __ZNSt3__114pointer_traitsIPcE10pointer_toB8ne180100ERc, symObjAddr: 0xEE0, symBinAddr: 0x100001FC0, symSize: 0x10 }
  - { offset: 0xB5FA, size: 0x8, addend: 0x0, symName: __ZNSt3__19allocatorIcEC1B8ne180100Ev, symObjAddr: 0xEF0, symBinAddr: 0x100001FD0, symSize: 0x20 }
  - { offset: 0xB6C3, size: 0x8, addend: 0x0, symName: __ZNKSt3__113basic_istreamIcNS_11char_traitsIcEEE6sentrycvbB8ne180100Ev, symObjAddr: 0xF10, symBinAddr: 0x100001FF0, symSize: 0x20 }
  - { offset: 0xB6E9, size: 0x8, addend: 0x0, symName: __ZNSt3__112basic_stringIcNS_11char_traitsIcEENS_9allocatorIcEEE5clearB8ne180100Ev, symObjAddr: 0xF30, symBinAddr: 0x100002010, symSize: 0xA0 }
  - { offset: 0xB720, size: 0x8, addend: 0x0, symName: __ZNKSt3__18ios_base5widthB8ne180100Ev, symObjAddr: 0xFD0, symBinAddr: 0x1000020B0, symSize: 0x20 }
  - { offset: 0xB748, size: 0x8, addend: 0x0, symName: __ZNKSt3__112basic_stringIcNS_11char_traitsIcEENS_9allocatorIcEEE8max_sizeB8ne180100Ev, symObjAddr: 0xFF0, symBinAddr: 0x1000020D0, symSize: 0xA0 }
  - { offset: 0xB79A, size: 0x8, addend: 0x0, symName: __ZNSt3__114numeric_limitsIlE3maxB8ne180100Ev, symObjAddr: 0x1090, symBinAddr: 0x100002170, symSize: 0x10 }
  - { offset: 0xB7AE, size: 0x8, addend: 0x0, symName: __ZNKSt3__19basic_iosIcNS_11char_traitsIcEEE5rdbufB8ne180100Ev, symObjAddr: 0x10D0, symBinAddr: 0x1000021B0, symSize: 0x20 }
  - { offset: 0xB7D6, size: 0x8, addend: 0x0, symName: __ZNSt3__115basic_streambufIcNS_11char_traitsIcEEE5sgetcB8ne180100Ev, symObjAddr: 0x10F0, symBinAddr: 0x1000021D0, symSize: 0x50 }
  - { offset: 0xB7FC, size: 0x8, addend: 0x0, symName: __ZNSt3__111char_traitsIcE11eq_int_typeB8ne180100Eii, symObjAddr: 0x1140, symBinAddr: 0x100002220, symSize: 0x20 }
  - { offset: 0xB82F, size: 0x8, addend: 0x0, symName: __ZNSt3__111char_traitsIcE3eofB8ne180100Ev, symObjAddr: 0x1160, symBinAddr: 0x100002240, symSize: 0x10 }
  - { offset: 0xB843, size: 0x8, addend: 0x0, symName: __ZNSt3__111char_traitsIcE12to_char_typeB8ne180100Ei, symObjAddr: 0x1170, symBinAddr: 0x100002250, symSize: 0x10 }
  - { offset: 0xB894, size: 0x8, addend: 0x0, symName: __ZNKSt3__15ctypeIcE2isB8ne180100Ejc, symObjAddr: 0x1180, symBinAddr: 0x100002260, symSize: 0x70 }
  - { offset: 0xB8D8, size: 0x8, addend: 0x0, symName: __ZNSt3__115basic_streambufIcNS_11char_traitsIcEEE6sbumpcB8ne180100Ev, symObjAddr: 0x11F0, symBinAddr: 0x1000022D0, symSize: 0x60 }
  - { offset: 0xB8FE, size: 0x8, addend: 0x0, symName: __ZNSt3__18ios_base5widthB8ne180100El, symObjAddr: 0x1250, symBinAddr: 0x100002330, symSize: 0x30 }
  - { offset: 0xB944, size: 0x8, addend: 0x0, symName: __ZNSt3__18ios_base18__setstate_nothrowB8ne180100Ej, symObjAddr: 0x1280, symBinAddr: 0x100002360, symSize: 0x50 }
  - { offset: 0xB979, size: 0x8, addend: 0x0, symName: __ZNKSt3__19basic_iosIcNS_11char_traitsIcEEE10exceptionsB8ne180100Ev, symObjAddr: 0x12D0, symBinAddr: 0x1000023B0, symSize: 0x20 }
  - { offset: 0xB99F, size: 0x8, addend: 0x0, symName: __ZNSt3__19basic_iosIcNS_11char_traitsIcEEE8setstateB8ne180100Ej, symObjAddr: 0x12F0, symBinAddr: 0x1000023D0, symSize: 0x30 }
  - { offset: 0xB9D4, size: 0x8, addend: 0x0, symName: __ZNSt3__111char_traitsIcE6assignB8ne180100ERcRKc, symObjAddr: 0x1320, symBinAddr: 0x100002400, symSize: 0x20 }
  - { offset: 0xBA05, size: 0x8, addend: 0x0, symName: __ZNSt3__112basic_stringIcNS_11char_traitsIcEENS_9allocatorIcEEE15__set_long_sizeB8ne180100Em, symObjAddr: 0x1340, symBinAddr: 0x100002420, symSize: 0x30 }
  - { offset: 0xBA3A, size: 0x8, addend: 0x0, symName: __ZNSt3__112basic_stringIcNS_11char_traitsIcEENS_9allocatorIcEEE16__set_short_sizeB8ne180100Em, symObjAddr: 0x1370, symBinAddr: 0x100002450, symSize: 0x50 }
  - { offset: 0xBA6F, size: 0x8, addend: 0x0, symName: __ZNKSt3__112basic_stringIcNS_11char_traitsIcEENS_9allocatorIcEEE17__annotate_shrinkB8ne180100Em, symObjAddr: 0x13C0, symBinAddr: 0x1000024A0, symSize: 0x10 }
  - { offset: 0xBAAE, size: 0x8, addend: 0x0, symName: __ZNSt3__116allocator_traitsINS_9allocatorIcEEE8max_sizeB8ne180100IS2_vvEEmRKS2_, symObjAddr: 0x13D0, symBinAddr: 0x1000024B0, symSize: 0x20 }
  - { offset: 0xBADA, size: 0x8, addend: 0x0, symName: __ZNKSt3__112basic_stringIcNS_11char_traitsIcEENS_9allocatorIcEEE7__allocB8ne180100Ev, symObjAddr: 0x13F0, symBinAddr: 0x1000024D0, symSize: 0x20 }
  - { offset: 0xBB00, size: 0x8, addend: 0x0, symName: __ZNSt3__114numeric_limitsImE3maxB8ne180100Ev, symObjAddr: 0x1410, symBinAddr: 0x1000024F0, symSize: 0x10 }
  - { offset: 0xBB14, size: 0x8, addend: 0x0, symName: __ZNKSt3__117__compressed_pairINS_12basic_stringIcNS_11char_traitsIcEENS_9allocatorIcEEE5__repES5_E6secondB8ne180100Ev, symObjAddr: 0x1420, symBinAddr: 0x100002500, symSize: 0x20 }
  - { offset: 0xBB3A, size: 0x8, addend: 0x0, symName: __ZNKSt3__122__compressed_pair_elemINS_9allocatorIcEELi1ELb1EE5__getB8ne180100Ev, symObjAddr: 0x1440, symBinAddr: 0x100002520, symSize: 0x10 }
  - { offset: 0xBB60, size: 0x8, addend: 0x0, symName: __ZNSt3__123__libcpp_numeric_limitsImLb1EE3maxB8ne180100Ev, symObjAddr: 0x1450, symBinAddr: 0x100002530, symSize: 0x10 }
  - { offset: 0xBB74, size: 0x8, addend: 0x0, symName: __ZNSt3__123__libcpp_numeric_limitsIlLb1EE3maxB8ne180100Ev, symObjAddr: 0x1460, symBinAddr: 0x100002540, symSize: 0x10 }
  - { offset: 0xBB88, size: 0x8, addend: 0x0, symName: __ZNKSt3__18ios_base5rdbufB8ne180100Ev, symObjAddr: 0x1470, symBinAddr: 0x100002550, symSize: 0x20 }
  - { offset: 0xBBAE, size: 0x8, addend: 0x0, symName: __ZNSt3__111char_traitsIcE11to_int_typeB8ne180100Ec, symObjAddr: 0x1490, symBinAddr: 0x100002570, symSize: 0x10 }
  - { offset: 0xBBD1, size: 0x8, addend: 0x0, symName: __Z7isasciii, symObjAddr: 0x14A0, symBinAddr: 0x100002580, symSize: 0x20 }
  - { offset: 0xBBFE, size: 0x8, addend: 0x0, symName: __ZNKSt3__18ios_base10exceptionsB8ne180100Ev, symObjAddr: 0x14C0, symBinAddr: 0x1000025A0, symSize: 0x20 }
  - { offset: 0xBC26, size: 0x8, addend: 0x0, symName: __ZNSt3__18ios_base8setstateB8ne180100Ej, symObjAddr: 0x14E0, symBinAddr: 0x1000025C0, symSize: 0x30 }
  - { offset: 0xBC5D, size: 0x8, addend: 0x0, symName: __ZNSt3__113unordered_mapIciNS_4hashIcEENS_8equal_toIcEENS_9allocatorINS_4pairIKciEEEEEC2B8ne180100Ev, symObjAddr: 0x1510, symBinAddr: 0x1000025F0, symSize: 0x20 }
  - { offset: 0xBC87, size: 0x8, addend: 0x0, symName: __ZNSt3__112__hash_tableINS_17__hash_value_typeIciEENS_22__unordered_map_hasherIcS2_NS_4hashIcEENS_8equal_toIcEELb1EEENS_21__unordered_map_equalIcS2_S7_S5_Lb1EEENS_9allocatorIS2_EEEC1Ev, symObjAddr: 0x1530, symBinAddr: 0x100002610, symSize: 0x20 }
  - { offset: 0xBCB3, size: 0x8, addend: 0x0, symName: __ZNSt3__112__hash_tableINS_17__hash_value_typeIciEENS_22__unordered_map_hasherIcS2_NS_4hashIcEENS_8equal_toIcEELb1EEENS_21__unordered_map_equalIcS2_S7_S5_Lb1EEENS_9allocatorIS2_EEEC2Ev, symObjAddr: 0x1550, symBinAddr: 0x100002630, symSize: 0x80 }
  - { offset: 0xBCDF, size: 0x8, addend: 0x0, symName: __ZNSt3__110unique_ptrIA_PNS_16__hash_node_baseIPNS_11__hash_nodeINS_17__hash_value_typeIciEEPvEEEENS_25__bucket_list_deallocatorINS_9allocatorIS9_EEEEEC1B8ne180100ILb1EvEEv, symObjAddr: 0x15D0, symBinAddr: 0x1000026B0, symSize: 0x20 }
  - { offset: 0xBD14, size: 0x8, addend: 0x0, symName: __ZNSt3__117__compressed_pairINS_16__hash_node_baseIPNS_11__hash_nodeINS_17__hash_value_typeIciEEPvEEEENS_9allocatorIS6_EEEC1B8ne180100ILb1EvEEv, symObjAddr: 0x15F0, symBinAddr: 0x1000026D0, symSize: 0x20 }
  - { offset: 0xBD4E, size: 0x8, addend: 0x0, symName: __ZNSt3__117__compressed_pairImNS_22__unordered_map_hasherIcNS_17__hash_value_typeIciEENS_4hashIcEENS_8equal_toIcEELb1EEEEC1B8ne180100IiNS_18__default_init_tagEEEOT_OT0_, symObjAddr: 0x1610, symBinAddr: 0x1000026F0, symSize: 0x30 }
  - { offset: 0xBDAB, size: 0x8, addend: 0x0, symName: __ZNSt3__117__compressed_pairIfNS_21__unordered_map_equalIcNS_17__hash_value_typeIciEENS_8equal_toIcEENS_4hashIcEELb1EEEEC1B8ne180100IfNS_18__default_init_tagEEEOT_OT0_, symObjAddr: 0x1640, symBinAddr: 0x100002720, symSize: 0x30 }
  - { offset: 0xBE03, size: 0x8, addend: 0x0, symName: __ZNSt3__110unique_ptrIA_PNS_16__hash_node_baseIPNS_11__hash_nodeINS_17__hash_value_typeIciEEPvEEEENS_25__bucket_list_deallocatorINS_9allocatorIS9_EEEEEC2B8ne180100ILb1EvEEv, symObjAddr: 0x1670, symBinAddr: 0x100002750, symSize: 0x30 }
  - { offset: 0xBE38, size: 0x8, addend: 0x0, symName: __ZNSt3__117__compressed_pairIPPNS_16__hash_node_baseIPNS_11__hash_nodeINS_17__hash_value_typeIciEEPvEEEENS_25__bucket_list_deallocatorINS_9allocatorIS9_EEEEEC1B8ne180100INS_16__value_init_tagESH_EEOT_OT0_, symObjAddr: 0x16A0, symBinAddr: 0x100002780, symSize: 0x30 }
  - { offset: 0xBE90, size: 0x8, addend: 0x0, symName: __ZNSt3__117__compressed_pairIPPNS_16__hash_node_baseIPNS_11__hash_nodeINS_17__hash_value_typeIciEEPvEEEENS_25__bucket_list_deallocatorINS_9allocatorIS9_EEEEEC2B8ne180100INS_16__value_init_tagESH_EEOT_OT0_, symObjAddr: 0x16D0, symBinAddr: 0x1000027B0, symSize: 0x40 }
  - { offset: 0xBEE8, size: 0x8, addend: 0x0, symName: __ZNSt3__122__compressed_pair_elemIPPNS_16__hash_node_baseIPNS_11__hash_nodeINS_17__hash_value_typeIciEEPvEEEELi0ELb0EEC2B8ne180100ENS_16__value_init_tagE, symObjAddr: 0x1710, symBinAddr: 0x1000027F0, symSize: 0x20 }
  - { offset: 0xBF1D, size: 0x8, addend: 0x0, symName: __ZNSt3__122__compressed_pair_elemINS_25__bucket_list_deallocatorINS_9allocatorIPNS_16__hash_node_baseIPNS_11__hash_nodeINS_17__hash_value_typeIciEEPvEEEEEEEELi1ELb0EEC2B8ne180100ENS_16__value_init_tagE, symObjAddr: 0x1730, symBinAddr: 0x100002810, symSize: 0x20 }
  - { offset: 0xBF52, size: 0x8, addend: 0x0, symName: __ZNSt3__125__bucket_list_deallocatorINS_9allocatorIPNS_16__hash_node_baseIPNS_11__hash_nodeINS_17__hash_value_typeIciEEPvEEEEEEEC1B8ne180100Ev, symObjAddr: 0x1750, symBinAddr: 0x100002830, symSize: 0x20 }
  - { offset: 0xBF7C, size: 0x8, addend: 0x0, symName: __ZNSt3__125__bucket_list_deallocatorINS_9allocatorIPNS_16__hash_node_baseIPNS_11__hash_nodeINS_17__hash_value_typeIciEEPvEEEEEEEC2B8ne180100Ev, symObjAddr: 0x1770, symBinAddr: 0x100002850, symSize: 0x40 }
  - { offset: 0xBFA6, size: 0x8, addend: 0x0, symName: __ZNSt3__117__compressed_pairImNS_9allocatorIPNS_16__hash_node_baseIPNS_11__hash_nodeINS_17__hash_value_typeIciEEPvEEEEEEEC1B8ne180100IiNS_18__default_init_tagEEEOT_OT0_, symObjAddr: 0x17B0, symBinAddr: 0x100002890, symSize: 0x30 }
  - { offset: 0xBFFE, size: 0x8, addend: 0x0, symName: __ZNSt3__117__compressed_pairImNS_9allocatorIPNS_16__hash_node_baseIPNS_11__hash_nodeINS_17__hash_value_typeIciEEPvEEEEEEEC2B8ne180100IiNS_18__default_init_tagEEEOT_OT0_, symObjAddr: 0x17E0, symBinAddr: 0x1000028C0, symSize: 0x40 }
  - { offset: 0xC056, size: 0x8, addend: 0x0, symName: __ZNSt3__122__compressed_pair_elemImLi0ELb0EEC2B8ne180100IivEEOT_, symObjAddr: 0x1820, symBinAddr: 0x100002900, symSize: 0x20 }
  - { offset: 0xC098, size: 0x8, addend: 0x0, symName: __ZNSt3__122__compressed_pair_elemINS_9allocatorIPNS_16__hash_node_baseIPNS_11__hash_nodeINS_17__hash_value_typeIciEEPvEEEEEELi1ELb1EEC2B8ne180100ENS_18__default_init_tagE, symObjAddr: 0x1840, symBinAddr: 0x100002920, symSize: 0x20 }
  - { offset: 0xC0CD, size: 0x8, addend: 0x0, symName: __ZNSt3__19allocatorIPNS_16__hash_node_baseIPNS_11__hash_nodeINS_17__hash_value_typeIciEEPvEEEEEC2B8ne180100Ev, symObjAddr: 0x1860, symBinAddr: 0x100002940, symSize: 0x20 }
  - { offset: 0xC0F7, size: 0x8, addend: 0x0, symName: __ZNSt3__116__non_trivial_ifILb1ENS_9allocatorIPNS_16__hash_node_baseIPNS_11__hash_nodeINS_17__hash_value_typeIciEEPvEEEEEEEC2B8ne180100Ev, symObjAddr: 0x1880, symBinAddr: 0x100002960, symSize: 0x10 }
  - { offset: 0xC121, size: 0x8, addend: 0x0, symName: __ZNSt3__117__compressed_pairINS_16__hash_node_baseIPNS_11__hash_nodeINS_17__hash_value_typeIciEEPvEEEENS_9allocatorIS6_EEEC2B8ne180100ILb1EvEEv, symObjAddr: 0x1890, symBinAddr: 0x100002970, symSize: 0x30 }
  - { offset: 0xC156, size: 0x8, addend: 0x0, symName: __ZNSt3__122__compressed_pair_elemINS_16__hash_node_baseIPNS_11__hash_nodeINS_17__hash_value_typeIciEEPvEEEELi0ELb0EEC2B8ne180100ENS_16__value_init_tagE, symObjAddr: 0x18C0, symBinAddr: 0x1000029A0, symSize: 0x20 }
  - { offset: 0xC18B, size: 0x8, addend: 0x0, symName: __ZNSt3__122__compressed_pair_elemINS_9allocatorINS_11__hash_nodeINS_17__hash_value_typeIciEEPvEEEELi1ELb1EEC2B8ne180100ENS_16__value_init_tagE, symObjAddr: 0x18E0, symBinAddr: 0x1000029C0, symSize: 0x20 }
  - { offset: 0xC1C0, size: 0x8, addend: 0x0, symName: __ZNSt3__116__hash_node_baseIPNS_11__hash_nodeINS_17__hash_value_typeIciEEPvEEEC1B8ne180100Ev, symObjAddr: 0x1900, symBinAddr: 0x1000029E0, symSize: 0x20 }
  - { offset: 0xC1EA, size: 0x8, addend: 0x0, symName: __ZNSt3__116__hash_node_baseIPNS_11__hash_nodeINS_17__hash_value_typeIciEEPvEEEC2B8ne180100Ev, symObjAddr: 0x1920, symBinAddr: 0x100002A00, symSize: 0x20 }
  - { offset: 0xC214, size: 0x8, addend: 0x0, symName: __ZNSt3__19allocatorINS_11__hash_nodeINS_17__hash_value_typeIciEEPvEEEC2B8ne180100Ev, symObjAddr: 0x1940, symBinAddr: 0x100002A20, symSize: 0x20 }
  - { offset: 0xC23E, size: 0x8, addend: 0x0, symName: __ZNSt3__116__non_trivial_ifILb1ENS_9allocatorINS_11__hash_nodeINS_17__hash_value_typeIciEEPvEEEEEC2B8ne180100Ev, symObjAddr: 0x1960, symBinAddr: 0x100002A40, symSize: 0x10 }
  - { offset: 0xC268, size: 0x8, addend: 0x0, symName: __ZNSt3__117__compressed_pairImNS_22__unordered_map_hasherIcNS_17__hash_value_typeIciEENS_4hashIcEENS_8equal_toIcEELb1EEEEC2B8ne180100IiNS_18__default_init_tagEEEOT_OT0_, symObjAddr: 0x1970, symBinAddr: 0x100002A50, symSize: 0x40 }
  - { offset: 0xC2C0, size: 0x8, addend: 0x0, symName: __ZNSt3__122__compressed_pair_elemINS_22__unordered_map_hasherIcNS_17__hash_value_typeIciEENS_4hashIcEENS_8equal_toIcEELb1EEELi1ELb1EEC2B8ne180100ENS_18__default_init_tagE, symObjAddr: 0x19B0, symBinAddr: 0x100002A90, symSize: 0x20 }
  - { offset: 0xC2F5, size: 0x8, addend: 0x0, symName: __ZNSt3__122__unordered_map_hasherIcNS_17__hash_value_typeIciEENS_4hashIcEENS_8equal_toIcEELb1EEC2B8ne180100Ev, symObjAddr: 0x19D0, symBinAddr: 0x100002AB0, symSize: 0x10 }
  - { offset: 0xC31F, size: 0x8, addend: 0x0, symName: __ZNSt3__117__compressed_pairIfNS_21__unordered_map_equalIcNS_17__hash_value_typeIciEENS_8equal_toIcEENS_4hashIcEELb1EEEEC2B8ne180100IfNS_18__default_init_tagEEEOT_OT0_, symObjAddr: 0x19E0, symBinAddr: 0x100002AC0, symSize: 0x40 }
  - { offset: 0xC377, size: 0x8, addend: 0x0, symName: __ZNSt3__122__compressed_pair_elemIfLi0ELb0EEC2B8ne180100IfvEEOT_, symObjAddr: 0x1A20, symBinAddr: 0x100002B00, symSize: 0x20 }
  - { offset: 0xC3B9, size: 0x8, addend: 0x0, symName: __ZNSt3__122__compressed_pair_elemINS_21__unordered_map_equalIcNS_17__hash_value_typeIciEENS_8equal_toIcEENS_4hashIcEELb1EEELi1ELb1EEC2B8ne180100ENS_18__default_init_tagE, symObjAddr: 0x1A40, symBinAddr: 0x100002B20, symSize: 0x20 }
  - { offset: 0xC3EE, size: 0x8, addend: 0x0, symName: __ZNSt3__121__unordered_map_equalIcNS_17__hash_value_typeIciEENS_8equal_toIcEENS_4hashIcEELb1EEC2B8ne180100Ev, symObjAddr: 0x1A60, symBinAddr: 0x100002B40, symSize: 0x10 }
  - { offset: 0xC418, size: 0x8, addend: 0x0, symName: __ZNSt3__113unordered_mapIciNS_4hashIcEENS_8equal_toIcEENS_9allocatorINS_4pairIKciEEEEED2B8ne180100Ev, symObjAddr: 0x1A70, symBinAddr: 0x100002B50, symSize: 0x20 }
  - { offset: 0xC442, size: 0x8, addend: 0x0, symName: __ZNSt3__112__hash_tableINS_17__hash_value_typeIciEENS_22__unordered_map_hasherIcS2_NS_4hashIcEENS_8equal_toIcEELb1EEENS_21__unordered_map_equalIcS2_S7_S5_Lb1EEENS_9allocatorIS2_EEED1Ev, symObjAddr: 0x1A90, symBinAddr: 0x100002B70, symSize: 0x20 }
  - { offset: 0xC46E, size: 0x8, addend: 0x0, symName: __ZNSt3__112__hash_tableINS_17__hash_value_typeIciEENS_22__unordered_map_hasherIcS2_NS_4hashIcEENS_8equal_toIcEELb1EEENS_21__unordered_map_equalIcS2_S7_S5_Lb1EEENS_9allocatorIS2_EEED2Ev, symObjAddr: 0x1AB0, symBinAddr: 0x100002B90, symSize: 0x40 }
  - { offset: 0xC49A, size: 0x8, addend: 0x0, symName: __ZNSt3__112__hash_tableINS_17__hash_value_typeIciEENS_22__unordered_map_hasherIcS2_NS_4hashIcEENS_8equal_toIcEELb1EEENS_21__unordered_map_equalIcS2_S7_S5_Lb1EEENS_9allocatorIS2_EEE17__deallocate_nodeEPNS_16__hash_node_baseIPNS_11__hash_nodeIS2_PvEEEE, symObjAddr: 0x1AF0, symBinAddr: 0x100002BD0, symSize: 0xC0 }
  - { offset: 0xC504, size: 0x8, addend: 0x0, symName: __ZNSt3__117__compressed_pairINS_16__hash_node_baseIPNS_11__hash_nodeINS_17__hash_value_typeIciEEPvEEEENS_9allocatorIS6_EEE5firstB8ne180100Ev, symObjAddr: 0x1BB0, symBinAddr: 0x100002C90, symSize: 0x20 }
  - { offset: 0xC52A, size: 0x8, addend: 0x0, symName: __ZNSt3__110unique_ptrIA_PNS_16__hash_node_baseIPNS_11__hash_nodeINS_17__hash_value_typeIciEEPvEEEENS_25__bucket_list_deallocatorINS_9allocatorIS9_EEEEED1B8ne180100Ev, symObjAddr: 0x1BD0, symBinAddr: 0x100002CB0, symSize: 0x20 }
  - { offset: 0xC554, size: 0x8, addend: 0x0, symName: __ZNSt3__112__hash_tableINS_17__hash_value_typeIciEENS_22__unordered_map_hasherIcS2_NS_4hashIcEENS_8equal_toIcEELb1EEENS_21__unordered_map_equalIcS2_S7_S5_Lb1EEENS_9allocatorIS2_EEE12__node_allocB8ne180100Ev, symObjAddr: 0x1BF0, symBinAddr: 0x100002CD0, symSize: 0x20 }
  - { offset: 0xC57A, size: 0x8, addend: 0x0, symName: __ZNSt3__116__hash_node_baseIPNS_11__hash_nodeINS_17__hash_value_typeIciEEPvEEE8__upcastB8ne180100Ev, symObjAddr: 0x1C10, symBinAddr: 0x100002CF0, symSize: 0x20 }
  - { offset: 0xC5A0, size: 0x8, addend: 0x0, symName: __ZNSt3__116allocator_traitsINS_9allocatorINS_11__hash_nodeINS_17__hash_value_typeIciEEPvEEEEE7destroyB8ne180100INS_4pairIKciEEvvEEvRS7_PT_, symObjAddr: 0x1C30, symBinAddr: 0x100002D10, symSize: 0x20 }
  - { offset: 0xC5DB, size: 0x8, addend: 0x0, symName: __ZNSt3__122__hash_key_value_typesINS_17__hash_value_typeIciEEE9__get_ptrB8ne180100ERS2_, symObjAddr: 0x1C50, symBinAddr: 0x100002D30, symSize: 0x20 }
  - { offset: 0xC5FE, size: 0x8, addend: 0x0, symName: __ZNSt3__111__hash_nodeINS_17__hash_value_typeIciEEPvE11__get_valueB8ne180100Ev, symObjAddr: 0x1C70, symBinAddr: 0x100002D50, symSize: 0x20 }
  - { offset: 0xC624, size: 0x8, addend: 0x0, symName: __ZNSt3__116allocator_traitsINS_9allocatorINS_11__hash_nodeINS_17__hash_value_typeIciEEPvEEEEE10deallocateB8ne180100ERS7_PS6_m, symObjAddr: 0x1CB0, symBinAddr: 0x100002D90, symSize: 0x30 }
  - { offset: 0xC666, size: 0x8, addend: 0x0, symName: __ZNSt3__117__compressed_pairINS_16__hash_node_baseIPNS_11__hash_nodeINS_17__hash_value_typeIciEEPvEEEENS_9allocatorIS6_EEE6secondB8ne180100Ev, symObjAddr: 0x1CE0, symBinAddr: 0x100002DC0, symSize: 0x20 }
  - { offset: 0xC68C, size: 0x8, addend: 0x0, symName: __ZNSt3__122__compressed_pair_elemINS_9allocatorINS_11__hash_nodeINS_17__hash_value_typeIciEEPvEEEELi1ELb1EE5__getB8ne180100Ev, symObjAddr: 0x1D00, symBinAddr: 0x100002DE0, symSize: 0x10 }
  - { offset: 0xC6B2, size: 0x8, addend: 0x0, symName: __ZNSt3__114pointer_traitsIPNS_16__hash_node_baseIPNS_11__hash_nodeINS_17__hash_value_typeIciEEPvEEEEE10pointer_toB8ne180100ERS8_, symObjAddr: 0x1D10, symBinAddr: 0x100002DF0, symSize: 0x10 }
  - { offset: 0xC6D5, size: 0x8, addend: 0x0, symName: __ZNSt3__117__hash_value_typeIciE11__get_valueB8ne180100Ev, symObjAddr: 0x1D30, symBinAddr: 0x100002E10, symSize: 0x20 }
  - { offset: 0xC6FB, size: 0x8, addend: 0x0, symName: __ZNSt3__111__hash_nodeINS_17__hash_value_typeIciEEPvED1B8ne180100Ev, symObjAddr: 0x1D80, symBinAddr: 0x100002E60, symSize: 0x20 }
  - { offset: 0xC725, size: 0x8, addend: 0x0, symName: __ZNSt3__111__hash_nodeINS_17__hash_value_typeIciEEPvED2B8ne180100Ev, symObjAddr: 0x1DA0, symBinAddr: 0x100002E80, symSize: 0x10 }
  - { offset: 0xC74F, size: 0x8, addend: 0x0, symName: __ZNSt3__19allocatorINS_11__hash_nodeINS_17__hash_value_typeIciEEPvEEE10deallocateB8ne180100EPS5_m, symObjAddr: 0x1DB0, symBinAddr: 0x100002E90, symSize: 0x50 }
  - { offset: 0xC791, size: 0x8, addend: 0x0, symName: __ZNSt3__122__compressed_pair_elemINS_16__hash_node_baseIPNS_11__hash_nodeINS_17__hash_value_typeIciEEPvEEEELi0ELb0EE5__getB8ne180100Ev, symObjAddr: 0x1F20, symBinAddr: 0x100003000, symSize: 0x10 }
  - { offset: 0xC7B7, size: 0x8, addend: 0x0, symName: __ZNSt3__110unique_ptrIA_PNS_16__hash_node_baseIPNS_11__hash_nodeINS_17__hash_value_typeIciEEPvEEEENS_25__bucket_list_deallocatorINS_9allocatorIS9_EEEEED2B8ne180100Ev, symObjAddr: 0x1F30, symBinAddr: 0x100003010, symSize: 0x20 }
  - { offset: 0xC7E1, size: 0x8, addend: 0x0, symName: __ZNSt3__110unique_ptrIA_PNS_16__hash_node_baseIPNS_11__hash_nodeINS_17__hash_value_typeIciEEPvEEEENS_25__bucket_list_deallocatorINS_9allocatorIS9_EEEEE5resetB8ne180100EDn, symObjAddr: 0x1F50, symBinAddr: 0x100003030, symSize: 0x60 }
  - { offset: 0xC822, size: 0x8, addend: 0x0, symName: __ZNSt3__117__compressed_pairIPPNS_16__hash_node_baseIPNS_11__hash_nodeINS_17__hash_value_typeIciEEPvEEEENS_25__bucket_list_deallocatorINS_9allocatorIS9_EEEEE5firstB8ne180100Ev, symObjAddr: 0x1FB0, symBinAddr: 0x100003090, symSize: 0x20 }
  - { offset: 0xC848, size: 0x8, addend: 0x0, symName: __ZNSt3__117__compressed_pairIPPNS_16__hash_node_baseIPNS_11__hash_nodeINS_17__hash_value_typeIciEEPvEEEENS_25__bucket_list_deallocatorINS_9allocatorIS9_EEEEE6secondB8ne180100Ev, symObjAddr: 0x1FD0, symBinAddr: 0x1000030B0, symSize: 0x20 }
  - { offset: 0xC86E, size: 0x8, addend: 0x0, symName: __ZNSt3__125__bucket_list_deallocatorINS_9allocatorIPNS_16__hash_node_baseIPNS_11__hash_nodeINS_17__hash_value_typeIciEEPvEEEEEEEclB8ne180100EPSA_, symObjAddr: 0x1FF0, symBinAddr: 0x1000030D0, symSize: 0x50 }
  - { offset: 0xC8A3, size: 0x8, addend: 0x0, symName: __ZNSt3__122__compressed_pair_elemIPPNS_16__hash_node_baseIPNS_11__hash_nodeINS_17__hash_value_typeIciEEPvEEEELi0ELb0EE5__getB8ne180100Ev, symObjAddr: 0x2040, symBinAddr: 0x100003120, symSize: 0x10 }
  - { offset: 0xC8C9, size: 0x8, addend: 0x0, symName: __ZNSt3__122__compressed_pair_elemINS_25__bucket_list_deallocatorINS_9allocatorIPNS_16__hash_node_baseIPNS_11__hash_nodeINS_17__hash_value_typeIciEEPvEEEEEEEELi1ELb0EE5__getB8ne180100Ev, symObjAddr: 0x2050, symBinAddr: 0x100003130, symSize: 0x10 }
  - { offset: 0xC8EF, size: 0x8, addend: 0x0, symName: __ZNSt3__116allocator_traitsINS_9allocatorIPNS_16__hash_node_baseIPNS_11__hash_nodeINS_17__hash_value_typeIciEEPvEEEEEEE10deallocateB8ne180100ERSB_PSA_m, symObjAddr: 0x2060, symBinAddr: 0x100003140, symSize: 0x30 }
  - { offset: 0xC931, size: 0x8, addend: 0x0, symName: __ZNSt3__125__bucket_list_deallocatorINS_9allocatorIPNS_16__hash_node_baseIPNS_11__hash_nodeINS_17__hash_value_typeIciEEPvEEEEEEE7__allocB8ne180100Ev, symObjAddr: 0x2090, symBinAddr: 0x100003170, symSize: 0x20 }
  - { offset: 0xC957, size: 0x8, addend: 0x0, symName: __ZNSt3__125__bucket_list_deallocatorINS_9allocatorIPNS_16__hash_node_baseIPNS_11__hash_nodeINS_17__hash_value_typeIciEEPvEEEEEEE4sizeB8ne180100Ev, symObjAddr: 0x20B0, symBinAddr: 0x100003190, symSize: 0x20 }
  - { offset: 0xC97D, size: 0x8, addend: 0x0, symName: __ZNSt3__19allocatorIPNS_16__hash_node_baseIPNS_11__hash_nodeINS_17__hash_value_typeIciEEPvEEEEE10deallocateB8ne180100EPS9_m, symObjAddr: 0x20D0, symBinAddr: 0x1000031B0, symSize: 0x40 }
  - { offset: 0xC9BF, size: 0x8, addend: 0x0, symName: __ZNSt3__117__compressed_pairImNS_9allocatorIPNS_16__hash_node_baseIPNS_11__hash_nodeINS_17__hash_value_typeIciEEPvEEEEEEE6secondB8ne180100Ev, symObjAddr: 0x2110, symBinAddr: 0x1000031F0, symSize: 0x20 }
  - { offset: 0xC9E5, size: 0x8, addend: 0x0, symName: __ZNSt3__122__compressed_pair_elemINS_9allocatorIPNS_16__hash_node_baseIPNS_11__hash_nodeINS_17__hash_value_typeIciEEPvEEEEEELi1ELb1EE5__getB8ne180100Ev, symObjAddr: 0x2130, symBinAddr: 0x100003210, symSize: 0x10 }
  - { offset: 0xCA0B, size: 0x8, addend: 0x0, symName: __ZNSt3__117__compressed_pairImNS_9allocatorIPNS_16__hash_node_baseIPNS_11__hash_nodeINS_17__hash_value_typeIciEEPvEEEEEEE5firstB8ne180100Ev, symObjAddr: 0x2140, symBinAddr: 0x100003220, symSize: 0x20 }
  - { offset: 0xCA31, size: 0x8, addend: 0x0, symName: __ZNSt3__122__compressed_pair_elemImLi0ELb0EE5__getB8ne180100Ev, symObjAddr: 0x2160, symBinAddr: 0x100003240, symSize: 0x10 }
  - { offset: 0xCA57, size: 0x8, addend: 0x0, symName: __ZNKSt3__112__hash_tableINS_17__hash_value_typeIciEENS_22__unordered_map_hasherIcS2_NS_4hashIcEENS_8equal_toIcEELb1EEENS_21__unordered_map_equalIcS2_S7_S5_Lb1EEENS_9allocatorIS2_EEE14__count_uniqueIcEEmRKT_, symObjAddr: 0x2170, symBinAddr: 0x100003250, symSize: 0x50 }
  - { offset: 0xCA97, size: 0x8, addend: 0x0, symName: __ZNKSt3__112__hash_tableINS_17__hash_value_typeIciEENS_22__unordered_map_hasherIcS2_NS_4hashIcEENS_8equal_toIcEELb1EEENS_21__unordered_map_equalIcS2_S7_S5_Lb1EEENS_9allocatorIS2_EEE4findIcEENS_21__hash_const_iteratorIPNS_11__hash_nodeIS2_PvEEEERKT_, symObjAddr: 0x21F0, symBinAddr: 0x1000032D0, symSize: 0x190 }
  - { offset: 0xCB21, size: 0x8, addend: 0x0, symName: __ZNKSt3__112__hash_tableINS_17__hash_value_typeIciEENS_22__unordered_map_hasherIcS2_NS_4hashIcEENS_8equal_toIcEELb1EEENS_21__unordered_map_equalIcS2_S7_S5_Lb1EEENS_9allocatorIS2_EEE3endEv, symObjAddr: 0x2380, symBinAddr: 0x100003460, symSize: 0x30 }
  - { offset: 0xCB49, size: 0x8, addend: 0x0, symName: __ZNKSt3__112__hash_tableINS_17__hash_value_typeIciEENS_22__unordered_map_hasherIcS2_NS_4hashIcEENS_8equal_toIcEELb1EEENS_21__unordered_map_equalIcS2_S7_S5_Lb1EEENS_9allocatorIS2_EEE13hash_functionB8ne180100Ev, symObjAddr: 0x23E0, symBinAddr: 0x1000034C0, symSize: 0x20 }
  - { offset: 0xCB6F, size: 0x8, addend: 0x0, symName: __ZNKSt3__122__unordered_map_hasherIcNS_17__hash_value_typeIciEENS_4hashIcEENS_8equal_toIcEELb1EEclB8ne180100ERKc, symObjAddr: 0x2400, symBinAddr: 0x1000034E0, symSize: 0x30 }
  - { offset: 0xCBA4, size: 0x8, addend: 0x0, symName: __ZNKSt3__112__hash_tableINS_17__hash_value_typeIciEENS_22__unordered_map_hasherIcS2_NS_4hashIcEENS_8equal_toIcEELb1EEENS_21__unordered_map_equalIcS2_S7_S5_Lb1EEENS_9allocatorIS2_EEE12bucket_countB8ne180100Ev, symObjAddr: 0x2430, symBinAddr: 0x100003510, symSize: 0x30 }
  - { offset: 0xCBCA, size: 0x8, addend: 0x0, symName: __ZNKSt3__110unique_ptrIA_PNS_16__hash_node_baseIPNS_11__hash_nodeINS_17__hash_value_typeIciEEPvEEEENS_25__bucket_list_deallocatorINS_9allocatorIS9_EEEEEixB8ne180100Em, symObjAddr: 0x24E0, symBinAddr: 0x1000035C0, symSize: 0x30 }
  - { offset: 0xCBFF, size: 0x8, addend: 0x0, symName: __ZNKSt3__116__hash_node_baseIPNS_11__hash_nodeINS_17__hash_value_typeIciEEPvEEE6__hashB8ne180100Ev, symObjAddr: 0x2510, symBinAddr: 0x1000035F0, symSize: 0x20 }
  - { offset: 0xCC25, size: 0x8, addend: 0x0, symName: __ZNKSt3__112__hash_tableINS_17__hash_value_typeIciEENS_22__unordered_map_hasherIcS2_NS_4hashIcEENS_8equal_toIcEELb1EEENS_21__unordered_map_equalIcS2_S7_S5_Lb1EEENS_9allocatorIS2_EEE6key_eqB8ne180100Ev, symObjAddr: 0x2530, symBinAddr: 0x100003610, symSize: 0x20 }
  - { offset: 0xCC4B, size: 0x8, addend: 0x0, symName: __ZNKSt3__121__unordered_map_equalIcNS_17__hash_value_typeIciEENS_8equal_toIcEENS_4hashIcEELb1EEclB8ne180100ERKS2_RKc, symObjAddr: 0x2550, symBinAddr: 0x100003630, symSize: 0x40 }
  - { offset: 0xCC8F, size: 0x8, addend: 0x0, symName: __ZNSt3__121__hash_const_iteratorIPNS_11__hash_nodeINS_17__hash_value_typeIciEEPvEEEC1B8ne180100EPNS_16__hash_node_baseIS6_EE, symObjAddr: 0x2590, symBinAddr: 0x100003670, symSize: 0x30 }
  - { offset: 0xCCC8, size: 0x8, addend: 0x0, symName: __ZNKSt3__117__compressed_pairImNS_22__unordered_map_hasherIcNS_17__hash_value_typeIciEENS_4hashIcEENS_8equal_toIcEELb1EEEE6secondB8ne180100Ev, symObjAddr: 0x25C0, symBinAddr: 0x1000036A0, symSize: 0x20 }
  - { offset: 0xCCEE, size: 0x8, addend: 0x0, symName: __ZNKSt3__122__compressed_pair_elemINS_22__unordered_map_hasherIcNS_17__hash_value_typeIciEENS_4hashIcEENS_8equal_toIcEELb1EEELi1ELb1EE5__getB8ne180100Ev, symObjAddr: 0x25E0, symBinAddr: 0x1000036C0, symSize: 0x10 }
  - { offset: 0xCD14, size: 0x8, addend: 0x0, symName: __ZNKSt3__14hashIcEclB8ne180100Ec, symObjAddr: 0x25F0, symBinAddr: 0x1000036D0, symSize: 0x20 }
  - { offset: 0xCD49, size: 0x8, addend: 0x0, symName: __ZNKSt3__110unique_ptrIA_PNS_16__hash_node_baseIPNS_11__hash_nodeINS_17__hash_value_typeIciEEPvEEEENS_25__bucket_list_deallocatorINS_9allocatorIS9_EEEEE11get_deleterB8ne180100Ev, symObjAddr: 0x2610, symBinAddr: 0x1000036F0, symSize: 0x20 }
  - { offset: 0xCD6F, size: 0x8, addend: 0x0, symName: __ZNKSt3__125__bucket_list_deallocatorINS_9allocatorIPNS_16__hash_node_baseIPNS_11__hash_nodeINS_17__hash_value_typeIciEEPvEEEEEEE4sizeB8ne180100Ev, symObjAddr: 0x2630, symBinAddr: 0x100003710, symSize: 0x20 }
  - { offset: 0xCD95, size: 0x8, addend: 0x0, symName: __ZNKSt3__117__compressed_pairIPPNS_16__hash_node_baseIPNS_11__hash_nodeINS_17__hash_value_typeIciEEPvEEEENS_25__bucket_list_deallocatorINS_9allocatorIS9_EEEEE6secondB8ne180100Ev, symObjAddr: 0x2650, symBinAddr: 0x100003730, symSize: 0x20 }
  - { offset: 0xCDBB, size: 0x8, addend: 0x0, symName: __ZNKSt3__122__compressed_pair_elemINS_25__bucket_list_deallocatorINS_9allocatorIPNS_16__hash_node_baseIPNS_11__hash_nodeINS_17__hash_value_typeIciEEPvEEEEEEEELi1ELb0EE5__getB8ne180100Ev, symObjAddr: 0x2670, symBinAddr: 0x100003750, symSize: 0x10 }
  - { offset: 0xCDE1, size: 0x8, addend: 0x0, symName: __ZNKSt3__117__compressed_pairImNS_9allocatorIPNS_16__hash_node_baseIPNS_11__hash_nodeINS_17__hash_value_typeIciEEPvEEEEEEE5firstB8ne180100Ev, symObjAddr: 0x2680, symBinAddr: 0x100003760, symSize: 0x20 }
  - { offset: 0xCE07, size: 0x8, addend: 0x0, symName: __ZNKSt3__122__compressed_pair_elemImLi0ELb0EE5__getB8ne180100Ev, symObjAddr: 0x26A0, symBinAddr: 0x100003780, symSize: 0x10 }
  - { offset: 0xCE2D, size: 0x8, addend: 0x0, symName: __ZNKSt3__117__compressed_pairIPPNS_16__hash_node_baseIPNS_11__hash_nodeINS_17__hash_value_typeIciEEPvEEEENS_25__bucket_list_deallocatorINS_9allocatorIS9_EEEEE5firstB8ne180100Ev, symObjAddr: 0x26B0, symBinAddr: 0x100003790, symSize: 0x20 }
  - { offset: 0xCE53, size: 0x8, addend: 0x0, symName: __ZNKSt3__122__compressed_pair_elemIPPNS_16__hash_node_baseIPNS_11__hash_nodeINS_17__hash_value_typeIciEEPvEEEELi0ELb0EE5__getB8ne180100Ev, symObjAddr: 0x26D0, symBinAddr: 0x1000037B0, symSize: 0x10 }
  - { offset: 0xCE79, size: 0x8, addend: 0x0, symName: __ZNKSt3__117__compressed_pairIfNS_21__unordered_map_equalIcNS_17__hash_value_typeIciEENS_8equal_toIcEENS_4hashIcEELb1EEEE6secondB8ne180100Ev, symObjAddr: 0x26E0, symBinAddr: 0x1000037C0, symSize: 0x20 }
  - { offset: 0xCE9F, size: 0x8, addend: 0x0, symName: __ZNKSt3__122__compressed_pair_elemINS_21__unordered_map_equalIcNS_17__hash_value_typeIciEENS_8equal_toIcEENS_4hashIcEELb1EEELi1ELb1EE5__getB8ne180100Ev, symObjAddr: 0x2700, symBinAddr: 0x1000037E0, symSize: 0x10 }
  - { offset: 0xCEC5, size: 0x8, addend: 0x0, symName: __ZNKSt3__18equal_toIcEclB8ne180100ERKcS3_, symObjAddr: 0x2710, symBinAddr: 0x1000037F0, symSize: 0x30 }
  - { offset: 0xCF09, size: 0x8, addend: 0x0, symName: __ZNKSt3__117__hash_value_typeIciE11__get_valueB8ne180100Ev, symObjAddr: 0x2740, symBinAddr: 0x100003820, symSize: 0x20 }
  - { offset: 0xCF2F, size: 0x8, addend: 0x0, symName: __ZNSt3__121__hash_const_iteratorIPNS_11__hash_nodeINS_17__hash_value_typeIciEEPvEEEC2B8ne180100EPNS_16__hash_node_baseIS6_EE, symObjAddr: 0x2790, symBinAddr: 0x100003870, symSize: 0x20 }
  - { offset: 0xCF7C, size: 0x8, addend: 0x0, symName: __ZNSt3__112__hash_tableINS_17__hash_value_typeIciEENS_22__unordered_map_hasherIcS2_NS_4hashIcEENS_8equal_toIcEELb1EEENS_21__unordered_map_equalIcS2_S7_S5_Lb1EEENS_9allocatorIS2_EEE25__emplace_unique_key_argsIcJRKNS_21piecewise_construct_tENS_5tupleIJRKcEEENSI_IJEEEEEENS_4pairINS_15__hash_iteratorIPNS_11__hash_nodeIS2_PvEEEEbEERKT_DpOT0_, symObjAddr: 0x27B0, symBinAddr: 0x100003890, symSize: 0x5E0 }
  - { offset: 0xD084, size: 0x8, addend: 0x0, symName: __ZNKSt3__115__hash_iteratorIPNS_11__hash_nodeINS_17__hash_value_typeIciEEPvEEEptB8ne180100Ev, symObjAddr: 0x2DD0, symBinAddr: 0x100003EB0, symSize: 0x30 }
  - { offset: 0xD0AA, size: 0x8, addend: 0x0, symName: __ZNSt3__112__hash_tableINS_17__hash_value_typeIciEENS_22__unordered_map_hasherIcS2_NS_4hashIcEENS_8equal_toIcEELb1EEENS_21__unordered_map_equalIcS2_S7_S5_Lb1EEENS_9allocatorIS2_EEE13hash_functionB8ne180100Ev, symObjAddr: 0x2E00, symBinAddr: 0x100003EE0, symSize: 0x20 }
  - { offset: 0xD0D0, size: 0x8, addend: 0x0, symName: __ZNSt3__112__hash_tableINS_17__hash_value_typeIciEENS_22__unordered_map_hasherIcS2_NS_4hashIcEENS_8equal_toIcEELb1EEENS_21__unordered_map_equalIcS2_S7_S5_Lb1EEENS_9allocatorIS2_EEE6key_eqB8ne180100Ev, symObjAddr: 0x2E20, symBinAddr: 0x100003F00, symSize: 0x20 }
  - { offset: 0xD0F6, size: 0x8, addend: 0x0, symName: __ZNSt3__112__hash_tableINS_17__hash_value_typeIciEENS_22__unordered_map_hasherIcS2_NS_4hashIcEENS_8equal_toIcEELb1EEENS_21__unordered_map_equalIcS2_S7_S5_Lb1EEENS_9allocatorIS2_EEE21__construct_node_hashIRKNS_21piecewise_construct_tEJNS_5tupleIJRKcEEENSI_IJEEEEEENS_10unique_ptrINS_11__hash_nodeIS2_PvEENS_22__hash_node_destructorINSB_ISQ_EEEEEEmOT_DpOT0_, symObjAddr: 0x2E40, symBinAddr: 0x100003F20, symSize: 0x160 }
  - { offset: 0xD192, size: 0x8, addend: 0x0, symName: __ZNSt3__112__hash_tableINS_17__hash_value_typeIciEENS_22__unordered_map_hasherIcS2_NS_4hashIcEENS_8equal_toIcEELb1EEENS_21__unordered_map_equalIcS2_S7_S5_Lb1EEENS_9allocatorIS2_EEE4sizeB8ne180100Ev, symObjAddr: 0x2FA0, symBinAddr: 0x100004080, symSize: 0x20 }
  - { offset: 0xD1B8, size: 0x8, addend: 0x0, symName: __ZNSt3__112__hash_tableINS_17__hash_value_typeIciEENS_22__unordered_map_hasherIcS2_NS_4hashIcEENS_8equal_toIcEELb1EEENS_21__unordered_map_equalIcS2_S7_S5_Lb1EEENS_9allocatorIS2_EEE15max_load_factorB8ne180100Ev, symObjAddr: 0x2FC0, symBinAddr: 0x1000040A0, symSize: 0x20 }
  - { offset: 0xD1DE, size: 0x8, addend: 0x0, symName: __ZNSt3__112__hash_tableINS_17__hash_value_typeIciEENS_22__unordered_map_hasherIcS2_NS_4hashIcEENS_8equal_toIcEELb1EEENS_21__unordered_map_equalIcS2_S7_S5_Lb1EEENS_9allocatorIS2_EEE15__rehash_uniqueB8ne180100Em, symObjAddr: 0x2FE0, symBinAddr: 0x1000040C0, symSize: 0x30 }
  - { offset: 0xD213, size: 0x8, addend: 0x0, symName: __ZNSt3__116__hash_node_baseIPNS_11__hash_nodeINS_17__hash_value_typeIciEEPvEEE5__ptrB8ne180100Ev, symObjAddr: 0x30A0, symBinAddr: 0x100004180, symSize: 0x20 }
  - { offset: 0xD239, size: 0x8, addend: 0x0, symName: __ZNKSt3__110unique_ptrINS_11__hash_nodeINS_17__hash_value_typeIciEEPvEENS_22__hash_node_destructorINS_9allocatorIS5_EEEEEptB8ne180100Ev, symObjAddr: 0x30C0, symBinAddr: 0x1000041A0, symSize: 0x20 }
  - { offset: 0xD25F, size: 0x8, addend: 0x0, symName: __ZNKSt3__110unique_ptrINS_11__hash_nodeINS_17__hash_value_typeIciEEPvEENS_22__hash_node_destructorINS_9allocatorIS5_EEEEE3getB8ne180100Ev, symObjAddr: 0x30E0, symBinAddr: 0x1000041C0, symSize: 0x20 }
  - { offset: 0xD285, size: 0x8, addend: 0x0, symName: __ZNSt3__110unique_ptrINS_11__hash_nodeINS_17__hash_value_typeIciEEPvEENS_22__hash_node_destructorINS_9allocatorIS5_EEEEE7releaseB8ne180100Ev, symObjAddr: 0x3100, symBinAddr: 0x1000041E0, symSize: 0x40 }
  - { offset: 0xD2BA, size: 0x8, addend: 0x0, symName: __ZNSt3__110unique_ptrINS_11__hash_nodeINS_17__hash_value_typeIciEEPvEENS_22__hash_node_destructorINS_9allocatorIS5_EEEEED1B8ne180100Ev, symObjAddr: 0x3140, symBinAddr: 0x100004220, symSize: 0x20 }
  - { offset: 0xD2E4, size: 0x8, addend: 0x0, symName: __ZNSt3__115__hash_iteratorIPNS_11__hash_nodeINS_17__hash_value_typeIciEEPvEEEC1B8ne180100EPNS_16__hash_node_baseIS6_EE, symObjAddr: 0x3160, symBinAddr: 0x100004240, symSize: 0x30 }
  - { offset: 0xD322, size: 0x8, addend: 0x0, symName: __ZNSt3__14pairINS_15__hash_iteratorIPNS_11__hash_nodeINS_17__hash_value_typeIciEEPvEEEEbEC1B8ne180100IS8_RbLi0EEEOT_OT0_, symObjAddr: 0x3190, symBinAddr: 0x100004270, symSize: 0x30 }
  - { offset: 0xD380, size: 0x8, addend: 0x0, symName: __ZNSt3__117__compressed_pairImNS_22__unordered_map_hasherIcNS_17__hash_value_typeIciEENS_4hashIcEENS_8equal_toIcEELb1EEEE6secondB8ne180100Ev, symObjAddr: 0x31C0, symBinAddr: 0x1000042A0, symSize: 0x20 }
  - { offset: 0xD3A6, size: 0x8, addend: 0x0, symName: __ZNSt3__122__compressed_pair_elemINS_22__unordered_map_hasherIcNS_17__hash_value_typeIciEENS_4hashIcEENS_8equal_toIcEELb1EEELi1ELb1EE5__getB8ne180100Ev, symObjAddr: 0x31E0, symBinAddr: 0x1000042C0, symSize: 0x10 }
  - { offset: 0xD3CC, size: 0x8, addend: 0x0, symName: __ZNSt3__117__compressed_pairIfNS_21__unordered_map_equalIcNS_17__hash_value_typeIciEENS_8equal_toIcEENS_4hashIcEELb1EEEE6secondB8ne180100Ev, symObjAddr: 0x31F0, symBinAddr: 0x1000042D0, symSize: 0x20 }
  - { offset: 0xD3F2, size: 0x8, addend: 0x0, symName: __ZNSt3__122__compressed_pair_elemINS_21__unordered_map_equalIcNS_17__hash_value_typeIciEENS_8equal_toIcEENS_4hashIcEELb1EEELi1ELb1EE5__getB8ne180100Ev, symObjAddr: 0x3210, symBinAddr: 0x1000042F0, symSize: 0x10 }
  - { offset: 0xD418, size: 0x8, addend: 0x0, symName: __ZNSt3__116allocator_traitsINS_9allocatorINS_11__hash_nodeINS_17__hash_value_typeIciEEPvEEEEE8allocateB8ne180100ERS7_m, symObjAddr: 0x3220, symBinAddr: 0x100004300, symSize: 0x30 }
  - { offset: 0xD44B, size: 0x8, addend: 0x0, symName: __ZNSt3__122__hash_node_destructorINS_9allocatorINS_11__hash_nodeINS_17__hash_value_typeIciEEPvEEEEEC1B8ne180100ERS7_b, symObjAddr: 0x3250, symBinAddr: 0x100004330, symSize: 0x40 }
  - { offset: 0xD498, size: 0x8, addend: 0x0, symName: __ZNSt3__110unique_ptrINS_11__hash_nodeINS_17__hash_value_typeIciEEPvEENS_22__hash_node_destructorINS_9allocatorIS5_EEEEEC1B8ne180100ILb1EvEEPS5_NS_16__dependent_typeINS_27__unique_ptr_deleter_sfinaeIS9_EEXT_EE20__good_rval_ref_typeE, symObjAddr: 0x3290, symBinAddr: 0x100004370, symSize: 0x30 }
  - { offset: 0xD4E9, size: 0x8, addend: 0x0, symName: __ZNKSt3__110unique_ptrINS_11__hash_nodeINS_17__hash_value_typeIciEEPvEENS_22__hash_node_destructorINS_9allocatorIS5_EEEEEdeB8ne180100Ev, symObjAddr: 0x32F0, symBinAddr: 0x1000043D0, symSize: 0x20 }
  - { offset: 0xD50F, size: 0x8, addend: 0x0, symName: __ZNSt3__116allocator_traitsINS_9allocatorINS_11__hash_nodeINS_17__hash_value_typeIciEEPvEEEEE9constructB8ne180100INS_4pairIKciEEJRKNS_21piecewise_construct_tENS_5tupleIJRSB_EEENSG_IJEEEEvvEEvRS7_PT_DpOT0_, symObjAddr: 0x3310, symBinAddr: 0x1000043F0, symSize: 0x40 }
  - { offset: 0xD58C, size: 0x8, addend: 0x0, symName: __ZNSt3__110unique_ptrINS_11__hash_nodeINS_17__hash_value_typeIciEEPvEENS_22__hash_node_destructorINS_9allocatorIS5_EEEEE11get_deleterB8ne180100Ev, symObjAddr: 0x3350, symBinAddr: 0x100004430, symSize: 0x20 }
  - { offset: 0xD5B2, size: 0x8, addend: 0x0, symName: __ZNSt3__19allocatorINS_11__hash_nodeINS_17__hash_value_typeIciEEPvEEE8allocateB8ne180100Em, symObjAddr: 0x3370, symBinAddr: 0x100004450, symSize: 0x50 }
  - { offset: 0xD5F0, size: 0x8, addend: 0x0, symName: __ZNSt3__116allocator_traitsINS_9allocatorINS_11__hash_nodeINS_17__hash_value_typeIciEEPvEEEEE8max_sizeB8ne180100IS7_vvEEmRKS7_, symObjAddr: 0x33C0, symBinAddr: 0x1000044A0, symSize: 0x30 }
  - { offset: 0xD61C, size: 0x8, addend: 0x0, symName: __ZNSt3__122__hash_node_destructorINS_9allocatorINS_11__hash_nodeINS_17__hash_value_typeIciEEPvEEEEEC2B8ne180100ERS7_b, symObjAddr: 0x34E0, symBinAddr: 0x1000045C0, symSize: 0x30 }
  - { offset: 0xD664, size: 0x8, addend: 0x0, symName: __ZNSt3__110unique_ptrINS_11__hash_nodeINS_17__hash_value_typeIciEEPvEENS_22__hash_node_destructorINS_9allocatorIS5_EEEEEC2B8ne180100ILb1EvEEPS5_NS_16__dependent_typeINS_27__unique_ptr_deleter_sfinaeIS9_EEXT_EE20__good_rval_ref_typeE, symObjAddr: 0x3510, symBinAddr: 0x1000045F0, symSize: 0x40 }
  - { offset: 0xD6B5, size: 0x8, addend: 0x0, symName: __ZNSt3__117__compressed_pairIPNS_11__hash_nodeINS_17__hash_value_typeIciEEPvEENS_22__hash_node_destructorINS_9allocatorIS5_EEEEEC1B8ne180100IRS6_SA_EEOT_OT0_, symObjAddr: 0x3550, symBinAddr: 0x100004630, symSize: 0x30 }
  - { offset: 0xD70D, size: 0x8, addend: 0x0, symName: __ZNSt3__117__compressed_pairIPNS_11__hash_nodeINS_17__hash_value_typeIciEEPvEENS_22__hash_node_destructorINS_9allocatorIS5_EEEEEC2B8ne180100IRS6_SA_EEOT_OT0_, symObjAddr: 0x3580, symBinAddr: 0x100004660, symSize: 0x40 }
  - { offset: 0xD765, size: 0x8, addend: 0x0, symName: __ZNSt3__122__compressed_pair_elemIPNS_11__hash_nodeINS_17__hash_value_typeIciEEPvEELi0ELb0EEC2B8ne180100IRS6_vEEOT_, symObjAddr: 0x35C0, symBinAddr: 0x1000046A0, symSize: 0x20 }
  - { offset: 0xD7A7, size: 0x8, addend: 0x0, symName: __ZNSt3__122__compressed_pair_elemINS_22__hash_node_destructorINS_9allocatorINS_11__hash_nodeINS_17__hash_value_typeIciEEPvEEEEEELi1ELb0EEC2B8ne180100IS9_vEEOT_, symObjAddr: 0x35E0, symBinAddr: 0x1000046C0, symSize: 0x30 }
  - { offset: 0xD7E9, size: 0x8, addend: 0x0, symName: __ZNSt3__111__hash_nodeINS_17__hash_value_typeIciEEPvEC1B8ne180100EPNS_16__hash_node_baseIPS4_EEm, symObjAddr: 0x3650, symBinAddr: 0x100004730, symSize: 0x30 }
  - { offset: 0xD82F, size: 0x8, addend: 0x0, symName: __ZNSt3__111__hash_nodeINS_17__hash_value_typeIciEEPvEC2B8ne180100EPNS_16__hash_node_baseIPS4_EEm, symObjAddr: 0x3680, symBinAddr: 0x100004760, symSize: 0x40 }
  - { offset: 0xD875, size: 0x8, addend: 0x0, symName: __ZNSt3__116__hash_node_baseIPNS_11__hash_nodeINS_17__hash_value_typeIciEEPvEEEC2B8ne180100EPS7_, symObjAddr: 0x36C0, symBinAddr: 0x1000047A0, symSize: 0x20 }
  - { offset: 0xD8AD, size: 0x8, addend: 0x0, symName: __ZNKSt3__117__compressed_pairIPNS_11__hash_nodeINS_17__hash_value_typeIciEEPvEENS_22__hash_node_destructorINS_9allocatorIS5_EEEEE5firstB8ne180100Ev, symObjAddr: 0x36E0, symBinAddr: 0x1000047C0, symSize: 0x20 }
  - { offset: 0xD8D3, size: 0x8, addend: 0x0, symName: __ZNKSt3__122__compressed_pair_elemIPNS_11__hash_nodeINS_17__hash_value_typeIciEEPvEELi0ELb0EE5__getB8ne180100Ev, symObjAddr: 0x3700, symBinAddr: 0x1000047E0, symSize: 0x10 }
  - { offset: 0xD8F9, size: 0x8, addend: 0x0, symName: __ZNSt3__14pairIKciEC1B8ne180100IJRS1_EJEEENS_21piecewise_construct_tENS_5tupleIJDpT_EEENS6_IJDpT0_EEE, symObjAddr: 0x3790, symBinAddr: 0x100004870, symSize: 0x40 }
  - { offset: 0xD960, size: 0x8, addend: 0x0, symName: __ZNSt3__14pairIKciEC1B8ne180100IJRS1_EJEJLm0EEJEEENS_21piecewise_construct_tERNS_5tupleIJDpT_EEERNS6_IJDpT0_EEENS_15__tuple_indicesIJXspT1_EEEENSF_IJXspT2_EEEE, symObjAddr: 0x37D0, symBinAddr: 0x1000048B0, symSize: 0x30 }
  - { offset: 0xD9F0, size: 0x8, addend: 0x0, symName: __ZNSt3__14pairIKciEC2B8ne180100IJRS1_EJEJLm0EEJEEENS_21piecewise_construct_tERNS_5tupleIJDpT_EEERNS6_IJDpT0_EEENS_15__tuple_indicesIJXspT1_EEEENSF_IJXspT2_EEEE, symObjAddr: 0x3800, symBinAddr: 0x1000048E0, symSize: 0x40 }
  - { offset: 0xDA80, size: 0x8, addend: 0x0, symName: __ZNSt3__112__tuple_leafILm0ERKcLb0EE3getB8ne180100Ev, symObjAddr: 0x3860, symBinAddr: 0x100004940, symSize: 0x20 }
  - { offset: 0xDAA6, size: 0x8, addend: 0x0, symName: __ZNSt3__117__compressed_pairIPNS_11__hash_nodeINS_17__hash_value_typeIciEEPvEENS_22__hash_node_destructorINS_9allocatorIS5_EEEEE6secondB8ne180100Ev, symObjAddr: 0x3880, symBinAddr: 0x100004960, symSize: 0x20 }
  - { offset: 0xDACC, size: 0x8, addend: 0x0, symName: __ZNSt3__122__compressed_pair_elemINS_22__hash_node_destructorINS_9allocatorINS_11__hash_nodeINS_17__hash_value_typeIciEEPvEEEEEELi1ELb0EE5__getB8ne180100Ev, symObjAddr: 0x38A0, symBinAddr: 0x100004980, symSize: 0x10 }
  - { offset: 0xDAF2, size: 0x8, addend: 0x0, symName: __ZNSt3__117__compressed_pairImNS_22__unordered_map_hasherIcNS_17__hash_value_typeIciEENS_4hashIcEENS_8equal_toIcEELb1EEEE5firstB8ne180100Ev, symObjAddr: 0x38B0, symBinAddr: 0x100004990, symSize: 0x20 }
  - { offset: 0xDB18, size: 0x8, addend: 0x0, symName: __ZNSt3__117__compressed_pairIfNS_21__unordered_map_equalIcNS_17__hash_value_typeIciEENS_8equal_toIcEENS_4hashIcEELb1EEEE5firstB8ne180100Ev, symObjAddr: 0x38D0, symBinAddr: 0x1000049B0, symSize: 0x20 }
  - { offset: 0xDB3E, size: 0x8, addend: 0x0, symName: __ZNSt3__122__compressed_pair_elemIfLi0ELb0EE5__getB8ne180100Ev, symObjAddr: 0x38F0, symBinAddr: 0x1000049D0, symSize: 0x10 }
  - { offset: 0xDB64, size: 0x8, addend: 0x0, symName: __ZNSt3__112__hash_tableINS_17__hash_value_typeIciEENS_22__unordered_map_hasherIcS2_NS_4hashIcEENS_8equal_toIcEELb1EEENS_21__unordered_map_equalIcS2_S7_S5_Lb1EEENS_9allocatorIS2_EEE8__rehashILb1EEEvm, symObjAddr: 0x3900, symBinAddr: 0x1000049E0, symSize: 0x230 }
  - { offset: 0xDBB4, size: 0x8, addend: 0x0, symName: __ZNSt3__112__hash_tableINS_17__hash_value_typeIciEENS_22__unordered_map_hasherIcS2_NS_4hashIcEENS_8equal_toIcEELb1EEENS_21__unordered_map_equalIcS2_S7_S5_Lb1EEENS_9allocatorIS2_EEE11__do_rehashILb1EEEvm, symObjAddr: 0x3B30, symBinAddr: 0x100004C10, symSize: 0x250 }
  - { offset: 0xDC97, size: 0x8, addend: 0x0, symName: __ZNSt3__110unique_ptrIA_PNS_16__hash_node_baseIPNS_11__hash_nodeINS_17__hash_value_typeIciEEPvEEEENS_25__bucket_list_deallocatorINS_9allocatorIS9_EEEEE11get_deleterB8ne180100Ev, symObjAddr: 0x3DE0, symBinAddr: 0x100004EC0, symSize: 0x20 }
  - { offset: 0xDCBD, size: 0x8, addend: 0x0, symName: __ZNSt3__110unique_ptrIA_PNS_16__hash_node_baseIPNS_11__hash_nodeINS_17__hash_value_typeIciEEPvEEEENS_25__bucket_list_deallocatorINS_9allocatorIS9_EEEEE5resetB8ne180100IPS9_Li0EEEvT_, symObjAddr: 0x3E00, symBinAddr: 0x100004EE0, symSize: 0x70 }
  - { offset: 0xDD10, size: 0x8, addend: 0x0, symName: __ZNSt3__116allocator_traitsINS_9allocatorIPNS_16__hash_node_baseIPNS_11__hash_nodeINS_17__hash_value_typeIciEEPvEEEEEEE8allocateB8ne180100ERSB_m, symObjAddr: 0x3E70, symBinAddr: 0x100004F50, symSize: 0x30 }
  - { offset: 0xDD43, size: 0x8, addend: 0x0, symName: __ZNSt3__19allocatorIPNS_16__hash_node_baseIPNS_11__hash_nodeINS_17__hash_value_typeIciEEPvEEEEE8allocateB8ne180100Em, symObjAddr: 0x3EA0, symBinAddr: 0x100004F80, symSize: 0x50 }
  - { offset: 0xDD81, size: 0x8, addend: 0x0, symName: __ZNSt3__116allocator_traitsINS_9allocatorIPNS_16__hash_node_baseIPNS_11__hash_nodeINS_17__hash_value_typeIciEEPvEEEEEEE8max_sizeB8ne180100ISB_vvEEmRKSB_, symObjAddr: 0x3EF0, symBinAddr: 0x100004FD0, symSize: 0x20 }
  - { offset: 0xDDB7, size: 0x8, addend: 0x0, symName: __ZNKSt3__16__lessIvvEclB8ne180100ImmEEbRKT_RKT0_, symObjAddr: 0x3F80, symBinAddr: 0x100005060, symSize: 0x30 }
  - { offset: 0xDE0B, size: 0x8, addend: 0x0, symName: __ZNSt3__117__compressed_pairIPNS_11__hash_nodeINS_17__hash_value_typeIciEEPvEENS_22__hash_node_destructorINS_9allocatorIS5_EEEEE5firstB8ne180100Ev, symObjAddr: 0x3FB0, symBinAddr: 0x100005090, symSize: 0x20 }
  - { offset: 0xDE31, size: 0x8, addend: 0x0, symName: __ZNSt3__122__compressed_pair_elemIPNS_11__hash_nodeINS_17__hash_value_typeIciEEPvEELi0ELb0EE5__getB8ne180100Ev, symObjAddr: 0x3FD0, symBinAddr: 0x1000050B0, symSize: 0x10 }
  - { offset: 0xDE57, size: 0x8, addend: 0x0, symName: __ZNSt3__110unique_ptrINS_11__hash_nodeINS_17__hash_value_typeIciEEPvEENS_22__hash_node_destructorINS_9allocatorIS5_EEEEED2B8ne180100Ev, symObjAddr: 0x3FE0, symBinAddr: 0x1000050C0, symSize: 0x20 }
  - { offset: 0xDE81, size: 0x8, addend: 0x0, symName: __ZNSt3__110unique_ptrINS_11__hash_nodeINS_17__hash_value_typeIciEEPvEENS_22__hash_node_destructorINS_9allocatorIS5_EEEEE5resetB8ne180100EPS5_, symObjAddr: 0x4000, symBinAddr: 0x1000050E0, symSize: 0x70 }
  - { offset: 0xDEC5, size: 0x8, addend: 0x0, symName: __ZNSt3__122__hash_node_destructorINS_9allocatorINS_11__hash_nodeINS_17__hash_value_typeIciEEPvEEEEEclB8ne180100EPS6_, symObjAddr: 0x4070, symBinAddr: 0x100005150, symSize: 0x90 }
  - { offset: 0xDEFA, size: 0x8, addend: 0x0, symName: __ZNSt3__115__hash_iteratorIPNS_11__hash_nodeINS_17__hash_value_typeIciEEPvEEEC2B8ne180100EPNS_16__hash_node_baseIS6_EE, symObjAddr: 0x4100, symBinAddr: 0x1000051E0, symSize: 0x20 }
  - { offset: 0xDF33, size: 0x8, addend: 0x0, symName: __ZNSt3__14pairINS_15__hash_iteratorIPNS_11__hash_nodeINS_17__hash_value_typeIciEEPvEEEEbEC2B8ne180100IS8_RbLi0EEEOT_OT0_, symObjAddr: 0x4120, symBinAddr: 0x100005200, symSize: 0x30 }
  - { offset: 0xDF91, size: 0x8, addend: 0x0, symName: __ZNSt3__15tupleIJRKcEEC1B8ne180100INS_4_AndELi0EEES2_, symObjAddr: 0x4150, symBinAddr: 0x100005230, symSize: 0x30 }
  - { offset: 0xDFD9, size: 0x8, addend: 0x0, symName: __ZNSt3__15tupleIJRKcEEC2B8ne180100INS_4_AndELi0EEES2_, symObjAddr: 0x4180, symBinAddr: 0x100005260, symSize: 0x30 }
  - { offset: 0xE021, size: 0x8, addend: 0x0, symName: __ZNSt3__112__tuple_implINS_15__tuple_indicesIJLm0EEEEJRKcEEC1B8ne180100IJLm0EEJS4_EJEJEJS4_EEENS1_IJXspT_EEEENS_13__tuple_typesIJDpT0_EEENS1_IJXspT1_EEEENS8_IJDpT2_EEEDpOT3_, symObjAddr: 0x41B0, symBinAddr: 0x100005290, symSize: 0x30 }
  - { offset: 0xE0B6, size: 0x8, addend: 0x0, symName: __ZNSt3__112__tuple_implINS_15__tuple_indicesIJLm0EEEEJRKcEEC2B8ne180100IJLm0EEJS4_EJEJEJS4_EEENS1_IJXspT_EEEENS_13__tuple_typesIJDpT0_EEENS1_IJXspT1_EEEENS8_IJDpT2_EEEDpOT3_, symObjAddr: 0x41E0, symBinAddr: 0x1000052C0, symSize: 0x30 }
  - { offset: 0xE14B, size: 0x8, addend: 0x0, symName: __ZNSt3__112__tuple_leafILm0ERKcLb0EEC2B8ne180100IS2_vEEOT_, symObjAddr: 0x4210, symBinAddr: 0x1000052F0, symSize: 0x20 }
  - { offset: 0xE18E, size: 0x8, addend: 0x0, symName: __ZNSt3__114pointer_traitsIPNS_17__hash_value_typeIciEEE10pointer_toB8ne180100ERS2_, symObjAddr: 0x4230, symBinAddr: 0x100005310, symSize: 0x10 }
  - { offset: 0xE1B1, size: 0x8, addend: 0x0, symName: __ZNSt3__111char_traitsIcE6lengthB8ne180100EPKc, symObjAddr: 0x4430, symBinAddr: 0x100005510, symSize: 0x30 }
  - { offset: 0xE1F2, size: 0x8, addend: 0x0, symName: __ZNKSt3__113basic_ostreamIcNS_11char_traitsIcEEE6sentrycvbB8ne180100Ev, symObjAddr: 0x4460, symBinAddr: 0x100005540, symSize: 0x20 }
  - { offset: 0xE218, size: 0x8, addend: 0x0, symName: __ZNSt3__119ostreambuf_iteratorIcNS_11char_traitsIcEEEC1B8ne180100ERNS_13basic_ostreamIcS2_EE, symObjAddr: 0x46A0, symBinAddr: 0x100005780, symSize: 0x30 }
  - { offset: 0xE250, size: 0x8, addend: 0x0, symName: __ZNKSt3__18ios_base5flagsB8ne180100Ev, symObjAddr: 0x46D0, symBinAddr: 0x1000057B0, symSize: 0x20 }
  - { offset: 0xE278, size: 0x8, addend: 0x0, symName: __ZNKSt3__19basic_iosIcNS_11char_traitsIcEEE4fillB8ne180100Ev, symObjAddr: 0x46F0, symBinAddr: 0x1000057D0, symSize: 0x70 }
  - { offset: 0xE2A0, size: 0x8, addend: 0x0, symName: __ZNKSt3__119ostreambuf_iteratorIcNS_11char_traitsIcEEE6failedB8ne180100Ev, symObjAddr: 0x4760, symBinAddr: 0x100005840, symSize: 0x20 }
  - { offset: 0xE2C6, size: 0x8, addend: 0x0, symName: __ZNSt3__115basic_streambufIcNS_11char_traitsIcEEE5sputnB8ne180100EPKcl, symObjAddr: 0x4780, symBinAddr: 0x100005860, symSize: 0x30 }
  - { offset: 0xE308, size: 0x8, addend: 0x0, symName: __ZNSt3__112basic_stringIcNS_11char_traitsIcEENS_9allocatorIcEEEC1B8ne180100Emc, symObjAddr: 0x47B0, symBinAddr: 0x100005890, symSize: 0x30 }
  - { offset: 0xE350, size: 0x8, addend: 0x0, symName: __ZNSt3__112basic_stringIcNS_11char_traitsIcEENS_9allocatorIcEEE4dataB8ne180100Ev, symObjAddr: 0x47E0, symBinAddr: 0x1000058C0, symSize: 0x30 }
  - { offset: 0xE376, size: 0x8, addend: 0x0, symName: __ZNSt3__112basic_stringIcNS_11char_traitsIcEENS_9allocatorIcEEEC2B8ne180100Emc, symObjAddr: 0x4810, symBinAddr: 0x1000058F0, symSize: 0x50 }
  - { offset: 0xE3BE, size: 0x8, addend: 0x0, symName: __ZNSt3__117__compressed_pairINS_12basic_stringIcNS_11char_traitsIcEENS_9allocatorIcEEE5__repES5_EC1B8ne180100INS_18__default_init_tagESA_EEOT_OT0_, symObjAddr: 0x4860, symBinAddr: 0x100005940, symSize: 0x30 }
  - { offset: 0xE416, size: 0x8, addend: 0x0, symName: __ZNSt3__117__compressed_pairINS_12basic_stringIcNS_11char_traitsIcEENS_9allocatorIcEEE5__repES5_EC2B8ne180100INS_18__default_init_tagESA_EEOT_OT0_, symObjAddr: 0x4890, symBinAddr: 0x100005970, symSize: 0x30 }
  - { offset: 0xE46E, size: 0x8, addend: 0x0, symName: __ZNSt3__122__compressed_pair_elemINS_12basic_stringIcNS_11char_traitsIcEENS_9allocatorIcEEE5__repELi0ELb0EEC2B8ne180100ENS_18__default_init_tagE, symObjAddr: 0x48C0, symBinAddr: 0x1000059A0, symSize: 0x10 }
  - { offset: 0xE4A3, size: 0x8, addend: 0x0, symName: __ZNSt3__119ostreambuf_iteratorIcNS_11char_traitsIcEEEC2B8ne180100ERNS_13basic_ostreamIcS2_EE, symObjAddr: 0x48E0, symBinAddr: 0x1000059C0, symSize: 0x50 }
  - { offset: 0xE4DB, size: 0x8, addend: 0x0, symName: __ZNKSt3__19basic_iosIcNS_11char_traitsIcEEE5widenB8ne180100Ec, symObjAddr: 0x4930, symBinAddr: 0x100005A10, symSize: 0x80 }
  - { offset: 0xE512, size: 0x8, addend: 0x0, symName: __ZNKSt3__15ctypeIcE5widenB8ne180100Ec, symObjAddr: 0x49B0, symBinAddr: 0x100005A90, symSize: 0x30 }
  - { offset: 0xE547, size: 0x8, addend: 0x0, symName: __ZNKSt3__112basic_stringIcNS_11char_traitsIcEENS_9allocatorIcEEE4dataB8ne180100Ev, symObjAddr: 0x4A00, symBinAddr: 0x100005AE0, symSize: 0x30 }
  - { offset: 0xE56D, size: 0x8, addend: 0x0, symName: __ZNKSt3__112basic_stringIcNS_11char_traitsIcEENS_9allocatorIcEEE13__get_pointerB8ne180100Ev, symObjAddr: 0x4A40, symBinAddr: 0x100005B20, symSize: 0x50 }
  - { offset: 0xE593, size: 0x8, addend: 0x0, symName: __ZNKSt3__112basic_stringIcNS_11char_traitsIcEENS_9allocatorIcEEE18__get_long_pointerB8ne180100Ev, symObjAddr: 0x4A90, symBinAddr: 0x100005B70, symSize: 0x20 }
  - { offset: 0xE5B9, size: 0x8, addend: 0x0, symName: __ZNKSt3__112basic_stringIcNS_11char_traitsIcEENS_9allocatorIcEEE19__get_short_pointerB8ne180100Ev, symObjAddr: 0x4AB0, symBinAddr: 0x100005B90, symSize: 0x30 }
  - { offset: 0xE5DF, size: 0x8, addend: 0x0, symName: __ZNSt3__114pointer_traitsIPKcE10pointer_toB8ne180100ERS1_, symObjAddr: 0x4AE0, symBinAddr: 0x100005BC0, symSize: 0xE }
...
